
AVRASM ver. 2.1.30  C:\Users\Ernesto\GIT\glcd_bus\List\disp.asm Sun Aug 17 10:46:45 2014

C:\Users\Ernesto\GIT\glcd_bus\List\disp.asm(1053): warning: Register r4 already defined by the .DEF directive
C:\Users\Ernesto\GIT\glcd_bus\List\disp.asm(1054): warning: Register r3 already defined by the .DEF directive
C:\Users\Ernesto\GIT\glcd_bus\List\disp.asm(1055): warning: Register r6 already defined by the .DEF directive
C:\Users\Ernesto\GIT\glcd_bus\List\disp.asm(1056): warning: Register r5 already defined by the .DEF directive
C:\Users\Ernesto\GIT\glcd_bus\List\disp.asm(1057): warning: Register r8 already defined by the .DEF directive
C:\Users\Ernesto\GIT\glcd_bus\List\disp.asm(1058): warning: Register r7 already defined by the .DEF directive
C:\Users\Ernesto\GIT\glcd_bus\List\disp.asm(1059): warning: Register r10 already defined by the .DEF directive
C:\Users\Ernesto\GIT\glcd_bus\List\disp.asm(1060): warning: Register r9 already defined by the .DEF directive
C:\Users\Ernesto\GIT\glcd_bus\List\disp.asm(1061): warning: Register r12 already defined by the .DEF directive
C:\Users\Ernesto\GIT\glcd_bus\List\disp.asm(1062): warning: Register r11 already defined by the .DEF directive
C:\Users\Ernesto\GIT\glcd_bus\List\disp.asm(1063): warning: Register r14 already defined by the .DEF directive
C:\Users\Ernesto\GIT\glcd_bus\List\disp.asm(1064): warning: Register r13 already defined by the .DEF directive
                 
                 
                 ;CodeVisionAVR C Compiler V2.04.4a Advanced
                 ;(C) Copyright 1998-2009 Pavel Haiduc, HP InfoTech s.r.l.
                 ;http://www.hpinfotech.com
                 
                 ;Chip type                : ATmega324P
                 ;Program type             : Application
                 ;Clock frequency          : 11.059200 MHz
                 ;Memory model             : Small
                 ;Optimize for             : Size
                 ;(s)printf features       : int, width
                 ;(s)scanf features        : int, width
                 ;External RAM size        : 0
                 ;Data Stack size          : 512 byte(s)
                 ;Heap size                : 0 byte(s)
                 ;Promote 'char' to 'int'  : Yes
                 ;'char' is unsigned       : Yes
                 ;8 bit enums              : Yes
                 ;global 'const' stored in FLASH: No
                 ;Enhanced core instructions    : On
                 ;Smart register allocation     : On
                 ;Automatic register allocation : On
                 
                 	#pragma AVRPART ADMIN PART_NAME ATmega324P
                 	#pragma AVRPART MEMORY PROG_FLASH 32768
                 	#pragma AVRPART MEMORY EEPROM 1024
                 	#pragma AVRPART MEMORY INT_SRAM SIZE 2048
                 	#pragma AVRPART MEMORY INT_SRAM START_ADDR 0x100
                 
                 	.LISTMAC
                 	.EQU EERE=0x0
                 	.EQU EEWE=0x1
                 	.EQU EEMWE=0x2
                 	.EQU UDRE=0x5
                 	.EQU RXC=0x7
                 	.EQU EECR=0x1F
                 	.EQU EEDR=0x20
                 	.EQU EEARL=0x21
                 	.EQU EEARH=0x22
                 	.EQU SPSR0=0x2D
                 	.EQU SPDR0=0x2E
                 	.EQU SMCR=0x33
                 	.EQU MCUSR=0x34
                 	.EQU MCUCR=0x35
                 	.EQU WDTCSR=0x60
                 	.EQU UCSR0A=0xC0
                 	.EQU UDR0=0xC6
                 	.EQU SPL=0x3D
                 	.EQU SPH=0x3E
                 	.EQU SREG=0x3F
                 	.EQU GPIOR0=0x1E
                 
                 	.DEF R0X0=R0
                 	.DEF R0X1=R1
                 	.DEF R0X2=R2
                 	.DEF R0X3=R3
                 	.DEF R0X4=R4
                 	.DEF R0X5=R5
                 	.DEF R0X6=R6
                 	.DEF R0X7=R7
                 	.DEF R0X8=R8
                 	.DEF R0X9=R9
                 	.DEF R0XA=R10
                 	.DEF R0XB=R11
                 	.DEF R0XC=R12
                 	.DEF R0XD=R13
                 	.DEF R0XE=R14
                 	.DEF R0XF=R15
                 	.DEF R0X10=R16
                 	.DEF R0X11=R17
                 	.DEF R0X12=R18
                 	.DEF R0X13=R19
                 	.DEF R0X14=R20
                 	.DEF R0X15=R21
                 	.DEF R0X16=R22
                 	.DEF R0X17=R23
                 	.DEF R0X18=R24
                 	.DEF R0X19=R25
                 	.DEF R0X1A=R26
                 	.DEF R0X1B=R27
                 	.DEF R0X1C=R28
                 	.DEF R0X1D=R29
                 	.DEF R0X1E=R30
                 	.DEF R0X1F=R31
                 
                 	.MACRO __CPD1N
                 	CPI  R30,LOW(@0)
                 	LDI  R26,HIGH(@0)
                 	CPC  R31,R26
                 	LDI  R26,BYTE3(@0)
                 	CPC  R22,R26
                 	LDI  R26,BYTE4(@0)
                 	CPC  R23,R26
                 	.ENDM
                 
                 	.MACRO __CPD2N
                 	CPI  R26,LOW(@0)
                 	LDI  R30,HIGH(@0)
                 	CPC  R27,R30
                 	LDI  R30,BYTE3(@0)
                 	CPC  R24,R30
                 	LDI  R30,BYTE4(@0)
                 	CPC  R25,R30
                 	.ENDM
                 
                 	.MACRO __CPWRR
                 	CP   R@0,R@2
                 	CPC  R@1,R@3
                 	.ENDM
                 
                 	.MACRO __CPWRN
                 	CPI  R@0,LOW(@2)
                 	LDI  R30,HIGH(@2)
                 	CPC  R@1,R30
                 	.ENDM
                 
                 	.MACRO __ADDB1MN
                 	SUBI R30,LOW(-@0-(@1))
                 	.ENDM
                 
                 	.MACRO __ADDB2MN
                 	SUBI R26,LOW(-@0-(@1))
                 	.ENDM
                 
                 	.MACRO __ADDW1MN
                 	SUBI R30,LOW(-@0-(@1))
                 	SBCI R31,HIGH(-@0-(@1))
                 	.ENDM
                 
                 	.MACRO __ADDW2MN
                 	SUBI R26,LOW(-@0-(@1))
                 	SBCI R27,HIGH(-@0-(@1))
                 	.ENDM
                 
                 	.MACRO __ADDW1FN
                 	SUBI R30,LOW(-2*@0-(@1))
                 	SBCI R31,HIGH(-2*@0-(@1))
                 	.ENDM
                 
                 	.MACRO __ADDD1FN
                 	SUBI R30,LOW(-2*@0-(@1))
                 	SBCI R31,HIGH(-2*@0-(@1))
                 	SBCI R22,BYTE3(-2*@0-(@1))
                 	.ENDM
                 
                 	.MACRO __ADDD1N
                 	SUBI R30,LOW(-@0)
                 	SBCI R31,HIGH(-@0)
                 	SBCI R22,BYTE3(-@0)
                 	SBCI R23,BYTE4(-@0)
                 	.ENDM
                 
                 	.MACRO __ADDD2N
                 	SUBI R26,LOW(-@0)
                 	SBCI R27,HIGH(-@0)
                 	SBCI R24,BYTE3(-@0)
                 	SBCI R25,BYTE4(-@0)
                 	.ENDM
                 
                 	.MACRO __SUBD1N
                 	SUBI R30,LOW(@0)
                 	SBCI R31,HIGH(@0)
                 	SBCI R22,BYTE3(@0)
                 	SBCI R23,BYTE4(@0)
                 	.ENDM
                 
                 	.MACRO __SUBD2N
                 	SUBI R26,LOW(@0)
                 	SBCI R27,HIGH(@0)
                 	SBCI R24,BYTE3(@0)
                 	SBCI R25,BYTE4(@0)
                 	.ENDM
                 
                 	.MACRO __ANDBMNN
                 	LDS  R30,@0+(@1)
                 	ANDI R30,LOW(@2)
                 	STS  @0+(@1),R30
                 	.ENDM
                 
                 	.MACRO __ANDWMNN
                 	LDS  R30,@0+(@1)
                 	ANDI R30,LOW(@2)
                 	STS  @0+(@1),R30
                 	LDS  R30,@0+(@1)+1
                 	ANDI R30,HIGH(@2)
                 	STS  @0+(@1)+1,R30
                 	.ENDM
                 
                 	.MACRO __ANDD1N
                 	ANDI R30,LOW(@0)
                 	ANDI R31,HIGH(@0)
                 	ANDI R22,BYTE3(@0)
                 	ANDI R23,BYTE4(@0)
                 	.ENDM
                 
                 	.MACRO __ANDD2N
                 	ANDI R26,LOW(@0)
                 	ANDI R27,HIGH(@0)
                 	ANDI R24,BYTE3(@0)
                 	ANDI R25,BYTE4(@0)
                 	.ENDM
                 
                 	.MACRO __ORBMNN
                 	LDS  R30,@0+(@1)
                 	ORI  R30,LOW(@2)
                 	STS  @0+(@1),R30
                 	.ENDM
                 
                 	.MACRO __ORWMNN
                 	LDS  R30,@0+(@1)
                 	ORI  R30,LOW(@2)
                 	STS  @0+(@1),R30
                 	LDS  R30,@0+(@1)+1
                 	ORI  R30,HIGH(@2)
                 	STS  @0+(@1)+1,R30
                 	.ENDM
                 
                 	.MACRO __ORD1N
                 	ORI  R30,LOW(@0)
                 	ORI  R31,HIGH(@0)
                 	ORI  R22,BYTE3(@0)
                 	ORI  R23,BYTE4(@0)
                 	.ENDM
                 
                 	.MACRO __ORD2N
                 	ORI  R26,LOW(@0)
                 	ORI  R27,HIGH(@0)
                 	ORI  R24,BYTE3(@0)
                 	ORI  R25,BYTE4(@0)
                 	.ENDM
                 
                 	.MACRO __DELAY_USB
                 	LDI  R24,LOW(@0)
                 __DELAY_USB_LOOP:
                 	DEC  R24
                 	BRNE __DELAY_USB_LOOP
                 	.ENDM
                 
                 	.MACRO __DELAY_USW
                 	LDI  R24,LOW(@0)
                 	LDI  R25,HIGH(@0)
                 __DELAY_USW_LOOP:
                 	SBIW R24,1
                 	BRNE __DELAY_USW_LOOP
                 	.ENDM
                 
                 	.MACRO __GETD1S
                 	LDD  R30,Y+@0
                 	LDD  R31,Y+@0+1
                 	LDD  R22,Y+@0+2
                 	LDD  R23,Y+@0+3
                 	.ENDM
                 
                 	.MACRO __GETD2S
                 	LDD  R26,Y+@0
                 	LDD  R27,Y+@0+1
                 	LDD  R24,Y+@0+2
                 	LDD  R25,Y+@0+3
                 	.ENDM
                 
                 	.MACRO __PUTD1S
                 	STD  Y+@0,R30
                 	STD  Y+@0+1,R31
                 	STD  Y+@0+2,R22
                 	STD  Y+@0+3,R23
                 	.ENDM
                 
                 	.MACRO __PUTD2S
                 	STD  Y+@0,R26
                 	STD  Y+@0+1,R27
                 	STD  Y+@0+2,R24
                 	STD  Y+@0+3,R25
                 	.ENDM
                 
                 	.MACRO __PUTDZ2
                 	STD  Z+@0,R26
                 	STD  Z+@0+1,R27
                 	STD  Z+@0+2,R24
                 	STD  Z+@0+3,R25
                 	.ENDM
                 
                 	.MACRO __CLRD1S
                 	STD  Y+@0,R30
                 	STD  Y+@0+1,R30
                 	STD  Y+@0+2,R30
                 	STD  Y+@0+3,R30
                 	.ENDM
                 
                 	.MACRO __POINTB1MN
                 	LDI  R30,LOW(@0+(@1))
                 	.ENDM
                 
                 	.MACRO __POINTW1MN
                 	LDI  R30,LOW(@0+(@1))
                 	LDI  R31,HIGH(@0+(@1))
                 	.ENDM
                 
                 	.MACRO __POINTD1M
                 	LDI  R30,LOW(@0)
                 	LDI  R31,HIGH(@0)
                 	LDI  R22,BYTE3(@0)
                 	LDI  R23,BYTE4(@0)
                 	.ENDM
                 
                 	.MACRO __POINTW1FN
                 	LDI  R30,LOW(2*@0+(@1))
                 	LDI  R31,HIGH(2*@0+(@1))
                 	.ENDM
                 
                 	.MACRO __POINTD1FN
                 	LDI  R30,LOW(2*@0+(@1))
                 	LDI  R31,HIGH(2*@0+(@1))
                 	LDI  R22,BYTE3(2*@0+(@1))
                 	LDI  R23,BYTE4(2*@0+(@1))
                 	.ENDM
                 
                 	.MACRO __POINTB2MN
                 	LDI  R26,LOW(@0+(@1))
                 	.ENDM
                 
                 	.MACRO __POINTW2MN
                 	LDI  R26,LOW(@0+(@1))
                 	LDI  R27,HIGH(@0+(@1))
                 	.ENDM
                 
                 	.MACRO __POINTBRM
                 	LDI  R@0,LOW(@1)
                 	.ENDM
                 
                 	.MACRO __POINTWRM
                 	LDI  R@0,LOW(@2)
                 	LDI  R@1,HIGH(@2)
                 	.ENDM
                 
                 	.MACRO __POINTBRMN
                 	LDI  R@0,LOW(@1+(@2))
                 	.ENDM
                 
                 	.MACRO __POINTWRMN
                 	LDI  R@0,LOW(@2+(@3))
                 	LDI  R@1,HIGH(@2+(@3))
                 	.ENDM
                 
                 	.MACRO __POINTWRFN
                 	LDI  R@0,LOW(@2*2+(@3))
                 	LDI  R@1,HIGH(@2*2+(@3))
                 	.ENDM
                 
                 	.MACRO __GETD1N
                 	LDI  R30,LOW(@0)
                 	LDI  R31,HIGH(@0)
                 	LDI  R22,BYTE3(@0)
                 	LDI  R23,BYTE4(@0)
                 	.ENDM
                 
                 	.MACRO __GETD2N
                 	LDI  R26,LOW(@0)
                 	LDI  R27,HIGH(@0)
                 	LDI  R24,BYTE3(@0)
                 	LDI  R25,BYTE4(@0)
                 	.ENDM
                 
                 	.MACRO __GETB1MN
                 	LDS  R30,@0+(@1)
                 	.ENDM
                 
                 	.MACRO __GETB1HMN
                 	LDS  R31,@0+(@1)
                 	.ENDM
                 
                 	.MACRO __GETW1MN
                 	LDS  R30,@0+(@1)
                 	LDS  R31,@0+(@1)+1
                 	.ENDM
                 
                 	.MACRO __GETD1MN
                 	LDS  R30,@0+(@1)
                 	LDS  R31,@0+(@1)+1
                 	LDS  R22,@0+(@1)+2
                 	LDS  R23,@0+(@1)+3
                 	.ENDM
                 
                 	.MACRO __GETBRMN
                 	LDS  R@0,@1+(@2)
                 	.ENDM
                 
                 	.MACRO __GETWRMN
                 	LDS  R@0,@2+(@3)
                 	LDS  R@1,@2+(@3)+1
                 	.ENDM
                 
                 	.MACRO __GETWRZ
                 	LDD  R@0,Z+@2
                 	LDD  R@1,Z+@2+1
                 	.ENDM
                 
                 	.MACRO __GETD2Z
                 	LDD  R26,Z+@0
                 	LDD  R27,Z+@0+1
                 	LDD  R24,Z+@0+2
                 	LDD  R25,Z+@0+3
                 	.ENDM
                 
                 	.MACRO __GETB2MN
                 	LDS  R26,@0+(@1)
                 	.ENDM
                 
                 	.MACRO __GETW2MN
                 	LDS  R26,@0+(@1)
                 	LDS  R27,@0+(@1)+1
                 	.ENDM
                 
                 	.MACRO __GETD2MN
                 	LDS  R26,@0+(@1)
                 	LDS  R27,@0+(@1)+1
                 	LDS  R24,@0+(@1)+2
                 	LDS  R25,@0+(@1)+3
                 	.ENDM
                 
                 	.MACRO __PUTB1MN
                 	STS  @0+(@1),R30
                 	.ENDM
                 
                 	.MACRO __PUTW1MN
                 	STS  @0+(@1),R30
                 	STS  @0+(@1)+1,R31
                 	.ENDM
                 
                 	.MACRO __PUTD1MN
                 	STS  @0+(@1),R30
                 	STS  @0+(@1)+1,R31
                 	STS  @0+(@1)+2,R22
                 	STS  @0+(@1)+3,R23
                 	.ENDM
                 
                 	.MACRO __PUTB1EN
                 	LDI  R26,LOW(@0+(@1))
                 	LDI  R27,HIGH(@0+(@1))
                 	CALL __EEPROMWRB
                 	.ENDM
                 
                 	.MACRO __PUTW1EN
                 	LDI  R26,LOW(@0+(@1))
                 	LDI  R27,HIGH(@0+(@1))
                 	CALL __EEPROMWRW
                 	.ENDM
                 
                 	.MACRO __PUTD1EN
                 	LDI  R26,LOW(@0+(@1))
                 	LDI  R27,HIGH(@0+(@1))
                 	CALL __EEPROMWRD
                 	.ENDM
                 
                 	.MACRO __PUTBR0MN
                 	STS  @0+(@1),R0
                 	.ENDM
                 
                 	.MACRO __PUTBMRN
                 	STS  @0+(@1),R@2
                 	.ENDM
                 
                 	.MACRO __PUTWMRN
                 	STS  @0+(@1),R@2
                 	STS  @0+(@1)+1,R@3
                 	.ENDM
                 
                 	.MACRO __PUTBZR
                 	STD  Z+@1,R@0
                 	.ENDM
                 
                 	.MACRO __PUTWZR
                 	STD  Z+@2,R@0
                 	STD  Z+@2+1,R@1
                 	.ENDM
                 
                 	.MACRO __GETW1R
                 	MOV  R30,R@0
                 	MOV  R31,R@1
                 	.ENDM
                 
                 	.MACRO __GETW2R
                 	MOV  R26,R@0
                 	MOV  R27,R@1
                 	.ENDM
                 
                 	.MACRO __GETWRN
                 	LDI  R@0,LOW(@2)
                 	LDI  R@1,HIGH(@2)
                 	.ENDM
                 
                 	.MACRO __PUTW1R
                 	MOV  R@0,R30
                 	MOV  R@1,R31
                 	.ENDM
                 
                 	.MACRO __PUTW2R
                 	MOV  R@0,R26
                 	MOV  R@1,R27
                 	.ENDM
                 
                 	.MACRO __ADDWRN
                 	SUBI R@0,LOW(-@2)
                 	SBCI R@1,HIGH(-@2)
                 	.ENDM
                 
                 	.MACRO __ADDWRR
                 	ADD  R@0,R@2
                 	ADC  R@1,R@3
                 	.ENDM
                 
                 	.MACRO __SUBWRN
                 	SUBI R@0,LOW(@2)
                 	SBCI R@1,HIGH(@2)
                 	.ENDM
                 
                 	.MACRO __SUBWRR
                 	SUB  R@0,R@2
                 	SBC  R@1,R@3
                 	.ENDM
                 
                 	.MACRO __ANDWRN
                 	ANDI R@0,LOW(@2)
                 	ANDI R@1,HIGH(@2)
                 	.ENDM
                 
                 	.MACRO __ANDWRR
                 	AND  R@0,R@2
                 	AND  R@1,R@3
                 	.ENDM
                 
                 	.MACRO __ORWRN
                 	ORI  R@0,LOW(@2)
                 	ORI  R@1,HIGH(@2)
                 	.ENDM
                 
                 	.MACRO __ORWRR
                 	OR   R@0,R@2
                 	OR   R@1,R@3
                 	.ENDM
                 
                 	.MACRO __EORWRR
                 	EOR  R@0,R@2
                 	EOR  R@1,R@3
                 	.ENDM
                 
                 	.MACRO __GETWRS
                 	LDD  R@0,Y+@2
                 	LDD  R@1,Y+@2+1
                 	.ENDM
                 
                 	.MACRO __PUTBSR
                 	STD  Y+@1,R@0
                 	.ENDM
                 
                 	.MACRO __PUTWSR
                 	STD  Y+@2,R@0
                 	STD  Y+@2+1,R@1
                 	.ENDM
                 
                 	.MACRO __MOVEWRR
                 	MOV  R@0,R@2
                 	MOV  R@1,R@3
                 	.ENDM
                 
                 	.MACRO __INWR
                 	IN   R@0,@2
                 	IN   R@1,@2+1
                 	.ENDM
                 
                 	.MACRO __OUTWR
                 	OUT  @2+1,R@1
                 	OUT  @2,R@0
                 	.ENDM
                 
                 	.MACRO __CALL1MN
                 	LDS  R30,@0+(@1)
                 	LDS  R31,@0+(@1)+1
                 	ICALL
                 	.ENDM
                 
                 	.MACRO __CALL1FN
                 	LDI  R30,LOW(2*@0+(@1))
                 	LDI  R31,HIGH(2*@0+(@1))
                 	CALL __GETW1PF
                 	ICALL
                 	.ENDM
                 
                 	.MACRO __CALL2EN
                 	LDI  R26,LOW(@0+(@1))
                 	LDI  R27,HIGH(@0+(@1))
                 	CALL __EEPROMRDW
                 	ICALL
                 	.ENDM
                 
                 	.MACRO __GETW1STACK
                 	IN   R26,SPL
                 	IN   R27,SPH
                 	ADIW R26,@0+1
                 	LD   R30,X+
                 	LD   R31,X
                 	.ENDM
                 
                 	.MACRO __GETD1STACK
                 	IN   R26,SPL
                 	IN   R27,SPH
                 	ADIW R26,@0+1
                 	LD   R30,X+
                 	LD   R31,X+
                 	LD   R22,X
                 	.ENDM
                 
                 	.MACRO __NBST
                 	BST  R@0,@1
                 	IN   R30,SREG
                 	LDI  R31,0x40
                 	EOR  R30,R31
                 	OUT  SREG,R30
                 	.ENDM
                 
                 
                 	.MACRO __PUTB1SN
                 	LDD  R26,Y+@0
                 	LDD  R27,Y+@0+1
                 	SUBI R26,LOW(-@1)
                 	SBCI R27,HIGH(-@1)
                 	ST   X,R30
                 	.ENDM
                 
                 	.MACRO __PUTW1SN
                 	LDD  R26,Y+@0
                 	LDD  R27,Y+@0+1
                 	SUBI R26,LOW(-@1)
                 	SBCI R27,HIGH(-@1)
                 	ST   X+,R30
                 	ST   X,R31
                 	.ENDM
                 
                 	.MACRO __PUTD1SN
                 	LDD  R26,Y+@0
                 	LDD  R27,Y+@0+1
                 	SUBI R26,LOW(-@1)
                 	SBCI R27,HIGH(-@1)
                 	CALL __PUTDP1
                 	.ENDM
                 
                 	.MACRO __PUTB1SNS
                 	LDD  R26,Y+@0
                 	LDD  R27,Y+@0+1
                 	ADIW R26,@1
                 	ST   X,R30
                 	.ENDM
                 
                 	.MACRO __PUTW1SNS
                 	LDD  R26,Y+@0
                 	LDD  R27,Y+@0+1
                 	ADIW R26,@1
                 	ST   X+,R30
                 	ST   X,R31
                 	.ENDM
                 
                 	.MACRO __PUTD1SNS
                 	LDD  R26,Y+@0
                 	LDD  R27,Y+@0+1
                 	ADIW R26,@1
                 	CALL __PUTDP1
                 	.ENDM
                 
                 	.MACRO __PUTB1PMN
                 	LDS  R26,@0
                 	LDS  R27,@0+1
                 	SUBI R26,LOW(-@1)
                 	SBCI R27,HIGH(-@1)
                 	ST   X,R30
                 	.ENDM
                 
                 	.MACRO __PUTW1PMN
                 	LDS  R26,@0
                 	LDS  R27,@0+1
                 	SUBI R26,LOW(-@1)
                 	SBCI R27,HIGH(-@1)
                 	ST   X+,R30
                 	ST   X,R31
                 	.ENDM
                 
                 	.MACRO __PUTD1PMN
                 	LDS  R26,@0
                 	LDS  R27,@0+1
                 	SUBI R26,LOW(-@1)
                 	SBCI R27,HIGH(-@1)
                 	CALL __PUTDP1
                 	.ENDM
                 
                 	.MACRO __PUTB1PMNS
                 	LDS  R26,@0
                 	LDS  R27,@0+1
                 	ADIW R26,@1
                 	ST   X,R30
                 	.ENDM
                 
                 	.MACRO __PUTW1PMNS
                 	LDS  R26,@0
                 	LDS  R27,@0+1
                 	ADIW R26,@1
                 	ST   X+,R30
                 	ST   X,R31
                 	.ENDM
                 
                 	.MACRO __PUTD1PMNS
                 	LDS  R26,@0
                 	LDS  R27,@0+1
                 	ADIW R26,@1
                 	CALL __PUTDP1
                 	.ENDM
                 
                 	.MACRO __PUTB1RN
                 	MOVW R26,R@0
                 	SUBI R26,LOW(-@1)
                 	SBCI R27,HIGH(-@1)
                 	ST   X,R30
                 	.ENDM
                 
                 	.MACRO __PUTW1RN
                 	MOVW R26,R@0
                 	SUBI R26,LOW(-@1)
                 	SBCI R27,HIGH(-@1)
                 	ST   X+,R30
                 	ST   X,R31
                 	.ENDM
                 
                 	.MACRO __PUTD1RN
                 	MOVW R26,R@0
                 	SUBI R26,LOW(-@1)
                 	SBCI R27,HIGH(-@1)
                 	CALL __PUTDP1
                 	.ENDM
                 
                 	.MACRO __PUTB1RNS
                 	MOVW R26,R@0
                 	ADIW R26,@1
                 	ST   X,R30
                 	.ENDM
                 
                 	.MACRO __PUTW1RNS
                 	MOVW R26,R@0
                 	ADIW R26,@1
                 	ST   X+,R30
                 	ST   X,R31
                 	.ENDM
                 
                 	.MACRO __PUTD1RNS
                 	MOVW R26,R@0
                 	ADIW R26,@1
                 	CALL __PUTDP1
                 	.ENDM
                 
                 	.MACRO __PUTB1RON
                 	MOV  R26,R@0
                 	MOV  R27,R@1
                 	SUBI R26,LOW(-@2)
                 	SBCI R27,HIGH(-@2)
                 	ST   X,R30
                 	.ENDM
                 
                 	.MACRO __PUTW1RON
                 	MOV  R26,R@0
                 	MOV  R27,R@1
                 	SUBI R26,LOW(-@2)
                 	SBCI R27,HIGH(-@2)
                 	ST   X+,R30
                 	ST   X,R31
                 	.ENDM
                 
                 	.MACRO __PUTD1RON
                 	MOV  R26,R@0
                 	MOV  R27,R@1
                 	SUBI R26,LOW(-@2)
                 	SBCI R27,HIGH(-@2)
                 	CALL __PUTDP1
                 	.ENDM
                 
                 	.MACRO __PUTB1RONS
                 	MOV  R26,R@0
                 	MOV  R27,R@1
                 	ADIW R26,@2
                 	ST   X,R30
                 	.ENDM
                 
                 	.MACRO __PUTW1RONS
                 	MOV  R26,R@0
                 	MOV  R27,R@1
                 	ADIW R26,@2
                 	ST   X+,R30
                 	ST   X,R31
                 	.ENDM
                 
                 	.MACRO __PUTD1RONS
                 	MOV  R26,R@0
                 	MOV  R27,R@1
                 	ADIW R26,@2
                 	CALL __PUTDP1
                 	.ENDM
                 
                 
                 	.MACRO __GETB1SX
                 	MOVW R30,R28
                 	SUBI R30,LOW(-@0)
                 	SBCI R31,HIGH(-@0)
                 	LD   R30,Z
                 	.ENDM
                 
                 	.MACRO __GETB1HSX
                 	MOVW R30,R28
                 	SUBI R30,LOW(-@0)
                 	SBCI R31,HIGH(-@0)
                 	LD   R31,Z
                 	.ENDM
                 
                 	.MACRO __GETW1SX
                 	MOVW R30,R28
                 	SUBI R30,LOW(-@0)
                 	SBCI R31,HIGH(-@0)
                 	LD   R0,Z+
                 	LD   R31,Z
                 	MOV  R30,R0
                 	.ENDM
                 
                 	.MACRO __GETD1SX
                 	MOVW R30,R28
                 	SUBI R30,LOW(-@0)
                 	SBCI R31,HIGH(-@0)
                 	LD   R0,Z+
                 	LD   R1,Z+
                 	LD   R22,Z+
                 	LD   R23,Z
                 	MOVW R30,R0
                 	.ENDM
                 
                 	.MACRO __GETB2SX
                 	MOVW R26,R28
                 	SUBI R26,LOW(-@0)
                 	SBCI R27,HIGH(-@0)
                 	LD   R26,X
                 	.ENDM
                 
                 	.MACRO __GETW2SX
                 	MOVW R26,R28
                 	SUBI R26,LOW(-@0)
                 	SBCI R27,HIGH(-@0)
                 	LD   R0,X+
                 	LD   R27,X
                 	MOV  R26,R0
                 	.ENDM
                 
                 	.MACRO __GETD2SX
                 	MOVW R26,R28
                 	SUBI R26,LOW(-@0)
                 	SBCI R27,HIGH(-@0)
                 	LD   R0,X+
                 	LD   R1,X+
                 	LD   R24,X+
                 	LD   R25,X
                 	MOVW R26,R0
                 	.ENDM
                 
                 	.MACRO __GETBRSX
                 	MOVW R30,R28
                 	SUBI R30,LOW(-@1)
                 	SBCI R31,HIGH(-@1)
                 	LD   R@0,Z
                 	.ENDM
                 
                 	.MACRO __GETWRSX
                 	MOVW R30,R28
                 	SUBI R30,LOW(-@2)
                 	SBCI R31,HIGH(-@2)
                 	LD   R@0,Z+
                 	LD   R@1,Z
                 	.ENDM
                 
                 	.MACRO __GETBRSX2
                 	MOVW R26,R28
                 	SUBI R26,LOW(-@1)
                 	SBCI R27,HIGH(-@1)
                 	LD   R@0,X
                 	.ENDM
                 
                 	.MACRO __GETWRSX2
                 	MOVW R26,R28
                 	SUBI R26,LOW(-@2)
                 	SBCI R27,HIGH(-@2)
                 	LD   R@0,X+
                 	LD   R@1,X
                 	.ENDM
                 
                 	.MACRO __LSLW8SX
                 	MOVW R30,R28
                 	SUBI R30,LOW(-@0)
                 	SBCI R31,HIGH(-@0)
                 	LD   R31,Z
                 	CLR  R30
                 	.ENDM
                 
                 	.MACRO __PUTB1SX
                 	MOVW R26,R28
                 	SUBI R26,LOW(-@0)
                 	SBCI R27,HIGH(-@0)
                 	ST   X,R30
                 	.ENDM
                 
                 	.MACRO __PUTW1SX
                 	MOVW R26,R28
                 	SUBI R26,LOW(-@0)
                 	SBCI R27,HIGH(-@0)
                 	ST   X+,R30
                 	ST   X,R31
                 	.ENDM
                 
                 	.MACRO __PUTD1SX
                 	MOVW R26,R28
                 	SUBI R26,LOW(-@0)
                 	SBCI R27,HIGH(-@0)
                 	ST   X+,R30
                 	ST   X+,R31
                 	ST   X+,R22
                 	ST   X,R23
                 	.ENDM
                 
                 	.MACRO __CLRW1SX
                 	MOVW R26,R28
                 	SUBI R26,LOW(-@0)
                 	SBCI R27,HIGH(-@0)
                 	ST   X+,R30
                 	ST   X,R30
                 	.ENDM
                 
                 	.MACRO __CLRD1SX
                 	MOVW R26,R28
                 	SUBI R26,LOW(-@0)
                 	SBCI R27,HIGH(-@0)
                 	ST   X+,R30
                 	ST   X+,R30
                 	ST   X+,R30
                 	ST   X,R30
                 	.ENDM
                 
                 	.MACRO __PUTB2SX
                 	MOVW R30,R28
                 	SUBI R30,LOW(-@0)
                 	SBCI R31,HIGH(-@0)
                 	ST   Z,R26
                 	.ENDM
                 
                 	.MACRO __PUTW2SX
                 	MOVW R30,R28
                 	SUBI R30,LOW(-@0)
                 	SBCI R31,HIGH(-@0)
                 	ST   Z+,R26
                 	ST   Z,R27
                 	.ENDM
                 
                 	.MACRO __PUTD2SX
                 	MOVW R30,R28
                 	SUBI R30,LOW(-@0)
                 	SBCI R31,HIGH(-@0)
                 	ST   Z+,R26
                 	ST   Z+,R27
                 	ST   Z+,R24
                 	ST   Z,R25
                 	.ENDM
                 
                 	.MACRO __PUTBSRX
                 	MOVW R30,R28
                 	SUBI R30,LOW(-@1)
                 	SBCI R31,HIGH(-@1)
                 	ST   Z,R@0
                 	.ENDM
                 
                 	.MACRO __PUTWSRX
                 	MOVW R30,R28
                 	SUBI R30,LOW(-@2)
                 	SBCI R31,HIGH(-@2)
                 	ST   Z+,R@0
                 	ST   Z,R@1
                 	.ENDM
                 
                 	.MACRO __PUTB1SNX
                 	MOVW R26,R28
                 	SUBI R26,LOW(-@0)
                 	SBCI R27,HIGH(-@0)
                 	LD   R0,X+
                 	LD   R27,X
                 	MOV  R26,R0
                 	SUBI R26,LOW(-@1)
                 	SBCI R27,HIGH(-@1)
                 	ST   X,R30
                 	.ENDM
                 
                 	.MACRO __PUTW1SNX
                 	MOVW R26,R28
                 	SUBI R26,LOW(-@0)
                 	SBCI R27,HIGH(-@0)
                 	LD   R0,X+
                 	LD   R27,X
                 	MOV  R26,R0
                 	SUBI R26,LOW(-@1)
                 	SBCI R27,HIGH(-@1)
                 	ST   X+,R30
                 	ST   X,R31
                 	.ENDM
                 
                 	.MACRO __PUTD1SNX
                 	MOVW R26,R28
                 	SUBI R26,LOW(-@0)
                 	SBCI R27,HIGH(-@0)
                 	LD   R0,X+
                 	LD   R27,X
                 	MOV  R26,R0
                 	SUBI R26,LOW(-@1)
                 	SBCI R27,HIGH(-@1)
                 	ST   X+,R30
                 	ST   X+,R31
                 	ST   X+,R22
                 	ST   X,R23
                 	.ENDM
                 
                 	.MACRO __MULBRR
                 	MULS R@0,R@1
                 	MOVW R30,R0
                 	.ENDM
                 
                 	.MACRO __MULBRRU
                 	MUL  R@0,R@1
                 	MOVW R30,R0
                 	.ENDM
                 
                 	.MACRO __MULBRR0
                 	MULS R@0,R@1
                 	.ENDM
                 
                 	.MACRO __MULBRRU0
                 	MUL  R@0,R@1
                 	.ENDM
                 
                 	.MACRO __MULBNWRU
                 	LDI  R26,@2
                 	MUL  R26,R@0
                 	MOVW R30,R0
                 	MUL  R26,R@1
                 	ADD  R31,R0
                 	.ENDM
                 
                 ;NAME DEFINITIONS FOR GLOBAL VARIABLES ALLOCATED TO REGISTERS
                 	.DEF _rx_wr_index0=R4
                 	.DEF _rx_rd_index0=R3
                 	.DEF _rx_counter0=R6
                 	.DEF _ruta_aux=R5
                 	.DEF _ruta=R8
                 	.DEF _bandera1=R7
                 	.DEF _bandera2=R10
                 	.DEF _bandera3=R9
                 	.DEF _bandera4=R12
                 	.DEF _aceptar=R11
                 	.DEF _btn1=R14
                 	.DEF _btn2=R13
                 
                 	.CSEG
                 	.ORG 0x00
                 
                 ;INTERRUPT VECTORS
000000 940c 177f 	JMP  __RESET
000002 940c 0000 	JMP  0x00
000004 940c 0000 	JMP  0x00
000006 940c 0000 	JMP  0x00
000008 940c 0000 	JMP  0x00
00000a 940c 0000 	JMP  0x00
00000c 940c 0000 	JMP  0x00
00000e 940c 0000 	JMP  0x00
000010 940c 0000 	JMP  0x00
000012 940c 0000 	JMP  0x00
000014 940c 0000 	JMP  0x00
000016 940c 0000 	JMP  0x00
000018 940c 0000 	JMP  0x00
00001a 940c 0000 	JMP  0x00
00001c 940c 0000 	JMP  0x00
00001e 940c 0000 	JMP  0x00
000020 940c 0000 	JMP  0x00
000022 940c 0000 	JMP  0x00
000024 940c 1aa5 	JMP  _timer0_ovf_isr
000026 940c 0000 	JMP  0x00
000028 940c 1a7a 	JMP  _usart0_rx_isr
00002a 940c 0000 	JMP  0x00
00002c 940c 0000 	JMP  0x00
00002e 940c 0000 	JMP  0x00
000030 940c 0000 	JMP  0x00
000032 940c 0000 	JMP  0x00
000034 940c 0000 	JMP  0x00
000036 940c 0000 	JMP  0x00
000038 940c 0000 	JMP  0x00
00003a 940c 0000 	JMP  0x00
00003c 940c 0000 	JMP  0x00
                 
                 _font:
00003e 0000
00003f 0000
000040 0000
000041 0000      	.DB  0x0,0x0,0x0,0x0,0x0,0x0,0x0,0x0
000042 0000
000043 0000
000044 0000
000045 0000      	.DB  0x0,0x0,0x0,0x0,0x0,0x0,0x0,0x0
000046 0000
000047 0000
000048 0000
000049 0000      	.DB  0x0,0x0,0x0,0x0,0x0,0x0,0x0,0x0
00004a 0000
00004b 0000
00004c 0000
00004d 0000      	.DB  0x0,0x0,0x0,0x0,0x0,0x0,0x0,0x0
00004e 0000
00004f 0000
000050 0000
000051 0000      	.DB  0x0,0x0,0x0,0x0,0x0,0x0,0x0,0x0
000052 0000
000053 0000
000054 0000
000055 0000      	.DB  0x0,0x0,0x0,0x0,0x0,0x0,0x0,0x0
000056 0000
000057 0000
000058 0000
000059 0000      	.DB  0x0,0x0,0x0,0x0,0x0,0x0,0x0,0x0
00005a 0000
00005b 0000
00005c 0000
00005d 0000      	.DB  0x0,0x0,0x0,0x0,0x0,0x0,0x0,0x0
00005e 0000
00005f 0000
000060 0000
000061 0000      	.DB  0x0,0x0,0x0,0x0,0x0,0x0,0x0,0x0
000062 0000
000063 0000
000064 0000
000065 0000      	.DB  0x0,0x0,0x0,0x0,0x0,0x0,0x0,0x0
000066 0000
000067 0000
000068 0000
000069 0000      	.DB  0x0,0x0,0x0,0x0,0x0,0x0,0x0,0x0
00006a 0000
00006b 0000
00006c 0000
00006d 0000      	.DB  0x0,0x0,0x0,0x0,0x0,0x0,0x0,0x0
00006e 0000
00006f 0000
000070 0000
000071 0000      	.DB  0x0,0x0,0x0,0x0,0x0,0x0,0x0,0x0
000072 0000
000073 0000
000074 0000
000075 0000      	.DB  0x0,0x0,0x0,0x0,0x0,0x0,0x0,0x0
000076 0000
000077 0000
000078 0000
000079 0000      	.DB  0x0,0x0,0x0,0x0,0x0,0x0,0x0,0x0
00007a 0000
00007b 0000
00007c 0000
00007d 0000      	.DB  0x0,0x0,0x0,0x0,0x0,0x0,0x0,0x0
00007e 0000
00007f 0000
000080 0000
000081 0000      	.DB  0x0,0x0,0x0,0x0,0x0,0x0,0x0,0x0
000082 0000
000083 0000
000084 0000
000085 0000      	.DB  0x0,0x0,0x0,0x0,0x0,0x0,0x0,0x0
000086 0000
000087 0000
000088 0000
000089 0000      	.DB  0x0,0x0,0x0,0x0,0x0,0x0,0x0,0x0
00008a 0000
00008b 0000
00008c 0000
00008d 0000      	.DB  0x0,0x0,0x0,0x0,0x0,0x0,0x0,0x0
00008e 0000
00008f 0000
000090 0000
000091 0000      	.DB  0x0,0x0,0x0,0x0,0x0,0x0,0x0,0x0
000092 0000
000093 0000
000094 0000
000095 0000      	.DB  0x0,0x0,0x0,0x0,0x0,0x0,0x0,0x0
000096 0000
000097 0000
000098 0000
000099 0000      	.DB  0x0,0x0,0x0,0x0,0x0,0x0,0x0,0x0
00009a 0000
00009b 0000
00009c 0000
00009d 0000      	.DB  0x0,0x0,0x0,0x0,0x0,0x0,0x0,0x0
00009e 0000
00009f 0000
0000a0 0000
0000a1 0000      	.DB  0x0,0x0,0x0,0x0,0x0,0x0,0x0,0x0
0000a2 0000
0000a3 0000
0000a4 0000
0000a5 0000      	.DB  0x0,0x0,0x0,0x0,0x0,0x0,0x0,0x0
0000a6 0000
0000a7 0000
0000a8 0000
0000a9 0000      	.DB  0x0,0x0,0x0,0x0,0x0,0x0,0x0,0x0
0000aa 0000
0000ab 0000
0000ac 0000
0000ad 0000      	.DB  0x0,0x0,0x0,0x0,0x0,0x0,0x0,0x0
0000ae 0000
0000af 0000
0000b0 0000
0000b1 0000      	.DB  0x0,0x0,0x0,0x0,0x0,0x0,0x0,0x0
0000b2 0000
0000b3 0000
0000b4 0000
0000b5 0000      	.DB  0x0,0x0,0x0,0x0,0x0,0x0,0x0,0x0
0000b6 0000
0000b7 0000
0000b8 0000
0000b9 0000      	.DB  0x0,0x0,0x0,0x0,0x0,0x0,0x0,0x0
0000ba 0000
0000bb 0000
0000bc 0000
0000bd 0000      	.DB  0x0,0x0,0x0,0x0,0x0,0x0,0x0,0x0
0000be 0000
0000bf 0000
0000c0 0000
0000c1 0000      	.DB  0x0,0x0,0x0,0x0,0x0,0x0,0x0,0x0
0000c2 0000
0000c3 004f
0000c4 0000
0000c5 0000      	.DB  0x0,0x0,0x4F,0x0,0x0,0x0,0x0,0x0
0000c6 0700
0000c7 0700
0000c8 0000
0000c9 0000      	.DB  0x0,0x7,0x0,0x7,0x0,0x0,0x0,0x0
0000ca 2400
0000cb 24ff
0000cc 24ff
0000cd 0000      	.DB  0x0,0x24,0xFF,0x24,0xFF,0x24,0x0,0x0
0000ce 4400
0000cf ff4a
0000d0 324a
0000d1 0000      	.DB  0x0,0x44,0x4A,0xFF,0x4A,0x32,0x0,0x0
0000d2 2340
0000d3 0813
0000d4 c2c4
0000d5 0000      	.DB  0x40,0x23,0x13,0x8,0xC4,0xC2,0x0,0x0
0000d6 3600
0000d7 5549
0000d8 4022
0000d9 0080      	.DB  0x0,0x36,0x49,0x55,0x22,0x40,0x80,0x0
0000da 0000
0000db 0305
0000dc 0000
0000dd 0000      	.DB  0x0,0x0,0x5,0x3,0x0,0x0,0x0,0x0
0000de 3c00
0000df 8142
0000e0 0000
0000e1 0000      	.DB  0x0,0x3C,0x42,0x81,0x0,0x0,0x0,0x0
0000e2 8100
0000e3 3c42
0000e4 0000
0000e5 0000      	.DB  0x0,0x81,0x42,0x3C,0x0,0x0,0x0,0x0
0000e6 1400
0000e7 3e08
0000e8 1408
0000e9 0000      	.DB  0x0,0x14,0x8,0x3E,0x8,0x14,0x0,0x0
0000ea 1000
0000eb 7c10
0000ec 1010
0000ed 0000      	.DB  0x0,0x10,0x10,0x7C,0x10,0x10,0x0,0x0
0000ee 0000
0000ef 1828
0000f0 0000
0000f1 0000      	.DB  0x0,0x0,0x28,0x18,0x0,0x0,0x0,0x0
0000f2 0800
0000f3 0808
0000f4 0808
0000f5 0008      	.DB  0x0,0x8,0x8,0x8,0x8,0x8,0x8,0x0
0000f6 6000
0000f7 0060
0000f8 0000
0000f9 0000      	.DB  0x0,0x60,0x60,0x0,0x0,0x0,0x0,0x0
0000fa 2040
0000fb 0810
0000fc 0204
0000fd 0000      	.DB  0x40,0x20,0x10,0x8,0x4,0x2,0x0,0x0
0000fe 7e00
0000ff 81ff
000100 ff81
000101 007e      	.DB  0x0,0x7E,0xFF,0x81,0x81,0xFF,0x7E,0x0
000102 8000
000103 fe82
000104 80ff
000105 0080      	.DB  0x0,0x80,0x82,0xFE,0xFF,0x80,0x80,0x0
000106 e200
000107 91f1
000108 9f91
000109 008e      	.DB  0x0,0xE2,0xF1,0x91,0x91,0x9F,0x8E,0x0
00010a 6200
00010b c9c3
00010c ffc9
00010d 0076      	.DB  0x0,0x62,0xC3,0xC9,0xC9,0xFF,0x76,0x0
00010e 1800
00010f 1214
000110 ffff
000111 0010      	.DB  0x0,0x18,0x14,0x12,0xFF,0xFF,0x10,0x0
000112 6f00
000113 898f
000114 f989
000115 0071      	.DB  0x0,0x6F,0x8F,0x89,0x89,0xF9,0x71,0x0
000116 7e00
000117 89ff
000118 f989
000119 0072      	.DB  0x0,0x7E,0xFF,0x89,0x89,0xF9,0x72,0x0
00011a 0100
00011b f101
00011c 07fd
00011d 0003      	.DB  0x0,0x1,0x1,0xF1,0xFD,0x7,0x3,0x0
00011e 7600
00011f 89ff
000120 ff89
000121 0076      	.DB  0x0,0x76,0xFF,0x89,0x89,0xFF,0x76,0x0
000122 4600
000123 898f
000124 ff89
000125 007e      	.DB  0x0,0x46,0x8F,0x89,0x89,0xFF,0x7E,0x0
000126 0000
000127 6666
000128 0000
000129 0000      	.DB  0x0,0x0,0x66,0x66,0x0,0x0,0x0,0x0
00012a 0000
00012b 3656
00012c 0000
00012d 0000      	.DB  0x0,0x0,0x56,0x36,0x0,0x0,0x0,0x0
00012e 0800
00012f 2214
000130 0041
000131 0000      	.DB  0x0,0x8,0x14,0x22,0x41,0x0,0x0,0x0
000132 2400
000133 2424
000134 2424
000135 0000      	.DB  0x0,0x24,0x24,0x24,0x24,0x24,0x0,0x0
000136 0000
000137 2241
000138 0814
000139 0000      	.DB  0x0,0x0,0x41,0x22,0x14,0x8,0x0,0x0
00013a 0200
00013b b101
00013c 0609
00013d 0000      	.DB  0x0,0x2,0x1,0xB1,0x9,0x6,0x0,0x0
00013e 6200
00013f f191
000140 7e81
000141 0000      	.DB  0x0,0x62,0x91,0xF1,0x81,0x7E,0x0,0x0
000142 fe00
000143 1111
000144 fe11
000145 0000      	.DB  0x0,0xFE,0x11,0x11,0x11,0xFE,0x0,0x0
000146 ff00
000147 8989
000148 7689
000149 0000      	.DB  0x0,0xFF,0x89,0x89,0x89,0x76,0x0,0x0
00014a 7e00
00014b 8181
00014c 4281
00014d 0000      	.DB  0x0,0x7E,0x81,0x81,0x81,0x42,0x0,0x0
00014e ff00
00014f 8181
000150 3c42
000151 0000      	.DB  0x0,0xFF,0x81,0x81,0x42,0x3C,0x0,0x0
000152 ff00
000153 8989
000154 8189
000155 0000      	.DB  0x0,0xFF,0x89,0x89,0x89,0x81,0x0,0x0
000156 ff00
000157 0909
000158 0109
000159 0000      	.DB  0x0,0xFF,0x9,0x9,0x9,0x1,0x0,0x0
00015a 7e00
00015b 9181
00015c 7291
00015d 0000      	.DB  0x0,0x7E,0x81,0x91,0x91,0x72,0x0,0x0
00015e ff00
00015f 1010
000160 ff10
000161 0000      	.DB  0x0,0xFF,0x10,0x10,0x10,0xFF,0x0,0x0
000162 0000
000163 ff81
000164 0081
000165 0000      	.DB  0x0,0x0,0x81,0xFF,0x81,0x0,0x0,0x0
000166 4000
000167 8180
000168 017f
000169 0000      	.DB  0x0,0x40,0x80,0x81,0x7F,0x1,0x0,0x0
00016a ff00
00016b 2418
00016c 8142
00016d 0000      	.DB  0x0,0xFF,0x18,0x24,0x42,0x81,0x0,0x0
00016e ff00
00016f 8080
000170 8080
000171 0000      	.DB  0x0,0xFF,0x80,0x80,0x80,0x80,0x0,0x0
000172 ff00
000173 0c02
000174 ff02
000175 0000      	.DB  0x0,0xFF,0x2,0xC,0x2,0xFF,0x0,0x0
000176 ff00
000177 0804
000178 ff10
000179 0000      	.DB  0x0,0xFF,0x4,0x8,0x10,0xFF,0x0,0x0
00017a 7e00
00017b 8181
00017c 7e81
00017d 0000      	.DB  0x0,0x7E,0x81,0x81,0x81,0x7E,0x0,0x0
00017e ff00
00017f 1111
000180 0e11
000181 0000      	.DB  0x0,0xFF,0x11,0x11,0x11,0xE,0x0,0x0
000182 817e
000183 41a1
000184 00be
000185 0000      	.DB  0x7E,0x81,0xA1,0x41,0xBE,0x0,0x0,0x0
000186 ff00
000187 3111
000188 8e51
000189 0000      	.DB  0x0,0xFF,0x11,0x31,0x51,0x8E,0x0,0x0
00018a 8600
00018b 8989
00018c 7189
00018d 0000      	.DB  0x0,0x86,0x89,0x89,0x89,0x71,0x0,0x0
00018e 0100
00018f ff01
000190 0101
000191 0000      	.DB  0x0,0x1,0x1,0xFF,0x1,0x1,0x0,0x0
000192 7f00
000193 8080
000194 7f80
000195 0000      	.DB  0x0,0x7F,0x80,0x80,0x80,0x7F,0x0,0x0
000196 3f00
000197 8040
000198 3f40
000199 0000      	.DB  0x0,0x3F,0x40,0x80,0x40,0x3F,0x0,0x0
00019a 3f00
00019b 60c0
00019c 3fc0
00019d 0000      	.DB  0x0,0x3F,0xC0,0x60,0xC0,0x3F,0x0,0x0
00019e e300
00019f 0814
0001a0 e314
0001a1 0000      	.DB  0x0,0xE3,0x14,0x8,0x14,0xE3,0x0,0x0
0001a2 0700
0001a3 f008
0001a4 0708
0001a5 0000      	.DB  0x0,0x7,0x8,0xF0,0x8,0x7,0x0,0x0
0001a6 c100
0001a7 91a1
0001a8 8789
0001a9 0000      	.DB  0x0,0xC1,0xA1,0x91,0x89,0x87,0x0,0x0
0001aa ff00
0001ab 8181
0001ac 0000
0001ad 0000      	.DB  0x0,0xFF,0x81,0x81,0x0,0x0,0x0,0x0
0001ae 1500
0001af 7c16
0001b0 1516
0001b1 0000      	.DB  0x0,0x15,0x16,0x7C,0x16,0x15,0x0,0x0
0001b2 4100
0001b3 7f41
0001b4 0000
0001b5 0000      	.DB  0x0,0x41,0x41,0x7F,0x0,0x0,0x0,0x0
0001b6 0400
0001b7 0102
0001b8 0402
0001b9 0000      	.DB  0x0,0x4,0x2,0x1,0x2,0x4,0x0,0x0
0001ba 4000
0001bb 4040
0001bc 4040
0001bd 0000      	.DB  0x0,0x40,0x40,0x40,0x40,0x40,0x0,0x0
0001be 0100
0001bf 0402
0001c0 0000
0001c1 0000      	.DB  0x0,0x1,0x2,0x4,0x0,0x0,0x0,0x0
0001c2 6000
0001c3 9494
0001c4 7894
0001c5 0000      	.DB  0x0,0x60,0x94,0x94,0x94,0x78,0x0,0x0
0001c6 ff00
0001c7 8888
0001c8 7088
0001c9 0000      	.DB  0x0,0xFF,0x88,0x88,0x88,0x70,0x0,0x0
0001ca 7800
0001cb 8484
0001cc 0084
0001cd 0000      	.DB  0x0,0x78,0x84,0x84,0x84,0x0,0x0,0x0
0001ce 7800
0001cf 8484
0001d0 7f88
0001d1 0000      	.DB  0x0,0x78,0x84,0x84,0x88,0x7F,0x0,0x0
0001d2 7800
0001d3 9494
0001d4 5894
0001d5 0000      	.DB  0x0,0x78,0x94,0x94,0x94,0x58,0x0,0x0
0001d6 1000
0001d7 11fe
0001d8 0201
0001d9 0000      	.DB  0x0,0x10,0xFE,0x11,0x1,0x2,0x0,0x0
0001da 0c00
0001db 9292
0001dc 7e92
0001dd 0000      	.DB  0x0,0xC,0x92,0x92,0x92,0x7E,0x0,0x0
0001de ff00
0001df 0810
0001e0 f008
0001e1 0000      	.DB  0x0,0xFF,0x10,0x8,0x8,0xF0,0x0,0x0
0001e2 0000
0001e3 fd84
0001e4 0080
0001e5 0000      	.DB  0x0,0x0,0x84,0xFD,0x80,0x0,0x0,0x0
0001e6 6000
0001e7 8080
0001e8 007d
0001e9 0000      	.DB  0x0,0x60,0x80,0x80,0x7D,0x0,0x0,0x0
0001ea ff00
0001eb 4830
0001ec 0084
0001ed 0000      	.DB  0x0,0xFF,0x30,0x48,0x84,0x0,0x0,0x0
0001ee 0000
0001ef ff81
0001f0 0080
0001f1 0000      	.DB  0x0,0x0,0x81,0xFF,0x80,0x0,0x0,0x0
0001f2 fc00
0001f3 3804
0001f4 f804
0001f5 0000      	.DB  0x0,0xFC,0x4,0x38,0x4,0xF8,0x0,0x0
0001f6 fc00
0001f7 0408
0001f8 f804
0001f9 0000      	.DB  0x0,0xFC,0x8,0x4,0x4,0xF8,0x0,0x0
0001fa 7800
0001fb 8484
0001fc 7884
0001fd 0000      	.DB  0x0,0x78,0x84,0x84,0x84,0x78,0x0,0x0
0001fe fc00
0001ff 1414
000200 0814
000201 0000      	.DB  0x0,0xFC,0x14,0x14,0x14,0x8,0x0,0x0
000202 0800
000203 1414
000204 fc18
000205 0000      	.DB  0x0,0x8,0x14,0x14,0x18,0xFC,0x0,0x0
000206 fc00
000207 0408
000208 0804
000209 0000      	.DB  0x0,0xFC,0x8,0x4,0x4,0x8,0x0,0x0
00020a 8800
00020b 9494
00020c 6094
00020d 0000      	.DB  0x0,0x88,0x94,0x94,0x94,0x60,0x0,0x0
00020e 0400
00020f 847f
000210 4080
000211 0000      	.DB  0x0,0x4,0x7F,0x84,0x80,0x40,0x0,0x0
000212 7c00
000213 8080
000214 fc40
000215 0000      	.DB  0x0,0x7C,0x80,0x80,0x40,0xFC,0x0,0x0
000216 3c00
000217 8040
000218 3c40
000219 0000      	.DB  0x0,0x3C,0x40,0x80,0x40,0x3C,0x0,0x0
00021a 3e00
00021b 60c0
00021c 3ec0
00021d 0000      	.DB  0x0,0x3E,0xC0,0x60,0xC0,0x3E,0x0,0x0
00021e 4200
00021f 1824
000220 4224
000221 0000      	.DB  0x0,0x42,0x24,0x18,0x24,0x42,0x0,0x0
000222 0600
000223 8888
000224 7e88
000225 0000      	.DB  0x0,0x6,0x88,0x88,0x88,0x7E,0x0,0x0
000226 c400
000227 94a4
000228 848c
000229 0000      	.DB  0x0,0xC4,0xA4,0x94,0x8C,0x84,0x0,0x0
00022a 0800
00022b 8176
00022c 0000
00022d 0000      	.DB  0x0,0x8,0x76,0x81,0x0,0x0,0x0,0x0
00022e 0000
00022f ff00
000230 0000
000231 0000      	.DB  0x0,0x0,0x0,0xFF,0x0,0x0,0x0,0x0
000232 8100
000233 0876
000234 0000
000235 0000      	.DB  0x0,0x81,0x76,0x8,0x0,0x0,0x0,0x0
000236 0800
000237 2a08
000238 081c
000239 0000      	.DB  0x0,0x8,0x8,0x2A,0x1C,0x8,0x0,0x0
00023a 0800
00023b 2a1c
00023c 0808
00023d 0000      	.DB  0x0,0x8,0x1C,0x2A,0x8,0x8,0x0,0x0
00023e 7c00
00023f 8182
000240 7c82
000241 0000      	.DB  0x0,0x7C,0x82,0x81,0x82,0x7C,0x0,0x0
000242 0000
000243 0000
000244 0000
000245 0000      	.DB  0x0,0x0,0x0,0x0,0x0,0x0,0x0,0x0
000246 0000
000247 0000
000248 0000
000249 0000      	.DB  0x0,0x0,0x0,0x0,0x0,0x0,0x0,0x0
00024a 0000
00024b 0000
00024c 0000
00024d 0000      	.DB  0x0,0x0,0x0,0x0,0x0,0x0,0x0,0x0
00024e 0000
00024f 0000
000250 0000
000251 0000      	.DB  0x0,0x0,0x0,0x0,0x0,0x0,0x0,0x0
000252 0000
000253 0000
000254 0000
000255 0000      	.DB  0x0,0x0,0x0,0x0,0x0,0x0,0x0,0x0
000256 0000
000257 0000
000258 0000
000259 0000      	.DB  0x0,0x0,0x0,0x0,0x0,0x0,0x0,0x0
00025a 0000
00025b 0000
00025c 0000
00025d 0000      	.DB  0x0,0x0,0x0,0x0,0x0,0x0,0x0,0x0
00025e 0000
00025f 0000
000260 0000
000261 0000      	.DB  0x0,0x0,0x0,0x0,0x0,0x0,0x0,0x0
000262 0000
000263 0000
000264 0000
000265 0000      	.DB  0x0,0x0,0x0,0x0,0x0,0x0,0x0,0x0
000266 0000
000267 0000
000268 0000
000269 0000      	.DB  0x0,0x0,0x0,0x0,0x0,0x0,0x0,0x0
00026a 0000
00026b 0000
00026c 0000
00026d 0000      	.DB  0x0,0x0,0x0,0x0,0x0,0x0,0x0,0x0
00026e 0000
00026f 0000
000270 0000
000271 0000      	.DB  0x0,0x0,0x0,0x0,0x0,0x0,0x0,0x0
000272 0000
000273 0000
000274 0000
000275 0000      	.DB  0x0,0x0,0x0,0x0,0x0,0x0,0x0,0x0
000276 0000
000277 0000
000278 0000
000279 0000      	.DB  0x0,0x0,0x0,0x0,0x0,0x0,0x0,0x0
00027a 0000
00027b 0000
00027c 0000
00027d 0000      	.DB  0x0,0x0,0x0,0x0,0x0,0x0,0x0,0x0
00027e 0000
00027f 0000
000280 0000
000281 0000      	.DB  0x0,0x0,0x0,0x0,0x0,0x0,0x0,0x0
000282 0000
000283 0000
000284 0000
000285 0000      	.DB  0x0,0x0,0x0,0x0,0x0,0x0,0x0,0x0
000286 0000
000287 0000
000288 0000
000289 0000      	.DB  0x0,0x0,0x0,0x0,0x0,0x0,0x0,0x0
00028a 0000
00028b 0000
00028c 0000
00028d 0000      	.DB  0x0,0x0,0x0,0x0,0x0,0x0,0x0,0x0
00028e 0000
00028f 0000
000290 0000
000291 0000      	.DB  0x0,0x0,0x0,0x0,0x0,0x0,0x0,0x0
000292 0000
000293 0000
000294 0000
000295 0000      	.DB  0x0,0x0,0x0,0x0,0x0,0x0,0x0,0x0
000296 0000
000297 0000
000298 0000
000299 0000      	.DB  0x0,0x0,0x0,0x0,0x0,0x0,0x0,0x0
00029a 0000
00029b 0000
00029c 0000
00029d 0000      	.DB  0x0,0x0,0x0,0x0,0x0,0x0,0x0,0x0
00029e 0000
00029f 0000
0002a0 0000
0002a1 0000      	.DB  0x0,0x0,0x0,0x0,0x0,0x0,0x0,0x0
0002a2 0000
0002a3 0000
0002a4 0000
0002a5 0000      	.DB  0x0,0x0,0x0,0x0,0x0,0x0,0x0,0x0
0002a6 0000
0002a7 0000
0002a8 0000
0002a9 0000      	.DB  0x0,0x0,0x0,0x0,0x0,0x0,0x0,0x0
0002aa 0000
0002ab 0000
0002ac 0000
0002ad 0000      	.DB  0x0,0x0,0x0,0x0,0x0,0x0,0x0,0x0
0002ae 0000
0002af 0000
0002b0 0000
0002b1 0000      	.DB  0x0,0x0,0x0,0x0,0x0,0x0,0x0,0x0
0002b2 0000
0002b3 0000
0002b4 0000
0002b5 0000      	.DB  0x0,0x0,0x0,0x0,0x0,0x0,0x0,0x0
0002b6 0000
0002b7 0000
0002b8 0000
0002b9 0000      	.DB  0x0,0x0,0x0,0x0,0x0,0x0,0x0,0x0
0002ba 0000
0002bb 0000
0002bc 0000
0002bd 0000      	.DB  0x0,0x0,0x0,0x0,0x0,0x0,0x0,0x0
0002be 0000
0002bf 0000
0002c0 0000
0002c1 0000      	.DB  0x0,0x0,0x0,0x0,0x0,0x0,0x0,0x0
0002c2 0000
0002c3 0000
0002c4 0000
0002c5 0000      	.DB  0x0,0x0,0x0,0x0,0x0,0x0,0x0,0x0
0002c6 0000
0002c7 0000
0002c8 0000
0002c9 0000      	.DB  0x0,0x0,0x0,0x0,0x0,0x0,0x0,0x0
0002ca 0000
0002cb 0000
0002cc 0000
0002cd 0000      	.DB  0x0,0x0,0x0,0x0,0x0,0x0,0x0,0x0
0002ce 0000
0002cf 0000
0002d0 0000
0002d1 0000      	.DB  0x0,0x0,0x0,0x0,0x0,0x0,0x0,0x0
0002d2 0000
0002d3 0000
0002d4 0000
0002d5 0000      	.DB  0x0,0x0,0x0,0x0,0x0,0x0,0x0,0x0
0002d6 0000
0002d7 0000
0002d8 0000
0002d9 0000      	.DB  0x0,0x0,0x0,0x0,0x0,0x0,0x0,0x0
0002da 0000
0002db 0000
0002dc 0000
0002dd 0000      	.DB  0x0,0x0,0x0,0x0,0x0,0x0,0x0,0x0
0002de 0000
0002df 0000
0002e0 0000
0002e1 0000      	.DB  0x0,0x0,0x0,0x0,0x0,0x0,0x0,0x0
0002e2 0000
0002e3 0000
0002e4 0000
0002e5 0000      	.DB  0x0,0x0,0x0,0x0,0x0,0x0,0x0,0x0
0002e6 0000
0002e7 0000
0002e8 0000
0002e9 0000      	.DB  0x0,0x0,0x0,0x0,0x0,0x0,0x0,0x0
0002ea 0000
0002eb 0000
0002ec 0000
0002ed 0000      	.DB  0x0,0x0,0x0,0x0,0x0,0x0,0x0,0x0
0002ee 0000
0002ef 0000
0002f0 0000
0002f1 0000      	.DB  0x0,0x0,0x0,0x0,0x0,0x0,0x0,0x0
0002f2 0000
0002f3 0000
0002f4 0000
0002f5 0000      	.DB  0x0,0x0,0x0,0x0,0x0,0x0,0x0,0x0
0002f6 0000
0002f7 0000
0002f8 0000
0002f9 0000      	.DB  0x0,0x0,0x0,0x0,0x0,0x0,0x0,0x0
0002fa 0000
0002fb 0000
0002fc 0000
0002fd 0000      	.DB  0x0,0x0,0x0,0x0,0x0,0x0,0x0,0x0
0002fe 0000
0002ff 0000
000300 0000
000301 0000      	.DB  0x0,0x0,0x0,0x0,0x0,0x0,0x0,0x0
000302 0000
000303 0000
000304 0000
000305 0000      	.DB  0x0,0x0,0x0,0x0,0x0,0x0,0x0,0x0
000306 0000
000307 0000
000308 0000
000309 0000      	.DB  0x0,0x0,0x0,0x0,0x0,0x0,0x0,0x0
00030a 0000
00030b 0000
00030c 0000
00030d 0000      	.DB  0x0,0x0,0x0,0x0,0x0,0x0,0x0,0x0
00030e 0000
00030f 0000
000310 0000
000311 0000      	.DB  0x0,0x0,0x0,0x0,0x0,0x0,0x0,0x0
000312 0000
000313 0000
000314 0000
000315 0000      	.DB  0x0,0x0,0x0,0x0,0x0,0x0,0x0,0x0
000316 0000
000317 0000
000318 0000
000319 0000      	.DB  0x0,0x0,0x0,0x0,0x0,0x0,0x0,0x0
00031a 0000
00031b 0000
00031c 0000
00031d 0000      	.DB  0x0,0x0,0x0,0x0,0x0,0x0,0x0,0x0
00031e 0000
00031f 0000
000320 0000
000321 0000      	.DB  0x0,0x0,0x0,0x0,0x0,0x0,0x0,0x0
000322 0000
000323 0000
000324 0000
000325 0000      	.DB  0x0,0x0,0x0,0x0,0x0,0x0,0x0,0x0
000326 0000
000327 0000
000328 0000
000329 0000      	.DB  0x0,0x0,0x0,0x0,0x0,0x0,0x0,0x0
00032a 0000
00032b 0000
00032c 0000
00032d 0000      	.DB  0x0,0x0,0x0,0x0,0x0,0x0,0x0,0x0
00032e 0000
00032f 0000
000330 0000
000331 0000      	.DB  0x0,0x0,0x0,0x0,0x0,0x0,0x0,0x0
000332 0000
000333 0000
000334 0000
000335 0000      	.DB  0x0,0x0,0x0,0x0,0x0,0x0,0x0,0x0
000336 0000
000337 0000
000338 0000
000339 0000      	.DB  0x0,0x0,0x0,0x0,0x0,0x0,0x0,0x0
00033a 0000
00033b 0000
00033c 0000
00033d 0000      	.DB  0x0,0x0,0x0,0x0,0x0,0x0,0x0,0x0
00033e 0000
00033f 0000
000340 0000
000341 0000      	.DB  0x0,0x0,0x0,0x0,0x0,0x0,0x0,0x0
000342 0000
000343 0000
000344 0000
000345 0000      	.DB  0x0,0x0,0x0,0x0,0x0,0x0,0x0,0x0
000346 0000
000347 0000
000348 0000
000349 0000      	.DB  0x0,0x0,0x0,0x0,0x0,0x0,0x0,0x0
00034a 0000
00034b 0000
00034c 0000
00034d 0000      	.DB  0x0,0x0,0x0,0x0,0x0,0x0,0x0,0x0
00034e 0000
00034f 0000
000350 0000
000351 0000      	.DB  0x0,0x0,0x0,0x0,0x0,0x0,0x0,0x0
000352 0000
000353 0000
000354 0000
000355 0000      	.DB  0x0,0x0,0x0,0x0,0x0,0x0,0x0,0x0
000356 0000
000357 0000
000358 0000
000359 0000      	.DB  0x0,0x0,0x0,0x0,0x0,0x0,0x0,0x0
00035a 0000
00035b 0000
00035c 0000
00035d 0000      	.DB  0x0,0x0,0x0,0x0,0x0,0x0,0x0,0x0
00035e 0000
00035f 0000
000360 0000
000361 0000      	.DB  0x0,0x0,0x0,0x0,0x0,0x0,0x0,0x0
000362 0000
000363 0000
000364 0000
000365 0000      	.DB  0x0,0x0,0x0,0x0,0x0,0x0,0x0,0x0
000366 0000
000367 0000
000368 0000
000369 0000      	.DB  0x0,0x0,0x0,0x0,0x0,0x0,0x0,0x0
00036a 0000
00036b 0000
00036c 0000
00036d 0000      	.DB  0x0,0x0,0x0,0x0,0x0,0x0,0x0,0x0
00036e 0000
00036f 0000
000370 0000
000371 0000      	.DB  0x0,0x0,0x0,0x0,0x0,0x0,0x0,0x0
000372 0000
000373 0000
000374 0000
000375 0000      	.DB  0x0,0x0,0x0,0x0,0x0,0x0,0x0,0x0
000376 0000
000377 0000
000378 0000
000379 0000      	.DB  0x0,0x0,0x0,0x0,0x0,0x0,0x0,0x0
00037a 0000
00037b 0000
00037c 0000
00037d 0000      	.DB  0x0,0x0,0x0,0x0,0x0,0x0,0x0,0x0
00037e 0000
00037f 0000
000380 0000
000381 0000      	.DB  0x0,0x0,0x0,0x0,0x0,0x0,0x0,0x0
000382 0000
000383 0000
000384 0000
000385 0000      	.DB  0x0,0x0,0x0,0x0,0x0,0x0,0x0,0x0
000386 0000
000387 0000
000388 0000
000389 0000      	.DB  0x0,0x0,0x0,0x0,0x0,0x0,0x0,0x0
00038a 0000
00038b 0000
00038c 0000
00038d 0000      	.DB  0x0,0x0,0x0,0x0,0x0,0x0,0x0,0x0
00038e 0000
00038f 0000
000390 0000
000391 0000      	.DB  0x0,0x0,0x0,0x0,0x0,0x0,0x0,0x0
000392 0000
000393 0000
000394 0000
000395 0000      	.DB  0x0,0x0,0x0,0x0,0x0,0x0,0x0,0x0
000396 0000
000397 0000
000398 0000
000399 0000      	.DB  0x0,0x0,0x0,0x0,0x0,0x0,0x0,0x0
00039a 0000
00039b 0000
00039c 0000
00039d 0000      	.DB  0x0,0x0,0x0,0x0,0x0,0x0,0x0,0x0
00039e 0000
00039f 0000
0003a0 0000
0003a1 0000      	.DB  0x0,0x0,0x0,0x0,0x0,0x0,0x0,0x0
0003a2 0000
0003a3 0000
0003a4 0000
0003a5 0000      	.DB  0x0,0x0,0x0,0x0,0x0,0x0,0x0,0x0
0003a6 0000
0003a7 0000
0003a8 0000
0003a9 0000      	.DB  0x0,0x0,0x0,0x0,0x0,0x0,0x0,0x0
0003aa 0000
0003ab 0000
0003ac 0000
0003ad 0000      	.DB  0x0,0x0,0x0,0x0,0x0,0x0,0x0,0x0
0003ae 0000
0003af 0000
0003b0 0000
0003b1 0000      	.DB  0x0,0x0,0x0,0x0,0x0,0x0,0x0,0x0
0003b2 0000
0003b3 0000
0003b4 0000
0003b5 0000      	.DB  0x0,0x0,0x0,0x0,0x0,0x0,0x0,0x0
0003b6 0000
0003b7 0000
0003b8 0000
0003b9 0000      	.DB  0x0,0x0,0x0,0x0,0x0,0x0,0x0,0x0
0003ba 0000
0003bb 0000
0003bc 0000
0003bd 0000      	.DB  0x0,0x0,0x0,0x0,0x0,0x0,0x0,0x0
0003be 0000
0003bf 0000
0003c0 0000
0003c1 0000      	.DB  0x0,0x0,0x0,0x0,0x0,0x0,0x0,0x0
0003c2 0000
0003c3 0000
0003c4 0000
0003c5 0000      	.DB  0x0,0x0,0x0,0x0,0x0,0x0,0x0,0x0
0003c6 0000
0003c7 0000
0003c8 0000
0003c9 0000      	.DB  0x0,0x0,0x0,0x0,0x0,0x0,0x0,0x0
0003ca 0000
0003cb 0000
0003cc 0000
0003cd 0000      	.DB  0x0,0x0,0x0,0x0,0x0,0x0,0x0,0x0
0003ce 0000
0003cf 0000
0003d0 0000
0003d1 0000      	.DB  0x0,0x0,0x0,0x0,0x0,0x0,0x0,0x0
0003d2 0000
0003d3 0000
0003d4 0000
0003d5 0000      	.DB  0x0,0x0,0x0,0x0,0x0,0x0,0x0,0x0
0003d6 0000
0003d7 0000
0003d8 0000
0003d9 0000      	.DB  0x0,0x0,0x0,0x0,0x0,0x0,0x0,0x0
0003da 0000
0003db 0000
0003dc 0000
0003dd 0000      	.DB  0x0,0x0,0x0,0x0,0x0,0x0,0x0,0x0
0003de 0000
0003df 0000
0003e0 0000
0003e1 0000      	.DB  0x0,0x0,0x0,0x0,0x0,0x0,0x0,0x0
0003e2 0000
0003e3 0000
0003e4 0000
0003e5 0000      	.DB  0x0,0x0,0x0,0x0,0x0,0x0,0x0,0x0
0003e6 0000
0003e7 0000
0003e8 0000
0003e9 0000      	.DB  0x0,0x0,0x0,0x0,0x0,0x0,0x0,0x0
0003ea 0000
0003eb 0000
0003ec 0000
0003ed 0000      	.DB  0x0,0x0,0x0,0x0,0x0,0x0,0x0,0x0
0003ee 0000
0003ef 0000
0003f0 0000
0003f1 0000      	.DB  0x0,0x0,0x0,0x0,0x0,0x0,0x0,0x0
0003f2 0000
0003f3 0000
0003f4 0000
0003f5 0000      	.DB  0x0,0x0,0x0,0x0,0x0,0x0,0x0,0x0
0003f6 0000
0003f7 0000
0003f8 0000
0003f9 0000      	.DB  0x0,0x0,0x0,0x0,0x0,0x0,0x0,0x0
0003fa 0000
0003fb 0000
0003fc 0000
0003fd 0000      	.DB  0x0,0x0,0x0,0x0,0x0,0x0,0x0,0x0
0003fe 0000
0003ff 0000
000400 0000
000401 0000      	.DB  0x0,0x0,0x0,0x0,0x0,0x0,0x0,0x0
000402 0000
000403 0000
000404 0000
000405 0000      	.DB  0x0,0x0,0x0,0x0,0x0,0x0,0x0,0x0
000406 0000
000407 0000
000408 0000
000409 0000      	.DB  0x0,0x0,0x0,0x0,0x0,0x0,0x0,0x0
00040a 0000
00040b 0000
00040c 0000
00040d 0000      	.DB  0x0,0x0,0x0,0x0,0x0,0x0,0x0,0x0
00040e 0000
00040f 0000
000410 0000
000411 0000      	.DB  0x0,0x0,0x0,0x0,0x0,0x0,0x0,0x0
000412 0000
000413 0000
000414 0000
000415 0000      	.DB  0x0,0x0,0x0,0x0,0x0,0x0,0x0,0x0
000416 0000
000417 0000
000418 0000
000419 0000      	.DB  0x0,0x0,0x0,0x0,0x0,0x0,0x0,0x0
00041a 0000
00041b 0000
00041c 0000
00041d 0000      	.DB  0x0,0x0,0x0,0x0,0x0,0x0,0x0,0x0
00041e 0000
00041f 0000
000420 0000
000421 0000      	.DB  0x0,0x0,0x0,0x0,0x0,0x0,0x0,0x0
000422 0000
000423 0000
000424 0000
000425 0000      	.DB  0x0,0x0,0x0,0x0,0x0,0x0,0x0,0x0
000426 0000
000427 0000
000428 0000
000429 0000      	.DB  0x0,0x0,0x0,0x0,0x0,0x0,0x0,0x0
00042a 0000
00042b 0000
00042c 0000
00042d 0000      	.DB  0x0,0x0,0x0,0x0,0x0,0x0,0x0,0x0
00042e 0000
00042f 0000
000430 0000
000431 0000      	.DB  0x0,0x0,0x0,0x0,0x0,0x0,0x0,0x0
000432 0000
000433 0000
000434 0000
000435 0000      	.DB  0x0,0x0,0x0,0x0,0x0,0x0,0x0,0x0
000436 0000
000437 0000
000438 0000
000439 0000      	.DB  0x0,0x0,0x0,0x0,0x0,0x0,0x0,0x0
00043a 0000
00043b 0000
00043c 0000
00043d 0000      	.DB  0x0,0x0,0x0,0x0,0x0,0x0,0x0,0x0
                 _map:
00043e c1c1
00043f c1c1
000440 0000
000441 c2c2      	.DB  0xC1,0xC1,0xC1,0xC1,0x0,0x0,0xC2,0xC2
000442 fefe
000443 0001
000444 c3c3
000445 1f1f      	.DB  0xFE,0xFE,0x1,0x0,0xC3,0xC3,0x1F,0x1F
000446 0001
000447 c4c4
000448 fcfc
000449 0001      	.DB  0x1,0x0,0xC4,0xC4,0xFC,0xFC,0x1,0x0
00044a c5c5
00044b c5c5
00044c 0101
00044d bdc6      	.DB  0xC5,0xC5,0xC5,0xC5,0x1,0x1,0xC6,0xBD
00044e bebf
00044f 0101
000450 c7c7
000451 c0c0      	.DB  0xBF,0xBE,0x1,0x1,0xC7,0xC7,0xC0,0xC0
000452 0001
000453 82c8
000454 8384
000455 0101      	.DB  0x1,0x0,0xC8,0x82,0x84,0x83,0x1,0x1
000456 c9c9
000457 fdfd
000458 0001
000459 85ca      	.DB  0xC9,0xC9,0xFD,0xFD,0x1,0x0,0xCA,0x85
00045a 8687
00045b 0101
00045c 88cb
00045d 898a      	.DB  0x87,0x86,0x1,0x1,0xCB,0x88,0x8A,0x89
00045e 0101
00045f 8bcc
000460 8bcc
000461 0101      	.DB  0x1,0x1,0xCC,0x8B,0xCC,0x8B,0x1,0x1
000462 8ccd
000463 8ccd
000464 0101
000465 11ce      	.DB  0xCD,0x8C,0xCD,0x8C,0x1,0x1,0xCE,0x11
000466 11ce
000467 0101
000468 cfcf
000469 1313      	.DB  0xCE,0x11,0x1,0x1,0xCF,0xCF,0x13,0x13
00046a 0001
00046b d0d0
00046c 8f8f
00046d 0001      	.DB  0x1,0x0,0xD0,0xD0,0x8F,0x8F,0x1,0x0
00046e d1d1
00046f 1b1b
000470 0001
000471 d2d2      	.DB  0xD1,0xD1,0x1B,0x1B,0x1,0x0,0xD2,0xD2
000472 9191
000473 0001
000474 92d3
000475 9394      	.DB  0x91,0x91,0x1,0x0,0xD3,0x92,0x94,0x93
000476 0101
000477 95d4
000478 9697
000479 0101      	.DB  0x1,0x1,0xD4,0x95,0x97,0x96,0x1,0x1
00047a 17d5
00047b 999a
00047c 0101
00047d 9bd6      	.DB  0xD5,0x17,0x9A,0x99,0x1,0x1,0xD6,0x9B
00047e 9c9d
00047f 0101
000480 d7d7
000481 d7d7      	.DB  0x9D,0x9C,0x1,0x1,0xD7,0xD7,0xD7,0xD7
000482 0000
000483 d8d8
000484 9e9e
000485 0101      	.DB  0x0,0x0,0xD8,0xD8,0x9E,0x9E,0x1,0x1
000486 d9d9
000487 9f9f
000488 0101
000489 a0da      	.DB  0xD9,0xD9,0x9F,0x9F,0x1,0x1,0xDA,0xA0
00048a a1a2
00048b 0101
00048c a3db
00048d a4a5      	.DB  0xA2,0xA1,0x1,0x1,0xDB,0xA3,0xA5,0xA4
00048e 0101
00048f dcdc
000490 dcdc
000491 0000      	.DB  0x1,0x1,0xDC,0xDC,0xDC,0xDC,0x0,0x0
000492 a6dd
000493 a7a8
000494 0101
000495 a9de      	.DB  0xDD,0xA6,0xA8,0xA7,0x1,0x1,0xDE,0xA9
000496 aaab
000497 0101
000498 acdf
000499 adae      	.DB  0xAB,0xAA,0x1,0x1,0xDF,0xAC,0xAE,0xAD
00049a 0101
00049b e0e0
00049c e0e0
00049d 0000      	.DB  0x1,0x1,0xE0,0xE0,0xE0,0xE0,0x0,0x0
00049e afe1
00049f b0b1
0004a0 0101
0004a1 e2e2      	.DB  0xE1,0xAF,0xB1,0xB0,0x1,0x1,0xE2,0xE2
0004a2 e2e2
0004a3 0000
0004a4 b2e3
0004a5 b3b4      	.DB  0xE2,0xE2,0x0,0x0,0xE3,0xB2,0xB4,0xB3
0004a6 0101
0004a7 b5e4
0004a8 b6b7
0004a9 0101      	.DB  0x1,0x1,0xE4,0xB5,0xB7,0xB6,0x1,0x1
0004aa b8e5
0004ab b9ba
0004ac 0101
0004ad e6e6      	.DB  0xE5,0xB8,0xBA,0xB9,0x1,0x1,0xE6,0xE6
0004ae bcbc
0004af 0001
0004b0 e7e7
0004b1 e7e7      	.DB  0xBC,0xBC,0x1,0x0,0xE7,0xE7,0xE7,0xE7
0004b2 0000
0004b3 e8e8
0004b4 e8e8
0004b5 0000      	.DB  0x0,0x0,0xE8,0xE8,0xE8,0xE8,0x0,0x0
0004b6 e9e9
0004b7 e9e9
0004b8 0000
0004b9 eaea      	.DB  0xE9,0xE9,0xE9,0xE9,0x0,0x0,0xEA,0xEA
0004ba eaea
0004bb 0000
0004bc ebeb
0004bd ebeb      	.DB  0xEA,0xEA,0x0,0x0,0xEB,0xEB,0xEB,0xEB
0004be 0000
0004bf bdec
0004c0 bebf
0004c1 0101      	.DB  0x0,0x0,0xEC,0xBD,0xBF,0xBE,0x1,0x1
0004c2 bded
0004c3 bebf
0004c4 0101
0004c5 eeee      	.DB  0xED,0xBD,0xBF,0xBE,0x1,0x1,0xEE,0xEE
0004c6 eeee
0004c7 0000
0004c8 efef
0004c9 efef      	.DB  0xEE,0xEE,0x0,0x0,0xEF,0xEF,0xEF,0xEF
0004ca 0000
0004cb f0f0
0004cc f0f0
0004cd 0000      	.DB  0x0,0x0,0xF0,0xF0,0xF0,0xF0,0x0,0x0
0004ce f1f1
0004cf f1f1
0004d0 0000
0004d1 f2f2      	.DB  0xF1,0xF1,0xF1,0xF1,0x0,0x0,0xF2,0xF2
0004d2 f2f2
0004d3 0000
0004d4 f3f3
0004d5 f3f3      	.DB  0xF2,0xF2,0x0,0x0,0xF3,0xF3,0xF3,0xF3
0004d6 0000
0004d7 f5f5
0004d8 f5f5
0004d9 0000      	.DB  0x0,0x0,0xF5,0xF5,0xF5,0xF5,0x0,0x0
0004da f6f6
0004db f6f6
0004dc 0000
0004dd f7f7      	.DB  0xF6,0xF6,0xF6,0xF6,0x0,0x0,0xF7,0xF7
0004de f7f7
0004df 0000
0004e0 f8f8
0004e1 f8f8      	.DB  0xF7,0xF7,0x0,0x0,0xF8,0xF8,0xF8,0xF8
0004e2 0000
0004e3 f9fb
0004e4 fafb
0004e5 0101      	.DB  0x0,0x0,0xFB,0xF9,0xFB,0xFA,0x1,0x1
0004e6 bbbb
0004e7 f4f4
0004e8 0001
0004e9 1c81      	.DB  0xBB,0xBB,0xF4,0xF4,0x1,0x0,0x81,0x1C
0004ea 1d1e
0004eb 0101
0004ec 1890
0004ed 191a      	.DB  0x1E,0x1D,0x1,0x1,0x90,0x18,0x1A,0x19
0004ee 0101
0004ef 1498
0004f0 1516
0004f1 0101      	.DB  0x1,0x1,0x98,0x14,0x16,0x15,0x1,0x1
0004f2 8e8e
0004f3 1212
0004f4 0001
0004f5 108d      	.DB  0x8E,0x8E,0x12,0x12,0x1,0x0,0x8D,0x10
0004f6 108d
0004f7 0101      	.DB  0x8D,0x10,0x1,0x1
                 _arr:
0004f8 c000
0004f9 30f0
0004fa 1838
0004fb 1818      	.DB  0x0,0xC0,0xF0,0x30,0x38,0x18,0x18,0x18
0004fc 9818
0004fd b0b0
0004fe 3030
0004ff 6030      	.DB  0x18,0x98,0xB0,0xB0,0x30,0x30,0x30,0x60
000500 6060
000501 6060
000502 c060
000503 c0c0      	.DB  0x60,0x60,0x60,0x60,0x60,0xC0,0xC0,0xC0
000504 c0c0
000505 c0c0
000506 8080
000507 8080      	.DB  0xC0,0xC0,0xC0,0xC0,0x80,0x80,0x80,0x80
000508 0080
000509 0000
00050a 0000
00050b 0000      	.DB  0x80,0x0,0x0,0x0,0x0,0x0,0x0,0x0
00050c 0000
00050d 0000
00050e 0000
00050f 0000      	.DB  0x0,0x0,0x0,0x0,0x0,0x0,0x0,0x0
000510 0000
000511 0000
000512 0000
000513 0000      	.DB  0x0,0x0,0x0,0x0,0x0,0x0,0x0,0x0
000514 0000
000515 0000
000516 0000
000517 0000      	.DB  0x0,0x0,0x0,0x0,0x0,0x0,0x0,0x0
000518 0000
000519 0000
00051a 0000
00051b 0000      	.DB  0x0,0x0,0x0,0x0,0x0,0x0,0x0,0x0
00051c 0000
00051d 0000
00051e 0000
00051f 0000      	.DB  0x0,0x0,0x0,0x0,0x0,0x0,0x0,0x0
000520 0000
000521 0000
000522 0000
000523 0000      	.DB  0x0,0x0,0x0,0x0,0x0,0x0,0x0,0x0
000524 0000
000525 0000
000526 0000
000527 0000      	.DB  0x0,0x0,0x0,0x0,0x0,0x0,0x0,0x0
000528 0000
000529 0000
00052a 0000
00052b 0000      	.DB  0x0,0x0,0x0,0x0,0x0,0x0,0x0,0x0
00052c 0000
00052d 0000
00052e 0000
00052f 0000      	.DB  0x0,0x0,0x0,0x0,0x0,0x0,0x0,0x0
000530 0000
000531 0000
000532 0000
000533 0000      	.DB  0x0,0x0,0x0,0x0,0x0,0x0,0x0,0x0
000534 0000
000535 0000
000536 0000
000537 0000      	.DB  0x0,0x0,0x0,0x0,0x0,0x0,0x0,0x0
000538 ff00
000539 00ff
00053a 0c00
00053b f018      	.DB  0x0,0xFF,0xFF,0x0,0x0,0xC,0x18,0xF0
00053c 0fe7
00053d 0ffd
00053e 0007
00053f 0000      	.DB  0xE7,0xF,0xFD,0xF,0x7,0x0,0x0,0x0
000540 0000
000541 0000
000542 0000
000543 0000      	.DB  0x0,0x0,0x0,0x0,0x0,0x0,0x0,0x0
000544 0000
000545 0000
000546 0101
000547 8101      	.DB  0x0,0x0,0x0,0x0,0x1,0x1,0x1,0x81
000548 8383
000549 c383
00054a 67e7
00054b c6e6      	.DB  0x83,0x83,0x83,0xC3,0xE7,0x67,0xE6,0xC6
00054c 0e06
00054d 0c0c
00054e 0c0c
00054f 180c      	.DB  0x6,0xE,0xC,0xC,0xC,0xC,0xC,0x18
000550 1818
000551 7078
000552 c0e0
000553 0000      	.DB  0x18,0x18,0x78,0x70,0xE0,0xC0,0x0,0x0
000554 0000
000555 e000
000556 00e0
000557 0000      	.DB  0x0,0x0,0x0,0xE0,0xE0,0x0,0x0,0x0
000558 0000
000559 c080
00055a 60e0
00055b e000      	.DB  0x0,0x0,0x80,0xC0,0xE0,0x60,0x0,0xE0
00055c 60e0
00055d 6060
00055e 6060
00055f e060      	.DB  0xE0,0x60,0x60,0x60,0x60,0x60,0x60,0xE0
000560 00c0
000561 0000
000562 c080
000563 6060      	.DB  0xC0,0x0,0x0,0x0,0x80,0xC0,0x60,0x60
000564 80c0
000565 0000
000566 e000
000567 60e0      	.DB  0xC0,0x80,0x0,0x0,0x0,0xE0,0xE0,0x60
000568 6060
000569 6060
00056a c060
00056b 0080      	.DB  0x60,0x60,0x60,0x60,0x60,0xC0,0x80,0x0
00056c 0000
00056d c080
00056e 6060
00056f 80c0      	.DB  0x0,0x0,0x80,0xC0,0x60,0x60,0xC0,0x80
000570 0000
000571 0000
000572 c080
000573 6060      	.DB  0x0,0x0,0x0,0x0,0x80,0xC0,0x60,0x60
000574 6060
000575 c060
000576 0080
000577 0000      	.DB  0x60,0x60,0x60,0xC0,0x80,0x0,0x0,0x0
000578 ff00
000579 00ff
00057a 0000
00057b ff00      	.DB  0x0,0xFF,0xFF,0x0,0x0,0x0,0x0,0xFF
00057c 00ff
00057d 00ff
00057e 0000
00057f 0000      	.DB  0xFF,0x0,0xFF,0x0,0x0,0x0,0x0,0x0
000580 0000
000581 0000
000582 0000
000583 8000      	.DB  0x0,0x0,0x0,0x0,0x0,0x0,0x0,0x80
000584 60c0
000585 1830
000586 c68c
000587 3163      	.DB  0xC0,0x60,0x30,0x18,0x8C,0xC6,0x63,0x31
000588 0818
000589 0908
00058a 0b0b
00058b 090b      	.DB  0x18,0x8,0x8,0x9,0xB,0xB,0xB,0x9
00058c 0808
00058d 0808
00058e 0808
00058f 3e1c      	.DB  0x8,0x8,0x8,0x8,0x8,0x8,0x1C,0x3E
000590 3e36
000591 001c
000592 ffff
000593 0000      	.DB  0x36,0x3E,0x1C,0x0,0xFF,0xFF,0x0,0x0
000594 0000
000595 ff00
000596 70ff
000597 8cf8      	.DB  0x0,0x0,0x0,0xFF,0xFF,0x70,0xF8,0x8C
000598 078e
000599 0103
00059a 0000
00059b ff00      	.DB  0x8E,0x7,0x3,0x1,0x0,0x0,0x0,0xFF
00059c e0ff
00059d e0e0
00059e 6060
00059f 7f60      	.DB  0xFF,0xE0,0xE0,0xE0,0x60,0x60,0x60,0x7F
0005a0 003f
0005a1 fffe
0005a2 6061
0005a3 6060      	.DB  0x3F,0x0,0xFE,0xFF,0x61,0x60,0x60,0x60
0005a4 6160
0005a5 feff
0005a6 ff00
0005a7 00ff      	.DB  0x60,0x61,0xFF,0xFE,0x0,0xFF,0xFF,0x0
0005a8 0000
0005a9 0000
0005aa ff00
0005ab 00ff      	.DB  0x0,0x0,0x0,0x0,0x0,0xFF,0xFF,0x0
0005ac fffe
0005ad 6061
0005ae 6060
0005af 6160      	.DB  0xFE,0xFF,0x61,0x60,0x60,0x60,0x60,0x61
0005b0 feff
0005b1 ff00
0005b2 00ff
0005b3 0000      	.DB  0xFF,0xFE,0x0,0xFF,0xFF,0x0,0x0,0x0
0005b4 0000
0005b5 0000
0005b6 0001
0005b7 0000      	.DB  0x0,0x0,0x0,0x0,0x1,0x0,0x0,0x0
0005b8 ff00
0005b9 00ff
0005ba 0000
0005bb ff00      	.DB  0x0,0xFF,0xFF,0x0,0x0,0x0,0x0,0xFF
0005bc 00ff
0005bd 303f
0005be 3030
0005bf 3030      	.DB  0xFF,0x0,0x3F,0x30,0x30,0x30,0x30,0x30
0005c0 3030
0005c1 1830
0005c2 c60c
0005c3 31e3      	.DB  0x30,0x30,0x30,0x18,0xC,0xC6,0xE3,0x31
0005c4 0c18
0005c5 0306
0005c6 0001
0005c7 0000      	.DB  0x18,0xC,0x6,0x3,0x1,0x0,0x0,0x0
0005c8 0000
0005c9 0000
0005ca 0000
0005cb 0000      	.DB  0x0,0x0,0x0,0x0,0x0,0x0,0x0,0x0
0005cc 0000
0005cd 0000
0005ce 0000
0005cf 0000      	.DB  0x0,0x0,0x0,0x0,0x0,0x0,0x0,0x0
0005d0 0000
0005d1 0000
0005d2 ffff
0005d3 0000      	.DB  0x0,0x0,0x0,0x0,0xFF,0xFF,0x0,0x0
0005d4 0000
0005d5 3f00
0005d6 003f
0005d7 0100      	.DB  0x0,0x0,0x0,0x3F,0x3F,0x0,0x0,0x1
0005d8 0703
0005d9 1c0e
0005da 3038
0005db 3f00      	.DB  0x3,0x7,0xE,0x1C,0x38,0x30,0x0,0x3F
0005dc 003f
0005dd 0100
0005de 0703
0005df 3c0e      	.DB  0x3F,0x0,0x0,0x1,0x3,0x7,0xE,0x3C
0005e0 0038
0005e1 3f3f
0005e2 0000
0005e3 0000      	.DB  0x38,0x0,0x3F,0x3F,0x0,0x0,0x0,0x0
0005e4 0000
0005e5 3f3f
0005e6 3f00
0005e7 303f      	.DB  0x0,0x0,0x3F,0x3F,0x0,0x3F,0x3F,0x30
0005e8 3030
0005e9 3030
0005ea 1f30
0005eb 000f      	.DB  0x30,0x30,0x30,0x30,0x30,0x1F,0xF,0x0
0005ec 3f3f
0005ed 0000
0005ee 0000
0005ef 0000      	.DB  0x3F,0x3F,0x0,0x0,0x0,0x0,0x0,0x0
0005f0 3f3f
0005f1 0f00
0005f2 301f
0005f3 3030      	.DB  0x3F,0x3F,0x0,0xF,0x1F,0x30,0x30,0x30
0005f4 3030
0005f5 3830
0005f6 0018
0005f7 0000      	.DB  0x30,0x30,0x30,0x38,0x18,0x0,0x0,0x0
0005f8 ff00
0005f9 00ff
0005fa 0000
0005fb ff00      	.DB  0x0,0xFF,0xFF,0x0,0x0,0x0,0x0,0xFF
0005fc 00ff
0005fd 03ff
0005fe 0303
0005ff 0303      	.DB  0xFF,0x0,0xFF,0x3,0x3,0x3,0x3,0x3
000600 0303
000601 0603
000602 190c
000603 6633      	.DB  0x3,0x3,0x3,0x6,0xC,0x19,0x33,0x66
000604 98cc
000605 6030
000606 80c0
000607 0000      	.DB  0xCC,0x98,0x30,0x60,0xC0,0x80,0x0,0x0
000608 0000
000609 0000
00060a 0000
00060b 0000      	.DB  0x0,0x0,0x0,0x0,0x0,0x0,0x0,0x0
00060c 0000
00060d 0000
00060e 0000
00060f 0000      	.DB  0x0,0x0,0x0,0x0,0x0,0x0,0x0,0x0
000610 0000
000611 0000
000612 ffff
000613 0000      	.DB  0x0,0x0,0x0,0x0,0xFF,0xFF,0x0,0x0
000614 0000
000615 0000
000616 0000
000617 0000      	.DB  0x0,0x0,0x0,0x0,0x0,0x0,0x0,0x0
000618 0000
000619 0000
00061a 0000
00061b 0000      	.DB  0x0,0x0,0x0,0x0,0x0,0x0,0x0,0x0
00061c 0000
00061d 0000
00061e 0000
00061f 0000      	.DB  0x0,0x0,0x0,0x0,0x0,0x0,0x0,0x0
000620 0000
000621 0000
000622 0000
000623 0000      	.DB  0x0,0x0,0x0,0x0,0x0,0x0,0x0,0x0
000624 0000
000625 0000
000626 0000
000627 0000      	.DB  0x0,0x0,0x0,0x0,0x0,0x0,0x0,0x0
000628 0000
000629 0000
00062a 0000
00062b 0000      	.DB  0x0,0x0,0x0,0x0,0x0,0x0,0x0,0x0
00062c 0000
00062d 0000
00062e 0000
00062f 0000      	.DB  0x0,0x0,0x0,0x0,0x0,0x0,0x0,0x0
000630 0000
000631 0000
000632 0000
000633 0000      	.DB  0x0,0x0,0x0,0x0,0x0,0x0,0x0,0x0
000634 0000
000635 0000
000636 0000
000637 0000      	.DB  0x0,0x0,0x0,0x0,0x0,0x0,0x0,0x0
000638 ff00
000639 00ff
00063a 0000
00063b ff00      	.DB  0x0,0xFF,0xFF,0x0,0x0,0x0,0x0,0xFF
00063c 00ff
00063d 00ff
00063e 0000
00063f 0000      	.DB  0xFF,0x0,0xFF,0x0,0x0,0x0,0x0,0x0
000640 0000
000641 0000
000642 0000
000643 0000      	.DB  0x0,0x0,0x0,0x0,0x0,0x0,0x0,0x0
000644 0100
000645 0603
000646 190c
000647 6633      	.DB  0x0,0x1,0x3,0x6,0xC,0x19,0x33,0x66
000648 4444
000649 e444
00064a b4f4
00064b e4f4      	.DB  0x44,0x44,0x44,0xE4,0xF4,0xB4,0xF4,0xE4
00064c 0404
00064d 0404
00064e 0404
00064f 1f0e      	.DB  0x4,0x4,0x4,0x4,0x4,0x4,0xE,0x1F
000650 1f1b
000651 000e
000652 ffff
000653 0000      	.DB  0x1B,0x1F,0xE,0x0,0xFF,0xFF,0x0,0x0
000654 fc00
000655 0000
000656 0000
000657 f800      	.DB  0x0,0xFC,0x0,0x0,0x0,0x0,0x0,0xF8
000658 0404
000659 f804
00065a 0c00
00065b 0404      	.DB  0x4,0x4,0x4,0xF8,0x0,0xC,0x4,0x4
00065c fc04
00065d f000
00065e 8488
00065f f088      	.DB  0x4,0xFC,0x0,0xF0,0x88,0x84,0x88,0xF0
000660 8000
000661 8080
000662 fc00
000663 8484      	.DB  0x0,0x80,0x80,0x80,0x0,0xFC,0x84,0x84
000664 0404
000665 f800
000666 0404
000667 0804      	.DB  0x4,0x4,0x0,0xF8,0x4,0x4,0x4,0x8
000668 fc00
000669 0000
00066a fc00
00066b f000      	.DB  0x0,0xFC,0x0,0x0,0x0,0xFC,0x0,0xF0
00066c 8488
00066d f088
00066e fc00
00066f 0404      	.DB  0x88,0x84,0x88,0xF0,0x0,0xFC,0x4,0x4
000670 f804
000671 f800
000672 0404
000673 f804      	.DB  0x4,0xF8,0x0,0xF8,0x4,0x4,0x4,0xF8
000674 fc00
000675 c444
000676 3844
000677 0000      	.DB  0x0,0xFC,0x44,0xC4,0x44,0x38,0x0,0x0
000678 ff00
000679 00ff
00067a 0600
00067b 0103      	.DB  0x0,0xFF,0xFF,0x0,0x0,0x6,0x3,0x1
00067c 3e1c
00067d 3e37
00067e 001c
00067f 0000      	.DB  0x1C,0x3E,0x37,0x3E,0x1C,0x0,0x0,0x0
000680 0000
000681 8000
000682 8080
000683 c080      	.DB  0x0,0x0,0x0,0x80,0x80,0x80,0x80,0xC0
000684 c0c0
000685 c0c0
000686 60e0
000687 6060      	.DB  0xC0,0xC0,0xC0,0xC0,0xE0,0x60,0x60,0x60
000688 3030
000689 3030
00068a 3931
00068b 1819      	.DB  0x30,0x30,0x30,0x30,0x31,0x39,0x19,0x18
00068c 1c18
00068d 0c0c
00068e 0c0c
00068f 060e      	.DB  0x18,0x1C,0xC,0xC,0xC,0xC,0xE,0x6
000690 0606
000691 0307
000692 0001
000693 0000      	.DB  0x6,0x6,0x7,0x3,0x1,0x0,0x0,0x0
000694 0f00
000695 0808
000696 0808
000697 0700      	.DB  0x0,0xF,0x8,0x8,0x8,0x8,0x0,0x7
000698 0808
000699 0708
00069a 0600
00069b 0808      	.DB  0x8,0x8,0x8,0x7,0x0,0x6,0x8,0x8
00069c 0708
00069d 0f00
00069e 0000
00069f 0f00      	.DB  0x8,0x7,0x0,0xF,0x0,0x0,0x0,0xF
0006a0 0000
0006a1 0000
0006a2 0f00
0006a3 0808      	.DB  0x0,0x0,0x0,0x0,0x0,0xF,0x8,0x8
0006a4 0808
0006a5 0700
0006a6 0808
0006a7 0408      	.DB  0x8,0x8,0x0,0x7,0x8,0x8,0x8,0x4
0006a8 0700
0006a9 0808
0006aa 0708
0006ab 0f00      	.DB  0x0,0x7,0x8,0x8,0x8,0x7,0x0,0xF
0006ac 0000
0006ad 0f00
0006ae 0f00
0006af 0808      	.DB  0x0,0x0,0x0,0xF,0x0,0xF,0x8,0x8
0006b0 0708
0006b1 0700
0006b2 0808
0006b3 0708      	.DB  0x8,0x7,0x0,0x7,0x8,0x8,0x8,0x7
0006b4 0f00
0006b5 0000
0006b6 0e01
0006b7 0000      	.DB  0x0,0xF,0x0,0x0,0x1,0xE,0x0,0x0
0006b8 0100
0006b9 0607
0006ba 0c0e
0006bb 0c0c      	.DB  0x0,0x1,0x7,0x6,0xE,0xC,0xC,0xC
0006bc 0c0c
0006bd 0606
0006be 0606
0006bf 0303      	.DB  0xC,0xC,0x6,0x6,0x6,0x6,0x3,0x3
0006c0 0303
0006c1 0103
0006c2 0101
0006c3 0101      	.DB  0x3,0x3,0x3,0x1,0x1,0x1,0x1,0x1
0006c4 0000
0006c5 0000
0006c6 0000
0006c7 0000      	.DB  0x0,0x0,0x0,0x0,0x0,0x0,0x0,0x0
0006c8 0000
0006c9 0000
0006ca 0000
0006cb 0000      	.DB  0x0,0x0,0x0,0x0,0x0,0x0,0x0,0x0
0006cc 0000
0006cd 0000
0006ce 0000
0006cf 0000      	.DB  0x0,0x0,0x0,0x0,0x0,0x0,0x0,0x0
0006d0 0000
0006d1 0000
0006d2 0000
0006d3 0000      	.DB  0x0,0x0,0x0,0x0,0x0,0x0,0x0,0x0
0006d4 0000
0006d5 0000
0006d6 0000
0006d7 0000      	.DB  0x0,0x0,0x0,0x0,0x0,0x0,0x0,0x0
0006d8 0000
0006d9 0000
0006da 0000
0006db 0000      	.DB  0x0,0x0,0x0,0x0,0x0,0x0,0x0,0x0
0006dc 0000
0006dd 0000
0006de 0000
0006df 0000      	.DB  0x0,0x0,0x0,0x0,0x0,0x0,0x0,0x0
0006e0 0000
0006e1 0000
0006e2 0000
0006e3 0000      	.DB  0x0,0x0,0x0,0x0,0x0,0x0,0x0,0x0
0006e4 0000
0006e5 0000
0006e6 0000
0006e7 0000      	.DB  0x0,0x0,0x0,0x0,0x0,0x0,0x0,0x0
0006e8 0000
0006e9 0000
0006ea 0000
0006eb 0000      	.DB  0x0,0x0,0x0,0x0,0x0,0x0,0x0,0x0
0006ec 0000
0006ed 0000
0006ee 0000
0006ef 0000      	.DB  0x0,0x0,0x0,0x0,0x0,0x0,0x0,0x0
0006f0 0000
0006f1 0000
0006f2 0000
0006f3 0000      	.DB  0x0,0x0,0x0,0x0,0x0,0x0,0x0,0x0
0006f4 0000
0006f5 0000
0006f6 0000
0006f7 0000      	.DB  0x0,0x0,0x0,0x0,0x0,0x0,0x0,0x0
                 _bus:
0006f8 0000
0006f9 0000
0006fa 0000
0006fb 0000      	.DB  0x0,0x0,0x0,0x0,0x0,0x0,0x0,0x0
0006fc 0000
0006fd 0000
0006fe 0000
0006ff 0000      	.DB  0x0,0x0,0x0,0x0,0x0,0x0,0x0,0x0
000700 0000
000701 0000
000702 0000
000703 0000      	.DB  0x0,0x0,0x0,0x0,0x0,0x0,0x0,0x0
000704 0000
000705 0000
000706 0000
000707 0000      	.DB  0x0,0x0,0x0,0x0,0x0,0x0,0x0,0x0
000708 0000
000709 0000
00070a 0000
00070b 0000      	.DB  0x0,0x0,0x0,0x0,0x0,0x0,0x0,0x0
00070c 0000
00070d 0000
00070e 0000
00070f 0000      	.DB  0x0,0x0,0x0,0x0,0x0,0x0,0x0,0x0
000710 0000
000711 0000
000712 0000
000713 0000      	.DB  0x0,0x0,0x0,0x0,0x0,0x0,0x0,0x0
000714 0000
000715 0000
000716 0000
000717 0000      	.DB  0x0,0x0,0x0,0x0,0x0,0x0,0x0,0x0
000718 0000
000719 0000
00071a 0000
00071b 0000      	.DB  0x0,0x0,0x0,0x0,0x0,0x0,0x0,0x0
00071c 0000
00071d 0000
00071e 0000
00071f 0000      	.DB  0x0,0x0,0x0,0x0,0x0,0x0,0x0,0x0
000720 0000
000721 0000
000722 0000
000723 0000      	.DB  0x0,0x0,0x0,0x0,0x0,0x0,0x0,0x0
000724 0000
000725 0000
000726 0000
000727 0000      	.DB  0x0,0x0,0x0,0x0,0x0,0x0,0x0,0x0
000728 0000
000729 0000
00072a 0000
00072b 0000      	.DB  0x0,0x0,0x0,0x0,0x0,0x0,0x0,0x0
00072c 0000
00072d 0000
00072e 0000
00072f 0000      	.DB  0x0,0x0,0x0,0x0,0x0,0x0,0x0,0x0
000730 0000
000731 0000
000732 0000
000733 0000      	.DB  0x0,0x0,0x0,0x0,0x0,0x0,0x0,0x0
000734 0000
000735 0000
000736 0000
000737 0000      	.DB  0x0,0x0,0x0,0x0,0x0,0x0,0x0,0x0
000738 0000
000739 0000
00073a c000
00073b f0e0      	.DB  0x0,0x0,0x0,0x0,0x0,0xC0,0xE0,0xF0
00073c f8f0
00073d f8f8
00073e f8f8
00073f fcfc      	.DB  0xF0,0xF8,0xF8,0xF8,0xF8,0xF8,0xFC,0xFC
000740 fcfc
000741 fcfc
000742 fcfc
000743 fcfc      	.DB  0xFC,0xFC,0xFC,0xFC,0xFC,0xFC,0xFC,0xFC
000744 fcfc
000745 fcfc
000746 fcfc
000747 fcfc      	.DB  0xFC,0xFC,0xFC,0xFC,0xFC,0xFC,0xFC,0xFC
000748 fcfc
000749 f8f8
00074a f8f8
00074b f0f8      	.DB  0xFC,0xFC,0xF8,0xF8,0xF8,0xF8,0xF8,0xF0
00074c e0e0
00074d 00c0
00074e 0000
00074f 0000      	.DB  0xE0,0xE0,0xC0,0x0,0x0,0x0,0x0,0x0
000750 0000
000751 0000
000752 0000
000753 0000      	.DB  0x0,0x0,0x0,0x0,0x0,0x0,0x0,0x0
000754 0000
000755 0000
000756 0000
000757 0000      	.DB  0x0,0x0,0x0,0x0,0x0,0x0,0x0,0x0
000758 0000
000759 0000
00075a 0000
00075b 0000      	.DB  0x0,0x0,0x0,0x0,0x0,0x0,0x0,0x0
00075c 0000
00075d 0000
00075e 0000
00075f 0000      	.DB  0x0,0x0,0x0,0x0,0x0,0x0,0x0,0x0
000760 0000
000761 0000
000762 0000
000763 0000      	.DB  0x0,0x0,0x0,0x0,0x0,0x0,0x0,0x0
000764 0000
000765 0000
000766 0000
000767 0000      	.DB  0x0,0x0,0x0,0x0,0x0,0x0,0x0,0x0
000768 0000
000769 0000
00076a 0000
00076b 0000      	.DB  0x0,0x0,0x0,0x0,0x0,0x0,0x0,0x0
00076c 0000
00076d 0000
00076e 0000
00076f 0000      	.DB  0x0,0x0,0x0,0x0,0x0,0x0,0x0,0x0
000770 0000
000771 0000
000772 0000
000773 0000      	.DB  0x0,0x0,0x0,0x0,0x0,0x0,0x0,0x0
000774 0000
000775 0000
000776 0000
000777 0000      	.DB  0x0,0x0,0x0,0x0,0x0,0x0,0x0,0x0
000778 0000
000779 0000
00077a fffe
00077b 03ff      	.DB  0x0,0x0,0x0,0x0,0xFE,0xFF,0xFF,0x3
00077c 0301
00077d 0303
00077e 0303
00077f 0303      	.DB  0x1,0x3,0x3,0x3,0x3,0x3,0x3,0x3
000780 0303
000781 0303
000782 0303
000783 ff03      	.DB  0x3,0x3,0x3,0x3,0x3,0x3,0x3,0xFF
000784 03ff
000785 0103
000786 0303
000787 0303      	.DB  0xFF,0x3,0x3,0x1,0x3,0x3,0x3,0x3
000788 0303
000789 0303
00078a 0303
00078b 0303      	.DB  0x3,0x3,0x3,0x3,0x3,0x3,0x3,0x3
00078c 0703
00078d feff
00078e 0000
00078f 0000      	.DB  0x3,0x7,0xFF,0xFE,0x0,0x0,0x0,0x0
000790 0000
000791 0000
000792 0000
000793 0000      	.DB  0x0,0x0,0x0,0x0,0x0,0x0,0x0,0x0
000794 0000
000795 0000
000796 0000
000797 0000      	.DB  0x0,0x0,0x0,0x0,0x0,0x0,0x0,0x0
000798 0000
000799 0000
00079a 0000
00079b 0000      	.DB  0x0,0x0,0x0,0x0,0x0,0x0,0x0,0x0
00079c 0000
00079d 0000
00079e 0000
00079f 0000      	.DB  0x0,0x0,0x0,0x0,0x0,0x0,0x0,0x0
0007a0 0000
0007a1 0000
0007a2 0000
0007a3 0000      	.DB  0x0,0x0,0x0,0x0,0x0,0x0,0x0,0x0
0007a4 0000
0007a5 0000
0007a6 0000
0007a7 0000      	.DB  0x0,0x0,0x0,0x0,0x0,0x0,0x0,0x0
0007a8 0000
0007a9 0000
0007aa 0000
0007ab 0000      	.DB  0x0,0x0,0x0,0x0,0x0,0x0,0x0,0x0
0007ac 0000
0007ad 0000
0007ae 0000
0007af 0000      	.DB  0x0,0x0,0x0,0x0,0x0,0x0,0x0,0x0
0007b0 0000
0007b1 0000
0007b2 0000
0007b3 0000      	.DB  0x0,0x0,0x0,0x0,0x0,0x0,0x0,0x0
0007b4 0000
0007b5 0000
0007b6 0000
0007b7 0000      	.DB  0x0,0x0,0x0,0x0,0x0,0x0,0x0,0x0
0007b8 0000
0007b9 0000
0007ba ffff
0007bb c0ff      	.DB  0x0,0x0,0x0,0x0,0xFF,0xFF,0xFF,0xC0
0007bc c0c0
0007bd c0c0
0007be c0c0
0007bf c0c0      	.DB  0xC0,0xC0,0xC0,0xC0,0xC0,0xC0,0xC0,0xC0
0007c0 c0c0
0007c1 c0c0
0007c2 c0c0
0007c3 ffe0      	.DB  0xC0,0xC0,0xC0,0xC0,0xC0,0xC0,0xE0,0xFF
0007c4 e0ff
0007c5 c0c0
0007c6 e0c0
0007c7 c8d0      	.DB  0xFF,0xE0,0xC0,0xC0,0xC0,0xE0,0xD0,0xC8
0007c8 c4c4
0007c9 c4c4
0007ca d0c8
0007cb c0e0      	.DB  0xC4,0xC4,0xC4,0xC4,0xC8,0xD0,0xE0,0xC0
0007cc f0e0
0007cd ffff
0007ce 0000
0007cf 0000      	.DB  0xE0,0xF0,0xFF,0xFF,0x0,0x0,0x0,0x0
0007d0 0000
0007d1 0000
0007d2 0000
0007d3 0000      	.DB  0x0,0x0,0x0,0x0,0x0,0x0,0x0,0x0
0007d4 0000
0007d5 0000
0007d6 0000
0007d7 0000      	.DB  0x0,0x0,0x0,0x0,0x0,0x0,0x0,0x0
0007d8 0000
0007d9 0000
0007da 0000
0007db 0000      	.DB  0x0,0x0,0x0,0x0,0x0,0x0,0x0,0x0
0007dc 0000
0007dd 0000
0007de 0000
0007df 0000      	.DB  0x0,0x0,0x0,0x0,0x0,0x0,0x0,0x0
0007e0 0000
0007e1 0000
0007e2 0000
0007e3 0000      	.DB  0x0,0x0,0x0,0x0,0x0,0x0,0x0,0x0
0007e4 0000
0007e5 0000
0007e6 0000
0007e7 0000      	.DB  0x0,0x0,0x0,0x0,0x0,0x0,0x0,0x0
0007e8 0000
0007e9 0000
0007ea 0000
0007eb 0000      	.DB  0x0,0x0,0x0,0x0,0x0,0x0,0x0,0x0
0007ec 0000
0007ed 0000
0007ee 0000
0007ef 0000      	.DB  0x0,0x0,0x0,0x0,0x0,0x0,0x0,0x0
0007f0 0000
0007f1 0000
0007f2 0000
0007f3 0000      	.DB  0x0,0x0,0x0,0x0,0x0,0x0,0x0,0x0
0007f4 0000
0007f5 0000
0007f6 0000
0007f7 0000      	.DB  0x0,0x0,0x0,0x0,0x0,0x0,0x0,0x0
0007f8 0000
0007f9 0000
0007fa ffff
0007fb ffff      	.DB  0x0,0x0,0x0,0x0,0xFF,0xFF,0xFF,0xFF
0007fc ffff
0007fd ffff
0007fe ffff
0007ff ffff      	.DB  0xFF,0xFF,0xFF,0xFF,0xFF,0xFF,0xFF,0xFF
000800 ffff
000801 ffff
000802 ffff
000803 ffff      	.DB  0xFF,0xFF,0xFF,0xFF,0xFF,0xFF,0xFF,0xFF
000804 ffff
000805 ffff
000806 ffff
000807 ffff      	.DB  0xFF,0xFF,0xFF,0xFF,0xFF,0xFF,0xFF,0xFF
000808 ffff
000809 ffff
00080a ffff
00080b ffff      	.DB  0xFF,0xFF,0xFF,0xFF,0xFF,0xFF,0xFF,0xFF
00080c ffff
00080d ffff
00080e 0000
00080f 0000      	.DB  0xFF,0xFF,0xFF,0xFF,0x0,0x0,0x0,0x0
000810 0000
000811 0000
000812 0000
000813 0000      	.DB  0x0,0x0,0x0,0x0,0x0,0x0,0x0,0x0
000814 0000
000815 0000
000816 0000
000817 0000      	.DB  0x0,0x0,0x0,0x0,0x0,0x0,0x0,0x0
000818 0000
000819 0000
00081a 0000
00081b 0000      	.DB  0x0,0x0,0x0,0x0,0x0,0x0,0x0,0x0
00081c 0000
00081d 0000
00081e 0000
00081f 0000      	.DB  0x0,0x0,0x0,0x0,0x0,0x0,0x0,0x0
000820 0000
000821 0000
000822 0000
000823 0000      	.DB  0x0,0x0,0x0,0x0,0x0,0x0,0x0,0x0
000824 0000
000825 0000
000826 0000
000827 0000      	.DB  0x0,0x0,0x0,0x0,0x0,0x0,0x0,0x0
000828 0000
000829 0000
00082a 0000
00082b 0000      	.DB  0x0,0x0,0x0,0x0,0x0,0x0,0x0,0x0
00082c 0000
00082d 0000
00082e 0000
00082f 0000      	.DB  0x0,0x0,0x0,0x0,0x0,0x0,0x0,0x0
000830 0000
000831 0000
000832 0000
000833 0000      	.DB  0x0,0x0,0x0,0x0,0x0,0x0,0x0,0x0
000834 0000
000835 0000
000836 0000
000837 0000      	.DB  0x0,0x0,0x0,0x0,0x0,0x0,0x0,0x0
000838 0000
000839 0000
00083a ff3f
00083b e1ff      	.DB  0x0,0x0,0x0,0x0,0x3F,0xFF,0xFF,0xE1
00083c e1e1
00083d ffe1
00083e ffff
00083f d9f9      	.DB  0xE1,0xE1,0xE1,0xFF,0xFF,0xFF,0xF9,0xD9
000840 d9d9
000841 d9d9
000842 d9d9
000843 d9d9      	.DB  0xD9,0xD9,0xD9,0xD9,0xD9,0xD9,0xD9,0xD9
000844 d9d9
000845 d9d9
000846 d9d9
000847 d9d9      	.DB  0xD9,0xD9,0xD9,0xD9,0xD9,0xD9,0xD9,0xD9
000848 fbc9
000849 ffff
00084a e1ff
00084b c1e1      	.DB  0xC9,0xFB,0xFF,0xFF,0xFF,0xE1,0xE1,0xC1
00084c f7e1
00084d 3fff
00084e 0000
00084f 0000      	.DB  0xE1,0xF7,0xFF,0x3F,0x0,0x0,0x0,0x0
000850 0000
000851 0000
000852 0000
000853 0000      	.DB  0x0,0x0,0x0,0x0,0x0,0x0,0x0,0x0
000854 0000
000855 0000
000856 0000
000857 0000      	.DB  0x0,0x0,0x0,0x0,0x0,0x0,0x0,0x0
000858 0000
000859 0000
00085a 0000
00085b 0000      	.DB  0x0,0x0,0x0,0x0,0x0,0x0,0x0,0x0
00085c 0000
00085d 0000
00085e 0000
00085f 0000      	.DB  0x0,0x0,0x0,0x0,0x0,0x0,0x0,0x0
000860 0000
000861 0000
000862 0000
000863 0000      	.DB  0x0,0x0,0x0,0x0,0x0,0x0,0x0,0x0
000864 0000
000865 0000
000866 0000
000867 0000      	.DB  0x0,0x0,0x0,0x0,0x0,0x0,0x0,0x0
000868 0000
000869 0000
00086a 0000
00086b 0000      	.DB  0x0,0x0,0x0,0x0,0x0,0x0,0x0,0x0
00086c 0000
00086d 0000
00086e 0000
00086f 0000      	.DB  0x0,0x0,0x0,0x0,0x0,0x0,0x0,0x0
000870 0000
000871 0000
000872 0000
000873 0000      	.DB  0x0,0x0,0x0,0x0,0x0,0x0,0x0,0x0
000874 0000
000875 0000
000876 0000
000877 0000      	.DB  0x0,0x0,0x0,0x0,0x0,0x0,0x0,0x0
000878 0000
000879 0000
00087a 0000
00087b 3f1f      	.DB  0x0,0x0,0x0,0x0,0x0,0x0,0x1F,0x3F
00087c 3f3f
00087d 3f3f
00087e 003f
00087f 0000      	.DB  0x3F,0x3F,0x3F,0x3F,0x3F,0x0,0x0,0x0
000880 0000
000881 0000
000882 0000
000883 0000      	.DB  0x0,0x0,0x0,0x0,0x0,0x0,0x0,0x0
000884 0000
000885 0000
000886 0000
000887 0000      	.DB  0x0,0x0,0x0,0x0,0x0,0x0,0x0,0x0
000888 0000
000889 3f1f
00088a 3f3f
00088b 3f3f      	.DB  0x0,0x0,0x1F,0x3F,0x3F,0x3F,0x3F,0x3F
00088c 1f3f
00088d 0000
00088e 0000
00088f 0000      	.DB  0x3F,0x1F,0x0,0x0,0x0,0x0,0x0,0x0
000890 0000
000891 0000
000892 0000
000893 0000      	.DB  0x0,0x0,0x0,0x0,0x0,0x0,0x0,0x0
000894 0000
000895 0000
000896 0000
000897 0000      	.DB  0x0,0x0,0x0,0x0,0x0,0x0,0x0,0x0
000898 0000
000899 0000
00089a 0000
00089b 0000      	.DB  0x0,0x0,0x0,0x0,0x0,0x0,0x0,0x0
00089c 0000
00089d 0000
00089e 0000
00089f 0000      	.DB  0x0,0x0,0x0,0x0,0x0,0x0,0x0,0x0
0008a0 0000
0008a1 0000
0008a2 0000
0008a3 0000      	.DB  0x0,0x0,0x0,0x0,0x0,0x0,0x0,0x0
0008a4 0000
0008a5 0000
0008a6 0000
0008a7 0000      	.DB  0x0,0x0,0x0,0x0,0x0,0x0,0x0,0x0
0008a8 0000
0008a9 0000
0008aa 0000
0008ab 0000      	.DB  0x0,0x0,0x0,0x0,0x0,0x0,0x0,0x0
0008ac 0000
0008ad 0000
0008ae 0000
0008af 0000      	.DB  0x0,0x0,0x0,0x0,0x0,0x0,0x0,0x0
0008b0 0000
0008b1 0000
0008b2 0000
0008b3 0000      	.DB  0x0,0x0,0x0,0x0,0x0,0x0,0x0,0x0
0008b4 0000
0008b5 0000
0008b6 0000
0008b7 0000      	.DB  0x0,0x0,0x0,0x0,0x0,0x0,0x0,0x0
0008b8 0000
0008b9 0000
0008ba 0000
0008bb 0000      	.DB  0x0,0x0,0x0,0x0,0x0,0x0,0x0,0x0
0008bc 0000
0008bd 0000
0008be 0000
0008bf 0000      	.DB  0x0,0x0,0x0,0x0,0x0,0x0,0x0,0x0
0008c0 0000
0008c1 0000
0008c2 0000
0008c3 0000      	.DB  0x0,0x0,0x0,0x0,0x0,0x0,0x0,0x0
0008c4 0000
0008c5 0000
0008c6 0000
0008c7 0000      	.DB  0x0,0x0,0x0,0x0,0x0,0x0,0x0,0x0
0008c8 0000
0008c9 0000
0008ca 0000
0008cb 0000      	.DB  0x0,0x0,0x0,0x0,0x0,0x0,0x0,0x0
0008cc 0000
0008cd 0000
0008ce 0000
0008cf 0000      	.DB  0x0,0x0,0x0,0x0,0x0,0x0,0x0,0x0
0008d0 0000
0008d1 0000
0008d2 0000
0008d3 0000      	.DB  0x0,0x0,0x0,0x0,0x0,0x0,0x0,0x0
0008d4 0000
0008d5 0000
0008d6 0000
0008d7 0000      	.DB  0x0,0x0,0x0,0x0,0x0,0x0,0x0,0x0
0008d8 0000
0008d9 0000
0008da 0000
0008db 0000      	.DB  0x0,0x0,0x0,0x0,0x0,0x0,0x0,0x0
0008dc 0000
0008dd 0000
0008de 0000
0008df 0000      	.DB  0x0,0x0,0x0,0x0,0x0,0x0,0x0,0x0
0008e0 0000
0008e1 0000
0008e2 0000
0008e3 0000      	.DB  0x0,0x0,0x0,0x0,0x0,0x0,0x0,0x0
0008e4 0000
0008e5 0000
0008e6 0000
0008e7 0000      	.DB  0x0,0x0,0x0,0x0,0x0,0x0,0x0,0x0
0008e8 0000
0008e9 0000
0008ea 0000
0008eb 0000      	.DB  0x0,0x0,0x0,0x0,0x0,0x0,0x0,0x0
0008ec 0000
0008ed 0000
0008ee 0000
0008ef 0000      	.DB  0x0,0x0,0x0,0x0,0x0,0x0,0x0,0x0
0008f0 0000
0008f1 0000
0008f2 0000
0008f3 0000      	.DB  0x0,0x0,0x0,0x0,0x0,0x0,0x0,0x0
0008f4 0000
0008f5 0000
0008f6 0000
0008f7 0000      	.DB  0x0,0x0,0x0,0x0,0x0,0x0,0x0,0x0
                 _vacio:
0008f8 0000
0008f9 0000
0008fa 0000
0008fb 0000      	.DB  0x0,0x0,0x0,0x0,0x0,0x0,0x0,0x0
0008fc 0000
0008fd 0000
0008fe 0000
0008ff 0000      	.DB  0x0,0x0,0x0,0x0,0x0,0x0,0x0,0x0
000900 0000
000901 0000
000902 0000
000903 0000      	.DB  0x0,0x0,0x0,0x0,0x0,0x0,0x0,0x0
000904 0000
000905 0000
000906 0000
000907 0000      	.DB  0x0,0x0,0x0,0x0,0x0,0x0,0x0,0x0
000908 0000
000909 0000
00090a 0000
00090b 0000      	.DB  0x0,0x0,0x0,0x0,0x0,0x0,0x0,0x0
00090c 0000
00090d 0000
00090e 0000
00090f 0000      	.DB  0x0,0x0,0x0,0x0,0x0,0x0,0x0,0x0
000910 0000
000911 0000
000912 0000
000913 0000      	.DB  0x0,0x0,0x0,0x0,0x0,0x0,0x0,0x0
000914 0000
000915 0000
000916 0000
000917 0000      	.DB  0x0,0x0,0x0,0x0,0x0,0x0,0x0,0x0
000918 0000
000919 0000
00091a 0000
00091b 0000      	.DB  0x0,0x0,0x0,0x0,0x0,0x0,0x0,0x0
00091c 0000
00091d 0000
00091e 0000
00091f 0000      	.DB  0x0,0x0,0x0,0x0,0x0,0x0,0x0,0x0
000920 0000
000921 0000
000922 0000
000923 0000      	.DB  0x0,0x0,0x0,0x0,0x0,0x0,0x0,0x0
000924 0000
000925 0000
000926 0000
000927 0000      	.DB  0x0,0x0,0x0,0x0,0x0,0x0,0x0,0x0
000928 0000
000929 0000
00092a 0000
00092b 0000      	.DB  0x0,0x0,0x0,0x0,0x0,0x0,0x0,0x0
00092c 0000
00092d 0000
00092e 0000
00092f 0000      	.DB  0x0,0x0,0x0,0x0,0x0,0x0,0x0,0x0
000930 0000
000931 0000
000932 0000
000933 0000      	.DB  0x0,0x0,0x0,0x0,0x0,0x0,0x0,0x0
000934 0000
000935 0000
000936 0000
000937 0000      	.DB  0x0,0x0,0x0,0x0,0x0,0x0,0x0,0x0
000938 0000
000939 0000
00093a 0000
00093b 0000      	.DB  0x0,0x0,0x0,0x0,0x0,0x0,0x0,0x0
00093c 0000
00093d 0000
00093e 0000
00093f 0000      	.DB  0x0,0x0,0x0,0x0,0x0,0x0,0x0,0x0
000940 0000
000941 0000
000942 0000
000943 0000      	.DB  0x0,0x0,0x0,0x0,0x0,0x0,0x0,0x0
000944 0000
000945 0000
000946 0000
000947 0000      	.DB  0x0,0x0,0x0,0x0,0x0,0x0,0x0,0x0
000948 0000
000949 0000
00094a 0000
00094b 0000      	.DB  0x0,0x0,0x0,0x0,0x0,0x0,0x0,0x0
00094c 0000
00094d 0000
00094e 0000
00094f 0000      	.DB  0x0,0x0,0x0,0x0,0x0,0x0,0x0,0x0
000950 0000
000951 0000
000952 0000
000953 0000      	.DB  0x0,0x0,0x0,0x0,0x0,0x0,0x0,0x0
000954 0000
000955 0000
000956 0000
000957 0000      	.DB  0x0,0x0,0x0,0x0,0x0,0x0,0x0,0x0
000958 0000
000959 0000
00095a 0000
00095b 0000      	.DB  0x0,0x0,0x0,0x0,0x0,0x0,0x0,0x0
00095c 0000
00095d 0000
00095e 0000
00095f 0000      	.DB  0x0,0x0,0x0,0x0,0x0,0x0,0x0,0x0
000960 0000
000961 0000
000962 0000
000963 0000      	.DB  0x0,0x0,0x0,0x0,0x0,0x0,0x0,0x0
000964 0000
000965 0000
000966 0000
000967 0000      	.DB  0x0,0x0,0x0,0x0,0x0,0x0,0x0,0x0
000968 0000
000969 0000
00096a 0000
00096b 0000      	.DB  0x0,0x0,0x0,0x0,0x0,0x0,0x0,0x0
00096c 0000
00096d 0000
00096e 0000
00096f 0000      	.DB  0x0,0x0,0x0,0x0,0x0,0x0,0x0,0x0
000970 0000
000971 0000
000972 0000
000973 0000      	.DB  0x0,0x0,0x0,0x0,0x0,0x0,0x0,0x0
000974 0000
000975 0000
000976 0000
000977 0000      	.DB  0x0,0x0,0x0,0x0,0x0,0x0,0x0,0x0
000978 0000
000979 0000
00097a 0000
00097b 0000      	.DB  0x0,0x0,0x0,0x0,0x0,0x0,0x0,0x0
00097c 0000
00097d 0000
00097e 0000
00097f 0000      	.DB  0x0,0x0,0x0,0x0,0x0,0x0,0x0,0x0
000980 0000
000981 0000
000982 0000
000983 0000      	.DB  0x0,0x0,0x0,0x0,0x0,0x0,0x0,0x0
000984 0000
000985 0000
000986 0000
000987 0000      	.DB  0x0,0x0,0x0,0x0,0x0,0x0,0x0,0x0
000988 0000
000989 0000
00098a 0000
00098b 0000      	.DB  0x0,0x0,0x0,0x0,0x0,0x0,0x0,0x0
00098c 0000
00098d 0000
00098e 0000
00098f 0000      	.DB  0x0,0x0,0x0,0x0,0x0,0x0,0x0,0x0
000990 0000
000991 0000
000992 0000
000993 0000      	.DB  0x0,0x0,0x0,0x0,0x0,0x0,0x0,0x0
000994 0000
000995 0000
000996 0000
000997 0000      	.DB  0x0,0x0,0x0,0x0,0x0,0x0,0x0,0x0
000998 0000
000999 0000
00099a 0000
00099b 0000      	.DB  0x0,0x0,0x0,0x0,0x0,0x0,0x0,0x0
00099c 0000
00099d 0000
00099e 0000
00099f 0000      	.DB  0x0,0x0,0x0,0x0,0x0,0x0,0x0,0x0
0009a0 0000
0009a1 0000
0009a2 0000
0009a3 0000      	.DB  0x0,0x0,0x0,0x0,0x0,0x0,0x0,0x0
0009a4 0000
0009a5 0000
0009a6 0000
0009a7 0000      	.DB  0x0,0x0,0x0,0x0,0x0,0x0,0x0,0x0
0009a8 0000
0009a9 0000
0009aa 0000
0009ab 0000      	.DB  0x0,0x0,0x0,0x0,0x0,0x0,0x0,0x0
0009ac 0000
0009ad 0000
0009ae 0000
0009af 0000      	.DB  0x0,0x0,0x0,0x0,0x0,0x0,0x0,0x0
0009b0 0000
0009b1 0000
0009b2 0000
0009b3 0000      	.DB  0x0,0x0,0x0,0x0,0x0,0x0,0x0,0x0
0009b4 0000
0009b5 0000
0009b6 0000
0009b7 0000      	.DB  0x0,0x0,0x0,0x0,0x0,0x0,0x0,0x0
0009b8 0000
0009b9 0000
0009ba 0000
0009bb 0000      	.DB  0x0,0x0,0x0,0x0,0x0,0x0,0x0,0x0
0009bc 0000
0009bd 0000
0009be 0000
0009bf 0000      	.DB  0x0,0x0,0x0,0x0,0x0,0x0,0x0,0x0
0009c0 0000
0009c1 0000
0009c2 0000
0009c3 0000      	.DB  0x0,0x0,0x0,0x0,0x0,0x0,0x0,0x0
0009c4 0000
0009c5 0000
0009c6 0000
0009c7 0000      	.DB  0x0,0x0,0x0,0x0,0x0,0x0,0x0,0x0
0009c8 0000
0009c9 0000
0009ca 0000
0009cb 0000      	.DB  0x0,0x0,0x0,0x0,0x0,0x0,0x0,0x0
0009cc 0000
0009cd 0000
0009ce 0000
0009cf 0000      	.DB  0x0,0x0,0x0,0x0,0x0,0x0,0x0,0x0
0009d0 0000
0009d1 0000
0009d2 0000
0009d3 0000      	.DB  0x0,0x0,0x0,0x0,0x0,0x0,0x0,0x0
0009d4 0000
0009d5 0000
0009d6 0000
0009d7 0000      	.DB  0x0,0x0,0x0,0x0,0x0,0x0,0x0,0x0
0009d8 0000
0009d9 0000
0009da 0000
0009db 0000      	.DB  0x0,0x0,0x0,0x0,0x0,0x0,0x0,0x0
0009dc 0000
0009dd 0000
0009de 0000
0009df 0000      	.DB  0x0,0x0,0x0,0x0,0x0,0x0,0x0,0x0
0009e0 0000
0009e1 0000
0009e2 0000
0009e3 0000      	.DB  0x0,0x0,0x0,0x0,0x0,0x0,0x0,0x0
0009e4 0000
0009e5 0000
0009e6 0000
0009e7 0000      	.DB  0x0,0x0,0x0,0x0,0x0,0x0,0x0,0x0
0009e8 0000
0009e9 0000
0009ea 0000
0009eb 0000      	.DB  0x0,0x0,0x0,0x0,0x0,0x0,0x0,0x0
0009ec 0000
0009ed 0000
0009ee 0000
0009ef 0000      	.DB  0x0,0x0,0x0,0x0,0x0,0x0,0x0,0x0
0009f0 0000
0009f1 0000
0009f2 0000
0009f3 0000      	.DB  0x0,0x0,0x0,0x0,0x0,0x0,0x0,0x0
0009f4 0000
0009f5 0000
0009f6 0000
0009f7 0000      	.DB  0x0,0x0,0x0,0x0,0x0,0x0,0x0,0x0
0009f8 0000
0009f9 0000
0009fa 0000
0009fb 0000      	.DB  0x0,0x0,0x0,0x0,0x0,0x0,0x0,0x0
0009fc 0000
0009fd 0000
0009fe 0000
0009ff 0000      	.DB  0x0,0x0,0x0,0x0,0x0,0x0,0x0,0x0
000a00 0000
000a01 0000
000a02 0000
000a03 0000      	.DB  0x0,0x0,0x0,0x0,0x0,0x0,0x0,0x0
000a04 0000
000a05 0000
000a06 0000
000a07 0000      	.DB  0x0,0x0,0x0,0x0,0x0,0x0,0x0,0x0
000a08 0000
000a09 0000
000a0a 0000
000a0b 0000      	.DB  0x0,0x0,0x0,0x0,0x0,0x0,0x0,0x0
000a0c 0000
000a0d 0000
000a0e 0000
000a0f 0000      	.DB  0x0,0x0,0x0,0x0,0x0,0x0,0x0,0x0
000a10 0000
000a11 0000
000a12 0000
000a13 0000      	.DB  0x0,0x0,0x0,0x0,0x0,0x0,0x0,0x0
000a14 0000
000a15 0000
000a16 0000
000a17 0000      	.DB  0x0,0x0,0x0,0x0,0x0,0x0,0x0,0x0
000a18 0000
000a19 0000
000a1a 0000
000a1b 0000      	.DB  0x0,0x0,0x0,0x0,0x0,0x0,0x0,0x0
000a1c 0000
000a1d 0000
000a1e 0000
000a1f 0000      	.DB  0x0,0x0,0x0,0x0,0x0,0x0,0x0,0x0
000a20 0000
000a21 0000
000a22 0000
000a23 0000      	.DB  0x0,0x0,0x0,0x0,0x0,0x0,0x0,0x0
000a24 0000
000a25 0000
000a26 0000
000a27 0000      	.DB  0x0,0x0,0x0,0x0,0x0,0x0,0x0,0x0
000a28 0000
000a29 0000
000a2a 0000
000a2b 0000      	.DB  0x0,0x0,0x0,0x0,0x0,0x0,0x0,0x0
000a2c 0000
000a2d 0000
000a2e 0000
000a2f 0000      	.DB  0x0,0x0,0x0,0x0,0x0,0x0,0x0,0x0
000a30 0000
000a31 0000
000a32 0000
000a33 0000      	.DB  0x0,0x0,0x0,0x0,0x0,0x0,0x0,0x0
000a34 0000
000a35 0000
000a36 0000
000a37 0000      	.DB  0x0,0x0,0x0,0x0,0x0,0x0,0x0,0x0
000a38 0000
000a39 0000
000a3a 0000
000a3b 0000      	.DB  0x0,0x0,0x0,0x0,0x0,0x0,0x0,0x0
000a3c 0000
000a3d 0000
000a3e 0000
000a3f 0000      	.DB  0x0,0x0,0x0,0x0,0x0,0x0,0x0,0x0
000a40 0000
000a41 0000
000a42 0000
000a43 0000      	.DB  0x0,0x0,0x0,0x0,0x0,0x0,0x0,0x0
000a44 0000
000a45 0000
000a46 0000
000a47 0000      	.DB  0x0,0x0,0x0,0x0,0x0,0x0,0x0,0x0
000a48 0000
000a49 0000
000a4a 0000
000a4b 0000      	.DB  0x0,0x0,0x0,0x0,0x0,0x0,0x0,0x0
000a4c 0000
000a4d 0000
000a4e 0000
000a4f 0000      	.DB  0x0,0x0,0x0,0x0,0x0,0x0,0x0,0x0
000a50 0000
000a51 0000
000a52 0000
000a53 0000      	.DB  0x0,0x0,0x0,0x0,0x0,0x0,0x0,0x0
000a54 0000
000a55 0000
000a56 0000
000a57 0000      	.DB  0x0,0x0,0x0,0x0,0x0,0x0,0x0,0x0
000a58 0000
000a59 0000
000a5a 0000
000a5b 0000      	.DB  0x0,0x0,0x0,0x0,0x0,0x0,0x0,0x0
000a5c 0000
000a5d 0000
000a5e 0000
000a5f 0000      	.DB  0x0,0x0,0x0,0x0,0x0,0x0,0x0,0x0
000a60 0000
000a61 0000
000a62 0000
000a63 0000      	.DB  0x0,0x0,0x0,0x0,0x0,0x0,0x0,0x0
000a64 0000
000a65 0000
000a66 0000
000a67 0000      	.DB  0x0,0x0,0x0,0x0,0x0,0x0,0x0,0x0
000a68 0000
000a69 0000
000a6a 0000
000a6b 0000      	.DB  0x0,0x0,0x0,0x0,0x0,0x0,0x0,0x0
000a6c 0000
000a6d 0000
000a6e 0000
000a6f 0000      	.DB  0x0,0x0,0x0,0x0,0x0,0x0,0x0,0x0
000a70 0000
000a71 0000
000a72 0000
000a73 0000      	.DB  0x0,0x0,0x0,0x0,0x0,0x0,0x0,0x0
000a74 0000
000a75 0000
000a76 0000
000a77 0000      	.DB  0x0,0x0,0x0,0x0,0x0,0x0,0x0,0x0
000a78 0000
000a79 0000
000a7a f800
000a7b c284      	.DB  0x0,0x0,0x0,0x0,0x0,0xF8,0x84,0xC2
000a7c 0202
000a7d 0202
000a7e 02fe
000a7f 0202      	.DB  0x2,0x2,0x2,0x2,0xFE,0x2,0x2,0x2
000a80 fec2
000a81 0202
000a82 0202
000a83 f8c4      	.DB  0xC2,0xFE,0x2,0x2,0x2,0x2,0xC4,0xF8
000a84 0000
000a85 0000
000a86 0000
000a87 0000      	.DB  0x0,0x0,0x0,0x0,0x0,0x0,0x0,0x0
000a88 0000
000a89 0000
000a8a 0000
000a8b 0000      	.DB  0x0,0x0,0x0,0x0,0x0,0x0,0x0,0x0
000a8c 0000
000a8d 0000
000a8e 0000
000a8f 0000      	.DB  0x0,0x0,0x0,0x0,0x0,0x0,0x0,0x0
000a90 0000
000a91 0000
000a92 0000
000a93 0000      	.DB  0x0,0x0,0x0,0x0,0x0,0x0,0x0,0x0
000a94 0000
000a95 0000
000a96 0000
000a97 0000      	.DB  0x0,0x0,0x0,0x0,0x0,0x0,0x0,0x0
000a98 0000
000a99 0000
000a9a 0000
000a9b 0000      	.DB  0x0,0x0,0x0,0x0,0x0,0x0,0x0,0x0
000a9c 0000
000a9d 0000
000a9e 0000
000a9f 0000      	.DB  0x0,0x0,0x0,0x0,0x0,0x0,0x0,0x0
000aa0 0000
000aa1 0000
000aa2 0000
000aa3 0000      	.DB  0x0,0x0,0x0,0x0,0x0,0x0,0x0,0x0
000aa4 0000
000aa5 0000
000aa6 0000
000aa7 0000      	.DB  0x0,0x0,0x0,0x0,0x0,0x0,0x0,0x0
000aa8 0000
000aa9 0000
000aaa 0000
000aab 0000      	.DB  0x0,0x0,0x0,0x0,0x0,0x0,0x0,0x0
000aac 0000
000aad 0000
000aae 0000
000aaf 0000      	.DB  0x0,0x0,0x0,0x0,0x0,0x0,0x0,0x0
000ab0 0000
000ab1 0000
000ab2 0000
000ab3 0000      	.DB  0x0,0x0,0x0,0x0,0x0,0x0,0x0,0x0
000ab4 0000
000ab5 0000
000ab6 0000
000ab7 0000      	.DB  0x0,0x0,0x0,0x0,0x0,0x0,0x0,0x0
000ab8 0000
000ab9 1e00
000aba 7f1f
000abb fdff      	.DB  0x0,0x0,0x0,0x1E,0x1F,0x7F,0xFF,0xFD
000abc 1c7c
000abd 1c1c
000abe 1c1f
000abf 1c1c      	.DB  0x7C,0x1C,0x1C,0x1C,0x1F,0x1C,0x1C,0x1C
000ac0 1f1f
000ac1 fc7c
000ac2 7cfc
000ac3 0f1f      	.DB  0x1F,0x1F,0x7C,0xFC,0xFC,0x7C,0x1F,0xF
000ac4 0000
000ac5 0000
000ac6 0000
000ac7 0000      	.DB  0x0,0x0,0x0,0x0,0x0,0x0,0x0,0x0
000ac8 0000
000ac9 0000
000aca 0000
000acb 0000      	.DB  0x0,0x0,0x0,0x0,0x0,0x0,0x0,0x0
000acc 0000
000acd 0000
000ace 0000
000acf 0000      	.DB  0x0,0x0,0x0,0x0,0x0,0x0,0x0,0x0
000ad0 0000
000ad1 0000
000ad2 0000
000ad3 0000      	.DB  0x0,0x0,0x0,0x0,0x0,0x0,0x0,0x0
000ad4 0000
000ad5 0000
000ad6 0000
000ad7 0000      	.DB  0x0,0x0,0x0,0x0,0x0,0x0,0x0,0x0
000ad8 0000
000ad9 0000
000ada 0000
000adb 0000      	.DB  0x0,0x0,0x0,0x0,0x0,0x0,0x0,0x0
000adc 0000
000add 0000
000ade 0000
000adf 0000      	.DB  0x0,0x0,0x0,0x0,0x0,0x0,0x0,0x0
000ae0 0000
000ae1 0000
000ae2 0000
000ae3 0000      	.DB  0x0,0x0,0x0,0x0,0x0,0x0,0x0,0x0
000ae4 0000
000ae5 0000
000ae6 0000
000ae7 0000      	.DB  0x0,0x0,0x0,0x0,0x0,0x0,0x0,0x0
000ae8 0000
000ae9 0000
000aea 0000
000aeb 0000      	.DB  0x0,0x0,0x0,0x0,0x0,0x0,0x0,0x0
000aec 0000
000aed 0000
000aee 0000
000aef 0000      	.DB  0x0,0x0,0x0,0x0,0x0,0x0,0x0,0x0
000af0 0000
000af1 0000
000af2 0000
000af3 0000      	.DB  0x0,0x0,0x0,0x0,0x0,0x0,0x0,0x0
000af4 0000
000af5 0000
000af6 0000
000af7 0000      	.DB  0x0,0x0,0x0,0x0,0x0,0x0,0x0,0x0
                 _frente:
000af8 0000
000af9 0000
000afa 0000
000afb 0000      	.DB  0x0,0x0,0x0,0x0,0x0,0x0,0x0,0x0
000afc 0000
000afd 0000
000afe 0000
000aff 0000      	.DB  0x0,0x0,0x0,0x0,0x0,0x0,0x0,0x0
000b00 0000
000b01 0000
000b02 0000
000b03 0000      	.DB  0x0,0x0,0x0,0x0,0x0,0x0,0x0,0x0
000b04 0000
000b05 0000
000b06 0000
000b07 0000      	.DB  0x0,0x0,0x0,0x0,0x0,0x0,0x0,0x0
000b08 0000
000b09 0000
000b0a 0000
000b0b 0000      	.DB  0x0,0x0,0x0,0x0,0x0,0x0,0x0,0x0
000b0c 0000
000b0d 0000
000b0e 0000
000b0f 0000      	.DB  0x0,0x0,0x0,0x0,0x0,0x0,0x0,0x0
000b10 0000
000b11 0000
000b12 0000
000b13 0000      	.DB  0x0,0x0,0x0,0x0,0x0,0x0,0x0,0x0
000b14 0000
000b15 0000
000b16 0000
000b17 0000      	.DB  0x0,0x0,0x0,0x0,0x0,0x0,0x0,0x0
000b18 0000
000b19 0000
000b1a 0000
000b1b 0000      	.DB  0x0,0x0,0x0,0x0,0x0,0x0,0x0,0x0
000b1c 0000
000b1d 0000
000b1e 0000
000b1f 0000      	.DB  0x0,0x0,0x0,0x0,0x0,0x0,0x0,0x0
000b20 0000
000b21 0000
000b22 0000
000b23 0000      	.DB  0x0,0x0,0x0,0x0,0x0,0x0,0x0,0x0
000b24 0000
000b25 0000
000b26 0000
000b27 0000      	.DB  0x0,0x0,0x0,0x0,0x0,0x0,0x0,0x0
000b28 0000
000b29 0000
000b2a 0000
000b2b 0000      	.DB  0x0,0x0,0x0,0x0,0x0,0x0,0x0,0x0
000b2c 0000
000b2d 0000
000b2e 0000
000b2f 0000      	.DB  0x0,0x0,0x0,0x0,0x0,0x0,0x0,0x0
000b30 0000
000b31 0000
000b32 0000
000b33 0000      	.DB  0x0,0x0,0x0,0x0,0x0,0x0,0x0,0x0
000b34 0000
000b35 0000
000b36 0000
000b37 0000      	.DB  0x0,0x0,0x0,0x0,0x0,0x0,0x0,0x0
000b38 0000
000b39 0000
000b3a 0000
000b3b 0000      	.DB  0x0,0x0,0x0,0x0,0x0,0x0,0x0,0x0
000b3c 0000
000b3d 0000
000b3e 0000
000b3f 0000      	.DB  0x0,0x0,0x0,0x0,0x0,0x0,0x0,0x0
000b40 0000
000b41 0000
000b42 0000
000b43 0000      	.DB  0x0,0x0,0x0,0x0,0x0,0x0,0x0,0x0
000b44 0000
000b45 0000
000b46 0000
000b47 0000      	.DB  0x0,0x0,0x0,0x0,0x0,0x0,0x0,0x0
000b48 0000
000b49 0000
000b4a 0000
000b4b 0000      	.DB  0x0,0x0,0x0,0x0,0x0,0x0,0x0,0x0
000b4c 0000
000b4d 0000
000b4e 0000
000b4f 0000      	.DB  0x0,0x0,0x0,0x0,0x0,0x0,0x0,0x0
000b50 0000
000b51 0000
000b52 0000
000b53 0000      	.DB  0x0,0x0,0x0,0x0,0x0,0x0,0x0,0x0
000b54 0000
000b55 0000
000b56 0000
000b57 0000      	.DB  0x0,0x0,0x0,0x0,0x0,0x0,0x0,0x0
000b58 0000
000b59 0000
000b5a 0000
000b5b 0000      	.DB  0x0,0x0,0x0,0x0,0x0,0x0,0x0,0x0
000b5c 0000
000b5d 0000
000b5e 0000
000b5f 0000      	.DB  0x0,0x0,0x0,0x0,0x0,0x0,0x0,0x0
000b60 0000
000b61 0000
000b62 0000
000b63 0000      	.DB  0x0,0x0,0x0,0x0,0x0,0x0,0x0,0x0
000b64 0000
000b65 0000
000b66 0000
000b67 0000      	.DB  0x0,0x0,0x0,0x0,0x0,0x0,0x0,0x0
000b68 0000
000b69 0000
000b6a 0000
000b6b 0000      	.DB  0x0,0x0,0x0,0x0,0x0,0x0,0x0,0x0
000b6c 0000
000b6d 0000
000b6e 0000
000b6f 0000      	.DB  0x0,0x0,0x0,0x0,0x0,0x0,0x0,0x0
000b70 0000
000b71 0000
000b72 0000
000b73 0000      	.DB  0x0,0x0,0x0,0x0,0x0,0x0,0x0,0x0
000b74 0000
000b75 0000
000b76 0000
000b77 0000      	.DB  0x0,0x0,0x0,0x0,0x0,0x0,0x0,0x0
000b78 0000
000b79 0000
000b7a 0000
000b7b 0000      	.DB  0x0,0x0,0x0,0x0,0x0,0x0,0x0,0x0
000b7c 0000
000b7d 0000
000b7e 0000
000b7f 0000      	.DB  0x0,0x0,0x0,0x0,0x0,0x0,0x0,0x0
000b80 0000
000b81 0000
000b82 0000
000b83 0000      	.DB  0x0,0x0,0x0,0x0,0x0,0x0,0x0,0x0
000b84 0000
000b85 0000
000b86 0000
000b87 0000      	.DB  0x0,0x0,0x0,0x0,0x0,0x0,0x0,0x0
000b88 0000
000b89 0000
000b8a 0000
000b8b 0000      	.DB  0x0,0x0,0x0,0x0,0x0,0x0,0x0,0x0
000b8c 0000
000b8d 0000
000b8e 0000
000b8f 0000      	.DB  0x0,0x0,0x0,0x0,0x0,0x0,0x0,0x0
000b90 0000
000b91 0000
000b92 0000
000b93 0000      	.DB  0x0,0x0,0x0,0x0,0x0,0x0,0x0,0x0
000b94 0000
000b95 0000
000b96 0000
000b97 0000      	.DB  0x0,0x0,0x0,0x0,0x0,0x0,0x0,0x0
000b98 0000
000b99 0000
000b9a 0000
000b9b 0000      	.DB  0x0,0x0,0x0,0x0,0x0,0x0,0x0,0x0
000b9c 0000
000b9d 0000
000b9e 0000
000b9f 0000      	.DB  0x0,0x0,0x0,0x0,0x0,0x0,0x0,0x0
000ba0 0000
000ba1 0000
000ba2 0000
000ba3 0000      	.DB  0x0,0x0,0x0,0x0,0x0,0x0,0x0,0x0
000ba4 0000
000ba5 0000
000ba6 0000
000ba7 0000      	.DB  0x0,0x0,0x0,0x0,0x0,0x0,0x0,0x0
000ba8 0000
000ba9 0000
000baa 0000
000bab 0000      	.DB  0x0,0x0,0x0,0x0,0x0,0x0,0x0,0x0
000bac 0000
000bad 0000
000bae 0000
000baf 0000      	.DB  0x0,0x0,0x0,0x0,0x0,0x0,0x0,0x0
000bb0 0000
000bb1 0000
000bb2 0000
000bb3 0000      	.DB  0x0,0x0,0x0,0x0,0x0,0x0,0x0,0x0
000bb4 0000
000bb5 0000
000bb6 0000
000bb7 0000      	.DB  0x0,0x0,0x0,0x0,0x0,0x0,0x0,0x0
000bb8 0000
000bb9 0000
000bba 0000
000bbb 0000      	.DB  0x0,0x0,0x0,0x0,0x0,0x0,0x0,0x0
000bbc 0000
000bbd 0000
000bbe 0000
000bbf 0000      	.DB  0x0,0x0,0x0,0x0,0x0,0x0,0x0,0x0
000bc0 0000
000bc1 0000
000bc2 0000
000bc3 0000      	.DB  0x0,0x0,0x0,0x0,0x0,0x0,0x0,0x0
000bc4 0000
000bc5 0000
000bc6 0000
000bc7 0000      	.DB  0x0,0x0,0x0,0x0,0x0,0x0,0x0,0x0
000bc8 0000
000bc9 0000
000bca 0000
000bcb 0000      	.DB  0x0,0x0,0x0,0x0,0x0,0x0,0x0,0x0
000bcc 0000
000bcd 0000
000bce 0000
000bcf 0000      	.DB  0x0,0x0,0x0,0x0,0x0,0x0,0x0,0x0
000bd0 0000
000bd1 0000
000bd2 0000
000bd3 0000      	.DB  0x0,0x0,0x0,0x0,0x0,0x0,0x0,0x0
000bd4 0000
000bd5 0000
000bd6 0000
000bd7 0000      	.DB  0x0,0x0,0x0,0x0,0x0,0x0,0x0,0x0
000bd8 0000
000bd9 0000
000bda 0000
000bdb 0000      	.DB  0x0,0x0,0x0,0x0,0x0,0x0,0x0,0x0
000bdc 0000
000bdd 0000
000bde 0000
000bdf 0000      	.DB  0x0,0x0,0x0,0x0,0x0,0x0,0x0,0x0
000be0 0000
000be1 0000
000be2 0000
000be3 0000      	.DB  0x0,0x0,0x0,0x0,0x0,0x0,0x0,0x0
000be4 0000
000be5 0000
000be6 0000
000be7 0000      	.DB  0x0,0x0,0x0,0x0,0x0,0x0,0x0,0x0
000be8 0000
000be9 0000
000bea 0000
000beb 0000      	.DB  0x0,0x0,0x0,0x0,0x0,0x0,0x0,0x0
000bec 0000
000bed 0000
000bee 0000
000bef 0000      	.DB  0x0,0x0,0x0,0x0,0x0,0x0,0x0,0x0
000bf0 0000
000bf1 0000
000bf2 0000
000bf3 0000      	.DB  0x0,0x0,0x0,0x0,0x0,0x0,0x0,0x0
000bf4 0000
000bf5 0000
000bf6 0000
000bf7 0000      	.DB  0x0,0x0,0x0,0x0,0x0,0x0,0x0,0x0
000bf8 0000
000bf9 0000
000bfa 0000
000bfb 0000      	.DB  0x0,0x0,0x0,0x0,0x0,0x0,0x0,0x0
000bfc 0000
000bfd 0000
000bfe 0000
000bff 0000      	.DB  0x0,0x0,0x0,0x0,0x0,0x0,0x0,0x0
000c00 0000
000c01 0000
000c02 0000
000c03 0000      	.DB  0x0,0x0,0x0,0x0,0x0,0x0,0x0,0x0
000c04 0000
000c05 0000
000c06 0000
000c07 0000      	.DB  0x0,0x0,0x0,0x0,0x0,0x0,0x0,0x0
000c08 0000
000c09 0000
000c0a 0000
000c0b 0000      	.DB  0x0,0x0,0x0,0x0,0x0,0x0,0x0,0x0
000c0c 0000
000c0d 0000
000c0e 0000
000c0f 0000      	.DB  0x0,0x0,0x0,0x0,0x0,0x0,0x0,0x0
000c10 0000
000c11 0000
000c12 0000
000c13 0000      	.DB  0x0,0x0,0x0,0x0,0x0,0x0,0x0,0x0
000c14 0000
000c15 0000
000c16 0000
000c17 0000      	.DB  0x0,0x0,0x0,0x0,0x0,0x0,0x0,0x0
000c18 0000
000c19 0000
000c1a 0000
000c1b 0000      	.DB  0x0,0x0,0x0,0x0,0x0,0x0,0x0,0x0
000c1c 0000
000c1d 0000
000c1e 0000
000c1f 0000      	.DB  0x0,0x0,0x0,0x0,0x0,0x0,0x0,0x0
000c20 0000
000c21 0000
000c22 0000
000c23 0000      	.DB  0x0,0x0,0x0,0x0,0x0,0x0,0x0,0x0
000c24 0000
000c25 0000
000c26 0000
000c27 0000      	.DB  0x0,0x0,0x0,0x0,0x0,0x0,0x0,0x0
000c28 0000
000c29 0000
000c2a 0000
000c2b 0000      	.DB  0x0,0x0,0x0,0x0,0x0,0x0,0x0,0x0
000c2c 0000
000c2d 0000
000c2e 0000
000c2f 0000      	.DB  0x0,0x0,0x0,0x0,0x0,0x0,0x0,0x0
000c30 0000
000c31 0000
000c32 0000
000c33 0000      	.DB  0x0,0x0,0x0,0x0,0x0,0x0,0x0,0x0
000c34 0000
000c35 0000
000c36 0000
000c37 0000      	.DB  0x0,0x0,0x0,0x0,0x0,0x0,0x0,0x0
000c38 0000
000c39 0000
000c3a 0000
000c3b 0000      	.DB  0x0,0x0,0x0,0x0,0x0,0x0,0x0,0x0
000c3c 0000
000c3d 0000
000c3e 0000
000c3f 0000      	.DB  0x0,0x0,0x0,0x0,0x0,0x0,0x0,0x0
000c40 0000
000c41 0000
000c42 0000
000c43 0000      	.DB  0x0,0x0,0x0,0x0,0x0,0x0,0x0,0x0
000c44 0000
000c45 0000
000c46 0000
000c47 0000      	.DB  0x0,0x0,0x0,0x0,0x0,0x0,0x0,0x0
000c48 0000
000c49 0000
000c4a 0000
000c4b 0000      	.DB  0x0,0x0,0x0,0x0,0x0,0x0,0x0,0x0
000c4c 0000
000c4d 0000
000c4e 0000
000c4f 0000      	.DB  0x0,0x0,0x0,0x0,0x0,0x0,0x0,0x0
000c50 0000
000c51 0000
000c52 0000
000c53 0000      	.DB  0x0,0x0,0x0,0x0,0x0,0x0,0x0,0x0
000c54 0000
000c55 0000
000c56 0000
000c57 0000      	.DB  0x0,0x0,0x0,0x0,0x0,0x0,0x0,0x0
000c58 0000
000c59 0000
000c5a 0000
000c5b 0000      	.DB  0x0,0x0,0x0,0x0,0x0,0x0,0x0,0x0
000c5c 0000
000c5d 0000
000c5e 0000
000c5f 0000      	.DB  0x0,0x0,0x0,0x0,0x0,0x0,0x0,0x0
000c60 0000
000c61 0000
000c62 0000
000c63 0000      	.DB  0x0,0x0,0x0,0x0,0x0,0x0,0x0,0x0
000c64 0000
000c65 0000
000c66 0000
000c67 0000      	.DB  0x0,0x0,0x0,0x0,0x0,0x0,0x0,0x0
000c68 0000
000c69 0000
000c6a 0000
000c6b 0000      	.DB  0x0,0x0,0x0,0x0,0x0,0x0,0x0,0x0
000c6c 0000
000c6d 0000
000c6e 0000
000c6f 0000      	.DB  0x0,0x0,0x0,0x0,0x0,0x0,0x0,0x0
000c70 0000
000c71 0000
000c72 0000
000c73 0000      	.DB  0x0,0x0,0x0,0x0,0x0,0x0,0x0,0x0
000c74 0000
000c75 0000
000c76 0000
000c77 0000      	.DB  0x0,0x0,0x0,0x0,0x0,0x0,0x0,0x0
000c78 0000
000c79 0000
000c7a 0000
000c7b 0000      	.DB  0x0,0x0,0x0,0x0,0x0,0x0,0x0,0x0
000c7c 0000
000c7d 0000
000c7e 0000
000c7f 0000      	.DB  0x0,0x0,0x0,0x0,0x0,0x0,0x0,0x0
000c80 0000
000c81 0000
000c82 0000
000c83 0000      	.DB  0x0,0x0,0x0,0x0,0x0,0x0,0x0,0x0
000c84 0000
000c85 0000
000c86 0000
000c87 0000      	.DB  0x0,0x0,0x0,0x0,0x0,0x0,0x0,0x0
000c88 0000
000c89 0000
000c8a 0000
000c8b 0000      	.DB  0x0,0x0,0x0,0x0,0x0,0x0,0x0,0x0
000c8c 0000
000c8d 0000
000c8e 0000
000c8f 0000      	.DB  0x0,0x0,0x0,0x0,0x0,0x0,0x0,0x0
000c90 0000
000c91 0000
000c92 0000
000c93 0000      	.DB  0x0,0x0,0x0,0x0,0x0,0x0,0x0,0x0
000c94 0000
000c95 0000
000c96 0000
000c97 0000      	.DB  0x0,0x0,0x0,0x0,0x0,0x0,0x0,0x0
000c98 0000
000c99 0000
000c9a 0000
000c9b 0000      	.DB  0x0,0x0,0x0,0x0,0x0,0x0,0x0,0x0
000c9c 0000
000c9d 0000
000c9e 0000
000c9f 0000      	.DB  0x0,0x0,0x0,0x0,0x0,0x0,0x0,0x0
000ca0 0000
000ca1 0000
000ca2 0000
000ca3 0000      	.DB  0x0,0x0,0x0,0x0,0x0,0x0,0x0,0x0
000ca4 0000
000ca5 0000
000ca6 0000
000ca7 0000      	.DB  0x0,0x0,0x0,0x0,0x0,0x0,0x0,0x0
000ca8 0000
000ca9 0000
000caa 0000
000cab 0000      	.DB  0x0,0x0,0x0,0x0,0x0,0x0,0x0,0x0
000cac 0000
000cad 0000
000cae 3800
000caf 02fc      	.DB  0x0,0x0,0x0,0x0,0x0,0x38,0xFC,0x2
000cb0 0202
000cb1 0202
000cb2 0606
000cb3 ba06      	.DB  0x2,0x2,0x2,0x2,0x6,0x6,0x6,0xBA
000cb4 bafa
000cb5 0202
000cb6 38fc
000cb7 0000      	.DB  0xFA,0xBA,0x2,0x2,0xFC,0x38,0x0,0x0
000cb8 0000
000cb9 0000
000cba 0000
000cbb 0000      	.DB  0x0,0x0,0x0,0x0,0x0,0x0,0x0,0x0
000cbc 0000
000cbd 0000
000cbe 0000
000cbf 0000      	.DB  0x0,0x0,0x0,0x0,0x0,0x0,0x0,0x0
000cc0 0000
000cc1 0000
000cc2 0000
000cc3 0000      	.DB  0x0,0x0,0x0,0x0,0x0,0x0,0x0,0x0
000cc4 0000
000cc5 0000
000cc6 0000
000cc7 0000      	.DB  0x0,0x0,0x0,0x0,0x0,0x0,0x0,0x0
000cc8 0000
000cc9 0000
000cca 0000
000ccb 0000      	.DB  0x0,0x0,0x0,0x0,0x0,0x0,0x0,0x0
000ccc 0000
000ccd 0000
000cce 0000
000ccf 0000      	.DB  0x0,0x0,0x0,0x0,0x0,0x0,0x0,0x0
000cd0 0000
000cd1 0000
000cd2 0000
000cd3 0000      	.DB  0x0,0x0,0x0,0x0,0x0,0x0,0x0,0x0
000cd4 0000
000cd5 0000
000cd6 0000
000cd7 0000      	.DB  0x0,0x0,0x0,0x0,0x0,0x0,0x0,0x0
000cd8 0000
000cd9 0000
000cda 0000
000cdb 0000      	.DB  0x0,0x0,0x0,0x0,0x0,0x0,0x0,0x0
000cdc 0000
000cdd 0000
000cde 0000
000cdf 0000      	.DB  0x0,0x0,0x0,0x0,0x0,0x0,0x0,0x0
000ce0 0000
000ce1 0000
000ce2 0000
000ce3 0000      	.DB  0x0,0x0,0x0,0x0,0x0,0x0,0x0,0x0
000ce4 0000
000ce5 0000
000ce6 0000
000ce7 0000      	.DB  0x0,0x0,0x0,0x0,0x0,0x0,0x0,0x0
000ce8 0000
000ce9 0000
000cea 0000
000ceb 0000      	.DB  0x0,0x0,0x0,0x0,0x0,0x0,0x0,0x0
000cec 0000
000ced 0000
000cee 0000
000cef 3e3f      	.DB  0x0,0x0,0x0,0x0,0x0,0x0,0x3F,0x3E
000cf0 f2fe
000cf1 3ef2
000cf2 3e3e
000cf3 3f3f      	.DB  0xFE,0xF2,0xF2,0x3E,0x3E,0x3E,0x3F,0x3F
000cf4 f3f3
000cf5 3eff
000cf6 003f
000cf7 0000      	.DB  0xF3,0xF3,0xFF,0x3E,0x3F,0x0,0x0,0x0
                 _chofer:
000cf8 0000
000cf9 0000
000cfa 0000
000cfb 0000      	.DB  0x0,0x0,0x0,0x0,0x0,0x0,0x0,0x0
000cfc 0000
000cfd 0000
000cfe 0000
000cff 0000      	.DB  0x0,0x0,0x0,0x0,0x0,0x0,0x0,0x0
000d00 0000
000d01 0000
000d02 0000
000d03 0000      	.DB  0x0,0x0,0x0,0x0,0x0,0x0,0x0,0x0
000d04 0000
000d05 0000
000d06 0000
000d07 0000      	.DB  0x0,0x0,0x0,0x0,0x0,0x0,0x0,0x0
000d08 0000
000d09 0000
000d0a 0000
000d0b 0000      	.DB  0x0,0x0,0x0,0x0,0x0,0x0,0x0,0x0
000d0c 0000
000d0d 0000
000d0e 0000
000d0f 0000      	.DB  0x0,0x0,0x0,0x0,0x0,0x0,0x0,0x0
000d10 0000
000d11 0000
000d12 0000
000d13 0000      	.DB  0x0,0x0,0x0,0x0,0x0,0x0,0x0,0x0
000d14 0000
000d15 0000
000d16 0000
000d17 0000      	.DB  0x0,0x0,0x0,0x0,0x0,0x0,0x0,0x0
000d18 0000
000d19 0000
000d1a 0000
000d1b 0000      	.DB  0x0,0x0,0x0,0x0,0x0,0x0,0x0,0x0
000d1c 0000
000d1d 0000
000d1e 0000
000d1f 0000      	.DB  0x0,0x0,0x0,0x0,0x0,0x0,0x0,0x0
000d20 0000
000d21 0000
000d22 0000
000d23 0000      	.DB  0x0,0x0,0x0,0x0,0x0,0x0,0x0,0x0
000d24 0000
000d25 0000
000d26 0000
000d27 0000      	.DB  0x0,0x0,0x0,0x0,0x0,0x0,0x0,0x0
000d28 0000
000d29 0000
000d2a 0000
000d2b 0000      	.DB  0x0,0x0,0x0,0x0,0x0,0x0,0x0,0x0
000d2c 0000
000d2d 0000
000d2e 0000
000d2f 0000      	.DB  0x0,0x0,0x0,0x0,0x0,0x0,0x0,0x0
000d30 0000
000d31 0000
000d32 0000
000d33 0000      	.DB  0x0,0x0,0x0,0x0,0x0,0x0,0x0,0x0
000d34 0000
000d35 0000
000d36 0000
000d37 0000      	.DB  0x0,0x0,0x0,0x0,0x0,0x0,0x0,0x0
000d38 0000
000d39 0000
000d3a 0000
000d3b 0000      	.DB  0x0,0x0,0x0,0x0,0x0,0x0,0x0,0x0
000d3c 0000
000d3d 0000
000d3e 0000
000d3f 0000      	.DB  0x0,0x0,0x0,0x0,0x0,0x0,0x0,0x0
000d40 0000
000d41 0000
000d42 0000
000d43 0000      	.DB  0x0,0x0,0x0,0x0,0x0,0x0,0x0,0x0
000d44 0000
000d45 0000
000d46 0000
000d47 0000      	.DB  0x0,0x0,0x0,0x0,0x0,0x0,0x0,0x0
000d48 0000
000d49 0000
000d4a 0000
000d4b 0000      	.DB  0x0,0x0,0x0,0x0,0x0,0x0,0x0,0x0
000d4c 0000
000d4d 0000
000d4e 0000
000d4f 0000      	.DB  0x0,0x0,0x0,0x0,0x0,0x0,0x0,0x0
000d50 0000
000d51 0000
000d52 0000
000d53 0000      	.DB  0x0,0x0,0x0,0x0,0x0,0x0,0x0,0x0
000d54 0000
000d55 0000
000d56 0000
000d57 0000      	.DB  0x0,0x0,0x0,0x0,0x0,0x0,0x0,0x0
000d58 0000
000d59 0000
000d5a 0000
000d5b 0000      	.DB  0x0,0x0,0x0,0x0,0x0,0x0,0x0,0x0
000d5c 0000
000d5d 0000
000d5e 0000
000d5f 0000      	.DB  0x0,0x0,0x0,0x0,0x0,0x0,0x0,0x0
000d60 0000
000d61 0000
000d62 0000
000d63 0000      	.DB  0x0,0x0,0x0,0x0,0x0,0x0,0x0,0x0
000d64 0000
000d65 0000
000d66 0000
000d67 0000      	.DB  0x0,0x0,0x0,0x0,0x0,0x0,0x0,0x0
000d68 0000
000d69 0000
000d6a 0000
000d6b 0000      	.DB  0x0,0x0,0x0,0x0,0x0,0x0,0x0,0x0
000d6c 0000
000d6d 0000
000d6e 0000
000d6f 0000      	.DB  0x0,0x0,0x0,0x0,0x0,0x0,0x0,0x0
000d70 0000
000d71 0000
000d72 0000
000d73 0000      	.DB  0x0,0x0,0x0,0x0,0x0,0x0,0x0,0x0
000d74 0000
000d75 0000
000d76 0000
000d77 0000      	.DB  0x0,0x0,0x0,0x0,0x0,0x0,0x0,0x0
000d78 0000
000d79 0000
000d7a 0000
000d7b 0000      	.DB  0x0,0x0,0x0,0x0,0x0,0x0,0x0,0x0
000d7c 0000
000d7d 0000
000d7e 0000
000d7f 0000      	.DB  0x0,0x0,0x0,0x0,0x0,0x0,0x0,0x0
000d80 0000
000d81 0000
000d82 0000
000d83 0000      	.DB  0x0,0x0,0x0,0x0,0x0,0x0,0x0,0x0
000d84 0000
000d85 0000
000d86 0000
000d87 0000      	.DB  0x0,0x0,0x0,0x0,0x0,0x0,0x0,0x0
000d88 0000
000d89 0000
000d8a 0000
000d8b 0000      	.DB  0x0,0x0,0x0,0x0,0x0,0x0,0x0,0x0
000d8c 0000
000d8d 0000
000d8e 0000
000d8f 0000      	.DB  0x0,0x0,0x0,0x0,0x0,0x0,0x0,0x0
000d90 0000
000d91 0000
000d92 0000
000d93 0000      	.DB  0x0,0x0,0x0,0x0,0x0,0x0,0x0,0x0
000d94 0000
000d95 0000
000d96 0000
000d97 0000      	.DB  0x0,0x0,0x0,0x0,0x0,0x0,0x0,0x0
000d98 0000
000d99 0000
000d9a 0000
000d9b 0000      	.DB  0x0,0x0,0x0,0x0,0x0,0x0,0x0,0x0
000d9c 0000
000d9d 0000
000d9e 0000
000d9f 0000      	.DB  0x0,0x0,0x0,0x0,0x0,0x0,0x0,0x0
000da0 0000
000da1 0000
000da2 0000
000da3 0000      	.DB  0x0,0x0,0x0,0x0,0x0,0x0,0x0,0x0
000da4 0000
000da5 0000
000da6 0000
000da7 0000      	.DB  0x0,0x0,0x0,0x0,0x0,0x0,0x0,0x0
000da8 0000
000da9 0000
000daa 0000
000dab 0000      	.DB  0x0,0x0,0x0,0x0,0x0,0x0,0x0,0x0
000dac 0000
000dad 0000
000dae 0000
000daf 0000      	.DB  0x0,0x0,0x0,0x0,0x0,0x0,0x0,0x0
000db0 0000
000db1 0000
000db2 0000
000db3 0000      	.DB  0x0,0x0,0x0,0x0,0x0,0x0,0x0,0x0
000db4 0000
000db5 0000
000db6 0000
000db7 0000      	.DB  0x0,0x0,0x0,0x0,0x0,0x0,0x0,0x0
000db8 0000
000db9 0000
000dba 0000
000dbb 0000      	.DB  0x0,0x0,0x0,0x0,0x0,0x0,0x0,0x0
000dbc 0000
000dbd 0000
000dbe 0000
000dbf 0000      	.DB  0x0,0x0,0x0,0x0,0x0,0x0,0x0,0x0
000dc0 0000
000dc1 0000
000dc2 0000
000dc3 0000      	.DB  0x0,0x0,0x0,0x0,0x0,0x0,0x0,0x0
000dc4 0000
000dc5 0000
000dc6 0000
000dc7 0000      	.DB  0x0,0x0,0x0,0x0,0x0,0x0,0x0,0x0
000dc8 0000
000dc9 0000
000dca 0000
000dcb 0000      	.DB  0x0,0x0,0x0,0x0,0x0,0x0,0x0,0x0
000dcc 0000
000dcd 0000
000dce 0000
000dcf 0000      	.DB  0x0,0x0,0x0,0x0,0x0,0x0,0x0,0x0
000dd0 0000
000dd1 0000
000dd2 0000
000dd3 0000      	.DB  0x0,0x0,0x0,0x0,0x0,0x0,0x0,0x0
000dd4 0000
000dd5 0000
000dd6 0000
000dd7 0000      	.DB  0x0,0x0,0x0,0x0,0x0,0x0,0x0,0x0
000dd8 0000
000dd9 0000
000dda 0000
000ddb 0000      	.DB  0x0,0x0,0x0,0x0,0x0,0x0,0x0,0x0
000ddc 0000
000ddd 0000
000dde 0000
000ddf 0000      	.DB  0x0,0x0,0x0,0x0,0x0,0x0,0x0,0x0
000de0 0000
000de1 0000
000de2 0000
000de3 0000      	.DB  0x0,0x0,0x0,0x0,0x0,0x0,0x0,0x0
000de4 0000
000de5 0000
000de6 0000
000de7 0000      	.DB  0x0,0x0,0x0,0x0,0x0,0x0,0x0,0x0
000de8 0000
000de9 0000
000dea 0000
000deb 0000      	.DB  0x0,0x0,0x0,0x0,0x0,0x0,0x0,0x0
000dec 0000
000ded 0000
000dee 0000
000def 0000      	.DB  0x0,0x0,0x0,0x0,0x0,0x0,0x0,0x0
000df0 0000
000df1 0000
000df2 0000
000df3 0000      	.DB  0x0,0x0,0x0,0x0,0x0,0x0,0x0,0x0
000df4 0000
000df5 0000
000df6 0000
000df7 0000      	.DB  0x0,0x0,0x0,0x0,0x0,0x0,0x0,0x0
000df8 0000
000df9 0000
000dfa 0000
000dfb 0000      	.DB  0x0,0x0,0x0,0x0,0x0,0x0,0x0,0x0
000dfc 0000
000dfd 0000
000dfe 0000
000dff 0000      	.DB  0x0,0x0,0x0,0x0,0x0,0x0,0x0,0x0
000e00 0000
000e01 0000
000e02 0000
000e03 0000      	.DB  0x0,0x0,0x0,0x0,0x0,0x0,0x0,0x0
000e04 0000
000e05 0000
000e06 0000
000e07 0000      	.DB  0x0,0x0,0x0,0x0,0x0,0x0,0x0,0x0
000e08 0000
000e09 0000
000e0a 0000
000e0b 0000      	.DB  0x0,0x0,0x0,0x0,0x0,0x0,0x0,0x0
000e0c 0000
000e0d 0000
000e0e 0000
000e0f 0000      	.DB  0x0,0x0,0x0,0x0,0x0,0x0,0x0,0x0
000e10 0000
000e11 0000
000e12 0000
000e13 0000      	.DB  0x0,0x0,0x0,0x0,0x0,0x0,0x0,0x0
000e14 0000
000e15 0000
000e16 0000
000e17 0000      	.DB  0x0,0x0,0x0,0x0,0x0,0x0,0x0,0x0
000e18 0000
000e19 0000
000e1a 0000
000e1b 0000      	.DB  0x0,0x0,0x0,0x0,0x0,0x0,0x0,0x0
000e1c 0000
000e1d 0000
000e1e 0000
000e1f 0000      	.DB  0x0,0x0,0x0,0x0,0x0,0x0,0x0,0x0
000e20 0000
000e21 0000
000e22 0000
000e23 0000      	.DB  0x0,0x0,0x0,0x0,0x0,0x0,0x0,0x0
000e24 0000
000e25 0000
000e26 0000
000e27 0000      	.DB  0x0,0x0,0x0,0x0,0x0,0x0,0x0,0x0
000e28 0000
000e29 0000
000e2a 0000
000e2b 0000      	.DB  0x0,0x0,0x0,0x0,0x0,0x0,0x0,0x0
000e2c 0000
000e2d 0000
000e2e 0000
000e2f 0000      	.DB  0x0,0x0,0x0,0x0,0x0,0x0,0x0,0x0
000e30 0000
000e31 0000
000e32 0000
000e33 0000      	.DB  0x0,0x0,0x0,0x0,0x0,0x0,0x0,0x0
000e34 0000
000e35 0000
000e36 0000
000e37 0000      	.DB  0x0,0x0,0x0,0x0,0x0,0x0,0x0,0x0
000e38 0000
000e39 0000
000e3a 0000
000e3b 0000      	.DB  0x0,0x0,0x0,0x0,0x0,0x0,0x0,0x0
000e3c 0000
000e3d 0000
000e3e 0000
000e3f 0000      	.DB  0x0,0x0,0x0,0x0,0x0,0x0,0x0,0x0
000e40 0000
000e41 0000
000e42 0000
000e43 0000      	.DB  0x0,0x0,0x0,0x0,0x0,0x0,0x0,0x0
000e44 0000
000e45 0000
000e46 0000
000e47 0000      	.DB  0x0,0x0,0x0,0x0,0x0,0x0,0x0,0x0
000e48 0000
000e49 0000
000e4a 0000
000e4b 0000      	.DB  0x0,0x0,0x0,0x0,0x0,0x0,0x0,0x0
000e4c 0000
000e4d 0000
000e4e 0000
000e4f 0000      	.DB  0x0,0x0,0x0,0x0,0x0,0x0,0x0,0x0
000e50 0000
000e51 0000
000e52 0000
000e53 0000      	.DB  0x0,0x0,0x0,0x0,0x0,0x0,0x0,0x0
000e54 0000
000e55 0000
000e56 0000
000e57 0000      	.DB  0x0,0x0,0x0,0x0,0x0,0x0,0x0,0x0
000e58 0000
000e59 0000
000e5a 0000
000e5b 0000      	.DB  0x0,0x0,0x0,0x0,0x0,0x0,0x0,0x0
000e5c 0000
000e5d 0000
000e5e 0000
000e5f 0000      	.DB  0x0,0x0,0x0,0x0,0x0,0x0,0x0,0x0
000e60 0000
000e61 0000
000e62 0000
000e63 0000      	.DB  0x0,0x0,0x0,0x0,0x0,0x0,0x0,0x0
000e64 0000
000e65 0000
000e66 0000
000e67 0000      	.DB  0x0,0x0,0x0,0x0,0x0,0x0,0x0,0x0
000e68 0000
000e69 0000
000e6a 0000
000e6b 0000      	.DB  0x0,0x0,0x0,0x0,0x0,0x0,0x0,0x0
000e6c 0000
000e6d 0000
000e6e 0000
000e6f 0000      	.DB  0x0,0x0,0x0,0x0,0x0,0x0,0x0,0x0
000e70 0000
000e71 0000
000e72 0000
000e73 0000      	.DB  0x0,0x0,0x0,0x0,0x0,0x0,0x0,0x0
000e74 0000
000e75 0000
000e76 0000
000e77 0000      	.DB  0x0,0x0,0x0,0x0,0x0,0x0,0x0,0x0
000e78 0000
000e79 0000
000e7a f800
000e7b c284      	.DB  0x0,0x0,0x0,0x0,0x0,0xF8,0x84,0xC2
000e7c da82
000e7d e2fa
000e7e 02fe
000e7f 0202      	.DB  0x82,0xDA,0xFA,0xE2,0xFE,0x2,0x2,0x2
000e80 fec2
000e81 0202
000e82 0202
000e83 f8c4      	.DB  0xC2,0xFE,0x2,0x2,0x2,0x2,0xC4,0xF8
000e84 0000
000e85 0000
000e86 0000
000e87 0000      	.DB  0x0,0x0,0x0,0x0,0x0,0x0,0x0,0x0
000e88 0000
000e89 0000
000e8a 0000
000e8b 0000      	.DB  0x0,0x0,0x0,0x0,0x0,0x0,0x0,0x0
000e8c 0000
000e8d 0000
000e8e 0000
000e8f 0000      	.DB  0x0,0x0,0x0,0x0,0x0,0x0,0x0,0x0
000e90 0000
000e91 0000
000e92 0000
000e93 0000      	.DB  0x0,0x0,0x0,0x0,0x0,0x0,0x0,0x0
000e94 0000
000e95 0000
000e96 0000
000e97 0000      	.DB  0x0,0x0,0x0,0x0,0x0,0x0,0x0,0x0
000e98 0000
000e99 0000
000e9a 0000
000e9b 0000      	.DB  0x0,0x0,0x0,0x0,0x0,0x0,0x0,0x0
000e9c 0000
000e9d 0000
000e9e 0000
000e9f 0000      	.DB  0x0,0x0,0x0,0x0,0x0,0x0,0x0,0x0
000ea0 0000
000ea1 0000
000ea2 0000
000ea3 0000      	.DB  0x0,0x0,0x0,0x0,0x0,0x0,0x0,0x0
000ea4 0000
000ea5 0000
000ea6 0000
000ea7 0000      	.DB  0x0,0x0,0x0,0x0,0x0,0x0,0x0,0x0
000ea8 0000
000ea9 0000
000eaa 0000
000eab 0000      	.DB  0x0,0x0,0x0,0x0,0x0,0x0,0x0,0x0
000eac 0000
000ead 0000
000eae 0000
000eaf 0000      	.DB  0x0,0x0,0x0,0x0,0x0,0x0,0x0,0x0
000eb0 0000
000eb1 0000
000eb2 0000
000eb3 0000      	.DB  0x0,0x0,0x0,0x0,0x0,0x0,0x0,0x0
000eb4 0000
000eb5 0000
000eb6 0000
000eb7 0000      	.DB  0x0,0x0,0x0,0x0,0x0,0x0,0x0,0x0
000eb8 0000
000eb9 1e00
000eba 7f1f
000ebb fdff      	.DB  0x0,0x0,0x0,0x1E,0x1F,0x7F,0xFF,0xFD
000ebc 1f7c
000ebd 1f1f
000ebe 1c1f
000ebf 1c1c      	.DB  0x7C,0x1F,0x1F,0x1F,0x1F,0x1C,0x1C,0x1C
000ec0 1f1f
000ec1 fc7c
000ec2 7cfc
000ec3 0f1f      	.DB  0x1F,0x1F,0x7C,0xFC,0xFC,0x7C,0x1F,0xF
000ec4 0000
000ec5 0000
000ec6 0000
000ec7 0000      	.DB  0x0,0x0,0x0,0x0,0x0,0x0,0x0,0x0
000ec8 0000
000ec9 0000
000eca 0000
000ecb 0000      	.DB  0x0,0x0,0x0,0x0,0x0,0x0,0x0,0x0
000ecc 0000
000ecd 0000
000ece 0000
000ecf 0000      	.DB  0x0,0x0,0x0,0x0,0x0,0x0,0x0,0x0
000ed0 0000
000ed1 0000
000ed2 0000
000ed3 0000      	.DB  0x0,0x0,0x0,0x0,0x0,0x0,0x0,0x0
000ed4 0000
000ed5 0000
000ed6 0000
000ed7 0000      	.DB  0x0,0x0,0x0,0x0,0x0,0x0,0x0,0x0
000ed8 0000
000ed9 0000
000eda 0000
000edb 0000      	.DB  0x0,0x0,0x0,0x0,0x0,0x0,0x0,0x0
000edc 0000
000edd 0000
000ede 0000
000edf 0000      	.DB  0x0,0x0,0x0,0x0,0x0,0x0,0x0,0x0
000ee0 0000
000ee1 0000
000ee2 0000
000ee3 0000      	.DB  0x0,0x0,0x0,0x0,0x0,0x0,0x0,0x0
000ee4 0000
000ee5 0000
000ee6 0000
000ee7 0000      	.DB  0x0,0x0,0x0,0x0,0x0,0x0,0x0,0x0
000ee8 0000
000ee9 0000
000eea 0000
000eeb 0000      	.DB  0x0,0x0,0x0,0x0,0x0,0x0,0x0,0x0
000eec 0000
000eed 0000
000eee 0000
000eef 0000      	.DB  0x0,0x0,0x0,0x0,0x0,0x0,0x0,0x0
000ef0 0000
000ef1 0000
000ef2 0000
000ef3 0000      	.DB  0x0,0x0,0x0,0x0,0x0,0x0,0x0,0x0
000ef4 0000
000ef5 0000
000ef6 0000
000ef7 0000      	.DB  0x0,0x0,0x0,0x0,0x0,0x0,0x0,0x0
                 _GPS1:
000ef8 0000
000ef9 0000
000efa 0000
000efb 0000      	.DB  0x0,0x0,0x0,0x0,0x0,0x0,0x0,0x0
000efc 0000
000efd 0000
000efe 0000
000eff 0000      	.DB  0x0,0x0,0x0,0x0,0x0,0x0,0x0,0x0
000f00 0000
000f01 0000
000f02 0000
000f03 0000      	.DB  0x0,0x0,0x0,0x0,0x0,0x0,0x0,0x0
000f04 0000
000f05 0000
000f06 0000
000f07 0000      	.DB  0x0,0x0,0x0,0x0,0x0,0x0,0x0,0x0
000f08 0000
000f09 0000
000f0a 0000
000f0b 0000      	.DB  0x0,0x0,0x0,0x0,0x0,0x0,0x0,0x0
000f0c 0000
000f0d 0000
000f0e 0000
000f0f 0000      	.DB  0x0,0x0,0x0,0x0,0x0,0x0,0x0,0x0
000f10 0000
000f11 0000
000f12 0000
000f13 0000      	.DB  0x0,0x0,0x0,0x0,0x0,0x0,0x0,0x0
000f14 0000
000f15 0000
000f16 0000
000f17 0000      	.DB  0x0,0x0,0x0,0x0,0x0,0x0,0x0,0x0
000f18 0000
000f19 0000
000f1a 0000
000f1b 0000      	.DB  0x0,0x0,0x0,0x0,0x0,0x0,0x0,0x0
000f1c 0000
000f1d 0000
000f1e 0000
000f1f 0000      	.DB  0x0,0x0,0x0,0x0,0x0,0x0,0x0,0x0
000f20 0000
000f21 0000
000f22 0000
000f23 0000      	.DB  0x0,0x0,0x0,0x0,0x0,0x0,0x0,0x0
000f24 0000
000f25 0000
000f26 0000
000f27 0000      	.DB  0x0,0x0,0x0,0x0,0x0,0x0,0x0,0x0
000f28 10e0
000f29 9090
000f2a 0080
000f2b 90f0      	.DB  0xE0,0x10,0x90,0x90,0x80,0x0,0xF0,0x90
000f2c 9090
000f2d 0060
000f2e 9060
000f2f 1090      	.DB  0x90,0x90,0x60,0x0,0x60,0x90,0x90,0x10
000f30 0000
000f31 0000
000f32 7020
000f33 70f8      	.DB  0x0,0x0,0x0,0x0,0x20,0x70,0xF8,0x70
000f34 0020
000f35 7880
000f36 fc00
000f37 0000      	.DB  0x20,0x0,0x80,0x78,0x0,0xFC,0x0,0x0
000f38 0000
000f39 0000
000f3a 0000
000f3b 0000      	.DB  0x0,0x0,0x0,0x0,0x0,0x0,0x0,0x0
000f3c 0000
000f3d 0000
000f3e 0000
000f3f 0000      	.DB  0x0,0x0,0x0,0x0,0x0,0x0,0x0,0x0
000f40 0000
000f41 0000
000f42 0000
000f43 0000      	.DB  0x0,0x0,0x0,0x0,0x0,0x0,0x0,0x0
000f44 0000
000f45 0000
000f46 0000
000f47 0000      	.DB  0x0,0x0,0x0,0x0,0x0,0x0,0x0,0x0
000f48 0000
000f49 0000
000f4a 0000
000f4b 0000      	.DB  0x0,0x0,0x0,0x0,0x0,0x0,0x0,0x0
000f4c 0000
000f4d 0000
000f4e 0000
000f4f 0000      	.DB  0x0,0x0,0x0,0x0,0x0,0x0,0x0,0x0
000f50 0000
000f51 0000
000f52 0000
000f53 0000      	.DB  0x0,0x0,0x0,0x0,0x0,0x0,0x0,0x0
000f54 0000
000f55 0000
000f56 0000
000f57 0000      	.DB  0x0,0x0,0x0,0x0,0x0,0x0,0x0,0x0
000f58 0000
000f59 0000
000f5a 0000
000f5b 0000      	.DB  0x0,0x0,0x0,0x0,0x0,0x0,0x0,0x0
000f5c 0000
000f5d 0000
000f5e 0000
000f5f 0000      	.DB  0x0,0x0,0x0,0x0,0x0,0x0,0x0,0x0
000f60 0000
000f61 0000
000f62 0000
000f63 0000      	.DB  0x0,0x0,0x0,0x0,0x0,0x0,0x0,0x0
000f64 0000
000f65 0000
000f66 0000
000f67 0000      	.DB  0x0,0x0,0x0,0x0,0x0,0x0,0x0,0x0
000f68 0403
000f69 0404
000f6a 0003
000f6b 0007      	.DB  0x3,0x4,0x4,0x4,0x3,0x0,0x7,0x0
000f6c 0000
000f6d 0000
000f6e 0404
000f6f 0304      	.DB  0x0,0x0,0x0,0x0,0x4,0x4,0x4,0x3
000f70 0000
000f71 1000
000f72 1414
000f73 1414      	.DB  0x0,0x0,0x0,0x10,0x14,0x14,0x14,0x14
000f74 0912
000f75 0a04
000f76 1835
000f77 0008      	.DB  0x12,0x9,0x4,0xA,0x35,0x18,0x8,0x0
000f78 0000
000f79 0000
000f7a 0000
000f7b 0000      	.DB  0x0,0x0,0x0,0x0,0x0,0x0,0x0,0x0
000f7c 0000
000f7d 0000
000f7e 0000
000f7f 0000      	.DB  0x0,0x0,0x0,0x0,0x0,0x0,0x0,0x0
000f80 0000
000f81 0000
000f82 0000
000f83 0000      	.DB  0x0,0x0,0x0,0x0,0x0,0x0,0x0,0x0
000f84 0000
000f85 0000
000f86 0000
000f87 0000      	.DB  0x0,0x0,0x0,0x0,0x0,0x0,0x0,0x0
000f88 0000
000f89 0000
000f8a 0000
000f8b 0000      	.DB  0x0,0x0,0x0,0x0,0x0,0x0,0x0,0x0
000f8c 0000
000f8d 0000
000f8e 0000
000f8f 0000      	.DB  0x0,0x0,0x0,0x0,0x0,0x0,0x0,0x0
000f90 0000
000f91 0000
000f92 0000
000f93 0000      	.DB  0x0,0x0,0x0,0x0,0x0,0x0,0x0,0x0
000f94 0000
000f95 0000
000f96 0000
000f97 0000      	.DB  0x0,0x0,0x0,0x0,0x0,0x0,0x0,0x0
000f98 0000
000f99 0000
000f9a 0000
000f9b 0000      	.DB  0x0,0x0,0x0,0x0,0x0,0x0,0x0,0x0
000f9c 0000
000f9d 0000
000f9e 0000
000f9f 0000      	.DB  0x0,0x0,0x0,0x0,0x0,0x0,0x0,0x0
000fa0 0000
000fa1 0000
000fa2 0000
000fa3 0000      	.DB  0x0,0x0,0x0,0x0,0x0,0x0,0x0,0x0
000fa4 0000
000fa5 0000
000fa6 0000
000fa7 0000      	.DB  0x0,0x0,0x0,0x0,0x0,0x0,0x0,0x0
000fa8 0000
000fa9 0000
000faa 0000
000fab 0000      	.DB  0x0,0x0,0x0,0x0,0x0,0x0,0x0,0x0
000fac 0000
000fad 0000
000fae 0000
000faf 0000      	.DB  0x0,0x0,0x0,0x0,0x0,0x0,0x0,0x0
000fb0 0000
000fb1 0000
000fb2 0000
000fb3 0000      	.DB  0x0,0x0,0x0,0x0,0x0,0x0,0x0,0x0
000fb4 0000
000fb5 0000
000fb6 0000
000fb7 0000      	.DB  0x0,0x0,0x0,0x0,0x0,0x0,0x0,0x0
000fb8 0000
000fb9 0000
000fba 0000
000fbb 0000      	.DB  0x0,0x0,0x0,0x0,0x0,0x0,0x0,0x0
000fbc 0000
000fbd 0000
000fbe 0000
000fbf 0000      	.DB  0x0,0x0,0x0,0x0,0x0,0x0,0x0,0x0
000fc0 0000
000fc1 0000
000fc2 0000
000fc3 0000      	.DB  0x0,0x0,0x0,0x0,0x0,0x0,0x0,0x0
000fc4 0000
000fc5 0000
000fc6 0000
000fc7 0000      	.DB  0x0,0x0,0x0,0x0,0x0,0x0,0x0,0x0
000fc8 0000
000fc9 0000
000fca 0000
000fcb 0000      	.DB  0x0,0x0,0x0,0x0,0x0,0x0,0x0,0x0
000fcc 0000
000fcd 0000
000fce 0000
000fcf 0000      	.DB  0x0,0x0,0x0,0x0,0x0,0x0,0x0,0x0
000fd0 0000
000fd1 0000
000fd2 0000
000fd3 0000      	.DB  0x0,0x0,0x0,0x0,0x0,0x0,0x0,0x0
000fd4 0000
000fd5 0000
000fd6 0000
000fd7 0000      	.DB  0x0,0x0,0x0,0x0,0x0,0x0,0x0,0x0
000fd8 0000
000fd9 0000
000fda 0000
000fdb 0000      	.DB  0x0,0x0,0x0,0x0,0x0,0x0,0x0,0x0
000fdc 0000
000fdd 0000
000fde 0000
000fdf 0000      	.DB  0x0,0x0,0x0,0x0,0x0,0x0,0x0,0x0
000fe0 0000
000fe1 0000
000fe2 0000
000fe3 0000      	.DB  0x0,0x0,0x0,0x0,0x0,0x0,0x0,0x0
000fe4 0000
000fe5 0000
000fe6 0000
000fe7 0000      	.DB  0x0,0x0,0x0,0x0,0x0,0x0,0x0,0x0
000fe8 0000
000fe9 0000
000fea 0000
000feb 0000      	.DB  0x0,0x0,0x0,0x0,0x0,0x0,0x0,0x0
000fec 0000
000fed 0000
000fee 0000
000fef 0000      	.DB  0x0,0x0,0x0,0x0,0x0,0x0,0x0,0x0
000ff0 0000
000ff1 0000
000ff2 0000
000ff3 0000      	.DB  0x0,0x0,0x0,0x0,0x0,0x0,0x0,0x0
000ff4 0000
000ff5 0000
000ff6 0000
000ff7 0000      	.DB  0x0,0x0,0x0,0x0,0x0,0x0,0x0,0x0
000ff8 0000
000ff9 0000
000ffa 0000
000ffb 0000      	.DB  0x0,0x0,0x0,0x0,0x0,0x0,0x0,0x0
000ffc 0000
000ffd 0000
000ffe 0000
000fff 0000      	.DB  0x0,0x0,0x0,0x0,0x0,0x0,0x0,0x0
001000 0000
001001 0000
001002 0000
001003 0000      	.DB  0x0,0x0,0x0,0x0,0x0,0x0,0x0,0x0
001004 0000
001005 0000
001006 0000
001007 0000      	.DB  0x0,0x0,0x0,0x0,0x0,0x0,0x0,0x0
001008 0000
001009 0000
00100a 0000
00100b 0000      	.DB  0x0,0x0,0x0,0x0,0x0,0x0,0x0,0x0
00100c 0000
00100d 0000
00100e 0000
00100f 0000      	.DB  0x0,0x0,0x0,0x0,0x0,0x0,0x0,0x0
001010 0000
001011 0000
001012 0000
001013 0000      	.DB  0x0,0x0,0x0,0x0,0x0,0x0,0x0,0x0
001014 0000
001015 0000
001016 0000
001017 0000      	.DB  0x0,0x0,0x0,0x0,0x0,0x0,0x0,0x0
001018 0000
001019 0000
00101a 0000
00101b 0000      	.DB  0x0,0x0,0x0,0x0,0x0,0x0,0x0,0x0
00101c 0000
00101d 0000
00101e 0000
00101f 0000      	.DB  0x0,0x0,0x0,0x0,0x0,0x0,0x0,0x0
001020 0000
001021 0000
001022 0000
001023 0000      	.DB  0x0,0x0,0x0,0x0,0x0,0x0,0x0,0x0
001024 0000
001025 0000
001026 0000
001027 0000      	.DB  0x0,0x0,0x0,0x0,0x0,0x0,0x0,0x0
001028 0000
001029 0000
00102a 0000
00102b 0000      	.DB  0x0,0x0,0x0,0x0,0x0,0x0,0x0,0x0
00102c 0000
00102d 0000
00102e 0000
00102f 0000      	.DB  0x0,0x0,0x0,0x0,0x0,0x0,0x0,0x0
001030 0000
001031 0000
001032 0000
001033 0000      	.DB  0x0,0x0,0x0,0x0,0x0,0x0,0x0,0x0
001034 0000
001035 0000
001036 0000
001037 0000      	.DB  0x0,0x0,0x0,0x0,0x0,0x0,0x0,0x0
001038 0000
001039 0000
00103a 0000
00103b 0000      	.DB  0x0,0x0,0x0,0x0,0x0,0x0,0x0,0x0
00103c 0000
00103d 0000
00103e 0000
00103f 0000      	.DB  0x0,0x0,0x0,0x0,0x0,0x0,0x0,0x0
001040 0000
001041 0000
001042 0000
001043 0000      	.DB  0x0,0x0,0x0,0x0,0x0,0x0,0x0,0x0
001044 0000
001045 0000
001046 0000
001047 0000      	.DB  0x0,0x0,0x0,0x0,0x0,0x0,0x0,0x0
001048 0000
001049 0000
00104a 0000
00104b 0000      	.DB  0x0,0x0,0x0,0x0,0x0,0x0,0x0,0x0
00104c 0000
00104d 0000
00104e 0000
00104f 0000      	.DB  0x0,0x0,0x0,0x0,0x0,0x0,0x0,0x0
001050 0000
001051 0000
001052 0000
001053 0000      	.DB  0x0,0x0,0x0,0x0,0x0,0x0,0x0,0x0
001054 0000
001055 0000
001056 0000
001057 0000      	.DB  0x0,0x0,0x0,0x0,0x0,0x0,0x0,0x0
001058 0000
001059 0000
00105a 0000
00105b 0000      	.DB  0x0,0x0,0x0,0x0,0x0,0x0,0x0,0x0
00105c 0000
00105d 0000
00105e 0000
00105f 0000      	.DB  0x0,0x0,0x0,0x0,0x0,0x0,0x0,0x0
001060 0000
001061 0000
001062 0000
001063 0000      	.DB  0x0,0x0,0x0,0x0,0x0,0x0,0x0,0x0
001064 0000
001065 0000
001066 0000
001067 0000      	.DB  0x0,0x0,0x0,0x0,0x0,0x0,0x0,0x0
001068 0000
001069 0000
00106a 0000
00106b 0000      	.DB  0x0,0x0,0x0,0x0,0x0,0x0,0x0,0x0
00106c 0000
00106d 0000
00106e 0000
00106f 0000      	.DB  0x0,0x0,0x0,0x0,0x0,0x0,0x0,0x0
001070 0000
001071 0000
001072 0000
001073 0000      	.DB  0x0,0x0,0x0,0x0,0x0,0x0,0x0,0x0
001074 0000
001075 0000
001076 0000
001077 0000      	.DB  0x0,0x0,0x0,0x0,0x0,0x0,0x0,0x0
001078 0000
001079 0000
00107a 0000
00107b 0000      	.DB  0x0,0x0,0x0,0x0,0x0,0x0,0x0,0x0
00107c 0000
00107d 0000
00107e 0000
00107f 0000      	.DB  0x0,0x0,0x0,0x0,0x0,0x0,0x0,0x0
001080 0000
001081 0000
001082 0000
001083 0000      	.DB  0x0,0x0,0x0,0x0,0x0,0x0,0x0,0x0
001084 0000
001085 0000
001086 0000
001087 0000      	.DB  0x0,0x0,0x0,0x0,0x0,0x0,0x0,0x0
001088 0000
001089 0000
00108a 0000
00108b 0000      	.DB  0x0,0x0,0x0,0x0,0x0,0x0,0x0,0x0
00108c 0000
00108d 0000
00108e 0000
00108f 0000      	.DB  0x0,0x0,0x0,0x0,0x0,0x0,0x0,0x0
001090 0000
001091 0000
001092 0000
001093 0000      	.DB  0x0,0x0,0x0,0x0,0x0,0x0,0x0,0x0
001094 0000
001095 0000
001096 0000
001097 0000      	.DB  0x0,0x0,0x0,0x0,0x0,0x0,0x0,0x0
001098 0000
001099 0000
00109a 0000
00109b 0000      	.DB  0x0,0x0,0x0,0x0,0x0,0x0,0x0,0x0
00109c 0000
00109d 0000
00109e 0000
00109f 0000      	.DB  0x0,0x0,0x0,0x0,0x0,0x0,0x0,0x0
0010a0 0000
0010a1 0000
0010a2 0000
0010a3 0000      	.DB  0x0,0x0,0x0,0x0,0x0,0x0,0x0,0x0
0010a4 0000
0010a5 0000
0010a6 0000
0010a7 0000      	.DB  0x0,0x0,0x0,0x0,0x0,0x0,0x0,0x0
0010a8 0000
0010a9 0000
0010aa 0000
0010ab 0000      	.DB  0x0,0x0,0x0,0x0,0x0,0x0,0x0,0x0
0010ac 0000
0010ad 0000
0010ae 0000
0010af 0000      	.DB  0x0,0x0,0x0,0x0,0x0,0x0,0x0,0x0
0010b0 0000
0010b1 0000
0010b2 0000
0010b3 0000      	.DB  0x0,0x0,0x0,0x0,0x0,0x0,0x0,0x0
0010b4 0000
0010b5 0000
0010b6 0000
0010b7 0000      	.DB  0x0,0x0,0x0,0x0,0x0,0x0,0x0,0x0
0010b8 0000
0010b9 0000
0010ba 0000
0010bb 0000      	.DB  0x0,0x0,0x0,0x0,0x0,0x0,0x0,0x0
0010bc 0000
0010bd 0000
0010be 0000
0010bf 0000      	.DB  0x0,0x0,0x0,0x0,0x0,0x0,0x0,0x0
0010c0 0000
0010c1 0000
0010c2 0000
0010c3 0000      	.DB  0x0,0x0,0x0,0x0,0x0,0x0,0x0,0x0
0010c4 0000
0010c5 0000
0010c6 0000
0010c7 0000      	.DB  0x0,0x0,0x0,0x0,0x0,0x0,0x0,0x0
0010c8 0000
0010c9 0000
0010ca 0000
0010cb 0000      	.DB  0x0,0x0,0x0,0x0,0x0,0x0,0x0,0x0
0010cc 0000
0010cd 0000
0010ce 0000
0010cf 0000      	.DB  0x0,0x0,0x0,0x0,0x0,0x0,0x0,0x0
0010d0 0000
0010d1 0000
0010d2 0000
0010d3 0000      	.DB  0x0,0x0,0x0,0x0,0x0,0x0,0x0,0x0
0010d4 0000
0010d5 0000
0010d6 0000
0010d7 0000      	.DB  0x0,0x0,0x0,0x0,0x0,0x0,0x0,0x0
0010d8 0000
0010d9 0000
0010da 0000
0010db 0000      	.DB  0x0,0x0,0x0,0x0,0x0,0x0,0x0,0x0
0010dc 0000
0010dd 0000
0010de 0000
0010df 0000      	.DB  0x0,0x0,0x0,0x0,0x0,0x0,0x0,0x0
0010e0 0000
0010e1 0000
0010e2 0000
0010e3 0000      	.DB  0x0,0x0,0x0,0x0,0x0,0x0,0x0,0x0
0010e4 0000
0010e5 0000
0010e6 0000
0010e7 0000      	.DB  0x0,0x0,0x0,0x0,0x0,0x0,0x0,0x0
0010e8 0000
0010e9 0000
0010ea 0000
0010eb 0000      	.DB  0x0,0x0,0x0,0x0,0x0,0x0,0x0,0x0
0010ec 0000
0010ed 0000
0010ee 0000
0010ef 0000      	.DB  0x0,0x0,0x0,0x0,0x0,0x0,0x0,0x0
0010f0 0000
0010f1 0000
0010f2 0000
0010f3 0000      	.DB  0x0,0x0,0x0,0x0,0x0,0x0,0x0,0x0
0010f4 0000
0010f5 0000
0010f6 0000
0010f7 0000      	.DB  0x0,0x0,0x0,0x0,0x0,0x0,0x0,0x0
                 _GPS2:
0010f8 0000
0010f9 0000
0010fa 0000
0010fb 0000      	.DB  0x0,0x0,0x0,0x0,0x0,0x0,0x0,0x0
0010fc 0000
0010fd 0000
0010fe 0000
0010ff 0000      	.DB  0x0,0x0,0x0,0x0,0x0,0x0,0x0,0x0
001100 0000
001101 0000
001102 0000
001103 0000      	.DB  0x0,0x0,0x0,0x0,0x0,0x0,0x0,0x0
001104 0000
001105 0000
001106 0000
001107 0000      	.DB  0x0,0x0,0x0,0x0,0x0,0x0,0x0,0x0
001108 0000
001109 0000
00110a 0000
00110b 0000      	.DB  0x0,0x0,0x0,0x0,0x0,0x0,0x0,0x0
00110c 0000
00110d 0000
00110e 0000
00110f 0000      	.DB  0x0,0x0,0x0,0x0,0x0,0x0,0x0,0x0
001110 0000
001111 0000
001112 0000
001113 0000      	.DB  0x0,0x0,0x0,0x0,0x0,0x0,0x0,0x0
001114 0000
001115 0000
001116 0000
001117 0000      	.DB  0x0,0x0,0x0,0x0,0x0,0x0,0x0,0x0
001118 0000
001119 0000
00111a 0000
00111b 0000      	.DB  0x0,0x0,0x0,0x0,0x0,0x0,0x0,0x0
00111c 0000
00111d 0000
00111e 0000
00111f 0000      	.DB  0x0,0x0,0x0,0x0,0x0,0x0,0x0,0x0
001120 0000
001121 0000
001122 0000
001123 0000      	.DB  0x0,0x0,0x0,0x0,0x0,0x0,0x0,0x0
001124 0000
001125 0000
001126 0000
001127 0000      	.DB  0x0,0x0,0x0,0x0,0x0,0x0,0x0,0x0
001128 10e0
001129 9090
00112a 0080
00112b 90f0      	.DB  0xE0,0x10,0x90,0x90,0x80,0x0,0xF0,0x90
00112c 9090
00112d 0060
00112e 9060
00112f 1090      	.DB  0x90,0x90,0x60,0x0,0x60,0x90,0x90,0x10
001130 0000
001131 0000
001132 0000
001133 0000      	.DB  0x0,0x0,0x0,0x0,0x0,0x0,0x0,0x0
001134 0000
001135 7880
001136 fc00
001137 0000      	.DB  0x0,0x0,0x80,0x78,0x0,0xFC,0x0,0x0
001138 0000
001139 0000
00113a 0000
00113b 0000      	.DB  0x0,0x0,0x0,0x0,0x0,0x0,0x0,0x0
00113c 0000
00113d 0000
00113e 0000
00113f 0000      	.DB  0x0,0x0,0x0,0x0,0x0,0x0,0x0,0x0
001140 0000
001141 0000
001142 0000
001143 0000      	.DB  0x0,0x0,0x0,0x0,0x0,0x0,0x0,0x0
001144 0000
001145 0000
001146 0000
001147 0000      	.DB  0x0,0x0,0x0,0x0,0x0,0x0,0x0,0x0
001148 0000
001149 0000
00114a 0000
00114b 0000      	.DB  0x0,0x0,0x0,0x0,0x0,0x0,0x0,0x0
00114c 0000
00114d 0000
00114e 0000
00114f 0000      	.DB  0x0,0x0,0x0,0x0,0x0,0x0,0x0,0x0
001150 0000
001151 0000
001152 0000
001153 0000      	.DB  0x0,0x0,0x0,0x0,0x0,0x0,0x0,0x0
001154 0000
001155 0000
001156 0000
001157 0000      	.DB  0x0,0x0,0x0,0x0,0x0,0x0,0x0,0x0
001158 0000
001159 0000
00115a 0000
00115b 0000      	.DB  0x0,0x0,0x0,0x0,0x0,0x0,0x0,0x0
00115c 0000
00115d 0000
00115e 0000
00115f 0000      	.DB  0x0,0x0,0x0,0x0,0x0,0x0,0x0,0x0
001160 0000
001161 0000
001162 0000
001163 0000      	.DB  0x0,0x0,0x0,0x0,0x0,0x0,0x0,0x0
001164 0000
001165 0000
001166 0000
001167 0000      	.DB  0x0,0x0,0x0,0x0,0x0,0x0,0x0,0x0
001168 0403
001169 0404
00116a 0003
00116b 0007      	.DB  0x3,0x4,0x4,0x4,0x3,0x0,0x7,0x0
00116c 0000
00116d 0000
00116e 0404
00116f 0304      	.DB  0x0,0x0,0x0,0x0,0x4,0x4,0x4,0x3
001170 0000
001171 1000
001172 1414
001173 1414      	.DB  0x0,0x0,0x0,0x10,0x14,0x14,0x14,0x14
001174 0912
001175 0a04
001176 1835
001177 0008      	.DB  0x12,0x9,0x4,0xA,0x35,0x18,0x8,0x0
001178 0000
001179 0000
00117a 0000
00117b 0000      	.DB  0x0,0x0,0x0,0x0,0x0,0x0,0x0,0x0
00117c 0000
00117d 0000
00117e 0000
00117f 0000      	.DB  0x0,0x0,0x0,0x0,0x0,0x0,0x0,0x0
001180 0000
001181 0000
001182 0000
001183 0000      	.DB  0x0,0x0,0x0,0x0,0x0,0x0,0x0,0x0
001184 0000
001185 0000
001186 0000
001187 0000      	.DB  0x0,0x0,0x0,0x0,0x0,0x0,0x0,0x0
001188 0000
001189 0000
00118a 0000
00118b 0000      	.DB  0x0,0x0,0x0,0x0,0x0,0x0,0x0,0x0
00118c 0000
00118d 0000
00118e 0000
00118f 0000      	.DB  0x0,0x0,0x0,0x0,0x0,0x0,0x0,0x0
001190 0000
001191 0000
001192 0000
001193 0000      	.DB  0x0,0x0,0x0,0x0,0x0,0x0,0x0,0x0
001194 0000
001195 0000
001196 0000
001197 0000      	.DB  0x0,0x0,0x0,0x0,0x0,0x0,0x0,0x0
001198 0000
001199 0000
00119a 0000
00119b 0000      	.DB  0x0,0x0,0x0,0x0,0x0,0x0,0x0,0x0
00119c 0000
00119d 0000
00119e 0000
00119f 0000      	.DB  0x0,0x0,0x0,0x0,0x0,0x0,0x0,0x0
0011a0 0000
0011a1 0000
0011a2 0000
0011a3 0000      	.DB  0x0,0x0,0x0,0x0,0x0,0x0,0x0,0x0
0011a4 0000
0011a5 0000
0011a6 0000
0011a7 0000      	.DB  0x0,0x0,0x0,0x0,0x0,0x0,0x0,0x0
0011a8 0000
0011a9 0000
0011aa 0000
0011ab 0000      	.DB  0x0,0x0,0x0,0x0,0x0,0x0,0x0,0x0
0011ac 0000
0011ad 0000
0011ae 0000
0011af 0000      	.DB  0x0,0x0,0x0,0x0,0x0,0x0,0x0,0x0
0011b0 0000
0011b1 0000
0011b2 0000
0011b3 0000      	.DB  0x0,0x0,0x0,0x0,0x0,0x0,0x0,0x0
0011b4 0000
0011b5 0000
0011b6 0000
0011b7 0000      	.DB  0x0,0x0,0x0,0x0,0x0,0x0,0x0,0x0
0011b8 0000
0011b9 0000
0011ba 0000
0011bb 0000      	.DB  0x0,0x0,0x0,0x0,0x0,0x0,0x0,0x0
0011bc 0000
0011bd 0000
0011be 0000
0011bf 0000      	.DB  0x0,0x0,0x0,0x0,0x0,0x0,0x0,0x0
0011c0 0000
0011c1 0000
0011c2 0000
0011c3 0000      	.DB  0x0,0x0,0x0,0x0,0x0,0x0,0x0,0x0
0011c4 0000
0011c5 0000
0011c6 0000
0011c7 0000      	.DB  0x0,0x0,0x0,0x0,0x0,0x0,0x0,0x0
0011c8 0000
0011c9 0000
0011ca 0000
0011cb 0000      	.DB  0x0,0x0,0x0,0x0,0x0,0x0,0x0,0x0
0011cc 0000
0011cd 0000
0011ce 0000
0011cf 0000      	.DB  0x0,0x0,0x0,0x0,0x0,0x0,0x0,0x0
0011d0 0000
0011d1 0000
0011d2 0000
0011d3 0000      	.DB  0x0,0x0,0x0,0x0,0x0,0x0,0x0,0x0
0011d4 0000
0011d5 0000
0011d6 0000
0011d7 0000      	.DB  0x0,0x0,0x0,0x0,0x0,0x0,0x0,0x0
0011d8 0000
0011d9 0000
0011da 0000
0011db 0000      	.DB  0x0,0x0,0x0,0x0,0x0,0x0,0x0,0x0
0011dc 0000
0011dd 0000
0011de 0000
0011df 0000      	.DB  0x0,0x0,0x0,0x0,0x0,0x0,0x0,0x0
0011e0 0000
0011e1 0000
0011e2 0000
0011e3 0000      	.DB  0x0,0x0,0x0,0x0,0x0,0x0,0x0,0x0
0011e4 0000
0011e5 0000
0011e6 0000
0011e7 0000      	.DB  0x0,0x0,0x0,0x0,0x0,0x0,0x0,0x0
0011e8 0000
0011e9 0000
0011ea 0000
0011eb 0000      	.DB  0x0,0x0,0x0,0x0,0x0,0x0,0x0,0x0
0011ec 0000
0011ed 0000
0011ee 0000
0011ef 0000      	.DB  0x0,0x0,0x0,0x0,0x0,0x0,0x0,0x0
0011f0 0000
0011f1 0000
0011f2 0000
0011f3 0000      	.DB  0x0,0x0,0x0,0x0,0x0,0x0,0x0,0x0
0011f4 0000
0011f5 0000
0011f6 0000
0011f7 0000      	.DB  0x0,0x0,0x0,0x0,0x0,0x0,0x0,0x0
0011f8 0000
0011f9 0000
0011fa 0000
0011fb 0000      	.DB  0x0,0x0,0x0,0x0,0x0,0x0,0x0,0x0
0011fc 0000
0011fd 0000
0011fe 0000
0011ff 0000      	.DB  0x0,0x0,0x0,0x0,0x0,0x0,0x0,0x0
001200 0000
001201 0000
001202 0000
001203 0000      	.DB  0x0,0x0,0x0,0x0,0x0,0x0,0x0,0x0
001204 0000
001205 0000
001206 0000
001207 0000      	.DB  0x0,0x0,0x0,0x0,0x0,0x0,0x0,0x0
001208 0000
001209 0000
00120a 0000
00120b 0000      	.DB  0x0,0x0,0x0,0x0,0x0,0x0,0x0,0x0
00120c 0000
00120d 0000
00120e 0000
00120f 0000      	.DB  0x0,0x0,0x0,0x0,0x0,0x0,0x0,0x0
001210 0000
001211 0000
001212 0000
001213 0000      	.DB  0x0,0x0,0x0,0x0,0x0,0x0,0x0,0x0
001214 0000
001215 0000
001216 0000
001217 0000      	.DB  0x0,0x0,0x0,0x0,0x0,0x0,0x0,0x0
001218 0000
001219 0000
00121a 0000
00121b 0000      	.DB  0x0,0x0,0x0,0x0,0x0,0x0,0x0,0x0
00121c 0000
00121d 0000
00121e 0000
00121f 0000      	.DB  0x0,0x0,0x0,0x0,0x0,0x0,0x0,0x0
001220 0000
001221 0000
001222 0000
001223 0000      	.DB  0x0,0x0,0x0,0x0,0x0,0x0,0x0,0x0
001224 0000
001225 0000
001226 0000
001227 0000      	.DB  0x0,0x0,0x0,0x0,0x0,0x0,0x0,0x0
001228 0000
001229 0000
00122a 0000
00122b 0000      	.DB  0x0,0x0,0x0,0x0,0x0,0x0,0x0,0x0
00122c 0000
00122d 0000
00122e 0000
00122f 0000      	.DB  0x0,0x0,0x0,0x0,0x0,0x0,0x0,0x0
001230 0000
001231 0000
001232 0000
001233 0000      	.DB  0x0,0x0,0x0,0x0,0x0,0x0,0x0,0x0
001234 0000
001235 0000
001236 0000
001237 0000      	.DB  0x0,0x0,0x0,0x0,0x0,0x0,0x0,0x0
001238 0000
001239 0000
00123a 0000
00123b 0000      	.DB  0x0,0x0,0x0,0x0,0x0,0x0,0x0,0x0
00123c 0000
00123d 0000
00123e 0000
00123f 0000      	.DB  0x0,0x0,0x0,0x0,0x0,0x0,0x0,0x0
001240 0000
001241 0000
001242 0000
001243 0000      	.DB  0x0,0x0,0x0,0x0,0x0,0x0,0x0,0x0
001244 0000
001245 0000
001246 0000
001247 0000      	.DB  0x0,0x0,0x0,0x0,0x0,0x0,0x0,0x0
001248 0000
001249 0000
00124a 0000
00124b 0000      	.DB  0x0,0x0,0x0,0x0,0x0,0x0,0x0,0x0
00124c 0000
00124d 0000
00124e 0000
00124f 0000      	.DB  0x0,0x0,0x0,0x0,0x0,0x0,0x0,0x0
001250 0000
001251 0000
001252 0000
001253 0000      	.DB  0x0,0x0,0x0,0x0,0x0,0x0,0x0,0x0
001254 0000
001255 0000
001256 0000
001257 0000      	.DB  0x0,0x0,0x0,0x0,0x0,0x0,0x0,0x0
001258 0000
001259 0000
00125a 0000
00125b 0000      	.DB  0x0,0x0,0x0,0x0,0x0,0x0,0x0,0x0
00125c 0000
00125d 0000
00125e 0000
00125f 0000      	.DB  0x0,0x0,0x0,0x0,0x0,0x0,0x0,0x0
001260 0000
001261 0000
001262 0000
001263 0000      	.DB  0x0,0x0,0x0,0x0,0x0,0x0,0x0,0x0
001264 0000
001265 0000
001266 0000
001267 0000      	.DB  0x0,0x0,0x0,0x0,0x0,0x0,0x0,0x0
001268 0000
001269 0000
00126a 0000
00126b 0000      	.DB  0x0,0x0,0x0,0x0,0x0,0x0,0x0,0x0
00126c 0000
00126d 0000
00126e 0000
00126f 0000      	.DB  0x0,0x0,0x0,0x0,0x0,0x0,0x0,0x0
001270 0000
001271 0000
001272 0000
001273 0000      	.DB  0x0,0x0,0x0,0x0,0x0,0x0,0x0,0x0
001274 0000
001275 0000
001276 0000
001277 0000      	.DB  0x0,0x0,0x0,0x0,0x0,0x0,0x0,0x0
001278 0000
001279 0000
00127a 0000
00127b 0000      	.DB  0x0,0x0,0x0,0x0,0x0,0x0,0x0,0x0
00127c 0000
00127d 0000
00127e 0000
00127f 0000      	.DB  0x0,0x0,0x0,0x0,0x0,0x0,0x0,0x0
001280 0000
001281 0000
001282 0000
001283 0000      	.DB  0x0,0x0,0x0,0x0,0x0,0x0,0x0,0x0
001284 0000
001285 0000
001286 0000
001287 0000      	.DB  0x0,0x0,0x0,0x0,0x0,0x0,0x0,0x0
001288 0000
001289 0000
00128a 0000
00128b 0000      	.DB  0x0,0x0,0x0,0x0,0x0,0x0,0x0,0x0
00128c 0000
00128d 0000
00128e 0000
00128f 0000      	.DB  0x0,0x0,0x0,0x0,0x0,0x0,0x0,0x0
001290 0000
001291 0000
001292 0000
001293 0000      	.DB  0x0,0x0,0x0,0x0,0x0,0x0,0x0,0x0
001294 0000
001295 0000
001296 0000
001297 0000      	.DB  0x0,0x0,0x0,0x0,0x0,0x0,0x0,0x0
001298 0000
001299 0000
00129a 0000
00129b 0000      	.DB  0x0,0x0,0x0,0x0,0x0,0x0,0x0,0x0
00129c 0000
00129d 0000
00129e 0000
00129f 0000      	.DB  0x0,0x0,0x0,0x0,0x0,0x0,0x0,0x0
0012a0 0000
0012a1 0000
0012a2 0000
0012a3 0000      	.DB  0x0,0x0,0x0,0x0,0x0,0x0,0x0,0x0
0012a4 0000
0012a5 0000
0012a6 0000
0012a7 0000      	.DB  0x0,0x0,0x0,0x0,0x0,0x0,0x0,0x0
0012a8 0000
0012a9 0000
0012aa 0000
0012ab 0000      	.DB  0x0,0x0,0x0,0x0,0x0,0x0,0x0,0x0
0012ac 0000
0012ad 0000
0012ae 0000
0012af 0000      	.DB  0x0,0x0,0x0,0x0,0x0,0x0,0x0,0x0
0012b0 0000
0012b1 0000
0012b2 0000
0012b3 0000      	.DB  0x0,0x0,0x0,0x0,0x0,0x0,0x0,0x0
0012b4 0000
0012b5 0000
0012b6 0000
0012b7 0000      	.DB  0x0,0x0,0x0,0x0,0x0,0x0,0x0,0x0
0012b8 0000
0012b9 0000
0012ba 0000
0012bb 0000      	.DB  0x0,0x0,0x0,0x0,0x0,0x0,0x0,0x0
0012bc 0000
0012bd 0000
0012be 0000
0012bf 0000      	.DB  0x0,0x0,0x0,0x0,0x0,0x0,0x0,0x0
0012c0 0000
0012c1 0000
0012c2 0000
0012c3 0000      	.DB  0x0,0x0,0x0,0x0,0x0,0x0,0x0,0x0
0012c4 0000
0012c5 0000
0012c6 0000
0012c7 0000      	.DB  0x0,0x0,0x0,0x0,0x0,0x0,0x0,0x0
0012c8 0000
0012c9 0000
0012ca 0000
0012cb 0000      	.DB  0x0,0x0,0x0,0x0,0x0,0x0,0x0,0x0
0012cc 0000
0012cd 0000
0012ce 0000
0012cf 0000      	.DB  0x0,0x0,0x0,0x0,0x0,0x0,0x0,0x0
0012d0 0000
0012d1 0000
0012d2 0000
0012d3 0000      	.DB  0x0,0x0,0x0,0x0,0x0,0x0,0x0,0x0
0012d4 0000
0012d5 0000
0012d6 0000
0012d7 0000      	.DB  0x0,0x0,0x0,0x0,0x0,0x0,0x0,0x0
0012d8 0000
0012d9 0000
0012da 0000
0012db 0000      	.DB  0x0,0x0,0x0,0x0,0x0,0x0,0x0,0x0
0012dc 0000
0012dd 0000
0012de 0000
0012df 0000      	.DB  0x0,0x0,0x0,0x0,0x0,0x0,0x0,0x0
0012e0 0000
0012e1 0000
0012e2 0000
0012e3 0000      	.DB  0x0,0x0,0x0,0x0,0x0,0x0,0x0,0x0
0012e4 0000
0012e5 0000
0012e6 0000
0012e7 0000      	.DB  0x0,0x0,0x0,0x0,0x0,0x0,0x0,0x0
0012e8 0000
0012e9 0000
0012ea 0000
0012eb 0000      	.DB  0x0,0x0,0x0,0x0,0x0,0x0,0x0,0x0
0012ec 0000
0012ed 0000
0012ee 0000
0012ef 0000      	.DB  0x0,0x0,0x0,0x0,0x0,0x0,0x0,0x0
0012f0 0000
0012f1 0000
0012f2 0000
0012f3 0000      	.DB  0x0,0x0,0x0,0x0,0x0,0x0,0x0,0x0
0012f4 0000
0012f5 0000
0012f6 0000
0012f7 0000      	.DB  0x0,0x0,0x0,0x0,0x0,0x0,0x0,0x0
                 _GSM1:
0012f8 0000
0012f9 0000
0012fa 0000
0012fb 8000      	.DB  0x0,0x0,0x0,0x0,0x0,0x0,0x0,0x80
0012fc 0080
0012fd e0e0
0012fe f800
0012ff 00f8      	.DB  0x80,0x0,0xE0,0xE0,0x0,0xF8,0xF8,0x0
001300 fefe
001301 0000
001302 0000
001303 0000      	.DB  0xFE,0xFE,0x0,0x0,0x0,0x0,0x0,0x0
001304 0000
001305 0000
001306 0000
001307 0000      	.DB  0x0,0x0,0x0,0x0,0x0,0x0,0x0,0x0
001308 0000
001309 0000
00130a 0000
00130b 0000      	.DB  0x0,0x0,0x0,0x0,0x0,0x0,0x0,0x0
00130c 0000
00130d 0000
00130e 0000
00130f 0000      	.DB  0x0,0x0,0x0,0x0,0x0,0x0,0x0,0x0
001310 0000
001311 0000
001312 0000
001313 0000      	.DB  0x0,0x0,0x0,0x0,0x0,0x0,0x0,0x0
001314 0000
001315 0000
001316 0000
001317 0000      	.DB  0x0,0x0,0x0,0x0,0x0,0x0,0x0,0x0
001318 0000
001319 0000
00131a 0000
00131b 0000      	.DB  0x0,0x0,0x0,0x0,0x0,0x0,0x0,0x0
00131c 0000
00131d 0000
00131e 0000
00131f 0000      	.DB  0x0,0x0,0x0,0x0,0x0,0x0,0x0,0x0
001320 0000
001321 0000
001322 0000
001323 0000      	.DB  0x0,0x0,0x0,0x0,0x0,0x0,0x0,0x0
001324 0000
001325 0000
001326 0000
001327 0000      	.DB  0x0,0x0,0x0,0x0,0x0,0x0,0x0,0x0
001328 0000
001329 0000
00132a 0000
00132b 0000      	.DB  0x0,0x0,0x0,0x0,0x0,0x0,0x0,0x0
00132c 0000
00132d 0000
00132e 0000
00132f 0000      	.DB  0x0,0x0,0x0,0x0,0x0,0x0,0x0,0x0
001330 0000
001331 0000
001332 0000
001333 0000      	.DB  0x0,0x0,0x0,0x0,0x0,0x0,0x0,0x0
001334 0000
001335 0000
001336 0000
001337 0000      	.DB  0x0,0x0,0x0,0x0,0x0,0x0,0x0,0x0
001338 0600
001339 0006
00133a 0707
00133b 0700      	.DB  0x0,0x6,0x6,0x0,0x7,0x7,0x0,0x7
00133c 0007
00133d 0707
00133e 0700
00133f 0007      	.DB  0x7,0x0,0x7,0x7,0x0,0x7,0x7,0x0
001340 0707
001341 0000
001342 0000
001343 0000      	.DB  0x7,0x7,0x0,0x0,0x0,0x0,0x0,0x0
001344 0000
001345 0000
001346 0000
001347 0000      	.DB  0x0,0x0,0x0,0x0,0x0,0x0,0x0,0x0
001348 0000
001349 0000
00134a 0000
00134b 0000      	.DB  0x0,0x0,0x0,0x0,0x0,0x0,0x0,0x0
00134c 0000
00134d 0000
00134e 0000
00134f 0000      	.DB  0x0,0x0,0x0,0x0,0x0,0x0,0x0,0x0
001350 0000
001351 0000
001352 0000
001353 0000      	.DB  0x0,0x0,0x0,0x0,0x0,0x0,0x0,0x0
001354 0000
001355 0000
001356 0000
001357 0000      	.DB  0x0,0x0,0x0,0x0,0x0,0x0,0x0,0x0
001358 0000
001359 0000
00135a 0000
00135b 0000      	.DB  0x0,0x0,0x0,0x0,0x0,0x0,0x0,0x0
00135c 0000
00135d 0000
00135e 0000
00135f 0000      	.DB  0x0,0x0,0x0,0x0,0x0,0x0,0x0,0x0
001360 0000
001361 0000
001362 0000
001363 0000      	.DB  0x0,0x0,0x0,0x0,0x0,0x0,0x0,0x0
001364 0000
001365 0000
001366 0000
001367 0000      	.DB  0x0,0x0,0x0,0x0,0x0,0x0,0x0,0x0
001368 0000
001369 0000
00136a 0000
00136b 0000      	.DB  0x0,0x0,0x0,0x0,0x0,0x0,0x0,0x0
00136c 0000
00136d 0000
00136e 0000
00136f 0000      	.DB  0x0,0x0,0x0,0x0,0x0,0x0,0x0,0x0
001370 0000
001371 0000
001372 0000
001373 0000      	.DB  0x0,0x0,0x0,0x0,0x0,0x0,0x0,0x0
001374 0000
001375 0000
001376 0000
001377 0000      	.DB  0x0,0x0,0x0,0x0,0x0,0x0,0x0,0x0
001378 0000
001379 0000
00137a 0000
00137b 0000      	.DB  0x0,0x0,0x0,0x0,0x0,0x0,0x0,0x0
00137c 0000
00137d 0000
00137e 0000
00137f 0000      	.DB  0x0,0x0,0x0,0x0,0x0,0x0,0x0,0x0
001380 0000
001381 0000
001382 0000
001383 0000      	.DB  0x0,0x0,0x0,0x0,0x0,0x0,0x0,0x0
001384 0000
001385 0000
001386 0000
001387 0000      	.DB  0x0,0x0,0x0,0x0,0x0,0x0,0x0,0x0
001388 0000
001389 0000
00138a 0000
00138b 0000      	.DB  0x0,0x0,0x0,0x0,0x0,0x0,0x0,0x0
00138c 0000
00138d 0000
00138e 0000
00138f 0000      	.DB  0x0,0x0,0x0,0x0,0x0,0x0,0x0,0x0
001390 0000
001391 0000
001392 0000
001393 0000      	.DB  0x0,0x0,0x0,0x0,0x0,0x0,0x0,0x0
001394 0000
001395 0000
001396 0000
001397 0000      	.DB  0x0,0x0,0x0,0x0,0x0,0x0,0x0,0x0
001398 0000
001399 0000
00139a 0000
00139b 0000      	.DB  0x0,0x0,0x0,0x0,0x0,0x0,0x0,0x0
00139c 0000
00139d 0000
00139e 0000
00139f 0000      	.DB  0x0,0x0,0x0,0x0,0x0,0x0,0x0,0x0
0013a0 0000
0013a1 0000
0013a2 0000
0013a3 0000      	.DB  0x0,0x0,0x0,0x0,0x0,0x0,0x0,0x0
0013a4 0000
0013a5 0000
0013a6 0000
0013a7 0000      	.DB  0x0,0x0,0x0,0x0,0x0,0x0,0x0,0x0
0013a8 0000
0013a9 0000
0013aa 0000
0013ab 0000      	.DB  0x0,0x0,0x0,0x0,0x0,0x0,0x0,0x0
0013ac 0000
0013ad 0000
0013ae 0000
0013af 0000      	.DB  0x0,0x0,0x0,0x0,0x0,0x0,0x0,0x0
0013b0 0000
0013b1 0000
0013b2 0000
0013b3 0000      	.DB  0x0,0x0,0x0,0x0,0x0,0x0,0x0,0x0
0013b4 0000
0013b5 0000
0013b6 0000
0013b7 0000      	.DB  0x0,0x0,0x0,0x0,0x0,0x0,0x0,0x0
0013b8 0000
0013b9 0000
0013ba 0000
0013bb 0000      	.DB  0x0,0x0,0x0,0x0,0x0,0x0,0x0,0x0
0013bc 0000
0013bd 0000
0013be 0000
0013bf 0000      	.DB  0x0,0x0,0x0,0x0,0x0,0x0,0x0,0x0
0013c0 0000
0013c1 0000
0013c2 0000
0013c3 0000      	.DB  0x0,0x0,0x0,0x0,0x0,0x0,0x0,0x0
0013c4 0000
0013c5 0000
0013c6 0000
0013c7 0000      	.DB  0x0,0x0,0x0,0x0,0x0,0x0,0x0,0x0
0013c8 0000
0013c9 0000
0013ca 0000
0013cb 0000      	.DB  0x0,0x0,0x0,0x0,0x0,0x0,0x0,0x0
0013cc 0000
0013cd 0000
0013ce 0000
0013cf 0000      	.DB  0x0,0x0,0x0,0x0,0x0,0x0,0x0,0x0
0013d0 0000
0013d1 0000
0013d2 0000
0013d3 0000      	.DB  0x0,0x0,0x0,0x0,0x0,0x0,0x0,0x0
0013d4 0000
0013d5 0000
0013d6 0000
0013d7 0000      	.DB  0x0,0x0,0x0,0x0,0x0,0x0,0x0,0x0
0013d8 0000
0013d9 0000
0013da 0000
0013db 0000      	.DB  0x0,0x0,0x0,0x0,0x0,0x0,0x0,0x0
0013dc 0000
0013dd 0000
0013de 0000
0013df 0000      	.DB  0x0,0x0,0x0,0x0,0x0,0x0,0x0,0x0
0013e0 0000
0013e1 0000
0013e2 0000
0013e3 0000      	.DB  0x0,0x0,0x0,0x0,0x0,0x0,0x0,0x0
0013e4 0000
0013e5 0000
0013e6 0000
0013e7 0000      	.DB  0x0,0x0,0x0,0x0,0x0,0x0,0x0,0x0
0013e8 0000
0013e9 0000
0013ea 0000
0013eb 0000      	.DB  0x0,0x0,0x0,0x0,0x0,0x0,0x0,0x0
0013ec 0000
0013ed 0000
0013ee 0000
0013ef 0000      	.DB  0x0,0x0,0x0,0x0,0x0,0x0,0x0,0x0
0013f0 0000
0013f1 0000
0013f2 0000
0013f3 0000      	.DB  0x0,0x0,0x0,0x0,0x0,0x0,0x0,0x0
0013f4 0000
0013f5 0000
0013f6 0000
0013f7 0000      	.DB  0x0,0x0,0x0,0x0,0x0,0x0,0x0,0x0
0013f8 0000
0013f9 0000
0013fa 0000
0013fb 0000      	.DB  0x0,0x0,0x0,0x0,0x0,0x0,0x0,0x0
0013fc 0000
0013fd 0000
0013fe 0000
0013ff 0000      	.DB  0x0,0x0,0x0,0x0,0x0,0x0,0x0,0x0
001400 0000
001401 0000
001402 0000
001403 0000      	.DB  0x0,0x0,0x0,0x0,0x0,0x0,0x0,0x0
001404 0000
001405 0000
001406 0000
001407 0000      	.DB  0x0,0x0,0x0,0x0,0x0,0x0,0x0,0x0
001408 0000
001409 0000
00140a 0000
00140b 0000      	.DB  0x0,0x0,0x0,0x0,0x0,0x0,0x0,0x0
00140c 0000
00140d 0000
00140e 0000
00140f 0000      	.DB  0x0,0x0,0x0,0x0,0x0,0x0,0x0,0x0
001410 0000
001411 0000
001412 0000
001413 0000      	.DB  0x0,0x0,0x0,0x0,0x0,0x0,0x0,0x0
001414 0000
001415 0000
001416 0000
001417 0000      	.DB  0x0,0x0,0x0,0x0,0x0,0x0,0x0,0x0
001418 0000
001419 0000
00141a 0000
00141b 0000      	.DB  0x0,0x0,0x0,0x0,0x0,0x0,0x0,0x0
00141c 0000
00141d 0000
00141e 0000
00141f 0000      	.DB  0x0,0x0,0x0,0x0,0x0,0x0,0x0,0x0
001420 0000
001421 0000
001422 0000
001423 0000      	.DB  0x0,0x0,0x0,0x0,0x0,0x0,0x0,0x0
001424 0000
001425 0000
001426 0000
001427 0000      	.DB  0x0,0x0,0x0,0x0,0x0,0x0,0x0,0x0
001428 0000
001429 0000
00142a 0000
00142b 0000      	.DB  0x0,0x0,0x0,0x0,0x0,0x0,0x0,0x0
00142c 0000
00142d 0000
00142e 0000
00142f 0000      	.DB  0x0,0x0,0x0,0x0,0x0,0x0,0x0,0x0
001430 0000
001431 0000
001432 0000
001433 0000      	.DB  0x0,0x0,0x0,0x0,0x0,0x0,0x0,0x0
001434 0000
001435 0000
001436 0000
001437 0000      	.DB  0x0,0x0,0x0,0x0,0x0,0x0,0x0,0x0
001438 0000
001439 0000
00143a 0000
00143b 0000      	.DB  0x0,0x0,0x0,0x0,0x0,0x0,0x0,0x0
00143c 0000
00143d 0000
00143e 0000
00143f 0000      	.DB  0x0,0x0,0x0,0x0,0x0,0x0,0x0,0x0
001440 0000
001441 0000
001442 0000
001443 0000      	.DB  0x0,0x0,0x0,0x0,0x0,0x0,0x0,0x0
001444 0000
001445 0000
001446 0000
001447 0000      	.DB  0x0,0x0,0x0,0x0,0x0,0x0,0x0,0x0
001448 0000
001449 0000
00144a 0000
00144b 0000      	.DB  0x0,0x0,0x0,0x0,0x0,0x0,0x0,0x0
00144c 0000
00144d 0000
00144e 0000
00144f 0000      	.DB  0x0,0x0,0x0,0x0,0x0,0x0,0x0,0x0
001450 0000
001451 0000
001452 0000
001453 0000      	.DB  0x0,0x0,0x0,0x0,0x0,0x0,0x0,0x0
001454 0000
001455 0000
001456 0000
001457 0000      	.DB  0x0,0x0,0x0,0x0,0x0,0x0,0x0,0x0
001458 0000
001459 0000
00145a 0000
00145b 0000      	.DB  0x0,0x0,0x0,0x0,0x0,0x0,0x0,0x0
00145c 0000
00145d 0000
00145e 0000
00145f 0000      	.DB  0x0,0x0,0x0,0x0,0x0,0x0,0x0,0x0
001460 0000
001461 0000
001462 0000
001463 0000      	.DB  0x0,0x0,0x0,0x0,0x0,0x0,0x0,0x0
001464 0000
001465 0000
001466 0000
001467 0000      	.DB  0x0,0x0,0x0,0x0,0x0,0x0,0x0,0x0
001468 0000
001469 0000
00146a 0000
00146b 0000      	.DB  0x0,0x0,0x0,0x0,0x0,0x0,0x0,0x0
00146c 0000
00146d 0000
00146e 0000
00146f 0000      	.DB  0x0,0x0,0x0,0x0,0x0,0x0,0x0,0x0
001470 0000
001471 0000
001472 0000
001473 0000      	.DB  0x0,0x0,0x0,0x0,0x0,0x0,0x0,0x0
001474 0000
001475 0000
001476 0000
001477 0000      	.DB  0x0,0x0,0x0,0x0,0x0,0x0,0x0,0x0
001478 0000
001479 0000
00147a 0000
00147b 0000      	.DB  0x0,0x0,0x0,0x0,0x0,0x0,0x0,0x0
00147c 0000
00147d 0000
00147e 0000
00147f 0000      	.DB  0x0,0x0,0x0,0x0,0x0,0x0,0x0,0x0
001480 0000
001481 0000
001482 0000
001483 0000      	.DB  0x0,0x0,0x0,0x0,0x0,0x0,0x0,0x0
001484 0000
001485 0000
001486 0000
001487 0000      	.DB  0x0,0x0,0x0,0x0,0x0,0x0,0x0,0x0
001488 0000
001489 0000
00148a 0000
00148b 0000      	.DB  0x0,0x0,0x0,0x0,0x0,0x0,0x0,0x0
00148c 0000
00148d 0000
00148e 0000
00148f 0000      	.DB  0x0,0x0,0x0,0x0,0x0,0x0,0x0,0x0
001490 0000
001491 0000
001492 0000
001493 0000      	.DB  0x0,0x0,0x0,0x0,0x0,0x0,0x0,0x0
001494 0000
001495 0000
001496 0000
001497 0000      	.DB  0x0,0x0,0x0,0x0,0x0,0x0,0x0,0x0
001498 0000
001499 0000
00149a 0000
00149b 0000      	.DB  0x0,0x0,0x0,0x0,0x0,0x0,0x0,0x0
00149c 0000
00149d 0000
00149e 0000
00149f 0000      	.DB  0x0,0x0,0x0,0x0,0x0,0x0,0x0,0x0
0014a0 0000
0014a1 0000
0014a2 0000
0014a3 0000      	.DB  0x0,0x0,0x0,0x0,0x0,0x0,0x0,0x0
0014a4 0000
0014a5 0000
0014a6 0000
0014a7 0000      	.DB  0x0,0x0,0x0,0x0,0x0,0x0,0x0,0x0
0014a8 0000
0014a9 0000
0014aa 0000
0014ab 0000      	.DB  0x0,0x0,0x0,0x0,0x0,0x0,0x0,0x0
0014ac 0000
0014ad 0000
0014ae 0000
0014af 0000      	.DB  0x0,0x0,0x0,0x0,0x0,0x0,0x0,0x0
0014b0 0000
0014b1 0000
0014b2 0000
0014b3 0000      	.DB  0x0,0x0,0x0,0x0,0x0,0x0,0x0,0x0
0014b4 0000
0014b5 0000
0014b6 0000
0014b7 0000      	.DB  0x0,0x0,0x0,0x0,0x0,0x0,0x0,0x0
0014b8 0000
0014b9 0000
0014ba 0000
0014bb 0000      	.DB  0x0,0x0,0x0,0x0,0x0,0x0,0x0,0x0
0014bc 0000
0014bd 0000
0014be 0000
0014bf 0000      	.DB  0x0,0x0,0x0,0x0,0x0,0x0,0x0,0x0
0014c0 0000
0014c1 0000
0014c2 0000
0014c3 0000      	.DB  0x0,0x0,0x0,0x0,0x0,0x0,0x0,0x0
0014c4 0000
0014c5 0000
0014c6 0000
0014c7 0000      	.DB  0x0,0x0,0x0,0x0,0x0,0x0,0x0,0x0
0014c8 0000
0014c9 0000
0014ca 0000
0014cb 0000      	.DB  0x0,0x0,0x0,0x0,0x0,0x0,0x0,0x0
0014cc 0000
0014cd 0000
0014ce 0000
0014cf 0000      	.DB  0x0,0x0,0x0,0x0,0x0,0x0,0x0,0x0
0014d0 0000
0014d1 0000
0014d2 0000
0014d3 0000      	.DB  0x0,0x0,0x0,0x0,0x0,0x0,0x0,0x0
0014d4 0000
0014d5 0000
0014d6 0000
0014d7 0000      	.DB  0x0,0x0,0x0,0x0,0x0,0x0,0x0,0x0
0014d8 0000
0014d9 0000
0014da 0000
0014db 0000      	.DB  0x0,0x0,0x0,0x0,0x0,0x0,0x0,0x0
0014dc 0000
0014dd 0000
0014de 0000
0014df 0000      	.DB  0x0,0x0,0x0,0x0,0x0,0x0,0x0,0x0
0014e0 0000
0014e1 0000
0014e2 0000
0014e3 0000      	.DB  0x0,0x0,0x0,0x0,0x0,0x0,0x0,0x0
0014e4 0000
0014e5 0000
0014e6 0000
0014e7 0000      	.DB  0x0,0x0,0x0,0x0,0x0,0x0,0x0,0x0
0014e8 0000
0014e9 0000
0014ea 0000
0014eb 0000      	.DB  0x0,0x0,0x0,0x0,0x0,0x0,0x0,0x0
0014ec 0000
0014ed 0000
0014ee 0000
0014ef 0000      	.DB  0x0,0x0,0x0,0x0,0x0,0x0,0x0,0x0
0014f0 0000
0014f1 0000
0014f2 0000
0014f3 0000      	.DB  0x0,0x0,0x0,0x0,0x0,0x0,0x0,0x0
0014f4 0000
0014f5 0000
0014f6 0000
0014f7 0000      	.DB  0x0,0x0,0x0,0x0,0x0,0x0,0x0,0x0
                 _GSM2:
0014f8 0000
0014f9 0000
0014fa 0000
0014fb 8000      	.DB  0x0,0x0,0x0,0x0,0x0,0x0,0x0,0x80
0014fc 0080
0014fd e0e0
0014fe 0000
0014ff 0000      	.DB  0x80,0x0,0xE0,0xE0,0x0,0x0,0x0,0x0
001500 0000
001501 0000
001502 0000
001503 0000      	.DB  0x0,0x0,0x0,0x0,0x0,0x0,0x0,0x0
001504 0000
001505 0000
001506 0000
001507 0000      	.DB  0x0,0x0,0x0,0x0,0x0,0x0,0x0,0x0
001508 0000
001509 0000
00150a 0000
00150b 0000      	.DB  0x0,0x0,0x0,0x0,0x0,0x0,0x0,0x0
00150c 0000
00150d 0000
00150e 0000
00150f 0000      	.DB  0x0,0x0,0x0,0x0,0x0,0x0,0x0,0x0
001510 0000
001511 0000
001512 0000
001513 0000      	.DB  0x0,0x0,0x0,0x0,0x0,0x0,0x0,0x0
001514 0000
001515 0000
001516 0000
001517 0000      	.DB  0x0,0x0,0x0,0x0,0x0,0x0,0x0,0x0
001518 0000
001519 0000
00151a 0000
00151b 0000      	.DB  0x0,0x0,0x0,0x0,0x0,0x0,0x0,0x0
00151c 0000
00151d 0000
00151e 0000
00151f 0000      	.DB  0x0,0x0,0x0,0x0,0x0,0x0,0x0,0x0
001520 0000
001521 0000
001522 0000
001523 0000      	.DB  0x0,0x0,0x0,0x0,0x0,0x0,0x0,0x0
001524 0000
001525 0000
001526 0000
001527 0000      	.DB  0x0,0x0,0x0,0x0,0x0,0x0,0x0,0x0
001528 0000
001529 0000
00152a 0000
00152b 0000      	.DB  0x0,0x0,0x0,0x0,0x0,0x0,0x0,0x0
00152c 0000
00152d 0000
00152e 0000
00152f 0000      	.DB  0x0,0x0,0x0,0x0,0x0,0x0,0x0,0x0
001530 0000
001531 0000
001532 0000
001533 0000      	.DB  0x0,0x0,0x0,0x0,0x0,0x0,0x0,0x0
001534 0000
001535 0000
001536 0000
001537 0000      	.DB  0x0,0x0,0x0,0x0,0x0,0x0,0x0,0x0
001538 0600
001539 0006
00153a 0707
00153b 0700      	.DB  0x0,0x6,0x6,0x0,0x7,0x7,0x0,0x7
00153c 0007
00153d 0707
00153e 0000
00153f 0000      	.DB  0x7,0x0,0x7,0x7,0x0,0x0,0x0,0x0
001540 0000
001541 0000
001542 0000
001543 0000      	.DB  0x0,0x0,0x0,0x0,0x0,0x0,0x0,0x0
001544 0000
001545 0000
001546 0000
001547 0000      	.DB  0x0,0x0,0x0,0x0,0x0,0x0,0x0,0x0
001548 0000
001549 0000
00154a 0000
00154b 0000      	.DB  0x0,0x0,0x0,0x0,0x0,0x0,0x0,0x0
00154c 0000
00154d 0000
00154e 0000
00154f 0000      	.DB  0x0,0x0,0x0,0x0,0x0,0x0,0x0,0x0
001550 0000
001551 0000
001552 0000
001553 0000      	.DB  0x0,0x0,0x0,0x0,0x0,0x0,0x0,0x0
001554 0000
001555 0000
001556 0000
001557 0000      	.DB  0x0,0x0,0x0,0x0,0x0,0x0,0x0,0x0
001558 0000
001559 0000
00155a 0000
00155b 0000      	.DB  0x0,0x0,0x0,0x0,0x0,0x0,0x0,0x0
00155c 0000
00155d 0000
00155e 0000
00155f 0000      	.DB  0x0,0x0,0x0,0x0,0x0,0x0,0x0,0x0
001560 0000
001561 0000
001562 0000
001563 0000      	.DB  0x0,0x0,0x0,0x0,0x0,0x0,0x0,0x0
001564 0000
001565 0000
001566 0000
001567 0000      	.DB  0x0,0x0,0x0,0x0,0x0,0x0,0x0,0x0
001568 0000
001569 0000
00156a 0000
00156b 0000      	.DB  0x0,0x0,0x0,0x0,0x0,0x0,0x0,0x0
00156c 0000
00156d 0000
00156e 0000
00156f 0000      	.DB  0x0,0x0,0x0,0x0,0x0,0x0,0x0,0x0
001570 0000
001571 0000
001572 0000
001573 0000      	.DB  0x0,0x0,0x0,0x0,0x0,0x0,0x0,0x0
001574 0000
001575 0000
001576 0000
001577 0000      	.DB  0x0,0x0,0x0,0x0,0x0,0x0,0x0,0x0
001578 0000
001579 0000
00157a 0000
00157b 0000      	.DB  0x0,0x0,0x0,0x0,0x0,0x0,0x0,0x0
00157c 0000
00157d 0000
00157e 0000
00157f 0000      	.DB  0x0,0x0,0x0,0x0,0x0,0x0,0x0,0x0
001580 0000
001581 0000
001582 0000
001583 0000      	.DB  0x0,0x0,0x0,0x0,0x0,0x0,0x0,0x0
001584 0000
001585 0000
001586 0000
001587 0000      	.DB  0x0,0x0,0x0,0x0,0x0,0x0,0x0,0x0
001588 0000
001589 0000
00158a 0000
00158b 0000      	.DB  0x0,0x0,0x0,0x0,0x0,0x0,0x0,0x0
00158c 0000
00158d 0000
00158e 0000
00158f 0000      	.DB  0x0,0x0,0x0,0x0,0x0,0x0,0x0,0x0
                 _GSM3:
001590 0000
001591 0000
001592 0000
001593 0000      	.DB  0x0,0x0,0x0,0x0,0x0,0x0,0x0,0x0
001594 0000
001595 0000
001596 0000
001597 0000      	.DB  0x0,0x0,0x0,0x0,0x0,0x0,0x0,0x0
001598 0000
001599 0000
00159a 0000
00159b 0000      	.DB  0x0,0x0,0x0,0x0,0x0,0x0,0x0,0x0
00159c 0000
00159d 0000
00159e 0000
00159f 0000      	.DB  0x0,0x0,0x0,0x0,0x0,0x0,0x0,0x0
0015a0 0000
0015a1 0000
0015a2 0000
0015a3 0000      	.DB  0x0,0x0,0x0,0x0,0x0,0x0,0x0,0x0
0015a4 0000
0015a5 0000
0015a6 0000
0015a7 0000      	.DB  0x0,0x0,0x0,0x0,0x0,0x0,0x0,0x0
0015a8 0000
0015a9 0000
0015aa 0000
0015ab 0000      	.DB  0x0,0x0,0x0,0x0,0x0,0x0,0x0,0x0
0015ac 0000
0015ad 0000
0015ae 0000
0015af 0000      	.DB  0x0,0x0,0x0,0x0,0x0,0x0,0x0,0x0
0015b0 0000
0015b1 0000
0015b2 0000
0015b3 0000      	.DB  0x0,0x0,0x0,0x0,0x0,0x0,0x0,0x0
0015b4 0000
0015b5 0000
0015b6 0000
0015b7 0000      	.DB  0x0,0x0,0x0,0x0,0x0,0x0,0x0,0x0
0015b8 0000
0015b9 0000
0015ba 0000
0015bb 0000      	.DB  0x0,0x0,0x0,0x0,0x0,0x0,0x0,0x0
0015bc 0000
0015bd 0000
0015be 0000
0015bf 0000      	.DB  0x0,0x0,0x0,0x0,0x0,0x0,0x0,0x0
0015c0 0000
0015c1 0000
0015c2 0000
0015c3 0000      	.DB  0x0,0x0,0x0,0x0,0x0,0x0,0x0,0x0
0015c4 0000
0015c5 0000
0015c6 0000
0015c7 0000      	.DB  0x0,0x0,0x0,0x0,0x0,0x0,0x0,0x0
0015c8 0000
0015c9 0000
0015ca 0000
0015cb 0000      	.DB  0x0,0x0,0x0,0x0,0x0,0x0,0x0,0x0
0015cc 0000
0015cd 0000
0015ce 0000
0015cf 0000      	.DB  0x0,0x0,0x0,0x0,0x0,0x0,0x0,0x0
0015d0 0600
0015d1 0006
0015d2 0707
0015d3 0000      	.DB  0x0,0x6,0x6,0x0,0x7,0x7,0x0,0x0
0015d4 0000
0015d5 0000
0015d6 0000
0015d7 0000      	.DB  0x0,0x0,0x0,0x0,0x0,0x0,0x0,0x0
0015d8 0000
0015d9 0000
0015da 0000
0015db 0000      	.DB  0x0,0x0,0x0,0x0,0x0,0x0,0x0,0x0
0015dc 0000
0015dd 0000
0015de 0000
0015df 0000      	.DB  0x0,0x0,0x0,0x0,0x0,0x0,0x0,0x0
0015e0 0000
0015e1 0000
0015e2 0000
0015e3 0000      	.DB  0x0,0x0,0x0,0x0,0x0,0x0,0x0,0x0
0015e4 0000
0015e5 0000
0015e6 0000
0015e7 0000      	.DB  0x0,0x0,0x0,0x0,0x0,0x0,0x0,0x0
0015e8 0000
0015e9 0000
0015ea 0000
0015eb 0000      	.DB  0x0,0x0,0x0,0x0,0x0,0x0,0x0,0x0
0015ec 0000
0015ed 0000
0015ee 0000
0015ef 0000      	.DB  0x0,0x0,0x0,0x0,0x0,0x0,0x0,0x0
0015f0 0000
0015f1 0000
0015f2 0000
0015f3 0000      	.DB  0x0,0x0,0x0,0x0,0x0,0x0,0x0,0x0
0015f4 0000
0015f5 0000
0015f6 0000
0015f7 0000      	.DB  0x0,0x0,0x0,0x0,0x0,0x0,0x0,0x0
0015f8 0000
0015f9 0000
0015fa 0000
0015fb 0000      	.DB  0x0,0x0,0x0,0x0,0x0,0x0,0x0,0x0
0015fc 0000
0015fd 0000
0015fe 0000
0015ff 0000      	.DB  0x0,0x0,0x0,0x0,0x0,0x0,0x0,0x0
001600 0000
001601 0000
001602 0000
001603 0000      	.DB  0x0,0x0,0x0,0x0,0x0,0x0,0x0,0x0
001604 0000
001605 0000
001606 0000
001607 0000      	.DB  0x0,0x0,0x0,0x0,0x0,0x0,0x0,0x0
001608 0000
001609 0000
00160a 0000
00160b 0000      	.DB  0x0,0x0,0x0,0x0,0x0,0x0,0x0,0x0
00160c 0000
00160d 0000
00160e 0000
00160f 0000      	.DB  0x0,0x0,0x0,0x0,0x0,0x0,0x0,0x0
001610 0000
001611 0000
001612 0000
001613 0000      	.DB  0x0,0x0,0x0,0x0,0x0,0x0,0x0,0x0
001614 0000
001615 0000
001616 0000
001617 0000      	.DB  0x0,0x0,0x0,0x0,0x0,0x0,0x0,0x0
001618 0000
001619 0000
00161a 0000
00161b 0000      	.DB  0x0,0x0,0x0,0x0,0x0,0x0,0x0,0x0
00161c 0000
00161d 0000
00161e 0000
00161f 0000      	.DB  0x0,0x0,0x0,0x0,0x0,0x0,0x0,0x0
001620 0000
001621 0000
001622 0000
001623 0000      	.DB  0x0,0x0,0x0,0x0,0x0,0x0,0x0,0x0
001624 0000
001625 0000
001626 0000
001627 0000      	.DB  0x0,0x0,0x0,0x0,0x0,0x0,0x0,0x0
                 _GSM4:
001628 0000
001629 0000
00162a 0000
00162b 0000      	.DB  0x0,0x0,0x0,0x0,0x0,0x0,0x0,0x0
00162c 0000
00162d 0000
00162e 0000
00162f 0000      	.DB  0x0,0x0,0x0,0x0,0x0,0x0,0x0,0x0
001630 0000
001631 0000
001632 0000
001633 0000      	.DB  0x0,0x0,0x0,0x0,0x0,0x0,0x0,0x0
001634 0000
001635 0000
001636 0000
001637 0000      	.DB  0x0,0x0,0x0,0x0,0x0,0x0,0x0,0x0
001638 0000
001639 0000
00163a 0000
00163b 0000      	.DB  0x0,0x0,0x0,0x0,0x0,0x0,0x0,0x0
00163c 0000
00163d 0000
00163e 0000
00163f 0000      	.DB  0x0,0x0,0x0,0x0,0x0,0x0,0x0,0x0
001640 0000
001641 0000
001642 0000
001643 0000      	.DB  0x0,0x0,0x0,0x0,0x0,0x0,0x0,0x0
001644 0000
001645 0000
001646 0000
001647 0000      	.DB  0x0,0x0,0x0,0x0,0x0,0x0,0x0,0x0
001648 0000
001649 0000
00164a 0000
00164b 0000      	.DB  0x0,0x0,0x0,0x0,0x0,0x0,0x0,0x0
00164c 0000
00164d 0000
00164e 0000
00164f 0000      	.DB  0x0,0x0,0x0,0x0,0x0,0x0,0x0,0x0
001650 0000
001651 0000
001652 0000
001653 0000      	.DB  0x0,0x0,0x0,0x0,0x0,0x0,0x0,0x0
001654 0000
001655 0000
001656 0000
001657 0000      	.DB  0x0,0x0,0x0,0x0,0x0,0x0,0x0,0x0
001658 0000
001659 0000
00165a 0000
00165b 0000      	.DB  0x0,0x0,0x0,0x0,0x0,0x0,0x0,0x0
00165c 0000
00165d 0000
00165e 0000
00165f 0000      	.DB  0x0,0x0,0x0,0x0,0x0,0x0,0x0,0x0
001660 0000
001661 0000
001662 0000
001663 0000      	.DB  0x0,0x0,0x0,0x0,0x0,0x0,0x0,0x0
001664 0000
001665 0000
001666 0000
001667 0000      	.DB  0x0,0x0,0x0,0x0,0x0,0x0,0x0,0x0
001668 0600
001669 0006
00166a 0404
00166b 0404      	.DB  0x0,0x6,0x6,0x0,0x4,0x4,0x4,0x4
00166c 0404
00166d 0404
00166e 0404
00166f 0404      	.DB  0x4,0x4,0x4,0x4,0x4,0x4,0x4,0x4
001670 0404
001671 0000
001672 0000
001673 0000      	.DB  0x4,0x4,0x0,0x0,0x0,0x0,0x0,0x0
001674 0000
001675 0000
001676 0000
001677 0000      	.DB  0x0,0x0,0x0,0x0,0x0,0x0,0x0,0x0
001678 0000
001679 0000
00167a 0000
00167b 0000      	.DB  0x0,0x0,0x0,0x0,0x0,0x0,0x0,0x0
00167c 0000
00167d 0000
00167e 0000
00167f 0000      	.DB  0x0,0x0,0x0,0x0,0x0,0x0,0x0,0x0
001680 0000
001681 0000
001682 0000
001683 0000      	.DB  0x0,0x0,0x0,0x0,0x0,0x0,0x0,0x0
001684 0000
001685 0000
001686 0000
001687 0000      	.DB  0x0,0x0,0x0,0x0,0x0,0x0,0x0,0x0
001688 0000
001689 0000
00168a 0000
00168b 0000      	.DB  0x0,0x0,0x0,0x0,0x0,0x0,0x0,0x0
00168c 0000
00168d 0000
00168e 0000
00168f 0000      	.DB  0x0,0x0,0x0,0x0,0x0,0x0,0x0,0x0
001690 0000
001691 0000
001692 0000
001693 0000      	.DB  0x0,0x0,0x0,0x0,0x0,0x0,0x0,0x0
001694 0000
001695 0000
001696 0000
001697 0000      	.DB  0x0,0x0,0x0,0x0,0x0,0x0,0x0,0x0
001698 0000
001699 0000
00169a 0000
00169b 0000      	.DB  0x0,0x0,0x0,0x0,0x0,0x0,0x0,0x0
00169c 0000
00169d 0000
00169e 0000
00169f 0000      	.DB  0x0,0x0,0x0,0x0,0x0,0x0,0x0,0x0
                 _tbl10_G100:
0016a0 2710
0016a1 03e8
0016a2 0064
0016a3 000a      	.DB  0x10,0x27,0xE8,0x3,0x64,0x0,0xA,0x0
0016a4 0001      	.DB  0x1,0x0
                 _tbl16_G100:
0016a5 1000
0016a6 0100
0016a7 0010
0016a8 0001      	.DB  0x0,0x10,0x0,0x1,0x10,0x0,0x1,0x0
                 
                 _0x3:
C:\Users\Ernesto\GIT\glcd_bus\List\disp.asm(2555): warning: .cseg .db misalignment - padding zero byte
0016a9 00c1      	.DB  0xC1
                 _0xCE:
0016aa 4953
0016ab 5554      	.DB  0x53,0x49,0x54,0x55
                 _0xCF:
0016ac 3631
0016ad 3739      	.DB  0x31,0x36,0x39,0x37
                 _0x1D3:
0016ae 0020
0016af 2000
0016b0 0000
0016b1 0000      	.DB  0x20,0x0,0x0,0x20,0x0,0x0,0x0,0x0
0016b2 0000      	.DB  0x0,0x0
                 _0x0:
0016b3 5441
0016b4 5424
0016b5 4454
0016b6 5645      	.DB  0x41,0x54,0x24,0x54,0x54,0x44,0x45,0x56
0016b7 4449
0016b8 0a3f
0016b9 000d
0016ba 5441      	.DB  0x49,0x44,0x3F,0xA,0xD,0x0,0x41,0x54
0016bb 432b
0016bc 5153
0016bd 0d0a
0016be 4100      	.DB  0x2B,0x43,0x53,0x51,0xA,0xD,0x0,0x41
0016bf 2454
0016c0 5454
0016c1 454e
0016c2 4954      	.DB  0x54,0x24,0x54,0x54,0x4E,0x45,0x54,0x49
0016c3 3f50
0016c4 0d0a
0016c5 4100
0016c6 2454      	.DB  0x50,0x3F,0xA,0xD,0x0,0x41,0x54,0x24
0016c7 5454
0016c8 5047
0016c9 5153
0016ca 5952      	.DB  0x54,0x54,0x47,0x50,0x53,0x51,0x52,0x59
0016cb 313d
0016cc 2c30
0016cd 0a30
0016ce 000d      	.DB  0x3D,0x31,0x30,0x2C,0x30,0xA,0xD,0x0
0016cf 5441
0016d0 4d24
0016d1 4753
0016d2 4e53      	.DB  0x41,0x54,0x24,0x4D,0x53,0x47,0x53,0x4E
0016d3 3d44
0016d4 2c34
0016d5 2422
0016d6 4224      	.DB  0x44,0x3D,0x34,0x2C,0x22,0x24,0x24,0x42
0016d7 254c
0016d8 2c73
0016d9 6425
0016da 6425      	.DB  0x4C,0x25,0x73,0x2C,0x25,0x64,0x25,0x64
0016db 6425
0016dc 6425
0016dd 3032
0016de 6425      	.DB  0x25,0x64,0x25,0x64,0x32,0x30,0x25,0x64
0016df 6425
0016e0 252c
0016e1 2564
0016e2 2564      	.DB  0x25,0x64,0x2C,0x25,0x64,0x25,0x64,0x25
0016e3 2564
0016e4 2564
0016e5 2564
0016e6 2c64      	.DB  0x64,0x25,0x64,0x25,0x64,0x25,0x64,0x2C
0016e7 3252
0016e8 252c
0016e9 2c64
0016ea 6425      	.DB  0x52,0x32,0x2C,0x25,0x64,0x2C,0x25,0x64
0016eb 583a
0016ec 2358
0016ed 2223
0016ee 0a0d      	.DB  0x3A,0x58,0x58,0x23,0x23,0x22,0xD,0xA
0016ef 4100
0016f0 2454
0016f1 534d
0016f2 5347      	.DB  0x0,0x41,0x54,0x24,0x4D,0x53,0x47,0x53
0016f3 444e
0016f4 343d
0016f5 222c
0016f6 2424      	.DB  0x4E,0x44,0x3D,0x34,0x2C,0x22,0x24,0x24
0016f7 4c42
0016f8 7325
0016f9 252c
0016fa 2564      	.DB  0x42,0x4C,0x25,0x73,0x2C,0x25,0x64,0x25
0016fb 2564
0016fc 2564
0016fd 3264
0016fe 2530      	.DB  0x64,0x25,0x64,0x25,0x64,0x32,0x30,0x25
0016ff 2564
001700 2c64
001701 6425
001702 6425      	.DB  0x64,0x25,0x64,0x2C,0x25,0x64,0x25,0x64
001703 6425
001704 6425
001705 6425
001706 6425      	.DB  0x25,0x64,0x25,0x64,0x25,0x64,0x25,0x64
001707 532c
001708 2c32
001709 3231
00170a 3433      	.DB  0x2C,0x53,0x32,0x2C,0x31,0x32,0x33,0x34
00170b 252c
00170c 3a64
00170d 5858
00170e 2323      	.DB  0x2C,0x25,0x64,0x3A,0x58,0x58,0x23,0x23
00170f 0d22
001710 000a
001711 5552
001712 4154      	.DB  0x22,0xD,0xA,0x0,0x52,0x55,0x54,0x41
001713 003a
001714 2020
001715 2020
001716 2020      	.DB  0x3A,0x0,0x20,0x20,0x20,0x20,0x20,0x20
001717 5000
001718 6425
001719 2500
00171a 0063      	.DB  0x0,0x50,0x25,0x64,0x0,0x25,0x63,0x0
00171b 5542
00171c 0053
00171d 6425
00171e 6425      	.DB  0x42,0x55,0x53,0x0,0x25,0x64,0x25,0x64
00171f 253a
001720 2564
001721 3a64
001722 6425      	.DB  0x3A,0x25,0x64,0x25,0x64,0x3A,0x25,0x64
001723 6425
001724 2000
001725 4220
001726 4549      	.DB  0x25,0x64,0x0,0x20,0x20,0x42,0x49,0x45
001727 564e
001728 4e45
001729 4449
00172a 204f      	.DB  0x4E,0x56,0x45,0x4E,0x49,0x44,0x4F,0x20
00172b 4600
00172c 4e49
00172d 4a20
00172e 524f      	.DB  0x0,0x46,0x49,0x4E,0x20,0x4A,0x4F,0x52
00172f 414e
001730 4144
001731 4600
001732 4e49      	.DB  0x4E,0x41,0x44,0x41,0x0,0x46,0x49,0x4E
001733 5220
001734 5455
001735 0041
001736 4e49      	.DB  0x20,0x52,0x55,0x54,0x41,0x0,0x49,0x4E
001737 4349
001738 4f49
001739 5220
00173a 5455      	.DB  0x49,0x43,0x49,0x4F,0x20,0x52,0x55,0x54
00173b 0041
00173c 3032
00173d 6425
00173e 6425      	.DB  0x41,0x0,0x32,0x30,0x25,0x64,0x25,0x64
00173f 252d
001740 2564
001741 2d64
001742 6425      	.DB  0x2D,0x25,0x64,0x25,0x64,0x2D,0x25,0x64
001743 6425
001744 5000
001745 6e61
001746 6174      	.DB  0x25,0x64,0x0,0x50,0x61,0x6E,0x74,0x61
001747 6c6c
001748 0061
001749 6f4e
00174a 4120      	.DB  0x6C,0x6C,0x61,0x0,0x4E,0x6F,0x20,0x41
00174b 7475
00174c 726f
00174d 7a69
00174e 6461      	.DB  0x75,0x74,0x6F,0x72,0x69,0x7A,0x61,0x64
00174f 0061      	.DB  0x61,0x0
                 _0x202005F:
C:\Users\Ernesto\GIT\glcd_bus\List\disp.asm(2605): warning: .cseg .db misalignment - padding zero byte
001750 0001      	.DB  0x1
                 _0x2020000:
001751 4e2d
001752 4e41
C:\Users\Ernesto\GIT\glcd_bus\List\disp.asm(2607): warning: .cseg .db misalignment - padding zero byte
001753 0000      	.DB  0x2D,0x4E,0x41,0x4E,0x0
                 
                 __GLOBAL_INI_TBL:
001754 0001      	.DW  0x01
001755 0357      	.DW  _prevLet_G000
001756 2d52      	.DW  _0x3*2
                 
001757 0004      	.DW  0x04
001758 0424      	.DW  _NOMBRE_DISP
001759 2d54      	.DW  _0xCE*2
                 
00175a 0004      	.DW  0x04
00175b 0429      	.DW  _NUM_DISP
00175c 2d58      	.DW  _0xCF*2
                 
00175d 0006      	.DW  0x06
00175e 0300      	.DW  _0xFA
00175f 2e22      	.DW  _0x0*2+188
                 
001760 0007      	.DW  0x07
001761 0306      	.DW  _0xFA+6
001762 2e28      	.DW  _0x0*2+194
                 
001763 0004      	.DW  0x04
001764 030d      	.DW  _0x19D
001765 2e36      	.DW  _0x0*2+208
                 
001766 000e      	.DW  0x0E
001767 0311      	.DW  _0x19D+4
001768 2e49      	.DW  _0x0*2+227
                 
001769 000c      	.DW  0x0C
00176a 031f      	.DW  _0x19D+18
00176b 2e57      	.DW  _0x0*2+241
                 
00176c 0009      	.DW  0x09
00176d 032b      	.DW  _0x19D+30
00176e 2e63      	.DW  _0x0*2+253
                 
00176f 000c      	.DW  0x0C
001770 0334      	.DW  _0x19D+39
001771 2e6c      	.DW  _0x0*2+262
                 
001772 0009      	.DW  0x09
001773 0340      	.DW  _0x19D+51
001774 2e89      	.DW  _0x0*2+291
                 
001775 000e      	.DW  0x0E
001776 0349      	.DW  _0x19D+60
001777 2e92      	.DW  _0x0*2+300
                 
001778 000a      	.DW  0x0A
001779 0005      	.DW  0x05
00177a 2d5c      	.DW  _0x1D3*2
                 
00177b 0001      	.DW  0x01
00177c 0467      	.DW  __seed_G101
00177d 2ea0      	.DW  _0x202005F*2
                 
                 _0xFFFFFFFF:
00177e 0000      	.DW  0
                 
                 __RESET:
00177f 94f8      	CLI
001780 27ee      	CLR  R30
001781 bbef      	OUT  EECR,R30
                 
                 ;INTERRUPT VECTORS ARE PLACED
                 ;AT THE START OF FLASH
001782 e0f1      	LDI  R31,1
001783 bff5      	OUT  MCUCR,R31
001784 bfe5      	OUT  MCUCR,R30
                 
                 ;DISABLE WATCHDOG
001785 e1f8      	LDI  R31,0x18
001786 95a8      	WDR
001787 b7a4      	IN   R26,MCUSR
001788 7fa7      	CBR  R26,8
001789 bfa4      	OUT  MCUSR,R26
00178a 93f0 0060 	STS  WDTCSR,R31
00178c 93e0 0060 	STS  WDTCSR,R30
                 
                 ;CLEAR R2-R14
00178e e08d      	LDI  R24,(14-2)+1
00178f e0a2      	LDI  R26,2
001790 27bb      	CLR  R27
                 __CLEAR_REG:
001791 93ed      	ST   X+,R30
001792 958a      	DEC  R24
001793 f7e9      	BRNE __CLEAR_REG
                 
                 ;CLEAR SRAM
001794 e080      	LDI  R24,LOW(0x800)
001795 e098      	LDI  R25,HIGH(0x800)
001796 e0a0      	LDI  R26,LOW(0x100)
001797 e0b1      	LDI  R27,HIGH(0x100)
                 __CLEAR_SRAM:
001798 93ed      	ST   X+,R30
001799 9701      	SBIW R24,1
00179a f7e9      	BRNE __CLEAR_SRAM
                 
                 ;GLOBAL VARIABLES INITIALIZATION
00179b eae8      	LDI  R30,LOW(__GLOBAL_INI_TBL*2)
00179c e2fe      	LDI  R31,HIGH(__GLOBAL_INI_TBL*2)
                 __GLOBAL_INI_NEXT:
00179d 9185      	LPM  R24,Z+
00179e 9195      	LPM  R25,Z+
00179f 9700      	SBIW R24,0
0017a0 f061      	BREQ __GLOBAL_INI_END
0017a1 91a5      	LPM  R26,Z+
0017a2 91b5      	LPM  R27,Z+
0017a3 9005      	LPM  R0,Z+
0017a4 9015      	LPM  R1,Z+
0017a5 01bf      	MOVW R22,R30
0017a6 01f0      	MOVW R30,R0
                 __GLOBAL_INI_LOOP:
0017a7 9005      	LPM  R0,Z+
0017a8 920d      	ST   X+,R0
0017a9 9701      	SBIW R24,1
0017aa f7e1      	BRNE __GLOBAL_INI_LOOP
0017ab 01fb      	MOVW R30,R22
0017ac cff0      	RJMP __GLOBAL_INI_NEXT
                 __GLOBAL_INI_END:
                 
                 ;GPIOR0 INITIALIZATION
0017ad e0e0      	LDI  R30,0x00
0017ae bbee      	OUT  GPIOR0,R30
                 
                 ;STACK POINTER INITIALIZATION
0017af efef      	LDI  R30,LOW(0x8FF)
0017b0 bfed      	OUT  SPL,R30
0017b1 e0e8      	LDI  R30,HIGH(0x8FF)
0017b2 bfee      	OUT  SPH,R30
                 
                 ;DATA STACK POINTER INITIALIZATION
0017b3 e0c0      	LDI  R28,LOW(0x300)
0017b4 e0d3      	LDI  R29,HIGH(0x300)
                 
0017b5 940c 204c 	JMP  _main
                 
                 	.ESEG
                 	.ORG 0
                 
                 	.DSEG
                 	.ORG 0x300
                 
                 	.CSEG
                 ;/**********************************************\
                 ; *       Kradac Robotics & Electronics        *
                 ; *                                            *
                 ; *  Proyecto:       GLCD BUS LOJA             *
                 ; *  Programadores:  Vicente Q &&              *
                 ; *                  Ernesto P &&              *
                 ; *                  David Novillo             *
                 ; *  version:        0.8.6.1                   *
                 ; *  Fecha:          11/08/2014                *
                 ; *                                            *
                 ; **********************************************
                 ; *
                 ; *
                 ; *  uC:             ATmega324PA
                 ; *  Compilador:     CodeVision 2.x
                 ; *  Cryst:          11.092 MHz
                 ; *
                 ; *
                 ; */
                 ;
                 ;//SE AGREGAN LAS LIBRERIAS QUE SE VAN A UTILIZAR
                 ;#include <mega324.h>
                 	#ifndef __SLEEP_DEFINED__
                 	#define __SLEEP_DEFINED__
                 	.EQU __se_bit=0x01
                 	.EQU __sm_mask=0x0E
                 	.EQU __sm_powerdown=0x04
                 	.EQU __sm_powersave=0x06
                 	.EQU __sm_standby=0x0C
                 	.EQU __sm_ext_standby=0x0E
                 	.EQU __sm_adc_noise_red=0x02
                 	.SET power_ctrl_reg=smcr
                 	#endif
                 ;#include <delay.h>
                 ;#include <stdio.h>
                 ;#include <stdlib.h>
                 ;#include "Includes/GLCD.h"
                 
                 	.DSEG
                 
                 	.CSEG
                 _trigger:
0017b7 9a5f      	SBI  0xB,7
                +
0017b8 e387     +LDI R24 , LOW ( 55 )
                +__DELAY_USB_LOOP :
0017b9 958a     +DEC R24
0017ba f7f1     +BRNE __DELAY_USB_LOOP
                 	__DELAY_USB 55
0017bb 985f      	CBI  0xB,7
                +
0017bc e387     +LDI R24 , LOW ( 55 )
                +__DELAY_USB_LOOP :
0017bd 958a     +DEC R24
0017be f7f1     +BRNE __DELAY_USB_LOOP
                 	__DELAY_USB 55
0017bf 9508      	RET
                 _glcd_on:
0017c0 9a16      	SBI  0x2,6
0017c1 9a17      	SBI  0x2,7
0017c2 985e      	CBI  0xB,6
0017c3 985d      	CBI  0xB,5
0017c4 e3ef      	LDI  R30,LOW(63)
0017c5 b9e8      	OUT  0x8,R30
0017c6 dff0      	RCALL _trigger
0017c7 9508      	RET
                 ;	line -> Y+0
                 _goto_col:
0017c8 931a      	ST   -Y,R17
                 ;	x -> Y+1
                 ;	pattern -> R17
0017c9 985e      	CBI  0xB,6
0017ca 985d      	CBI  0xB,5
0017cb 81a9      	LDD  R26,Y+1
0017cc 81ba      	LDD  R27,Y+1+1
0017cd 34a0      	CPI  R26,LOW(0x40)
0017ce e0e0      	LDI  R30,HIGH(0x40)
0017cf 07be      	CPC  R27,R30
0017d0 f420      	BRSH _0x24
0017d1 9a16      	SBI  0x2,6
0017d2 9817      	CBI  0x2,7
0017d3 8119      	LDD  R17,Y+1
0017d4 c007      	RJMP _0x29
                 _0x24:
0017d5 9a17      	SBI  0x2,7
0017d6 9816      	CBI  0x2,6
0017d7 81e9      	LDD  R30,Y+1
0017d8 81fa      	LDD  R31,Y+1+1
0017d9 54e0      	SUBI R30,LOW(64)
0017da 40f0      	SBCI R31,HIGH(64)
0017db 2f1e      	MOV  R17,R30
                 _0x29:
0017dc 2fe1      	MOV  R30,R17
0017dd 64e0      	ORI  R30,0x40
0017de 77ef      	ANDI R30,0x7F
0017df 2f1e      	MOV  R17,R30
0017e0 b918      	OUT  0x8,R17
0017e1 dfd5      	RCALL _trigger
0017e2 8118      	LDD  R17,Y+0
0017e3 c03b      	RJMP _0x20A0004
                 _goto_row:
0017e4 931a      	ST   -Y,R17
                 ;	y -> Y+1
                 ;	pattern -> R17
0017e5 985e      	CBI  0xB,6
0017e6 985d      	CBI  0xB,5
0017e7 81e9      	LDD  R30,Y+1
0017e8 6be8      	ORI  R30,LOW(0xB8)
0017e9 7bef      	ANDI R30,0xBF
0017ea 2f1e      	MOV  R17,R30
0017eb b918      	OUT  0x8,R17
0017ec dfca      	RCALL _trigger
0017ed 8118      	LDD  R17,Y+0
0017ee c030      	RJMP _0x20A0004
                 _goto_xy:
                 ;	x -> Y+2
                 ;	y -> Y+0
0017ef 81ea      	LDD  R30,Y+2
0017f0 81fb      	LDD  R31,Y+2+1
0017f1 940e 24ac 	CALL SUBOPT_0x0
0017f3 81e8      	LD   R30,Y
0017f4 81f9      	LDD  R31,Y+1
0017f5 940e 24b0 	CALL SUBOPT_0x1
0017f7 9624      	ADIW R28,4
0017f8 9508      	RET
                 _glcd_write:
                 ;	b -> Y+0
0017f9 9a5e      	SBI  0xB,6
0017fa 985d      	CBI  0xB,5
0017fb 81e8      	LD   R30,Y
0017fc b9e8      	OUT  0x8,R30
                +
0017fd ed8d     +LDI R24 , LOW ( 221 )
0017fe e090     +LDI R25 , HIGH ( 221 )
                +__DELAY_USW_LOOP :
0017ff 9701     +SBIW R24 , 1
001800 f7f1     +BRNE __DELAY_USW_LOOP
                 	__DELAY_USW 221
001801 dfb5      	RCALL _trigger
001802 9621      	ADIW R28,1
001803 9508      	RET
                 _glcd_clrln:
001804 931a      	ST   -Y,R17
001805 930a      	ST   -Y,R16
                 ;	ln -> Y+2
                 ;	i -> R16,R17
001806 940e 24b4 	CALL SUBOPT_0x2
001808 940e 24b9 	CALL SUBOPT_0x3
00180a e4e0      	LDI  R30,LOW(64)
00180b e0f0      	LDI  R31,HIGH(64)
00180c 93fa      	ST   -Y,R31
00180d 93ea      	ST   -Y,R30
00180e 940e 24b9 	CALL SUBOPT_0x3
001810 9a16      	SBI  0x2,6
                +
001811 e000     +LDI R16 , LOW ( 0 )
001812 e010     +LDI R17 , HIGH ( 0 )
                 	__GETWRN 16,17,0
                 _0x39:
                +
001813 3401     +CPI R16 , LOW ( 65 )
001814 e0e0     +LDI R30 , HIGH ( 65 )
001815 071e     +CPC R17 , R30
                 	__CPWRN 16,17,65
001816 f434      	BRGE _0x3A
001817 e0e0      	LDI  R30,LOW(0)
001818 93ea      	ST   -Y,R30
001819 dfdf      	RCALL _glcd_write
                +
00181a 5f0f     +SUBI R16 , LOW ( - 1 )
00181b 4f1f     +SBCI R17 , HIGH ( - 1 )
                 	__ADDWRN 16,17,1
00181c cff6      	RJMP _0x39
                 _0x3A:
00181d 8119      	LDD  R17,Y+1
00181e 8108      	LDD  R16,Y+0
                 _0x20A0004:
00181f 9623      	ADIW R28,3
001820 9508      	RET
                 _glcd_clear:
001821 931a      	ST   -Y,R17
001822 930a      	ST   -Y,R16
                 ;	i -> R16,R17
                +
001823 e000     +LDI R16 , LOW ( 0 )
001824 e010     +LDI R17 , HIGH ( 0 )
                 	__GETWRN 16,17,0
                 _0x3C:
                +
001825 3008     +CPI R16 , LOW ( 8 )
001826 e0e0     +LDI R30 , HIGH ( 8 )
001827 071e     +CPC R17 , R30
                 	__CPWRN 16,17,8
001828 f42c      	BRGE _0x3D
001829 930a      	ST   -Y,R16
00182a dfd9      	RCALL _glcd_clrln
                +
00182b 5f0f     +SUBI R16 , LOW ( - 1 )
00182c 4f1f     +SBCI R17 , HIGH ( - 1 )
                 	__ADDWRN 16,17,1
00182d cff7      	RJMP _0x3C
                 _0x3D:
00182e 9109      	LD   R16,Y+
00182f 9119      	LD   R17,Y+
001830 9508      	RET
                 ;	status -> R17
                 ;	column -> Y+1
                 ;	read_data -> R17
                 ;	x -> Y+4
                 ;	y -> Y+2
                 ;	color -> Y+1
                 ;	pattern -> R17
                 ;	x -> Y+7
                 ;	y -> Y+5
                 ;	l -> Y+4
                 ;	s -> Y+3
                 ;	c -> Y+2
                 ;	i -> R16,R17
                 ;	x -> Y+8
                 ;	y -> Y+6
                 ;	l -> Y+4
                 ;	s -> Y+3
                 ;	c -> Y+2
                 ;	i -> R16,R17
                 ;	x1 -> Y+22
                 ;	y1 -> Y+20
                 ;	x2 -> Y+18
                 ;	y2 -> Y+16
                 ;	s -> Y+15
                 ;	c -> Y+14
                 ;	i -> R17
                 ;	y01 -> R16
                 ;	temp -> R19
                 ;	a -> Y+10
                 ;	b -> Y+6
                 ;	y00 -> R18
                 ;	y010 -> R21
                 ;	x1 -> Y+8
                 ;	y1 -> Y+6
                 ;	x2 -> Y+4
                 ;	y2 -> Y+2
                 ;	s -> Y+1
                 ;	c -> Y+0
                 ;	x11 -> Y+16
                 ;	y11 -> Y+14
                 ;	x12 -> Y+12
                 ;	y12 -> Y+10
                 ;	x21 -> Y+8
                 ;	y21 -> Y+6
                 ;	x22 -> Y+4
                 ;	y22 -> Y+2
                 ;	s -> Y+1
                 ;	c -> Y+0
                 ;	x1 -> Y+9
                 ;	y1 -> Y+7
                 ;	x2 -> Y+5
                 ;	y2 -> Y+3
                 ;	l -> Y+2
                 ;	s -> Y+1
                 ;	c -> Y+0
                 ;	x1 -> Y+9
                 ;	y1 -> Y+7
                 ;	x2 -> Y+5
                 ;	y2 -> Y+3
                 ;	l -> Y+2
                 ;	s -> Y+1
                 ;	c -> Y+0
                 ;	x11 -> Y+18
                 ;	y11 -> Y+16
                 ;	x12 -> Y+14
                 ;	y12 -> Y+12
                 ;	l1 -> Y+11
                 ;	x21 -> Y+9
                 ;	y21 -> Y+7
                 ;	x22 -> Y+5
                 ;	y22 -> Y+3
                 ;	l2 -> Y+2
                 ;	s -> Y+1
                 ;	c -> Y+0
                 ;	x11 -> Y+18
                 ;	y11 -> Y+16
                 ;	x12 -> Y+14
                 ;	y12 -> Y+12
                 ;	l1 -> Y+11
                 ;	x21 -> Y+9
                 ;	y21 -> Y+7
                 ;	x22 -> Y+5
                 ;	y22 -> Y+3
                 ;	l2 -> Y+2
                 ;	s -> Y+1
                 ;	c -> Y+0
                 ;	x0 -> Y+10
                 ;	y0 -> Y+8
                 ;	r -> Y+6
                 ;	s -> Y+5
                 ;	c -> Y+4
                 ;	i -> R17
                 ;	y -> R16
                 ;	y00 -> R19
                 _putIt:
001831 931a      	ST   -Y,R17
                 ;	c -> Y+5
                 ;	x -> Y+3
                 ;	y -> Y+1
                 ;	i -> R17
001832 81eb      	LDD  R30,Y+3
001833 81fc      	LDD  R31,Y+3+1
001834 940e 24ac 	CALL SUBOPT_0x0
001836 81e9      	LDD  R30,Y+1
001837 81fa      	LDD  R31,Y+1+1
001838 940e 24b0 	CALL SUBOPT_0x1
00183a e010      	LDI  R17,LOW(0)
                 _0x7B:
00183b 3018      	CPI  R17,8
00183c f480      	BRSH _0x7C
00183d 81ed      	LDD  R30,Y+5
00183e 81fe      	LDD  R31,Y+5+1
00183f 940e 2736 	CALL __LSLW3
001841 01df      	MOVW R26,R30
001842 940e 24bf 	CALL SUBOPT_0x4
001844 0fea      	ADD  R30,R26
001845 1ffb      	ADC  R31,R27
001846 58e4      	SUBI R30,LOW(-_font*2)
001847 4fff      	SBCI R31,HIGH(-_font*2)
001848 91e4      	LPM  R30,Z
001849 93ea      	ST   -Y,R30
00184a dfae      	RCALL _glcd_write
00184b 5f1f      	SUBI R17,-1
00184c cfee      	RJMP _0x7B
                 _0x7C:
00184d 8118      	LDD  R17,Y+0
00184e c142      	RJMP _0x20A0003
                 _enlarge:
00184f 940e 27b6 	CALL __SAVELOCR4
                 ;	*large -> Y+6
                 ;	c -> Y+5
                 ;	size -> Y+4
                 ;	i -> R17
                 ;	j -> R16
                 ;	temp -> R19
                 ;	k -> R18
001851 e020      	LDI  R18,0
001852 e010      	LDI  R17,LOW(0)
                 _0x7E:
001853 81ec      	LDD  R30,Y+4
001854 171e      	CP   R17,R30
001855 f500      	BRSH _0x7F
001856 e000      	LDI  R16,LOW(0)
                 _0x81:
001857 3008      	CPI  R16,8
001858 f4d8      	BRSH _0x82
001859 940e 24c2 	CALL SUBOPT_0x5
00185b e0f0      	LDI  R31,0
00185c 95f5      	ASR  R31
00185d 95e7      	ROR  R30
00185e 93ec      	ST   X,R30
00185f 81ed      	LDD  R30,Y+5
001860 70e1      	ANDI R30,LOW(0x1)
001861 2f3e      	MOV  R19,R30
001862 3030      	CPI  R19,0
001863 f021      	BREQ _0x83
001864 940e 24c2 	CALL SUBOPT_0x5
001866 68e0      	ORI  R30,0x80
001867 93ec      	ST   X,R30
                 _0x83:
001868 5f2f      	SUBI R18,-LOW(1)
001869 81ec      	LDD  R30,Y+4
00186a 17e2      	CP   R30,R18
00186b f431      	BRNE _0x84
00186c 81ed      	LDD  R30,Y+5
00186d e0f0      	LDI  R31,0
00186e 95f5      	ASR  R31
00186f 95e7      	ROR  R30
001870 83ed      	STD  Y+5,R30
001871 e020      	LDI  R18,LOW(0)
                 _0x84:
001872 5f0f      	SUBI R16,-1
001873 cfe3      	RJMP _0x81
                 _0x82:
001874 5f1f      	SUBI R17,-1
001875 cfdd      	RJMP _0x7E
                 _0x7F:
001876 940e 27bd 	CALL __LOADLOCR4
001878 9628      	ADIW R28,8
001879 9508      	RET
                 _putItSz:
00187a 97ef      	SBIW R28,63
00187b 9721      	SBIW R28,1
00187c 940e 27b6 	CALL __SAVELOCR4
                 ;	c -> Y+73
                 ;	x -> Y+71
                 ;	y -> Y+69
                 ;	sz -> Y+68
                 ;	i -> R17
                 ;	j -> R16
                 ;	k -> R19
                 ;	large -> Y+4
00187e 940e 24c9 	CALL SUBOPT_0x6
001880 940e 24ac 	CALL SUBOPT_0x0
                +
001882 01fe     +MOVW R30 , R28
001883 5beb     +SUBI R30 , LOW ( - 69 )
001884 4fff     +SBCI R31 , HIGH ( - 69 )
001885 9001     +LD R0 , Z +
001886 81f0     +LD R31 , Z
001887 2de0     +MOV R30 , R0
                 	__GETW1SX 69
001888 940e 24b0 	CALL SUBOPT_0x1
00188a e010      	LDI  R17,LOW(0)
                 _0x86:
00188b 3018      	CPI  R17,8
00188c f508      	BRSH _0x87
00188d 940e 24bf 	CALL SUBOPT_0x4
00188f 01bf      	MOVW R22,R30
001890 940e 2736 	CALL __LSLW3
001892 01de      	MOVW R26,R28
001893 9614      	ADIW R26,4
001894 0fea      	ADD  R30,R26
001895 1ffb      	ADC  R31,R27
001896 93fa      	ST   -Y,R31
001897 93ea      	ST   -Y,R30
                +
001898 01fe     +MOVW R30 , R28
001899 5be5     +SUBI R30 , LOW ( - 75 )
00189a 4fff     +SBCI R31 , HIGH ( - 75 )
00189b 9001     +LD R0 , Z +
00189c 81f0     +LD R31 , Z
00189d 2de0     +MOV R30 , R0
                 	__GETW1SX 75
00189e 940e 2736 	CALL __LSLW3
0018a0 0fe6      	ADD  R30,R22
0018a1 1ff7      	ADC  R31,R23
0018a2 58e4      	SUBI R30,LOW(-_font*2)
0018a3 4fff      	SBCI R31,HIGH(-_font*2)
0018a4 91e4      	LPM  R30,Z
0018a5 93ea      	ST   -Y,R30
                +
0018a6 01fe     +MOVW R30 , R28
0018a7 5be9     +SUBI R30 , LOW ( - 71 )
0018a8 4fff     +SBCI R31 , HIGH ( - 71 )
0018a9 81e0     +LD R30 , Z
                 	__GETB1SX 71
0018aa 93ea      	ST   -Y,R30
0018ab dfa3      	RCALL _enlarge
0018ac 5f1f      	SUBI R17,-1
0018ad cfdd      	RJMP _0x86
                 _0x87:
0018ae e000      	LDI  R16,LOW(0)
                 _0x89:
                +
0018af 01fe     +MOVW R30 , R28
0018b0 5bec     +SUBI R30 , LOW ( - 68 )
0018b1 4fff     +SBCI R31 , HIGH ( - 68 )
0018b2 81e0     +LD R30 , Z
                 	__GETB1SX 68
0018b3 170e      	CP   R16,R30
0018b4 f010      	BRLO PC+3
0018b5 940c 1907 	JMP _0x8A
0018b7 e010      	LDI  R17,LOW(0)
                 _0x8C:
0018b8 3018      	CPI  R17,8
0018b9 f010      	BRLO PC+3
0018ba 940c 18f9 	JMP _0x8D
0018bc e030      	LDI  R19,LOW(0)
                 _0x8F:
                +
0018bd 01fe     +MOVW R30 , R28
0018be 5bec     +SUBI R30 , LOW ( - 68 )
0018bf 4fff     +SBCI R31 , HIGH ( - 68 )
0018c0 81e0     +LD R30 , Z
                 	__GETB1SX 68
0018c1 173e      	CP   R19,R30
0018c2 f5a0      	BRSH _0x90
0018c3 2fe3      	MOV  R30,R19
0018c4 e0f0      	LDI  R31,0
                +
0018c5 01de     +MOVW R26 , R28
0018c6 5ba9     +SUBI R26 , LOW ( - 71 )
0018c7 4fbf     +SBCI R27 , HIGH ( - 71 )
0018c8 900d     +LD R0 , X +
0018c9 91bc     +LD R27 , X
0018ca 2da0     +MOV R26 , R0
                 	__GETW2SX 71
0018cb 0fea      	ADD  R30,R26
0018cc 1ffb      	ADC  R31,R27
0018cd 01bf      	MOVW R22,R30
                +
0018ce 01de     +MOVW R26 , R28
0018cf 5bac     +SUBI R26 , LOW ( - 68 )
0018d0 4fbf     +SBCI R27 , HIGH ( - 68 )
0018d1 91ac     +LD R26 , X
                 	__GETB2SX 68
0018d2 27bb      	CLR  R27
0018d3 940e 24bf 	CALL SUBOPT_0x4
0018d5 940e 274a 	CALL __MULW12
0018d7 01db      	MOVW R26,R22
0018d8 0fae      	ADD  R26,R30
0018d9 1fbf      	ADC  R27,R31
0018da 34a0      	CPI  R26,LOW(0x40)
0018db e0e0      	LDI  R30,HIGH(0x40)
0018dc 07be      	CPC  R27,R30
0018dd f449      	BRNE _0x91
0018de e4e0      	LDI  R30,LOW(64)
0018df e0f0      	LDI  R31,HIGH(64)
0018e0 93fa      	ST   -Y,R31
0018e1 93ea      	ST   -Y,R30
0018e2 940e 24c9 	CALL SUBOPT_0x6
0018e4 93fa      	ST   -Y,R31
0018e5 93ea      	ST   -Y,R30
0018e6 df08      	RCALL _goto_xy
                 _0x91:
0018e7 940e 24bf 	CALL SUBOPT_0x4
0018e9 940e 2736 	CALL __LSLW3
0018eb 01de      	MOVW R26,R28
0018ec 9614      	ADIW R26,4
0018ed 0fae      	ADD  R26,R30
0018ee 1fbf      	ADC  R27,R31
0018ef 27ee      	CLR  R30
0018f0 0fa0      	ADD  R26,R16
0018f1 1fbe      	ADC  R27,R30
0018f2 91ec      	LD   R30,X
0018f3 93ea      	ST   -Y,R30
0018f4 df04      	RCALL _glcd_write
0018f5 5f3f      	SUBI R19,-1
0018f6 cfc6      	RJMP _0x8F
                 _0x90:
0018f7 5f1f      	SUBI R17,-1
0018f8 cfbf      	RJMP _0x8C
                 _0x8D:
0018f9 940e 24c9 	CALL SUBOPT_0x6
0018fb 93fa      	ST   -Y,R31
0018fc 93ea      	ST   -Y,R30
0018fd 01de      	MOVW R26,R28
0018fe 5ba9      	SUBI R26,LOW(-(71))
0018ff 4fbf      	SBCI R27,HIGH(-(71))
001900 940e 24d0 	CALL SUBOPT_0x7
001902 93fa      	ST   -Y,R31
001903 93ea      	ST   -Y,R30
001904 deea      	RCALL _goto_xy
001905 5f0f      	SUBI R16,-1
001906 cfa8      	RJMP _0x89
                 _0x8A:
001907 940e 27bd 	CALL __LOADLOCR4
001909 96ef      	ADIW R28,63
00190a 962c      	ADIW R28,12
00190b 9508      	RET
                 _glcd_putchar:
                 ;	c -> Y+6
                 ;	x -> Y+4
                 ;	y -> Y+2
                 ;	l -> Y+1
                 ;	sz -> Y+0
00190c 81a9      	LDD  R26,Y+1
00190d 30a1      	CPI  R26,LOW(0x1)
00190e f011      	BREQ PC+3
00190f 940c 1989 	JMP _0x92
001911 940e 24d6 	CALL SUBOPT_0x8
001913 38e1      	CPI  R30,LOW(0x81)
001914 e0a0      	LDI  R26,HIGH(0x81)
001915 07fa      	CPC  R31,R26
001916 f411      	BRNE _0x96
001917 efea      	LDI  R30,LOW(250)
001918 c017      	RJMP _0x1C4
                 _0x96:
001919 39e0      	CPI  R30,LOW(0x90)
00191a e0a0      	LDI  R26,HIGH(0x90)
00191b 07fa      	CPC  R31,R26
00191c f411      	BRNE _0x97
00191d efeb      	LDI  R30,LOW(251)
00191e c011      	RJMP _0x1C4
                 _0x97:
00191f 39e8      	CPI  R30,LOW(0x98)
001920 e0a0      	LDI  R26,HIGH(0x98)
001921 07fa      	CPC  R31,R26
001922 f411      	BRNE _0x98
001923 efec      	LDI  R30,LOW(252)
001924 c00b      	RJMP _0x1C4
                 _0x98:
001925 38ee      	CPI  R30,LOW(0x8E)
001926 e0a0      	LDI  R26,HIGH(0x8E)
001927 07fa      	CPC  R31,R26
001928 f411      	BRNE _0x99
001929 efed      	LDI  R30,LOW(253)
00192a c005      	RJMP _0x1C4
                 _0x99:
00192b 38ed      	CPI  R30,LOW(0x8D)
00192c e0a0      	LDI  R26,HIGH(0x8D)
00192d 07fa      	CPC  R31,R26
00192e f411      	BRNE _0x95
00192f efee      	LDI  R30,LOW(254)
                 _0x1C4:
001930 83ee      	STD  Y+6,R30
                 _0x95:
001931 81ae      	LDD  R26,Y+6
001932 3ca1      	CPI  R26,LOW(0xC1)
001933 f0b0      	BRLO _0x9C
001934 91a0 0357 	LDS  R26,_prevLet_G000
001936 91b0 0358 	LDS  R27,_prevLet_G000+1
001938 3ca1      	CPI  R26,LOW(0xC1)
001939 e0e0      	LDI  R30,HIGH(0xC1)
00193a 07be      	CPC  R27,R30
00193b f074      	BRLT _0x9C
00193c 940e 24d9 	CALL SUBOPT_0x9
00193e 9635      	ADIW R30,5
00193f 91e4      	LPM  R30,Z
001940 30e0      	CPI  R30,0
001941 f041      	BREQ _0x9C
001942 940e 24d6 	CALL SUBOPT_0x8
001944 940e 24e6 	CALL SUBOPT_0xA
001946 9634      	ADIW R30,4
001947 91e4      	LPM  R30,Z
001948 30e0      	CPI  R30,0
001949 f409      	BRNE _0x9D
                 _0x9C:
00194a c017      	RJMP _0x9B
                 _0x9D:
00194b 940e 24d9 	CALL SUBOPT_0x9
00194d 01df      	MOVW R26,R30
00194e 91e0 0359 	LDS  R30,_stat_G000
001950 e0f0      	LDI  R31,0
001951 9631      	ADIW R30,1
001952 0fea      	ADD  R30,R26
001953 1ffb      	ADC  R31,R27
001954 91e4      	LPM  R30,Z
001955 940e 24ef 	CALL SUBOPT_0xB
001957 91e0 035a 	LDS  R30,_prevX_G000
001959 940e 24ef 	CALL SUBOPT_0xB
00195b 91e0 035b 	LDS  R30,_prevY_G000
00195d 940e 24ef 	CALL SUBOPT_0xB
00195f ded1      	RCALL _putIt
001960 e0e2      	LDI  R30,LOW(2)
001961 c001      	RJMP _0x1C5
                 _0x9B:
001962 e0e0      	LDI  R30,LOW(0)
                 _0x1C5:
001963 93e0 0359 	STS  _stat_G000,R30
001965 81ae      	LDD  R26,Y+6
001966 3ca1      	CPI  R26,LOW(0xC1)
001967 f060      	BRLO _0x9F
001968 940e 24d6 	CALL SUBOPT_0x8
00196a 940e 24e6 	CALL SUBOPT_0xA
00196c 01df      	MOVW R26,R30
00196d 91e0 0359 	LDS  R30,_stat_G000
00196f e0f0      	LDI  R31,0
001970 0fea      	ADD  R30,R26
001971 1ffb      	ADC  R31,R27
001972 91e4      	LPM  R30,Z
001973 c001      	RJMP _0x1C6
                 _0x9F:
001974 81ee      	LDD  R30,Y+6
                 _0x1C6:
001975 e0f0      	LDI  R31,0
001976 940e 24f3 	CALL SUBOPT_0xC
001978 940e 24f3 	CALL SUBOPT_0xC
00197a 940e 24f8 	CALL SUBOPT_0xD
00197c 940e 24d6 	CALL SUBOPT_0x8
00197e 93e0 0357 	STS  _prevLet_G000,R30
001980 93f0 0358 	STS  _prevLet_G000+1,R31
001982 81ec      	LDD  R30,Y+4
001983 93e0 035a 	STS  _prevX_G000,R30
001985 81ea      	LDD  R30,Y+2
001986 93e0 035b 	STS  _prevY_G000,R30
001988 c008      	RJMP _0xA1
                 _0x92:
001989 940e 24d6 	CALL SUBOPT_0x8
00198b 940e 24f3 	CALL SUBOPT_0xC
00198d 940e 24f3 	CALL SUBOPT_0xC
00198f 940e 24f8 	CALL SUBOPT_0xD
                 _0xA1:
                 _0x20A0003:
001991 9627      	ADIW R28,7
001992 9508      	RET
                 _glcd_puts:
001993 931a      	ST   -Y,R17
001994 930a      	ST   -Y,R16
                 ;	*c -> Y+9
                 ;	x -> Y+7
                 ;	y -> Y+5
                 ;	l -> Y+4
                 ;	sz -> Y+3
                 ;	space -> Y+2
                 ;	i -> R17
                 ;	special -> R16
001995 e010      	LDI  R17,0
001996 e000      	LDI  R16,0
                 _0xA2:
001997 940e 24fe 	CALL SUBOPT_0xE
001999 f418      	BRSH _0xA5
00199a 81ac      	LDD  R26,Y+4
00199b 30a0      	CPI  R26,LOW(0x0)
00199c f009      	BREQ _0xA6
                 _0xA5:
00199d c029      	RJMP _0xA4
                 _0xA6:
00199e 940e 24bf 	CALL SUBOPT_0x4
0019a0 940e 2509 	CALL SUBOPT_0xF
0019a2 91ec      	LD   R30,X
0019a3 93ea      	ST   -Y,R30
0019a4 940e 250e 	CALL SUBOPT_0x10
0019a6 940e 250e 	CALL SUBOPT_0x10
0019a8 e0e0      	LDI  R30,LOW(0)
0019a9 940e 2513 	CALL SUBOPT_0x11
0019ab 940e 2518 	CALL SUBOPT_0x12
0019ad 81af      	LDD  R26,Y+7
0019ae 85b8      	LDD  R27,Y+7+1
0019af 0fea      	ADD  R30,R26
0019b0 1ffb      	ADC  R31,R27
0019b1 83ef      	STD  Y+7,R30
0019b2 87f8      	STD  Y+7+1,R31
0019b3 940e 2523 	CALL SUBOPT_0x13
0019b5 e8a0      	LDI  R26,LOW(128)
0019b6 e0b0      	LDI  R27,HIGH(128)
0019b7 940e 2790 	CALL __SWAPW12
0019b9 1bea      	SUB  R30,R26
0019ba 0bfb      	SBC  R31,R27
0019bb 81af      	LDD  R26,Y+7
0019bc 85b8      	LDD  R27,Y+7+1
0019bd 17ea      	CP   R30,R26
0019be 07fb      	CPC  R31,R27
0019bf f42c      	BRGE _0xA7
0019c0 e0e0      	LDI  R30,LOW(0)
0019c1 83ef      	STD  Y+7,R30
0019c2 87e8      	STD  Y+7+1,R30
0019c3 940e 2528 	CALL SUBOPT_0x14
                 _0xA7:
0019c5 5f1f      	SUBI R17,-1
0019c6 cfd0      	RJMP _0xA2
                 _0xA4:
                 _0xA8:
0019c7 940e 24fe 	CALL SUBOPT_0xE
0019c9 f418      	BRSH _0xAB
0019ca 81ac      	LDD  R26,Y+4
0019cb 30a1      	CPI  R26,LOW(0x1)
0019cc f009      	BREQ _0xAC
                 _0xAB:
0019cd c075      	RJMP _0xAA
                 _0xAC:
0019ce 940e 24bf 	CALL SUBOPT_0x4
0019d0 940e 2509 	CALL SUBOPT_0xF
0019d2 91ac      	LD   R26,X
0019d3 3ea1      	CPI  R26,LOW(0xE1)
0019d4 f421      	BRNE _0xAE
0019d5 940e 2531 	CALL SUBOPT_0x15
0019d7 3ca7      	CPI  R26,LOW(0xC7)
0019d8 f009      	BREQ _0xAF
                 _0xAE:
0019d9 c002      	RJMP _0xAD
                 _0xAF:
0019da ef09      	LDI  R16,LOW(249)
0019db c029      	RJMP _0xB0
                 _0xAD:
0019dc 940e 24bf 	CALL SUBOPT_0x4
0019de 940e 2509 	CALL SUBOPT_0xF
0019e0 91ac      	LD   R26,X
0019e1 3ea1      	CPI  R26,LOW(0xE1)
0019e2 f421      	BRNE _0xB2
0019e3 940e 2531 	CALL SUBOPT_0x15
0019e5 3ca3      	CPI  R26,LOW(0xC3)
0019e6 f009      	BREQ _0xB3
                 _0xB2:
0019e7 c002      	RJMP _0xB1
                 _0xB3:
0019e8 ee07      	LDI  R16,LOW(231)
0019e9 c01b      	RJMP _0xB4
                 _0xB1:
0019ea 940e 24bf 	CALL SUBOPT_0x4
0019ec 940e 2509 	CALL SUBOPT_0xF
0019ee 91ac      	LD   R26,X
0019ef 3ea1      	CPI  R26,LOW(0xE1)
0019f0 f421      	BRNE _0xB6
0019f1 940e 2531 	CALL SUBOPT_0x15
0019f3 3ca2      	CPI  R26,LOW(0xC2)
0019f4 f009      	BREQ _0xB7
                 _0xB6:
0019f5 c002      	RJMP _0xB5
                 _0xB7:
0019f6 ee08      	LDI  R16,LOW(232)
0019f7 c00d      	RJMP _0xB8
                 _0xB5:
0019f8 940e 24bf 	CALL SUBOPT_0x4
0019fa 940e 2509 	CALL SUBOPT_0xF
0019fc 91ac      	LD   R26,X
0019fd 3ea1      	CPI  R26,LOW(0xE1)
0019fe f421      	BRNE _0xBA
0019ff 940e 2531 	CALL SUBOPT_0x15
001a01 3ca5      	CPI  R26,LOW(0xC5)
001a02 f009      	BREQ _0xBB
                 _0xBA:
001a03 c001      	RJMP _0xB9
                 _0xBB:
001a04 ee09      	LDI  R16,LOW(233)
                 _0xB9:
                 _0xB8:
                 _0xB4:
                 _0xB0:
001a05 3000      	CPI  R16,0
001a06 f079      	BREQ _0xBC
001a07 930a      	ST   -Y,R16
001a08 940e 2537 	CALL SUBOPT_0x16
001a0a e0e1      	LDI  R30,LOW(1)
001a0b 940e 2513 	CALL SUBOPT_0x11
001a0d 5f1e      	SUBI R17,-LOW(2)
001a0e 940e 2523 	CALL SUBOPT_0x13
001a10 81af      	LDD  R26,Y+7
001a11 85b8      	LDD  R27,Y+7+1
001a12 940e 2542 	CALL SUBOPT_0x17
001a14 e000      	LDI  R16,LOW(0)
001a15 c01c      	RJMP _0xBD
                 _0xBC:
001a16 940e 24bf 	CALL SUBOPT_0x4
001a18 940e 2509 	CALL SUBOPT_0xF
001a1a 91ec      	LD   R30,X
001a1b 93ea      	ST   -Y,R30
001a1c 940e 2537 	CALL SUBOPT_0x16
001a1e 85e9      	LDD  R30,Y+9
001a1f 940e 2513 	CALL SUBOPT_0x11
001a21 940e 24bf 	CALL SUBOPT_0x4
001a23 940e 2509 	CALL SUBOPT_0xF
001a25 91ac      	LD   R26,X
001a26 32a0      	CPI  R26,LOW(0x20)
001a27 f419      	BRNE _0xBE
001a28 940e 2518 	CALL SUBOPT_0x12
001a2a c002      	RJMP _0x1C7
                 _0xBE:
001a2b 940e 2523 	CALL SUBOPT_0x13
                 _0x1C7:
001a2d 81af      	LDD  R26,Y+7
001a2e 85b8      	LDD  R27,Y+7+1
001a2f 940e 2542 	CALL SUBOPT_0x17
001a31 5f1f      	SUBI R17,-1
                 _0xBD:
001a32 940e 2523 	CALL SUBOPT_0x13
001a34 9631      	ADIW R30,1
001a35 81af      	LDD  R26,Y+7
001a36 85b8      	LDD  R27,Y+7+1
001a37 17ae      	CP   R26,R30
001a38 07bf      	CPC  R27,R31
001a39 f444      	BRGE _0xC0
001a3a 940e 2523 	CALL SUBOPT_0x13
001a3c e8a0      	LDI  R26,LOW(128)
001a3d e0b0      	LDI  R27,HIGH(128)
001a3e 940e 2542 	CALL SUBOPT_0x17
001a40 940e 2528 	CALL SUBOPT_0x14
                 _0xC0:
001a42 cf84      	RJMP _0xA8
                 _0xAA:
001a43 ece1      	LDI  R30,LOW(193)
001a44 e0f0      	LDI  R31,HIGH(193)
001a45 93e0 0357 	STS  _prevLet_G000,R30
001a47 93f0 0358 	STS  _prevLet_G000+1,R31
001a49 8119      	LDD  R17,Y+1
001a4a 8108      	LDD  R16,Y+0
001a4b 962b      	ADIW R28,11
001a4c 9508      	RET
                 _bmp_disp:
001a4d 940e 27b6 	CALL __SAVELOCR4
                 ;	*bmp -> Y+12
                 ;	x1 -> Y+10
                 ;	y1 -> Y+8
                 ;	x2 -> Y+6
                 ;	y2 -> Y+4
                 ;	i -> R16,R17
                 ;	j -> R18,R19
                +
001a4f 8508     +LDD R16 , Y + 8
001a50 8519     +LDD R17 , Y + 8 + 1
                 	__GETWRS 16,17,8
                 _0xC2:
001a51 81ec      	LDD  R30,Y+4
001a52 81fd      	LDD  R31,Y+4+1
001a53 17e0      	CP   R30,R16
001a54 07f1      	CPC  R31,R17
001a55 f100      	BRLO _0xC3
                +
001a56 852a     +LDD R18 , Y + 10
001a57 853b     +LDD R19 , Y + 10 + 1
                 	__GETWRS 18,19,10
                 _0xC5:
001a58 81ee      	LDD  R30,Y+6
001a59 81ff      	LDD  R31,Y+6+1
001a5a 17e2      	CP   R30,R18
001a5b 07f3      	CPC  R31,R19
001a5c f0b0      	BRLO _0xC6
001a5d 933a      	ST   -Y,R19
001a5e 932a      	ST   -Y,R18
001a5f 931a      	ST   -Y,R17
001a60 930a      	ST   -Y,R16
001a61 dd8d      	RCALL _goto_xy
                +
001a62 e8a0     +LDI R26 , 128
001a63 9fa0     +MUL R26 , R16
001a64 01f0     +MOVW R30 , R0
001a65 9fa1     +MUL R26 , R17
001a66 0df0     +ADD R31 , R0
                 	__MULBNWRU 16,17,128
001a67 0fe2      	ADD  R30,R18
001a68 1ff3      	ADC  R31,R19
001a69 85ac      	LDD  R26,Y+12
001a6a 85bd      	LDD  R27,Y+12+1
001a6b 0fea      	ADD  R30,R26
001a6c 1ffb      	ADC  R31,R27
001a6d 91e4      	LPM  R30,Z
001a6e 93ea      	ST   -Y,R30
001a6f dd89      	RCALL _glcd_write
                +
001a70 5f2f     +SUBI R18 , LOW ( - 1 )
001a71 4f3f     +SBCI R19 , HIGH ( - 1 )
                 	__ADDWRN 18,19,1
001a72 cfe5      	RJMP _0xC5
                 _0xC6:
                +
001a73 5f0f     +SUBI R16 , LOW ( - 1 )
001a74 4f1f     +SBCI R17 , HIGH ( - 1 )
                 	__ADDWRN 16,17,1
001a75 cfdb      	RJMP _0xC2
                 _0xC3:
001a76 940e 27bd 	CALL __LOADLOCR4
001a78 962e      	ADIW R28,14
001a79 9508      	RET
                 ;#include "Includes/bus.h"
                 ;
                 ;
                 ;//////////////////////////////// INTERRUPCION SERIAL /////////////////////////////////
                 ;#ifndef RXB8
                 ;#define RXB8 1
                 ;#endif
                 ;#ifndef TXB8
                 ;#define TXB8 0
                 ;#endif
                 ;#ifndef UPE
                 ;#define UPE 2
                 ;#endif
                 ;#ifndef DOR
                 ;#define DOR 3
                 ;#endif
                 ;#ifndef FE
                 ;#define FE 4
                 ;#endif
                 ;#ifndef UDRE
                 ;#define UDRE 5
                 ;#endif
                 ;#ifndef RXC
                 ;#define RXC 7
                 ;#endif
                 ;
                 ;#define FRAMING_ERROR (1<<FE)
                 ;#define PARITY_ERROR (1<<UPE)
                 ;#define DATA_OVERRUN (1<<DOR)
                 ;#define DATA_REGISTER_EMPTY (1<<UDRE)
                 ;#define RX_COMPLETE (1<<RXC)
                 ;
                 ;
                 ;typedef char int8;    //sirve para definir enteros consigno de 8
                 ;
                 ;#define NOMBRE_PANTALLA       "SITU"
                 ;#define NUMERO_PANTALLA       "1697"
                 ;#define DELAY_BUZZER_MS          100
                 ;#define DELAY_BOTONES_MS         200
                 ;#define INIT_DELAY_GLCD_MS        10
                 ;#define DELAY_PANTALLA_INI      2000
                 ;#define TOTAL_RUTAS              100  //Nmero total de rutas
                 ;#define MOSTRAR_NUM_RUTA_MS     2000  // Tiempo que se muestra el nombre de la Geocerca
                 ;#define MOSTRAR_MSN_ENV_MS      1000  // Tiempo que muestra MENSAJE ENVIADO
                 ;
                 ;#define RX_BUFFER_SIZE0 200             //BUFFER DE 200 CARACTERES
                 ;char rx_b0 [RX_BUFFER_SIZE0];           //nombre del buffer
                 ;
                 ;#if RX_BUFFER_SIZE0 <= 256
                 ;unsigned char rx_wr_index0,rx_rd_index0,rx_counter0;
                 ;#else
                 ;unsigned int rx_wr_index0,rx_rd_index0,rx_counter0;
                 ;#endif
                 ;
                 ;// This flag is set on USART0 Receiver buffer overflow
                 ;bit rx_buffer_overflow0;
                 ;bit BIT_UART;
                 ;
                 ;
                 ;/** \brief USART0 Receiver interrupt service routine
                 ; *
                 ; * Captura datos desde el puerto serial UART0
                 ; */
                 ;interrupt [USART0_RXC] void usart0_rx_isr(void)
                 ; 0000 005B {
                 _usart0_rx_isr:
001a7a 93ea      	ST   -Y,R30
001a7b 93fa      	ST   -Y,R31
001a7c b7ef      	IN   R30,SREG
001a7d 93ea      	ST   -Y,R30
                 ; 0000 005C    char status,data;
                 ; 0000 005D    status = UCSR0A;
001a7e 931a      	ST   -Y,R17
001a7f 930a      	ST   -Y,R16
                 ;	status -> R17
                 ;	data -> R16
001a80 9110 00c0 	LDS  R17,192
                 ; 0000 005E    data   = UDR0;
001a82 9100 00c6 	LDS  R16,198
                 ; 0000 005F    BIT_UART = UCSR0A & 0b10000000;
001a84 91e0 00c0 	LDS  R30,192
001a86 78e0      	ANDI R30,LOW(0x80)
001a87 f411      	BRNE _0xC7
001a88 98f1      	CBI  0x1E,1
001a89 c001      	RJMP _0xC8
                 _0xC7:
001a8a 9af1      	SBI  0x1E,1
                 _0xC8:
                 ; 0000 0060 
                 ; 0000 0061    if ((status & (FRAMING_ERROR | PARITY_ERROR | DATA_OVERRUN)) == 0)
001a8b 2fe1      	MOV  R30,R17
001a8c 71ec      	ANDI R30,LOW(0x1C)
001a8d f481      	BRNE _0xC9
                 ; 0000 0062    {
                 ; 0000 0063       rx_b0 [rx_wr_index0++] = data;
001a8e 2de4      	MOV  R30,R4
001a8f 9443      	INC  R4
001a90 e0f0      	LDI  R31,0
001a91 5ae4      	SUBI R30,LOW(-_rx_b0)
001a92 4ffc      	SBCI R31,HIGH(-_rx_b0)
001a93 8300      	ST   Z,R16
                 ; 0000 0064       #if RX_BUFFER_SIZE0 == 256
                 ; 0000 0065          // special case for receiver buffer size=256
                 ; 0000 0066          if (++rx_counter0 == 0) rx_buffer_overflow0=1;
                 ; 0000 0067 
                 ; 0000 0068       #else
                 ; 0000 0069          if (rx_wr_index0 == RX_BUFFER_SIZE0) rx_wr_index0=0;
001a94 ece8      	LDI  R30,LOW(200)
001a95 15e4      	CP   R30,R4
001a96 f409      	BRNE _0xCA
001a97 2444      	CLR  R4
                 ; 0000 006A          if (++rx_counter0 == RX_BUFFER_SIZE0)
                 _0xCA:
001a98 9463      	INC  R6
001a99 ece8      	LDI  R30,LOW(200)
001a9a 15e6      	CP   R30,R6
001a9b f411      	BRNE _0xCB
                 ; 0000 006B          {
                 ; 0000 006C             rx_counter0=0;
001a9c 2466      	CLR  R6
                 ; 0000 006D             rx_buffer_overflow0=1;
001a9d 9af0      	SBI  0x1E,0
                 ; 0000 006E          }
                 ; 0000 006F       #endif
                 ; 0000 0070    }
                 _0xCB:
                 ; 0000 0071 }
                 _0xC9:
001a9e 9109      	LD   R16,Y+
001a9f 9119      	LD   R17,Y+
001aa0 91e9      	LD   R30,Y+
001aa1 bfef      	OUT  SREG,R30
001aa2 91f9      	LD   R31,Y+
001aa3 91e9      	LD   R30,Y+
001aa4 9518      	RETI
                 ;//-----------------------------  FIN INTERRUPCION SERIAL  -----------------------------//
                 ;
                 ;
                 ;
                 ;////////////////////  DEFINIR PUERTOS BOTONES - BUZZER  //////////////////
                 ;#define BT5 PINA.0
                 ;#define BT4 PINA.1
                 ;#define BT3 PINA.2
                 ;#define BT2 PINA.3
                 ;#define BT1 PINA.4
                 ;#define buzzer PORTD.4
                 ;//---------------------------------------------------------------------//
                 ;
                 ;
                 ;///////////////////////////////////////////////////////////////////////// VARIABLES ///////////////////////////////////////////////////////////////
                 ;char NOMBRE_DISP[] = NOMBRE_PANTALLA;                 // variable
                 
                 	.DSEG
                 ;char NUM_DISP[] = NUMERO_PANTALLA;                    // variable
                 ;char ruta_aux = ' ';                                  // variable auxiliar para almacenar la ruta a seleccionar
                 ;char ruta= ' ';                                       // variable donde se almacena la ruta que se enviar al servidor
                 ;char bandera1 = 0;                                       // variable auxiliar para evitar el rebote al oprimir el botn 1
                 ;char bandera2 = 0;                                       // variable auxiliar para evitar el rebote al oprimir el botn 2
                 ;char bandera3 = 0;                                       // variable auxiliar para evitar el rebote al oprimir el botn 3
                 ;char bandera4 = 0;                                       // variable auxiliar para evitar el rebote al oprimir el botn 4
                 ;char aceptar  = 0;                                        // variable que permite enviar ruta de trabajo al servidor
                 ;
                 ;// Contadores de las presiones de botones
                 ;char btn1=0;          //  Cuenta entre 1 y 2 = 1 Inicia Sesion, 2 Cierra sesion
                 ;char btn2=0;         // Cuentra entre 1 y 12 =  Ruta seleccionada. Boton 2 aumenta el contador
                 ;char btn3=0;        // No se usa, Boton 3 disminuye el contador btn2
                 ;char btn4=0;       // Cuenta entre 1 y 2 = 1 Acepta Ruta, 2 Cancela Carrera
                 ;char btn5=0;      // Cuenta entre 1 y 5 = Cambia los estados mecanicos del bus.
                 ;
                 ;char aux;
                 ;char punto[4], pt=0, no_pt[4], nombre_pt[20];        // variables para reconocer geocercas
                 ;int unidades_ruta, decenas_ruta, centenas_ruta;
                 ;//--------------------------------------------------------------------------------------------------------------------------------------------//
                 ;
                 ;static unsigned int time_count;   // Contador del timer para los segundos
                 ;static unsigned int act;          // Variable que guarda si la pantalla es autorizada
                 ;
                 ;eeprom int8 seg   @0x80;
                 ;eeprom int8 seg1  @0x82;    // segundos en unidades y decenas
                 ;eeprom int8 minu  @0x84;
                 ;eeprom int8 min1  @0x86;    // minutos en unidades y decenas
                 ;eeprom int8 hora  @0x88;
                 ;eeprom int8 hora1 @0x8A;    // hora en unidades y decenas
                 ;eeprom int8 dia   @0x8C;
                 ;eeprom int8 dia1  @0x8E;    // dias en unidades y decenas
                 ;eeprom int8 mes   @0x90;
                 ;eeprom int8 mes1  @0x92;    // mes en unidades y decenas
                 ;eeprom int8 an    @0x94;
                 ;eeprom int8 an1   @0x96;     // anos en unidades y decenas
                 ;
                 ;eeprom int8 num_ruta   @0x28;      // Transforma la letra de la ruta a un nmero
                 ;                                   // Si su valor es de CERO no tiene ruta asignada
                 ;                                   // No este en recorrido
                 ;
                 ;eeprom int8 laborando  @0x2A;      // Sabe si el chofer ha iniciado sesion o no.
                 ;                                   // Para poder escoger la ruta debe iniciar sesion
                 ;
                 ;//-------------------------------------------------------------------------------------------------------------------------------------------//
                 ;// Variables guardadas en la flash
                 ;int8 _seg  = 0;
                 ;int8 _seg1 = 0;    // segundos en unidades y decenas
                 ;int8 _minu = 0;
                 ;int8 _min1 = 0;    // minutos en unidades y decenas
                 ;int8 _hora = 0;
                 ;int8 _hora1= 0;    // hora en unidades y decenas
                 ;int8 _dia  = 0;
                 ;int8 _dia1 = 0;    // dias en unidades y decenas
                 ;int8 _mes  = 0;
                 ;int8 _mes1 = 0;    // mes en unidades y decenas
                 ;int8 _an   = 0;
                 ;int8 _an1  = 0;     // anos en unidades y decenas
                 ;
                 ;int8 _num_ruta = 0;
                 ;int8 _laborando = 0;
                 ;
                 ;int gsm, gps, ind_sen; //indicadores de seal
                 ;char reloj[8], fecha[8];  //vectores para imprmir GLCD
                 ;
                 ;
                 ;
                 ;
                 ;/////////////////////////////////////////////// INTERRUPCION DEL TIMER0 (CUENTA CADA SEGUNDO) /////////////////////////////////////////////////
                 ;interrupt [TIM0_OVF] void timer0_ovf_isr(void)
                 ; 0000 00C8 {
                 
                 	.CSEG
                 _timer0_ovf_isr:
001aa5 920a      	ST   -Y,R0
001aa6 921a      	ST   -Y,R1
001aa7 92fa      	ST   -Y,R15
001aa8 936a      	ST   -Y,R22
001aa9 937a      	ST   -Y,R23
001aaa 938a      	ST   -Y,R24
001aab 939a      	ST   -Y,R25
001aac 93aa      	ST   -Y,R26
001aad 93ba      	ST   -Y,R27
001aae 93ea      	ST   -Y,R30
001aaf 93fa      	ST   -Y,R31
001ab0 b7ef      	IN   R30,SREG
001ab1 93ea      	ST   -Y,R30
                 ; 0000 00C9    TCNT0 = 6;
001ab2 e0e6      	LDI  R30,LOW(6)
001ab3 bde6      	OUT  0x26,R30
                 ; 0000 00CA    ++time_count;
001ab4 e3af      	LDI  R26,LOW(_time_count_G000)
001ab5 e0b4      	LDI  R27,HIGH(_time_count_G000)
001ab6 940e 24d0 	CALL SUBOPT_0x7
                 ; 0000 00CB 
                 ; 0000 00CC    if ( time_count == 43 )
001ab8 91a0 043f 	LDS  R26,_time_count_G000
001aba 91b0 0440 	LDS  R27,_time_count_G000+1
001abc 979b      	SBIW R26,43
001abd f011      	BREQ PC+3
001abe 940c 1b5f 	JMP _0xD0
                 ; 0000 00CD    {
                 ; 0000 00CE       seg++;
001ac0 940e 2547 	CALL SUBOPT_0x18
001ac2 940e 254c 	CALL SUBOPT_0x19
                 ; 0000 00CF       time_count = 0;  //reiniciar contador
001ac4 e0e0      	LDI  R30,LOW(0)
001ac5 93e0 043f 	STS  _time_count_G000,R30
001ac7 93e0 0440 	STS  _time_count_G000+1,R30
                 ; 0000 00D0 
                 ; 0000 00D1       //Envia las tramas para validar el nombre y la seal del equipo - cada segundo
                 ; 0000 00D2          if(seg==1 && seg1==1) printf("AT$TTDEVID?\n\r");  // Pregunta el ID del equipo
001ac9 940e 2547 	CALL SUBOPT_0x18
001acb 30e1      	CPI  R30,LOW(0x1)
001acc f421      	BRNE _0xD2
001acd 940e 2551 	CALL SUBOPT_0x1A
001acf 30e1      	CPI  R30,LOW(0x1)
001ad0 f009      	BREQ _0xD3
                 _0xD2:
001ad1 c002      	RJMP _0xD1
                 _0xD3:
001ad2 940e 2556 	CALL SUBOPT_0x1B
                 ; 0000 00D3          if(seg==1 && seg1==2) printf("AT+CSQ\n\r");      // Pregunta la intensidad de senal
                 _0xD1:
001ad4 940e 2547 	CALL SUBOPT_0x18
001ad6 30e1      	CPI  R30,LOW(0x1)
001ad7 f421      	BRNE _0xD5
001ad8 940e 2551 	CALL SUBOPT_0x1A
001ada 30e2      	CPI  R30,LOW(0x2)
001adb f009      	BREQ _0xD6
                 _0xD5:
001adc c004      	RJMP _0xD4
                 _0xD6:
                +
001add e7e4     +LDI R30 , LOW ( 2 * _0x0 + ( 14 ) )
001ade e2fd     +LDI R31 , HIGH ( 2 * _0x0 + ( 14 ) )
                 	__POINTW1FN _0x0,14
001adf 940e 255f 	CALL SUBOPT_0x1C
                 ; 0000 00D4       //Envio pra ver antenas, igualar hora y fecha...
                 ; 0000 00D5          // Envio cada 20 segundos
                 ; 0000 00D6          if (seg==1 && seg1==3) printf("AT$TTNETIP?\n\r");
                 _0xD4:
001ae1 940e 2547 	CALL SUBOPT_0x18
001ae3 30e1      	CPI  R30,LOW(0x1)
001ae4 f421      	BRNE _0xD8
001ae5 940e 2551 	CALL SUBOPT_0x1A
001ae7 30e3      	CPI  R30,LOW(0x3)
001ae8 f009      	BREQ _0xD9
                 _0xD8:
001ae9 c004      	RJMP _0xD7
                 _0xD9:
                +
001aea e7ed     +LDI R30 , LOW ( 2 * _0x0 + ( 23 ) )
001aeb e2fd     +LDI R31 , HIGH ( 2 * _0x0 + ( 23 ) )
                 	__POINTW1FN _0x0,23
001aec 940e 255f 	CALL SUBOPT_0x1C
                 ; 0000 00D7          if (seg==1 && seg1==4) printf("AT$TTGPSQRY=10,0\n\r");   // Igualar la hora
                 _0xD7:
001aee 940e 2547 	CALL SUBOPT_0x18
001af0 30e1      	CPI  R30,LOW(0x1)
001af1 f421      	BRNE _0xDB
001af2 940e 2551 	CALL SUBOPT_0x1A
001af4 30e4      	CPI  R30,LOW(0x4)
001af5 f009      	BREQ _0xDC
                 _0xDB:
001af6 c004      	RJMP _0xDA
                 _0xDC:
                +
001af7 e8eb     +LDI R30 , LOW ( 2 * _0x0 + ( 37 ) )
001af8 e2fd     +LDI R31 , HIGH ( 2 * _0x0 + ( 37 ) )
                 	__POINTW1FN _0x0,37
001af9 940e 255f 	CALL SUBOPT_0x1C
                 ; 0000 00D8 
                 ; 0000 00D9 
                 ; 0000 00DA       if (seg>9)
                 _0xDA:
001afb 940e 2547 	CALL SUBOPT_0x18
001afd 30ea      	CPI  R30,LOW(0xA)
001afe f410      	BRSH PC+3
001aff 940c 1b5f 	JMP _0xDD
                 ; 0000 00DB       {
                 ; 0000 00DC          seg=0; seg1++;
001b01 940e 2566 	CALL SUBOPT_0x1D
001b03 940e 2551 	CALL SUBOPT_0x1A
001b05 940e 254c 	CALL SUBOPT_0x19
                 ; 0000 00DD 
                 ; 0000 00DE          if(seg1>5)  // Cambio de minuto
001b07 940e 2551 	CALL SUBOPT_0x1A
001b09 30e6      	CPI  R30,LOW(0x6)
001b0a f410      	BRSH PC+3
001b0b 940c 1b5f 	JMP _0xDE
                 ; 0000 00DF          {
                 ; 0000 00E0             seg1=0; minu++;
001b0d 940e 256c 	CALL SUBOPT_0x1E
001b0f 940e 2572 	CALL SUBOPT_0x1F
001b11 940e 254c 	CALL SUBOPT_0x19
                 ; 0000 00E1             if(minu>9)
001b13 940e 2572 	CALL SUBOPT_0x1F
001b15 30ea      	CPI  R30,LOW(0xA)
001b16 f410      	BRSH PC+3
001b17 940c 1b5f 	JMP _0xDF
                 ; 0000 00E2             {
                 ; 0000 00E3                minu=0; min1++;
001b19 940e 2577 	CALL SUBOPT_0x20
001b1b 940e 257d 	CALL SUBOPT_0x21
001b1d 940e 254c 	CALL SUBOPT_0x19
                 ; 0000 00E4                if(min1>5)
001b1f 940e 257d 	CALL SUBOPT_0x21
001b21 30e6      	CPI  R30,LOW(0x6)
001b22 f1e0      	BRLO _0xE0
                 ; 0000 00E5                {
                 ; 0000 00E6                   min1=0; hora++;
001b23 940e 2582 	CALL SUBOPT_0x22
001b25 940e 2588 	CALL SUBOPT_0x23
001b27 940e 254c 	CALL SUBOPT_0x19
                 ; 0000 00E7                   if(hora>9)
001b29 940e 2588 	CALL SUBOPT_0x23
001b2b 30ea      	CPI  R30,LOW(0xA)
001b2c f190      	BRLO _0xE1
                 ; 0000 00E8                   {
                 ; 0000 00E9                      hora=0; hora1++;
001b2d 940e 258d 	CALL SUBOPT_0x24
001b2f 940e 2593 	CALL SUBOPT_0x25
001b31 940e 254c 	CALL SUBOPT_0x19
                 ; 0000 00EA                      if((hora1==2 && hora==3)&&(min1==5 && minu==9)&&(seg1==5 && seg==9))
001b33 940e 2593 	CALL SUBOPT_0x25
001b35 30e2      	CPI  R30,LOW(0x2)
001b36 f421      	BRNE _0xE3
001b37 940e 2588 	CALL SUBOPT_0x23
001b39 30e3      	CPI  R30,LOW(0x3)
001b3a f009      	BREQ _0xE4
                 _0xE3:
001b3b c013      	RJMP _0xE5
                 _0xE4:
001b3c 940e 257d 	CALL SUBOPT_0x21
001b3e 30e5      	CPI  R30,LOW(0x5)
001b3f f421      	BRNE _0xE6
001b40 940e 2572 	CALL SUBOPT_0x1F
001b42 30e9      	CPI  R30,LOW(0x9)
001b43 f009      	BREQ _0xE7
                 _0xE6:
001b44 c00a      	RJMP _0xE5
                 _0xE7:
001b45 940e 2551 	CALL SUBOPT_0x1A
001b47 30e5      	CPI  R30,LOW(0x5)
001b48 f421      	BRNE _0xE8
001b49 940e 2547 	CALL SUBOPT_0x18
001b4b 30e9      	CPI  R30,LOW(0x9)
001b4c f009      	BREQ _0xE9
                 _0xE8:
001b4d c001      	RJMP _0xE5
                 _0xE9:
001b4e c001      	RJMP _0xEA
                 _0xE5:
001b4f c00f      	RJMP _0xE2
                 _0xEA:
                 ; 0000 00EB                      {
                 ; 0000 00EC                         hora1=0; hora=0; min1=0; minu=0;seg1=0;seg=0;
001b50 e8aa      	LDI  R26,LOW(_hora1)
001b51 e0b0      	LDI  R27,HIGH(_hora1)
001b52 e0e0      	LDI  R30,LOW(0)
001b53 940e 27a3 	CALL __EEPROMWRB
001b55 940e 258d 	CALL SUBOPT_0x24
001b57 940e 2582 	CALL SUBOPT_0x22
001b59 940e 2577 	CALL SUBOPT_0x20
001b5b 940e 256c 	CALL SUBOPT_0x1E
001b5d 940e 2566 	CALL SUBOPT_0x1D
                 ; 0000 00ED                      }
                 ; 0000 00EE                   }
                 _0xE2:
                 ; 0000 00EF                }
                 _0xE1:
                 ; 0000 00F0             }
                 _0xE0:
                 ; 0000 00F1          }
                 _0xDF:
                 ; 0000 00F2       }
                 _0xDE:
                 ; 0000 00F3    }
                 _0xDD:
                 ; 0000 00F4 }
                 _0xD0:
001b5f 91e9      	LD   R30,Y+
001b60 bfef      	OUT  SREG,R30
001b61 91f9      	LD   R31,Y+
001b62 91e9      	LD   R30,Y+
001b63 91b9      	LD   R27,Y+
001b64 91a9      	LD   R26,Y+
001b65 9199      	LD   R25,Y+
001b66 9189      	LD   R24,Y+
001b67 9179      	LD   R23,Y+
001b68 9169      	LD   R22,Y+
001b69 90f9      	LD   R15,Y+
001b6a 9019      	LD   R1,Y+
001b6b 9009      	LD   R0,Y+
001b6c 9518      	RETI
                 ;//-------------------------------------------------------------------------------------------------------------------------------------------//
                 ;
                 ;
                 ;\
                 ;//***********************************************************************************************************************************//
                 ;//////////////////////////////////////////////////////////// FUNCIONES ////////////////////////////////////////////////////////////////
                 ;//***********************************************************************************************************************************//
                 ;
                 ;
                 ;
                 ;////////////////// FUNCIN PARA EL SONIDO DEL BUZZER //////////////////
                 ;/** \brief Genera el sonido del buffer
                 ; *
                 ; * El tiempo que suena depende del Macro: DELAY BUZZER
                 ; */
                 ;void buzz()
                 ; 0000 0105 {       //Sonido de Buzzer
                 _buzz:
                 ; 0000 0106    buzzer=1; delay_ms( DELAY_BUZZER_MS );
001b6d 9a5c      	SBI  0xB,4
001b6e 940e 2598 	CALL SUBOPT_0x26
                 ; 0000 0107    buzzer=0; delay_ms( DELAY_BUZZER_MS );
001b70 985c      	CBI  0xB,4
001b71 940e 2598 	CALL SUBOPT_0x26
                 ; 0000 0108 }
001b73 9508      	RET
                 ;//------------------------------------------------------------------------------------------------------------------------//
                 ;
                 ;
                 ;////////////////// FUNCIN PARA CALCULAR NUMERO DE RUTA //////////////////
                 ;/** \brief Transforma el caracter de ruta a un nmero
                 ; *
                 ; * Cambia de A -> 1; B->2 ...  etc, en caso de que el caracter pasado no
                 ; * Corresponda a una letra devolvera -1
                 ; *
                 ; * Solo soporta un carcater, mximo se puede tener 35 rutas.
                 ; */
                 ;int8 calcuar_ruta( char ruta )
                 ; 0000 0115 {
                 _calcuar_ruta:
                 ; 0000 0116    int8 numero_ruta = ruta - 0x40;
                 ; 0000 0117 
                 ; 0000 0118    // Verificar que la letra corresponde a un nmero de ruta
                 ; 0000 0119    if ( numero_ruta > 0 && numero_ruta <= TOTAL_RUTAS )
001b74 931a      	ST   -Y,R17
                 ;	ruta -> Y+1
                 ;	numero_ruta -> R17
001b75 81e9      	LDD  R30,Y+1
001b76 e0f0      	LDI  R31,0
001b77 54e0      	SUBI R30,LOW(64)
001b78 40f0      	SBCI R31,HIGH(64)
001b79 2f1e      	MOV  R17,R30
001b7a 3011      	CPI  R17,1
001b7b f010      	BRLO _0xF0
001b7c 3615      	CPI  R17,101
001b7d f008      	BRLO _0xF1
                 _0xF0:
001b7e c002      	RJMP _0xEF
                 _0xF1:
                 ; 0000 011A       return numero_ruta;
001b7f 2fe1      	MOV  R30,R17
001b80 c001      	RJMP _0x20A0002
                 ; 0000 011B    else
                 _0xEF:
                 ; 0000 011C       return 0; // El caracter no corresponde a una ruta.
001b81 e0e0      	LDI  R30,LOW(0)
                 ; 0000 011D 
                 ; 0000 011E }
                 _0x20A0002:
001b82 8118      	LDD  R17,Y+0
001b83 9622      	ADIW R28,2
001b84 9508      	RET
                 ;
                 ;
                 ;////////////////// FUNCION PARA ENVIAR RUTA AL SERVIDOR //////////////////
                 ;/** \brief Envia inicio o fin de ruta para el calulo del recorrido
                 ; *
                 ; * Para el inicio de trama envia un numero que representa la ruta y luego
                 ; * envia el estado de esa ruta: ej R2,2,0. Fin de Ruta dos
                 ; *
                 ; */
                 ;void enviar_estado_ruta(){
                 ; 0000 0128 void enviar_estado_ruta(){
                 _enviar_estado_ruta:
                 ; 0000 0129 
                 ; 0000 012A    _num_ruta = calcuar_ruta( ruta );
001b85 928a      	ST   -Y,R8
001b86 dfed      	RCALL _calcuar_ruta
001b87 93e0 044f 	STS  __num_ruta,R30
                 ; 0000 012B    printf("AT$MSGSND=4,\"$$BL%s,%d%d%d%d20%d%d,%d%d%d%d%d%d,R2,%d,%d:XX##\"\r\n",
                 ; 0000 012C                                     NUM_DISP,
                 ; 0000 012D                                          _dia1,_dia,
                 ; 0000 012E                                          _mes1,_mes,
                 ; 0000 012F                                          _an1,_an,
                 ; 0000 0130                                              _hora1,hora,
                 ; 0000 0131                                              _min1 ,minu,
                 ; 0000 0132                                              _seg1 ,seg,
                 ; 0000 0133                                                 _num_ruta,aceptar  );
                +
001b89 e9ee     +LDI R30 , LOW ( 2 * _0x0 + ( 56 ) )
001b8a e2fd     +LDI R31 , HIGH ( 2 * _0x0 + ( 56 ) )
                 	__POINTW1FN _0x0,56
001b8b 940e 259e 	CALL SUBOPT_0x27
001b8d 940e 25d8 	CALL SUBOPT_0x28
001b8f 91e0 0446 	LDS  R30,__min1
001b91 940e 25d8 	CALL SUBOPT_0x28
001b93 940e 2572 	CALL SUBOPT_0x1F
001b95 940e 25d8 	CALL SUBOPT_0x28
001b97 91e0 0444 	LDS  R30,__seg1
001b99 940e 25d8 	CALL SUBOPT_0x28
001b9b 940e 2547 	CALL SUBOPT_0x18
001b9d 940e 25d8 	CALL SUBOPT_0x28
001b9f 91e0 044f 	LDS  R30,__num_ruta
001ba1 940e 25d8 	CALL SUBOPT_0x28
001ba3 2deb      	MOV  R30,R11
001ba4 940e 25d8 	CALL SUBOPT_0x28
001ba6 e38c      	LDI  R24,60
001ba7 940e 2476 	CALL _printf
001ba9 96ee      	ADIW R28,62
                 ; 0000 0134 }
001baa 9508      	RET
                 ;
                 ;
                 ;////////////////// FUNCION PARA ENVIAR LOGIN AL SERVIDOR //////////////////
                 ;/** \brief Envia inicio o fin de LOGIN del chofer para el calulo del recorrido
                 ; *
                 ; * Para el inicio de trama envia un numero que representa el ID del chofer
                 ; * luego el estado. LOGIN/LOGOUT
                 ; *
                 ; */
                 ;void envia_estado_login(){
                 ; 0000 013E void envia_estado_login(){
                 _envia_estado_login:
                 ; 0000 013F    printf("AT$MSGSND=4,\"$$BL%s,%d%d%d%d20%d%d,%d%d%d%d%d%d,S2,1234,%d:XX##\"\r\n",
                 ; 0000 0140                                  NUM_DISP,
                 ; 0000 0141                                       _dia1,_dia,
                 ; 0000 0142                                       _mes1,_mes,
                 ; 0000 0143                                       _an1,_an,
                 ; 0000 0144                                           _hora1,hora,
                 ; 0000 0145                                           _min1 ,minu,
                 ; 0000 0146                                           _seg1 ,seg,
                 ; 0000 0147                                             // id_conductor, 1234 temporalmente
                 ; 0000 0148                                                _laborando  );
                +
001bab edef     +LDI R30 , LOW ( 2 * _0x0 + ( 121 ) )
001bac e2fd     +LDI R31 , HIGH ( 2 * _0x0 + ( 121 ) )
                 	__POINTW1FN _0x0,121
001bad 940e 259e 	CALL SUBOPT_0x27
001baf 940e 25d8 	CALL SUBOPT_0x28
001bb1 91e0 0446 	LDS  R30,__min1
001bb3 940e 25d8 	CALL SUBOPT_0x28
001bb5 940e 2572 	CALL SUBOPT_0x1F
001bb7 940e 25d8 	CALL SUBOPT_0x28
001bb9 91e0 0444 	LDS  R30,__seg1
001bbb 940e 25d8 	CALL SUBOPT_0x28
001bbd 940e 2547 	CALL SUBOPT_0x18
001bbf 940e 25d8 	CALL SUBOPT_0x28
001bc1 91e0 0450 	LDS  R30,__laborando
001bc3 940e 25d8 	CALL SUBOPT_0x28
001bc5 e388      	LDI  R24,56
001bc6 940e 2476 	CALL _printf
001bc8 96ea      	ADIW R28,58
                 ; 0000 0149 }
001bc9 9508      	RET
                 ;
                 ;///////////////////// FUNCION DEL BOTON 1 (INICIO/FIN DE JORNADA) //////////////////////////
                 ;void boton1()
                 ; 0000 014D {
                 _boton1:
                 ; 0000 014E    // Primera presion del botn
                 ; 0000 014F    if( BT1 == 0 && bandera1==0)
001bca e0a0      	LDI  R26,0
001bcb 9904      	SBIC 0x0,4
001bcc e0a1      	LDI  R26,1
001bcd 30a0      	CPI  R26,LOW(0x0)
001bce f419      	BRNE _0xF4
001bcf e0e0      	LDI  R30,LOW(0)
001bd0 15e7      	CP   R30,R7
001bd1 f009      	BREQ _0xF5
                 _0xF4:
001bd2 c05b      	RJMP _0xF3
                 _0xF5:
                 ; 0000 0150    {
                 ; 0000 0151       pt=2;                             // Para q muestre en la glcd MENSAJE ENVIADO
001bd3 e0e2      	LDI  R30,LOW(2)
001bd4 93e0 0434 	STS  _pt,R30
                 ; 0000 0152       btn1++;                          // Aumenta el contador del boton
001bd6 94e3      	INC  R14
                 ; 0000 0153       bandera1=1;                     // Evita que vuelva a entrar al mismo boton
001bd7 e0e1      	LDI  R30,LOW(1)
001bd8 2e7e      	MOV  R7,R30
                 ; 0000 0154 
                 ; 0000 0155       buzz();
001bd9 940e 25de 	CALL SUBOPT_0x29
                 ; 0000 0156       delay_ms( DELAY_BOTONES_MS );
                 ; 0000 0157 
                 ; 0000 0158       switch (btn1)
001bdb 2dee      	MOV  R30,R14
001bdc 940e 25e6 	CALL SUBOPT_0x2A
                 ; 0000 0159       {
                 ; 0000 015A          // PRIMERA PRESION DEL BOTON
                 ; 0000 015B          case 1:
001bde f4d1      	BRNE _0xF9
                 ; 0000 015C 
                 ; 0000 015D             // Envia Inicio de sesion al servidor
                 ; 0000 015E             _laborando = 1;                  // INICIA SESION  ***
001bdf e0e1      	LDI  R30,LOW(1)
001be0 93e0 0450 	STS  __laborando,R30
                 ; 0000 015F             envia_estado_login();
001be2 dfc8      	RCALL _envia_estado_login
                 ; 0000 0160             // DEBE HABILITAR EL BOTON 4
                 ; 0000 0161 
                 ; 0000 0162             // Muestra la RUTA A: primero y por defecto
                 ; 0000 0163             btn2 = 1;
001be3 e0e1      	LDI  R30,LOW(1)
001be4 2ede      	MOV  R13,R30
                 ; 0000 0164 
                 ; 0000 0165             //Muestra el chofer
                 ; 0000 0166             bmp_disp(chofer,0,5,35,7);
001be5 efe0      	LDI  R30,LOW(_chofer*2)
001be6 e1f9      	LDI  R31,HIGH(_chofer*2)
001be7 940e 25eb 	CALL SUBOPT_0x2B
001be9 940e 25ee 	CALL SUBOPT_0x2C
001beb e2e3      	LDI  R30,LOW(35)
001bec e0f0      	LDI  R31,HIGH(35)
001bed 940e 25f3 	CALL SUBOPT_0x2D
001bef de5d      	RCALL _bmp_disp
                 ; 0000 0167 
                 ; 0000 0168             // Muestra la ruta
                 ; 0000 0169             glcd_puts("RUTA:",44,7,0,1,-1);
                +
001bf0 e0e0     +LDI R30 , LOW ( _0xFA + ( 0 ) )
001bf1 e0f3     +LDI R31 , HIGH ( _0xFA + ( 0 ) )
                 	__POINTW1MN _0xFA,0
001bf2 940e 25fa 	CALL SUBOPT_0x2E
001bf4 940e 25ff 	CALL SUBOPT_0x2F
001bf6 940e 2604 	CALL SUBOPT_0x30
                 ; 0000 016A 
                 ; 0000 016B          break;
001bf8 c034      	RJMP _0xF8
                 ; 0000 016C 
                 ; 0000 016D          // SEGUNDA PRESION DEL BOTON
                 ; 0000 016E          //solamente quita la ruta de la pantalla
                 ; 0000 016F          //no cierra sesion de la ruta actual
                 ; 0000 0170          case 2:
                 _0xF9:
001bf9 30e2      	CPI  R30,LOW(0x2)
001bfa e0a0      	LDI  R26,HIGH(0x2)
001bfb 07fa      	CPC  R31,R26
001bfc f581      	BRNE _0xF8
                 ; 0000 0171             bmp_disp( vacio, 0, 5, 25, 7);   // Borra el chofer
001bfd efe0      	LDI  R30,LOW(_vacio*2)
001bfe e1f1      	LDI  R31,HIGH(_vacio*2)
001bff 940e 25eb 	CALL SUBOPT_0x2B
001c01 940e 25ee 	CALL SUBOPT_0x2C
001c03 e1e9      	LDI  R30,LOW(25)
001c04 e0f0      	LDI  R31,HIGH(25)
001c05 940e 25f3 	CALL SUBOPT_0x2D
001c07 de45      	RCALL _bmp_disp
                 ; 0000 0172             btn2 = 15;                       // Carrera Vacia
001c08 e0ef      	LDI  R30,LOW(15)
001c09 2ede      	MOV  R13,R30
                 ; 0000 0173             aux = 0;                         // Hace una vez mientras se presione
001c0a e0e0      	LDI  R30,LOW(0)
001c0b 93e0 042f 	STS  _aux,R30
                 ; 0000 0174                                              // el boton
                 ; 0000 0175 
                 ; 0000 0176             _laborando = 0;     // No se encuentra en laborando.
001c0d 93e0 0450 	STS  __laborando,R30
                 ; 0000 0177             pt=5;             // Muestra mensaje de FIN JORNADA  ***
001c0f e0e5      	LDI  R30,LOW(5)
001c10 93e0 0434 	STS  _pt,R30
                 ; 0000 0178             envia_estado_login();
001c12 df98      	RCALL _envia_estado_login
                 ; 0000 0179 
                 ; 0000 017A             btn2 = 15;         // Borra el caracter de ruta
001c13 e0ef      	LDI  R30,LOW(15)
001c14 2ede      	MOV  R13,R30
                 ; 0000 017B             aceptar = 0;      // Finalizar la Ruta
001c15 24bb      	CLR  R11
                 ; 0000 017C 
                 ; 0000 017D             if( ruta != ' ' )
001c16 e2e0      	LDI  R30,LOW(32)
001c17 15e8      	CP   R30,R8
001c18 f009      	BREQ _0xFC
                 ; 0000 017E                enviar_estado_ruta();
001c19 df6b      	RCALL _enviar_estado_ruta
                 ; 0000 017F             ruta = ' ';      // Fin de la ruta
                 _0xFC:
001c1a e2e0      	LDI  R30,LOW(32)
001c1b 2e8e      	MOV  R8,R30
                 ; 0000 0180 
                 ; 0000 0181             // Borra el caracter de la carrera
                 ; 0000 0182             glcd_putchar(' ',79,7,0,1);
001c1c 93ea      	ST   -Y,R30
001c1d e4ef      	LDI  R30,LOW(79)
001c1e e0f0      	LDI  R31,HIGH(79)
001c1f 940e 25f3 	CALL SUBOPT_0x2D
001c21 940e 25ff 	CALL SUBOPT_0x2F
001c23 dce8      	RCALL _glcd_putchar
                 ; 0000 0183             // Borra una trama de caracteres RUTA:
                 ; 0000 0184             glcd_puts("      ",44,7,0,1,-1);
                +
001c24 e0e6     +LDI R30 , LOW ( _0xFA + ( 6 ) )
001c25 e0f3     +LDI R31 , HIGH ( _0xFA + ( 6 ) )
                 	__POINTW1MN _0xFA,6
001c26 940e 25fa 	CALL SUBOPT_0x2E
001c28 940e 25ff 	CALL SUBOPT_0x2F
001c2a 940e 2604 	CALL SUBOPT_0x30
                 ; 0000 0185 
                 ; 0000 0186             // Reiniciliza el contador, siguiente presion btn = 1;
                 ; 0000 0187             btn1 = 0;
001c2c 24ee      	CLR  R14
                 ; 0000 0188 
                 ; 0000 0189          break;
                 ; 0000 018A 
                 ; 0000 018B       }
                 _0xF8:
                 ; 0000 018C    }
                 ; 0000 018D 
                 ; 0000 018E    // Cuando se levanta el boton del dedo levant la bandera
                 ; 0000 018F    else if( BT1 == 1 && bandera1 == 1 )
001c2d c007      	RJMP _0xFD
                 _0xF3:
001c2e 9b04      	SBIS 0x0,4
001c2f c003      	RJMP _0xFF
001c30 e0e1      	LDI  R30,LOW(1)
001c31 15e7      	CP   R30,R7
001c32 f009      	BREQ _0x100
                 _0xFF:
001c33 c001      	RJMP _0xFE
                 _0x100:
                 ; 0000 0190    {
                 ; 0000 0191       bandera1=0;
001c34 2477      	CLR  R7
                 ; 0000 0192    }
                 ; 0000 0193 }
                 _0xFE:
                 _0xFD:
001c35 9508      	RET
                 
                 	.DSEG
                 _0xFA:
000300           	.BYTE 0xD
                 ;//------------------------------------------------------------------------------------------//
                 ;
                 ;
                 ;
                 ;///////////////////////// FUNCION DEL BOTON 2 (ESCOGER RUTA AUMENTAR LETRA) /////////////////////////////////
                 ;
                 ;
                 ;
                 ;void boton2(){
                 ; 0000 019C void boton2(){
                 
                 	.CSEG
                 _boton2:
                 ; 0000 019D 
                 ; 0000 019E    // Si se presiona el boton dos, luego de haber presionado el boton
                 ; 0000 019F    // uno, una vez. Y an no se ha aceptado carrera
                 ; 0000 01A0    if( BT2 == 0 && bandera2==0 && aceptar == 0 && _laborando == 1 )
001c36 e0a0      	LDI  R26,0
001c37 9903      	SBIC 0x0,3
001c38 e0a1      	LDI  R26,1
001c39 30a0      	CPI  R26,LOW(0x0)
001c3a f449      	BRNE _0x102
001c3b e0e0      	LDI  R30,LOW(0)
001c3c 15ea      	CP   R30,R10
001c3d f431      	BRNE _0x102
001c3e 15eb      	CP   R30,R11
001c3f f421      	BRNE _0x102
001c40 91a0 0450 	LDS  R26,__laborando
001c42 30a1      	CPI  R26,LOW(0x1)
001c43 f009      	BREQ _0x103
                 _0x102:
001c44 c010      	RJMP _0x101
                 _0x103:
                 ; 0000 01A1    {
                 ; 0000 01A2       btn2++;
001c45 94d3      	INC  R13
                 ; 0000 01A3       buzz();
001c46 df26      	RCALL _buzz
                 ; 0000 01A4       bandera2 = 1;
001c47 e0e1      	LDI  R30,LOW(1)
001c48 2eae      	MOV  R10,R30
                 ; 0000 01A5 
                 ; 0000 01A6       if( btn2 > 12 && btn2 != 15)
001c49 e0ec      	LDI  R30,LOW(12)
001c4a 15ed      	CP   R30,R13
001c4b f418      	BRSH _0x105
001c4c e0ef      	LDI  R30,LOW(15)
001c4d 15ed      	CP   R30,R13
001c4e f409      	BRNE _0x106
                 _0x105:
001c4f c002      	RJMP _0x104
                 _0x106:
                 ; 0000 01A7          btn2 = 1;
001c50 e0e1      	LDI  R30,LOW(1)
001c51 2ede      	MOV  R13,R30
                 ; 0000 01A8 
                 ; 0000 01A9       delay_ms(DELAY_BOTONES_MS);
                 _0x104:
001c52 940e 2608 	CALL SUBOPT_0x31
                 ; 0000 01AA    }
                 ; 0000 01AB 
                 ; 0000 01AC 
                 ; 0000 01AD    // Luego de presionar el boton, puede volver a presionarlo.
                 ; 0000 01AE    else if(BT2==1 && bandera2==1)
001c54 c007      	RJMP _0x107
                 _0x101:
001c55 9b03      	SBIS 0x0,3
001c56 c003      	RJMP _0x109
001c57 e0e1      	LDI  R30,LOW(1)
001c58 15ea      	CP   R30,R10
001c59 f009      	BREQ _0x10A
                 _0x109:
001c5a c001      	RJMP _0x108
                 _0x10A:
                 ; 0000 01AF    {
                 ; 0000 01B0       bandera2=0;
001c5b 24aa      	CLR  R10
                 ; 0000 01B1    }
                 ; 0000 01B2 
                 ; 0000 01B3 
                 ; 0000 01B4    // El switch lo hace constantemente, ya que esta en el main y
                 ; 0000 01B5    // no depende de ningun IF
                 ; 0000 01B6 
                 ; 0000 01B7    switch (btn2){
                 _0x108:
                 _0x107:
001c5c 2ded      	MOV  R30,R13
001c5d 940e 25e6 	CALL SUBOPT_0x2A
                 ; 0000 01B8       case 1:
001c5f f411      	BRNE _0x10E
                 ; 0000 01B9         ruta_aux='A';
001c60 e4e1      	LDI  R30,LOW(65)
001c61 c047      	RJMP _0x1C8
                 ; 0000 01BA 
                 ; 0000 01BB         break;
                 ; 0000 01BC       case 2:
                 _0x10E:
001c62 30e2      	CPI  R30,LOW(0x2)
001c63 e0a0      	LDI  R26,HIGH(0x2)
001c64 07fa      	CPC  R31,R26
001c65 f411      	BRNE _0x10F
                 ; 0000 01BD         ruta_aux='B';
001c66 e4e2      	LDI  R30,LOW(66)
001c67 c041      	RJMP _0x1C8
                 ; 0000 01BE 
                 ; 0000 01BF       break;
                 ; 0000 01C0       case 3:
                 _0x10F:
001c68 30e3      	CPI  R30,LOW(0x3)
001c69 e0a0      	LDI  R26,HIGH(0x3)
001c6a 07fa      	CPC  R31,R26
001c6b f411      	BRNE _0x110
                 ; 0000 01C1         ruta_aux='C';
001c6c e4e3      	LDI  R30,LOW(67)
001c6d c03b      	RJMP _0x1C8
                 ; 0000 01C2 
                 ; 0000 01C3       break;
                 ; 0000 01C4       case 4:
                 _0x110:
001c6e 30e4      	CPI  R30,LOW(0x4)
001c6f e0a0      	LDI  R26,HIGH(0x4)
001c70 07fa      	CPC  R31,R26
001c71 f411      	BRNE _0x111
                 ; 0000 01C5         ruta_aux='D';
001c72 e4e4      	LDI  R30,LOW(68)
001c73 c035      	RJMP _0x1C8
                 ; 0000 01C6 
                 ; 0000 01C7       break;
                 ; 0000 01C8       case 5:
                 _0x111:
001c74 30e5      	CPI  R30,LOW(0x5)
001c75 e0a0      	LDI  R26,HIGH(0x5)
001c76 07fa      	CPC  R31,R26
001c77 f411      	BRNE _0x112
                 ; 0000 01C9         ruta_aux='E';
001c78 e4e5      	LDI  R30,LOW(69)
001c79 c02f      	RJMP _0x1C8
                 ; 0000 01CA       break;
                 ; 0000 01CB       case 6:
                 _0x112:
001c7a 30e6      	CPI  R30,LOW(0x6)
001c7b e0a0      	LDI  R26,HIGH(0x6)
001c7c 07fa      	CPC  R31,R26
001c7d f411      	BRNE _0x113
                 ; 0000 01CC         ruta_aux='F';
001c7e e4e6      	LDI  R30,LOW(70)
001c7f c029      	RJMP _0x1C8
                 ; 0000 01CD 
                 ; 0000 01CE       break;
                 ; 0000 01CF       case 7:
                 _0x113:
001c80 30e7      	CPI  R30,LOW(0x7)
001c81 e0a0      	LDI  R26,HIGH(0x7)
001c82 07fa      	CPC  R31,R26
001c83 f411      	BRNE _0x114
                 ; 0000 01D0         ruta_aux='G';
001c84 e4e7      	LDI  R30,LOW(71)
001c85 c023      	RJMP _0x1C8
                 ; 0000 01D1 
                 ; 0000 01D2       break;
                 ; 0000 01D3       case 8:
                 _0x114:
001c86 30e8      	CPI  R30,LOW(0x8)
001c87 e0a0      	LDI  R26,HIGH(0x8)
001c88 07fa      	CPC  R31,R26
001c89 f411      	BRNE _0x115
                 ; 0000 01D4         ruta_aux='H';
001c8a e4e8      	LDI  R30,LOW(72)
001c8b c01d      	RJMP _0x1C8
                 ; 0000 01D5 
                 ; 0000 01D6       break;
                 ; 0000 01D7       case 9:
                 _0x115:
001c8c 30e9      	CPI  R30,LOW(0x9)
001c8d e0a0      	LDI  R26,HIGH(0x9)
001c8e 07fa      	CPC  R31,R26
001c8f f411      	BRNE _0x116
                 ; 0000 01D8         ruta_aux='I';
001c90 e4e9      	LDI  R30,LOW(73)
001c91 c017      	RJMP _0x1C8
                 ; 0000 01D9 
                 ; 0000 01DA       break;
                 ; 0000 01DB       case 10:
                 _0x116:
001c92 30ea      	CPI  R30,LOW(0xA)
001c93 e0a0      	LDI  R26,HIGH(0xA)
001c94 07fa      	CPC  R31,R26
001c95 f411      	BRNE _0x117
                 ; 0000 01DC         ruta_aux='J';
001c96 e4ea      	LDI  R30,LOW(74)
001c97 c011      	RJMP _0x1C8
                 ; 0000 01DD 
                 ; 0000 01DE       break;
                 ; 0000 01DF       case 11:
                 _0x117:
001c98 30eb      	CPI  R30,LOW(0xB)
001c99 e0a0      	LDI  R26,HIGH(0xB)
001c9a 07fa      	CPC  R31,R26
001c9b f411      	BRNE _0x118
                 ; 0000 01E0         ruta_aux='K';
001c9c e4eb      	LDI  R30,LOW(75)
001c9d c00b      	RJMP _0x1C8
                 ; 0000 01E1 
                 ; 0000 01E2       break;
                 ; 0000 01E3       case 12:
                 _0x118:
001c9e 30ec      	CPI  R30,LOW(0xC)
001c9f e0a0      	LDI  R26,HIGH(0xC)
001ca0 07fa      	CPC  R31,R26
001ca1 f411      	BRNE _0x119
                 ; 0000 01E4         ruta_aux='L';
001ca2 e4ec      	LDI  R30,LOW(76)
001ca3 c005      	RJMP _0x1C8
                 ; 0000 01E5 
                 ; 0000 01E6       break;
                 ; 0000 01E7       case 15:
                 _0x119:
001ca4 30ef      	CPI  R30,LOW(0xF)
001ca5 e0a0      	LDI  R26,HIGH(0xF)
001ca6 07fa      	CPC  R31,R26
001ca7 f411      	BRNE _0x10D
                 ; 0000 01E8         ruta_aux=' ';  // Carrera vacia
001ca8 e2e0      	LDI  R30,LOW(32)
                 _0x1C8:
001ca9 2e5e      	MOV  R5,R30
                 ; 0000 01E9       break;
                 ; 0000 01EA    };
                 _0x10D:
                 ; 0000 01EB 
                 ; 0000 01EC      //printf("AT$TTDEVID?\n\r")
                 ; 0000 01ED }
001caa 9508      	RET
                 ;//----------------------------------------------------------------------------------------//
                 ;
                 ;
                 ;
                 ;/////////////////////// FUNCION DEL BOTON 3 (ESCOGER RUTA DECREMENTAR LETRA) /////////////////////////////////
                 ;void boton3()
                 ; 0000 01F4 {     //Boton 3
                 _boton3:
                 ; 0000 01F5    if( BT3 == 0 && bandera3 == 0 && aceptar == 0 && _laborando == 1)
001cab e0a0      	LDI  R26,0
001cac 9902      	SBIC 0x0,2
001cad e0a1      	LDI  R26,1
001cae 30a0      	CPI  R26,LOW(0x0)
001caf f449      	BRNE _0x11C
001cb0 e0e0      	LDI  R30,LOW(0)
001cb1 15e9      	CP   R30,R9
001cb2 f431      	BRNE _0x11C
001cb3 15eb      	CP   R30,R11
001cb4 f421      	BRNE _0x11C
001cb5 91a0 0450 	LDS  R26,__laborando
001cb7 30a1      	CPI  R26,LOW(0x1)
001cb8 f009      	BREQ _0x11D
                 _0x11C:
001cb9 c00f      	RJMP _0x11B
                 _0x11D:
                 ; 0000 01F6    {
                 ; 0000 01F7       btn2--;
001cba 94da      	DEC  R13
                 ; 0000 01F8       buzz();
001cbb deb1      	RCALL _buzz
                 ; 0000 01F9       bandera3=1;
001cbc e0e1      	LDI  R30,LOW(1)
001cbd 2e9e      	MOV  R9,R30
                 ; 0000 01FA       if(btn2<=0 && btn2!=15)
001cbe 20dd      	TST  R13
001cbf f419      	BRNE _0x11F
001cc0 e0ef      	LDI  R30,LOW(15)
001cc1 15ed      	CP   R30,R13
001cc2 f409      	BRNE _0x120
                 _0x11F:
001cc3 c002      	RJMP _0x11E
                 _0x120:
                 ; 0000 01FB          btn2=12;
001cc4 e0ec      	LDI  R30,LOW(12)
001cc5 2ede      	MOV  R13,R30
                 ; 0000 01FC       delay_ms(200);
                 _0x11E:
001cc6 940e 2608 	CALL SUBOPT_0x31
                 ; 0000 01FD    }
                 ; 0000 01FE    else if(BT3==1 && bandera3==1){
001cc8 c007      	RJMP _0x121
                 _0x11B:
001cc9 9b02      	SBIS 0x0,2
001cca c003      	RJMP _0x123
001ccb e0e1      	LDI  R30,LOW(1)
001ccc 15e9      	CP   R30,R9
001ccd f009      	BREQ _0x124
                 _0x123:
001cce c001      	RJMP _0x122
                 _0x124:
                 ; 0000 01FF       bandera3=0;
001ccf 2499      	CLR  R9
                 ; 0000 0200    }
                 ; 0000 0201 }
                 _0x122:
                 _0x121:
001cd0 9508      	RET
                 ;//------------------------------------------------------------------------------------------------------//
                 ;
                 ;
                 ;
                 ;//////////////////////// FUNCION DEL BOTON 4 (INICIO/FIN DE RUTA) /////////////////////////////////
                 ;void boton4()
                 ; 0000 0208 {     //Boton 4
                 _boton4:
                 ; 0000 0209 
                 ; 0000 020A 
                 ; 0000 020B    // Primera presinn del boton 4. Acepta la carrera.
                 ; 0000 020C    if ( BT4 == 0 && bandera4 == 0 && _laborando == 1  )
001cd1 e0a0      	LDI  R26,0
001cd2 9901      	SBIC 0x0,1
001cd3 e0a1      	LDI  R26,1
001cd4 30a0      	CPI  R26,LOW(0x0)
001cd5 f439      	BRNE _0x126
001cd6 e0e0      	LDI  R30,LOW(0)
001cd7 15ec      	CP   R30,R12
001cd8 f421      	BRNE _0x126
001cd9 91a0 0450 	LDS  R26,__laborando
001cdb 30a1      	CPI  R26,LOW(0x1)
001cdc f009      	BREQ _0x127
                 _0x126:
001cdd c00e      	RJMP _0x125
                 _0x127:
                 ; 0000 020D    {
                 ; 0000 020E       bandera4++;
001cde 94c3      	INC  R12
                 ; 0000 020F       ruta = ruta_aux;
001cdf 2c85      	MOV  R8,R5
                 ; 0000 0210       aceptar = 1;
001ce0 e0e1      	LDI  R30,LOW(1)
001ce1 2ebe      	MOV  R11,R30
                 ; 0000 0211       buzz();
001ce2 940e 25de 	CALL SUBOPT_0x29
                 ; 0000 0212       delay_ms(200);
                 ; 0000 0213       aux=5;
001ce4 e0e5      	LDI  R30,LOW(5)
001ce5 93e0 042f 	STS  _aux,R30
                 ; 0000 0214       pt=4;
001ce7 e0e4      	LDI  R30,LOW(4)
001ce8 93e0 0434 	STS  _pt,R30
                 ; 0000 0215 
                 ; 0000 0216       // AQUI SE DEBE ENVIAR LA TRAMA CON LA RUTA
                 ; 0000 0217       // NO SE PUEDE ENVIAR SI NO SE HA ESCOGIDO UNA RUTA
                 ; 0000 0218       enviar_estado_ruta();
001cea de9a      	RCALL _enviar_estado_ruta
                 ; 0000 0219 
                 ; 0000 021A    }
                 ; 0000 021B 
                 ; 0000 021C 
                 ; 0000 021D    //
                 ; 0000 021E    // si esque ya se ha presionado el BOTON 4 y se levanta el BOTON 4
                 ; 0000 021F    else if(BT4 == 1 && bandera4==1)
001ceb c007      	RJMP _0x128
                 _0x125:
001cec 9b01      	SBIS 0x0,1
001ced c003      	RJMP _0x12A
001cee e0e1      	LDI  R30,LOW(1)
001cef 15ec      	CP   R30,R12
001cf0 f009      	BREQ _0x12B
                 _0x12A:
001cf1 c001      	RJMP _0x129
                 _0x12B:
                 ; 0000 0220    {
                 ; 0000 0221       bandera4++;
001cf2 94c3      	INC  R12
                 ; 0000 0222    }
                 ; 0000 0223 
                 ; 0000 0224    // La segunda vez que se presiona el boton dos
                 ; 0000 0225    if ( BT4==0 && aceptar == 1 && bandera4 == 2)
                 _0x129:
                 _0x128:
001cf3 e0a0      	LDI  R26,0
001cf4 9901      	SBIC 0x0,1
001cf5 e0a1      	LDI  R26,1
001cf6 30a0      	CPI  R26,LOW(0x0)
001cf7 f431      	BRNE _0x12D
001cf8 e0e1      	LDI  R30,LOW(1)
001cf9 15eb      	CP   R30,R11
001cfa f419      	BRNE _0x12D
001cfb e0e2      	LDI  R30,LOW(2)
001cfc 15ec      	CP   R30,R12
001cfd f009      	BREQ _0x12E
                 _0x12D:
001cfe c00d      	RJMP _0x12C
                 _0x12E:
                 ; 0000 0226    {
                 ; 0000 0227       btn2=15;         // Borra el caracter de ruta
001cff e0ef      	LDI  R30,LOW(15)
001d00 2ede      	MOV  R13,R30
                 ; 0000 0228       bandera4++;
001d01 94c3      	INC  R12
                 ; 0000 0229       aceptar = 0;   // Fin de la ruta
001d02 24bb      	CLR  R11
                 ; 0000 022A       buzz();
001d03 940e 25de 	CALL SUBOPT_0x29
                 ; 0000 022B       delay_ms( DELAY_BOTONES_MS );
                 ; 0000 022C       pt=3;
001d05 e0e3      	LDI  R30,LOW(3)
001d06 93e0 0434 	STS  _pt,R30
                 ; 0000 022D 
                 ; 0000 022E       // AQU SE DEBE ENVIAR LA TRAMA CON LA RUTA VACIA (FIN DE RUTA)
                 ; 0000 022F       enviar_estado_ruta();
001d08 de7c      	RCALL _enviar_estado_ruta
                 ; 0000 0230 
                 ; 0000 0231       // hace que el valor de ruta sea = 0;
                 ; 0000 0232       ruta=' ';
001d09 e2e0      	LDI  R30,LOW(32)
001d0a 2e8e      	MOV  R8,R30
                 ; 0000 0233 
                 ; 0000 0234    }
                 ; 0000 0235 
                 ; 0000 0236    // si se ha presionado el boton cuatro por tercera vez
                 ; 0000 0237    else if(BT4==1 && bandera4==3)
001d0b c007      	RJMP _0x12F
                 _0x12C:
001d0c 9b01      	SBIS 0x0,1
001d0d c003      	RJMP _0x131
001d0e e0e3      	LDI  R30,LOW(3)
001d0f 15ec      	CP   R30,R12
001d10 f009      	BREQ _0x132
                 _0x131:
001d11 c001      	RJMP _0x130
                 _0x132:
                 ; 0000 0238    {
                 ; 0000 0239       bandera4=0;
001d12 24cc      	CLR  R12
                 ; 0000 023A    }
                 ; 0000 023B }
                 _0x130:
                 _0x12F:
001d13 9508      	RET
                 ;//----------------------------------------------------------------------------------------//
                 ;
                 ;
                 ;
                 ;////////////////////// FUNCION DEL BOTON 5 (ESTADO MECNICO) //////////////////////////////
                 ;void boton5(){     //Boton 5
                 ; 0000 0241 void boton5(){
                 ; 0000 0242   btn5++;
                 ; 0000 0243 }
                 ;//----------------------------------------------------------------------------------------//
                 ;
                 ;
                 ;
                 ;////////////////////////////////// DIBUJAR BARRAS DE SEAL GPRS //////////////////////////////////////
                 ;void dibujar_senal(void)
                 ; 0000 024A {
                 _dibujar_senal:
                 ; 0000 024B     switch (ind_sen){
001d14 91e0 0455 	LDS  R30,_ind_sen
001d16 91f0 0456 	LDS  R31,_ind_sen+1
                 ; 0000 024C     case 1:
001d18 30e1      	CPI  R30,LOW(0x1)
001d19 e0a0      	LDI  R26,HIGH(0x1)
001d1a 07fa      	CPC  R31,R26
001d1b f419      	BRNE _0x136
                 ; 0000 024D     bmp_disp(GSM3,0,0,20,1);
001d1c e2e0      	LDI  R30,LOW(_GSM3*2)
001d1d e2fb      	LDI  R31,HIGH(_GSM3*2)
001d1e c014      	RJMP _0x1C9
                 ; 0000 024E     break;
                 ; 0000 024F     case 2:
                 _0x136:
001d1f 30e2      	CPI  R30,LOW(0x2)
001d20 e0a0      	LDI  R26,HIGH(0x2)
001d21 07fa      	CPC  R31,R26
001d22 f419      	BRNE _0x137
                 ; 0000 0250     bmp_disp(GSM2,0,0,20,1);
001d23 efe0      	LDI  R30,LOW(_GSM2*2)
001d24 e2f9      	LDI  R31,HIGH(_GSM2*2)
001d25 c00d      	RJMP _0x1C9
                 ; 0000 0251     break;
                 ; 0000 0252     case 3:
                 _0x137:
001d26 30e3      	CPI  R30,LOW(0x3)
001d27 e0a0      	LDI  R26,HIGH(0x3)
001d28 07fa      	CPC  R31,R26
001d29 f419      	BRNE _0x138
                 ; 0000 0253     bmp_disp(GSM1,0,0,20,1);
001d2a efe0      	LDI  R30,LOW(_GSM1*2)
001d2b e2f5      	LDI  R31,HIGH(_GSM1*2)
001d2c c006      	RJMP _0x1C9
                 ; 0000 0254     break;
                 ; 0000 0255     case 4:
                 _0x138:
001d2d 30e4      	CPI  R30,LOW(0x4)
001d2e e0a0      	LDI  R26,HIGH(0x4)
001d2f 07fa      	CPC  R31,R26
001d30 f461      	BRNE _0x135
                 ; 0000 0256     bmp_disp(GSM4,0,0,20,1);
001d31 e5e0      	LDI  R30,LOW(_GSM4*2)
001d32 e2fc      	LDI  R31,HIGH(_GSM4*2)
                 _0x1C9:
001d33 93fa      	ST   -Y,R31
001d34 93ea      	ST   -Y,R30
001d35 940e 24b4 	CALL SUBOPT_0x2
001d37 940e 24b4 	CALL SUBOPT_0x2
001d39 e1e4      	LDI  R30,LOW(20)
001d3a e0f0      	LDI  R31,HIGH(20)
001d3b 940e 260e 	CALL SUBOPT_0x32
                 ; 0000 0257     break;
                 ; 0000 0258     };
                 _0x135:
                 ; 0000 0259 
                 ; 0000 025A }
001d3d 9508      	RET
                 ;//------------------------------------------------------------------------------------------------//
                 ;
                 ;
                 ;
                 ;/////////////////////////////////// FUNCION PARA OBTENER LA TRAMA DEL GPS SKYPATROLL+ //////////////////////////////////
                 ;void obt(void)
                 ; 0000 0261 {
                 _obt:
                 ; 0000 0262 
                 ; 0000 0263    int i,j,n=0,ini,coma=0,pos1=0,pos2=0,pos3=0,barras;
                 ; 0000 0264    int n1,n2,n3,n4; // Variables para Hora, sirven para -5 UTC de Ecuador
                 ; 0000 0265 
                 ; 0000 0266    char digito_hora_temp; //Variable temporal para la
                 ; 0000 0267 
                 ; 0000 0268    for (i=0; i<RX_BUFFER_SIZE0 ;i++)
001d3e 9765      	SBIW R28,21
001d3f e0e0      	LDI  R30,LOW(0)
001d40 87eb      	STD  Y+11,R30
001d41 87ec      	STD  Y+12,R30
001d42 87ed      	STD  Y+13,R30
001d43 87ee      	STD  Y+14,R30
001d44 87ef      	STD  Y+15,R30
001d45 8be8      	STD  Y+16,R30
001d46 8be9      	STD  Y+17,R30
001d47 8bea      	STD  Y+18,R30
001d48 940e 27b4 	CALL __SAVELOCR6
                 ;	i -> R16,R17
                 ;	j -> R18,R19
                 ;	n -> R20,R21
                 ;	ini -> Y+25
                 ;	coma -> Y+23
                 ;	pos1 -> Y+21
                 ;	pos2 -> Y+19
                 ;	pos3 -> Y+17
                 ;	barras -> Y+15
                 ;	n1 -> Y+13
                 ;	n2 -> Y+11
                 ;	n3 -> Y+9
                 ;	n4 -> Y+7
                 ;	digito_hora_temp -> Y+6
                +
001d4a e040     +LDI R20 , LOW ( 0 )
001d4b e050     +LDI R21 , HIGH ( 0 )
                 	__GETWRN 20,21,0
                +
001d4c e000     +LDI R16 , LOW ( 0 )
001d4d e010     +LDI R17 , HIGH ( 0 )
                 	__GETWRN 16,17,0
                 _0x13B:
                +
001d4e 3c08     +CPI R16 , LOW ( 200 )
001d4f e0e0     +LDI R30 , HIGH ( 200 )
001d50 071e     +CPC R17 , R30
                 	__CPWRN 16,17,200
001d51 f014      	BRLT PC+3
001d52 940c 2036 	JMP _0x13C
                 ; 0000 0269    {
                 ; 0000 026A 
                 ; 0000 026B       //+CSQ:
                 ; 0000 026C       if ( rx_b0[i+0]== '+' &&    //43d
                 ; 0000 026D             rx_b0[i+1]== 'C' &&     //67d
                 ; 0000 026E              rx_b0[i+2]== 'S' &&    //83d
                 ; 0000 026F               rx_b0[i+3]== 'Q' &&   //81d
                 ; 0000 0270                rx_b0[i+4]== ':')    //58d
001d54 940e 2616 	CALL SUBOPT_0x33
001d56 32ab      	CPI  R26,LOW(0x2B)
001d57 f491      	BRNE _0x13E
001d58 940e 261b 	CALL SUBOPT_0x34
001d5a 34a3      	CPI  R26,LOW(0x43)
001d5b f471      	BRNE _0x13E
001d5c 01f8      	MOVW R30,R16
                +
001d5d 5ae2     +SUBI R30 , LOW ( - _rx_b0 - ( 2 ) )
001d5e 4ffc     +SBCI R31 , HIGH ( - _rx_b0 - ( 2 ) )
                 	__ADDW1MN _rx_b0,2
001d5f 81a0      	LD   R26,Z
001d60 35a3      	CPI  R26,LOW(0x53)
001d61 f441      	BRNE _0x13E
001d62 940e 2620 	CALL SUBOPT_0x35
001d64 35a1      	CPI  R26,LOW(0x51)
001d65 f421      	BRNE _0x13E
001d66 940e 2625 	CALL SUBOPT_0x36
001d68 33aa      	CPI  R26,LOW(0x3A)
001d69 f009      	BREQ _0x13F
                 _0x13E:
001d6a c046      	RJMP _0x13D
                 _0x13F:
                 ; 0000 0271       {
                 ; 0000 0272         // Valor decimal de la intensidad de la seal
                 ; 0000 0273         barras = ((rx_b0[i+6]-48)*10)+(rx_b0[i+7]-48);
001d6b 01f8      	MOVW R30,R16
001d6c 940e 262a 	CALL SUBOPT_0x37
001d6e e0aa      	LDI  R26,LOW(10)
001d6f e0b0      	LDI  R27,HIGH(10)
001d70 940e 274a 	CALL __MULW12
001d72 01df      	MOVW R26,R30
001d73 01f8      	MOVW R30,R16
001d74 940e 2630 	CALL SUBOPT_0x38
001d76 0fea      	ADD  R30,R26
001d77 1ffb      	ADC  R31,R27
001d78 87ef      	STD  Y+15,R30
001d79 8bf8      	STD  Y+15+1,R31
                 ; 0000 0274 
                 ; 0000 0275         // Dibuja las barras en la panalla de acuerdo a la intensidad
                 ; 0000 0276         // de la seal
                 ; 0000 0277         if( barras > 10 && barras < 15 ){
001d7a 85af      	LDD  R26,Y+15
001d7b 89b8      	LDD  R27,Y+15+1
001d7c 971b      	SBIW R26,11
001d7d f024      	BRLT _0x141
001d7e 85af      	LDD  R26,Y+15
001d7f 89b8      	LDD  R27,Y+15+1
001d80 971f      	SBIW R26,15
001d81 f00c      	BRLT _0x142
                 _0x141:
001d82 c005      	RJMP _0x140
                 _0x142:
                 ; 0000 0278         ind_sen=1;
001d83 e0e1      	LDI  R30,LOW(1)
001d84 e0f0      	LDI  R31,HIGH(1)
001d85 940e 2636 	CALL SUBOPT_0x39
                 ; 0000 0279         }
                 ; 0000 027A 
                 ; 0000 027B         else if( barras >= 15 && barras < 18){
001d87 c029      	RJMP _0x143
                 _0x140:
001d88 85af      	LDD  R26,Y+15
001d89 89b8      	LDD  R27,Y+15+1
001d8a 971f      	SBIW R26,15
001d8b f024      	BRLT _0x145
001d8c 85af      	LDD  R26,Y+15
001d8d 89b8      	LDD  R27,Y+15+1
001d8e 9752      	SBIW R26,18
001d8f f00c      	BRLT _0x146
                 _0x145:
001d90 c005      	RJMP _0x144
                 _0x146:
                 ; 0000 027C         ind_sen=2;
001d91 e0e2      	LDI  R30,LOW(2)
001d92 e0f0      	LDI  R31,HIGH(2)
001d93 940e 2636 	CALL SUBOPT_0x39
                 ; 0000 027D         }
                 ; 0000 027E 
                 ; 0000 027F         else if( barras >= 18 && barras < 31){
001d95 c01b      	RJMP _0x147
                 _0x144:
001d96 85af      	LDD  R26,Y+15
001d97 89b8      	LDD  R27,Y+15+1
001d98 9752      	SBIW R26,18
001d99 f024      	BRLT _0x149
001d9a 85af      	LDD  R26,Y+15
001d9b 89b8      	LDD  R27,Y+15+1
001d9c 975f      	SBIW R26,31
001d9d f00c      	BRLT _0x14A
                 _0x149:
001d9e c005      	RJMP _0x148
                 _0x14A:
                 ; 0000 0280         ind_sen=3;
001d9f e0e3      	LDI  R30,LOW(3)
001da0 e0f0      	LDI  R31,HIGH(3)
001da1 940e 2636 	CALL SUBOPT_0x39
                 ; 0000 0281         }
                 ; 0000 0282 
                 ; 0000 0283         else if( barras > 31 && barras < 50){
001da3 c00d      	RJMP _0x14B
                 _0x148:
001da4 85af      	LDD  R26,Y+15
001da5 89b8      	LDD  R27,Y+15+1
001da6 9790      	SBIW R26,32
001da7 f024      	BRLT _0x14D
001da8 85af      	LDD  R26,Y+15
001da9 89b8      	LDD  R27,Y+15+1
001daa 97d2      	SBIW R26,50
001dab f00c      	BRLT _0x14E
                 _0x14D:
001dac c004      	RJMP _0x14C
                 _0x14E:
                 ; 0000 0284         ind_sen=4;
001dad e0e4      	LDI  R30,LOW(4)
001dae e0f0      	LDI  R31,HIGH(4)
001daf 940e 2636 	CALL SUBOPT_0x39
                 ; 0000 0285         }
                 ; 0000 0286 
                 ; 0000 0287         // En caso de que el valor en barras
                 ; 0000 0288         // no sea ninguno de los anteriores, es posible
                 ; 0000 0289         // que la trama recibida no sea valida.
                 ; 0000 028A         else{   }
                 _0x14C:
                 _0x14B:
                 _0x147:
                 _0x143:
                 ; 0000 028B 
                 ; 0000 028C       }
                 ; 0000 028D 
                 ; 0000 028E 
                 ; 0000 028F           //________________________
                 ; 0000 0290      //PARA PUNTO DE CONTROL:
                 ; 0000 0291       //por ahora detecto el encabezado "BUS" para tener de referencia en las posiciones del vector
                 ; 0000 0292       if ( rx_b0[i+0]== 'B' &&
                 _0x13D:
                 ; 0000 0293             rx_b0[i+1]== 'U' &&
                 ; 0000 0294              rx_b0[i+2]== 'S')
001db1 940e 2616 	CALL SUBOPT_0x33
001db3 34a2      	CPI  R26,LOW(0x42)
001db4 f441      	BRNE _0x151
001db5 940e 261b 	CALL SUBOPT_0x34
001db7 35a5      	CPI  R26,LOW(0x55)
001db8 f421      	BRNE _0x151
001db9 940e 263b 	CALL SUBOPT_0x3A
001dbb 35a3      	CPI  R26,LOW(0x53)
001dbc f009      	BREQ _0x152
                 _0x151:
001dbd c088      	RJMP _0x150
                 _0x152:
                 ; 0000 0295       {
                 ; 0000 0296         // Datos de punto de control, en cada posicin del vector guardo una letra, luego hay que procesar para obtener el numero correcto.
                 ; 0000 0297                                  //010A
                 ; 0000 0298          punto[0] = rx_b0[i+16]-48;  //   1
001dbe 01f8      	MOVW R30,R16
                +
001dbf 59e4     +SUBI R30 , LOW ( - _rx_b0 - ( 16 ) )
001dc0 4ffc     +SBCI R31 , HIGH ( - _rx_b0 - ( 16 ) )
                 	__ADDW1MN _rx_b0,16
001dc1 940e 2640 	CALL SUBOPT_0x3B
001dc3 93e0 0430 	STS  _punto,R30
                 ; 0000 0299          punto[1] = rx_b0[i+17]-48;  //   F
001dc5 01f8      	MOVW R30,R16
                +
001dc6 59e3     +SUBI R30 , LOW ( - _rx_b0 - ( 17 ) )
001dc7 4ffc     +SBCI R31 , HIGH ( - _rx_b0 - ( 17 ) )
                 	__ADDW1MN _rx_b0,17
001dc8 940e 2640 	CALL SUBOPT_0x3B
                +
001dca 93e0 0431+STS _punto + ( 1 ) , R30
                 	__PUTB1MN _punto,1
                 ; 0000 029A          punto[2] = rx_b0[i+18]-48;  //   0
001dcc 01f8      	MOVW R30,R16
                +
001dcd 59e2     +SUBI R30 , LOW ( - _rx_b0 - ( 18 ) )
001dce 4ffc     +SBCI R31 , HIGH ( - _rx_b0 - ( 18 ) )
                 	__ADDW1MN _rx_b0,18
001dcf 940e 2640 	CALL SUBOPT_0x3B
                +
001dd1 93e0 0432+STS _punto + ( 2 ) , R30
                 	__PUTB1MN _punto,2
                 ; 0000 029B          punto[3] = rx_b0[i+19]-48;  //   A
001dd3 01f8      	MOVW R30,R16
                +
001dd4 59e1     +SUBI R30 , LOW ( - _rx_b0 - ( 19 ) )
001dd5 4ffc     +SBCI R31 , HIGH ( - _rx_b0 - ( 19 ) )
                 	__ADDW1MN _rx_b0,19
001dd6 940e 2640 	CALL SUBOPT_0x3B
                +
001dd8 93e0 0433+STS _punto + ( 3 ) , R30
                 	__PUTB1MN _punto,3
                 ; 0000 029C 
                 ; 0000 029D          if(punto[3]==17){
                +
001dda 91a0 0433+LDS R26 , _punto + ( 3 )
                 	__GETB2MN _punto,3
001ddc 31a1      	CPI  R26,LOW(0x11)
001ddd f419      	BRNE _0x153
                 ; 0000 029E             punto[3]=10;
001dde e0ea      	LDI  R30,LOW(10)
                +
001ddf 93e0 0433+STS _punto + ( 3 ) , R30
                 	__PUTB1MN _punto,3
                 ; 0000 029F          }
                 ; 0000 02A0 
                 ; 0000 02A1          if(punto[0]>=17){
                 _0x153:
001de1 91a0 0430 	LDS  R26,_punto
001de3 31a1      	CPI  R26,LOW(0x11)
001de4 f030      	BRLO _0x154
                 ; 0000 02A2             punto[0]=punto[0]-7;
001de5 91e0 0430 	LDS  R30,_punto
001de7 e0f0      	LDI  R31,0
001de8 9737      	SBIW R30,7
001de9 93e0 0430 	STS  _punto,R30
                 ; 0000 02A3          }
                 ; 0000 02A4 
                 ; 0000 02A5          if(punto[1]>=17){
                 _0x154:
                +
001deb 91a0 0431+LDS R26 , _punto + ( 1 )
                 	__GETB2MN _punto,1
001ded 31a1      	CPI  R26,LOW(0x11)
001dee f030      	BRLO _0x155
                 ; 0000 02A6             punto[1]=punto[1]-7;
                +
001def 91e0 0431+LDS R30 , _punto + ( 1 )
                 	__GETB1MN _punto,1
001df1 e0f0      	LDI  R31,0
001df2 9737      	SBIW R30,7
                +
001df3 93e0 0431+STS _punto + ( 1 ) , R30
                 	__PUTB1MN _punto,1
                 ; 0000 02A7          }
                 ; 0000 02A8 
                 ; 0000 02A9          //El 18 es el numero de evento, lo identifico para determinar si es geocerca, si esta bien se pone en 1 la variable "pt"
                 ; 0000 02AA          if( rx_b0[i+22]=='1' &&  rx_b0[i+23]=='8'){
                 _0x155:
001df5 01f8      	MOVW R30,R16
                +
001df6 58ee     +SUBI R30 , LOW ( - _rx_b0 - ( 22 ) )
001df7 4ffc     +SBCI R31 , HIGH ( - _rx_b0 - ( 22 ) )
                 	__ADDW1MN _rx_b0,22
001df8 81a0      	LD   R26,Z
001df9 33a1      	CPI  R26,LOW(0x31)
001dfa f431      	BRNE _0x157
001dfb 01f8      	MOVW R30,R16
                +
001dfc 58ed     +SUBI R30 , LOW ( - _rx_b0 - ( 23 ) )
001dfd 4ffc     +SBCI R31 , HIGH ( - _rx_b0 - ( 23 ) )
                 	__ADDW1MN _rx_b0,23
001dfe 81a0      	LD   R26,Z
001dff 33a8      	CPI  R26,LOW(0x38)
001e00 f009      	BREQ _0x158
                 _0x157:
001e01 c044      	RJMP _0x156
                 _0x158:
                 ; 0000 02AB 
                 ; 0000 02AC             pt = 1;
001e02 e0e1      	LDI  R30,LOW(1)
001e03 93e0 0434 	STS  _pt,R30
                 ; 0000 02AD 
                 ; 0000 02AE             unidades_ruta= (punto[2]*10) + punto[3];
                +
001e05 91a0 0432+LDS R26 , _punto + ( 2 )
                 	__GETB2MN _punto,2
001e07 e0ea      	LDI  R30,LOW(10)
001e08 02ea      	MULS R30,R26
001e09 01f0      	MOVW R30,R0
001e0a 01df      	MOVW R26,R30
                +
001e0b 91e0 0433+LDS R30 , _punto + ( 3 )
                 	__GETB1MN _punto,3
001e0d e0f0      	LDI  R31,0
001e0e 0fea      	ADD  R30,R26
001e0f 1ffb      	ADC  R31,R27
001e10 93e0 0439 	STS  _unidades_ruta,R30
001e12 93f0 043a 	STS  _unidades_ruta+1,R31
                 ; 0000 02AF             decenas_ruta = (((punto[0]*16)-1)+ punto[1])*10;
001e14 91a0 0430 	LDS  R26,_punto
001e16 e1e0      	LDI  R30,LOW(16)
001e17 02ea      	MULS R30,R26
001e18 01f0      	MOVW R30,R0
001e19 9731      	SBIW R30,1
001e1a 01df      	MOVW R26,R30
                +
001e1b 91e0 0431+LDS R30 , _punto + ( 1 )
                 	__GETB1MN _punto,1
001e1d e0f0      	LDI  R31,0
001e1e 0fae      	ADD  R26,R30
001e1f 1fbf      	ADC  R27,R31
001e20 e0ea      	LDI  R30,LOW(10)
001e21 e0f0      	LDI  R31,HIGH(10)
001e22 940e 274a 	CALL __MULW12
001e24 93e0 043b 	STS  _decenas_ruta,R30
001e26 93f0 043c 	STS  _decenas_ruta+1,R31
                 ; 0000 02B0             centenas_ruta=     unidades_ruta  +decenas_ruta;
001e28 91a0 0439 	LDS  R26,_unidades_ruta
001e2a 91b0 043a 	LDS  R27,_unidades_ruta+1
001e2c 0fea      	ADD  R30,R26
001e2d 1ffb      	ADC  R31,R27
001e2e 93e0 043d 	STS  _centenas_ruta,R30
001e30 93f0 043e 	STS  _centenas_ruta+1,R31
                 ; 0000 02B1 
                 ; 0000 02B2             sprintf(no_pt,"P%d", centenas_ruta);
001e32 e3e5      	LDI  R30,LOW(_no_pt)
001e33 e0f4      	LDI  R31,HIGH(_no_pt)
001e34 93fa      	ST   -Y,R31
001e35 93ea      	ST   -Y,R30
                +
001e36 e2ef     +LDI R30 , LOW ( 2 * _0x0 + ( 201 ) )
001e37 e2fe     +LDI R31 , HIGH ( 2 * _0x0 + ( 201 ) )
                 	__POINTW1FN _0x0,201
001e38 93fa      	ST   -Y,R31
001e39 93ea      	ST   -Y,R30
001e3a 91e0 043d 	LDS  R30,_centenas_ruta
001e3c 91f0 043e 	LDS  R31,_centenas_ruta+1
001e3e 940e 273d 	CALL __CWD1
001e40 940e 278b 	CALL __PUTPARD1
001e42 e084      	LDI  R24,4
001e43 940e 2446 	CALL _sprintf
001e45 9628      	ADIW R28,8
                 ; 0000 02B3          }
                 ; 0000 02B4 
                 ; 0000 02B5       }
                 _0x156:
                 ; 0000 02B6 
                 ; 0000 02B7 
                 ; 0000 02B8       //NETIP
                 ; 0000 02B9       if ( rx_b0[i+0]== 'N' &&
                 _0x150:
                 ; 0000 02BA             rx_b0[i+1]== 'E' &&
                 ; 0000 02BB              rx_b0[i+2]== 'T' &&
                 ; 0000 02BC               rx_b0[i+3]== 'I' &&
                 ; 0000 02BD                rx_b0[i+4]== 'P')
001e46 940e 2616 	CALL SUBOPT_0x33
001e48 34ae      	CPI  R26,LOW(0x4E)
001e49 f481      	BRNE _0x15A
001e4a 940e 261b 	CALL SUBOPT_0x34
001e4c 34a5      	CPI  R26,LOW(0x45)
001e4d f461      	BRNE _0x15A
001e4e 940e 263b 	CALL SUBOPT_0x3A
001e50 35a4      	CPI  R26,LOW(0x54)
001e51 f441      	BRNE _0x15A
001e52 940e 2620 	CALL SUBOPT_0x35
001e54 34a9      	CPI  R26,LOW(0x49)
001e55 f421      	BRNE _0x15A
001e56 940e 2625 	CALL SUBOPT_0x36
001e58 35a0      	CPI  R26,LOW(0x50)
001e59 f009      	BREQ _0x15B
                 _0x15A:
001e5a c049      	RJMP _0x159
                 _0x15B:
                 ; 0000 02BE       {
                 ; 0000 02BF          ini = i + 4;
001e5b 940e 2644 	CALL SUBOPT_0x3C
                 ; 0000 02C0 
                 ; 0000 02C1          for (n=0; n<201; n++)
                +
001e5d e040     +LDI R20 , LOW ( 0 )
001e5e e050     +LDI R21 , HIGH ( 0 )
                 	__GETWRN 20,21,0
                 _0x15D:
                +
001e5f 3c49     +CPI R20 , LOW ( 201 )
001e60 e0e0     +LDI R30 , HIGH ( 201 )
001e61 075e     +CPC R21 , R30
                 	__CPWRN 20,21,201
001e62 f45c      	BRGE _0x15E
                 ; 0000 02C2          {
                 ; 0000 02C3             // Busca el caracter ':'
                 ; 0000 02C4             if(rx_b0[ ini + n + 1 ] == ':' )
001e63 940e 2649 	CALL SUBOPT_0x3D
001e65 f429      	BRNE _0x15F
                 ; 0000 02C5             {
                 ; 0000 02C6                coma++;
001e66 940e 2653 	CALL SUBOPT_0x3E
                 ; 0000 02C7                if(coma == 1) pos1 = n + ini + 1; // Guarda la posicion de la primera trama
001e68 f411      	BRNE _0x160
001e69 940e 265c 	CALL SUBOPT_0x3F
                 ; 0000 02C8             }
                 _0x160:
                 ; 0000 02C9          }
                 _0x15F:
                +
001e6b 5f4f     +SUBI R20 , LOW ( - 1 )
001e6c 4f5f     +SBCI R21 , HIGH ( - 1 )
                 	__ADDWRN 20,21,1
001e6d cff1      	RJMP _0x15D
                 _0x15E:
                 ; 0000 02CA 
                 ; 0000 02CB          // Verifica si despues del primer ':' Hay comillas
                 ; 0000 02CC          if( rx_b0[ pos1 + 2] == 34 )
001e6e 89ed      	LDD  R30,Y+21
001e6f 89fe      	LDD  R31,Y+21+1
                +
001e70 5ae2     +SUBI R30 , LOW ( - _rx_b0 - ( 2 ) )
001e71 4ffc     +SBCI R31 , HIGH ( - _rx_b0 - ( 2 ) )
                 	__ADDW1MN _rx_b0,2
001e72 81a0      	LD   R26,Z
001e73 32a2      	CPI  R26,LOW(0x22)
001e74 f579      	BRNE _0x161
                 ; 0000 02CD          {
                 ; 0000 02CE             if( (rx_b0[pos1+3] - 48) == 0 &&
                 ; 0000 02CF                 (rx_b0[pos1+4] - 48) == 0 &&
                 ; 0000 02D0                 (rx_b0[pos1+5] - 48) == 0 &&
                 ; 0000 02D1                 (rx_b0[pos1+7] - 48) == 0 &&
                 ; 0000 02D2                 (rx_b0[pos1+8] - 48) == 0 &&
                 ; 0000 02D3                 (rx_b0[pos1+9] - 48) == 0)
001e75 940e 2664 	CALL SUBOPT_0x40
001e77 940e 2640 	CALL SUBOPT_0x3B
001e79 f4e9      	BRNE _0x163
001e7a 940e 2669 	CALL SUBOPT_0x41
001e7c 940e 2640 	CALL SUBOPT_0x3B
001e7e f4c1      	BRNE _0x163
001e7f 940e 266e 	CALL SUBOPT_0x42
001e81 940e 2640 	CALL SUBOPT_0x3B
001e83 f499      	BRNE _0x163
001e84 89ed      	LDD  R30,Y+21
001e85 89fe      	LDD  R31,Y+21+1
001e86 940e 2630 	CALL SUBOPT_0x38
001e88 f471      	BRNE _0x163
001e89 89ed      	LDD  R30,Y+21
001e8a 89fe      	LDD  R31,Y+21+1
                +
001e8b 59ec     +SUBI R30 , LOW ( - _rx_b0 - ( 8 ) )
001e8c 4ffc     +SBCI R31 , HIGH ( - _rx_b0 - ( 8 ) )
                 	__ADDW1MN _rx_b0,8
001e8d 940e 2640 	CALL SUBOPT_0x3B
001e8f f439      	BRNE _0x163
001e90 89ed      	LDD  R30,Y+21
001e91 89fe      	LDD  R31,Y+21+1
                +
001e92 59eb     +SUBI R30 , LOW ( - _rx_b0 - ( 9 ) )
001e93 4ffc     +SBCI R31 , HIGH ( - _rx_b0 - ( 9 ) )
                 	__ADDW1MN _rx_b0,9
001e94 940e 2640 	CALL SUBOPT_0x3B
001e96 f009      	BREQ _0x164
                 _0x163:
001e97 c006      	RJMP _0x162
                 _0x164:
                 ; 0000 02D4             {
                 ; 0000 02D5                gsm=0;   // Sin seal GSM
001e98 e0e0      	LDI  R30,LOW(0)
001e99 93e0 0451 	STS  _gsm,R30
001e9b 93e0 0452 	STS  _gsm+1,R30
                 ; 0000 02D6 
                 ; 0000 02D7             }else
001e9d c006      	RJMP _0x165
                 _0x162:
                 ; 0000 02D8                gsm=1;
001e9e e0e1      	LDI  R30,LOW(1)
001e9f e0f0      	LDI  R31,HIGH(1)
001ea0 93e0 0451 	STS  _gsm,R30
001ea2 93f0 0452 	STS  _gsm+1,R31
                 ; 0000 02D9          }
                 _0x165:
                 ; 0000 02DA       }
                 _0x161:
                 ; 0000 02DB 
                 ; 0000 02DC       //DEVID
                 ; 0000 02DD       if ( rx_b0[i+0] == 'D' &&
                 _0x159:
                 ; 0000 02DE             rx_b0[i+1] == 'E' &&
                 ; 0000 02DF              rx_b0[i+2] == 'V' &&
                 ; 0000 02E0               rx_b0[i+3] == 'I' &&
                 ; 0000 02E1                rx_b0[i+4] == 'D')
001ea4 940e 2616 	CALL SUBOPT_0x33
001ea6 34a4      	CPI  R26,LOW(0x44)
001ea7 f481      	BRNE _0x167
001ea8 940e 261b 	CALL SUBOPT_0x34
001eaa 34a5      	CPI  R26,LOW(0x45)
001eab f461      	BRNE _0x167
001eac 940e 263b 	CALL SUBOPT_0x3A
001eae 35a6      	CPI  R26,LOW(0x56)
001eaf f441      	BRNE _0x167
001eb0 940e 2620 	CALL SUBOPT_0x35
001eb2 34a9      	CPI  R26,LOW(0x49)
001eb3 f421      	BRNE _0x167
001eb4 940e 2625 	CALL SUBOPT_0x36
001eb6 34a4      	CPI  R26,LOW(0x44)
001eb7 f009      	BREQ _0x168
                 _0x167:
001eb8 c041      	RJMP _0x166
                 _0x168:
                 ; 0000 02E2       {
                 ; 0000 02E3          ini = i+4;
001eb9 940e 2644 	CALL SUBOPT_0x3C
                 ; 0000 02E4 
                 ; 0000 02E5          // Limpia las lineas 2,3,4,5
                 ; 0000 02E6          glcd_clrln(2);
001ebb 940e 2673 	CALL SUBOPT_0x43
                 ; 0000 02E7          glcd_clrln(3);
                 ; 0000 02E8          glcd_clrln(4);
                 ; 0000 02E9          glcd_clrln(5);
                 ; 0000 02EA 
                 ; 0000 02EB          for (n=0;n<201;n++)
                +
001ebd e040     +LDI R20 , LOW ( 0 )
001ebe e050     +LDI R21 , HIGH ( 0 )
                 	__GETWRN 20,21,0
                 _0x16A:
                +
001ebf 3c49     +CPI R20 , LOW ( 201 )
001ec0 e0e0     +LDI R30 , HIGH ( 201 )
001ec1 075e     +CPC R21 , R30
                 	__CPWRN 20,21,201
001ec2 f45c      	BRGE _0x16B
                 ; 0000 02EC          {
                 ; 0000 02ED             if( rx_b0[ini+n+1] == ':')
001ec3 940e 2649 	CALL SUBOPT_0x3D
001ec5 f429      	BRNE _0x16C
                 ; 0000 02EE             {
                 ; 0000 02EF                coma++;
001ec6 940e 2653 	CALL SUBOPT_0x3E
                 ; 0000 02F0                if(coma==1) pos1 = n+ini+1;
001ec8 f411      	BRNE _0x16D
001ec9 940e 265c 	CALL SUBOPT_0x3F
                 ; 0000 02F1             }
                 _0x16D:
                 ; 0000 02F2          }
                 _0x16C:
                +
001ecb 5f4f     +SUBI R20 , LOW ( - 1 )
001ecc 4f5f     +SBCI R21 , HIGH ( - 1 )
                 	__ADDWRN 20,21,1
001ecd cff1      	RJMP _0x16A
                 _0x16B:
                 ; 0000 02F3 
                 ; 0000 02F4          //Comprobar nombre
                 ; 0000 02F5          if(rx_b0[pos1+1]==34)
001ece 940e 2683 	CALL SUBOPT_0x44
001ed0 81a0      	LD   R26,Z
001ed1 32a2      	CPI  R26,LOW(0x22)
001ed2 f539      	BRNE _0x16E
                 ; 0000 02F6          {
                 ; 0000 02F7             if( rx_b0[pos1+2] == NUM_DISP[0] &&
                 ; 0000 02F8                 rx_b0[pos1+3] == NUM_DISP[1] &&
                 ; 0000 02F9                 rx_b0[pos1+4] == NUM_DISP[2] &&
                 ; 0000 02FA                 rx_b0[pos1+5] == NUM_DISP[3] )
001ed3 89ed      	LDD  R30,Y+21
001ed4 89fe      	LDD  R31,Y+21+1
                +
001ed5 5ae2     +SUBI R30 , LOW ( - _rx_b0 - ( 2 ) )
001ed6 4ffc     +SBCI R31 , HIGH ( - _rx_b0 - ( 2 ) )
                 	__ADDW1MN _rx_b0,2
001ed7 81a0      	LD   R26,Z
001ed8 91e0 0429 	LDS  R30,_NUM_DISP
001eda 17ea      	CP   R30,R26
001edb f4a9      	BRNE _0x170
001edc 940e 2664 	CALL SUBOPT_0x40
001ede 81a0      	LD   R26,Z
                +
001edf 91e0 042a+LDS R30 , _NUM_DISP + ( 1 )
                 	__GETB1MN _NUM_DISP,1
001ee1 17ea      	CP   R30,R26
001ee2 f471      	BRNE _0x170
001ee3 940e 2669 	CALL SUBOPT_0x41
001ee5 81a0      	LD   R26,Z
                +
001ee6 91e0 042b+LDS R30 , _NUM_DISP + ( 2 )
                 	__GETB1MN _NUM_DISP,2
001ee8 17ea      	CP   R30,R26
001ee9 f439      	BRNE _0x170
001eea 940e 266e 	CALL SUBOPT_0x42
001eec 81a0      	LD   R26,Z
                +
001eed 91e0 042c+LDS R30 , _NUM_DISP + ( 3 )
                 	__GETB1MN _NUM_DISP,3
001eef 17ea      	CP   R30,R26
001ef0 f009      	BREQ _0x171
                 _0x170:
001ef1 c003      	RJMP _0x16F
                 _0x171:
                 ; 0000 02FB             {
                 ; 0000 02FC 
                 ; 0000 02FD             act=1;  // PANTALLA Y EQUIPO CORRECTA !!!
001ef2 940e 2688 	CALL SUBOPT_0x45
                 ; 0000 02FE 
                 ; 0000 02FF             }
                 ; 0000 0300             else {
001ef4 c005      	RJMP _0x172
                 _0x16F:
                 ; 0000 0301 
                 ; 0000 0302             act=0;  // PANTALLA INCORRECTA !!!
001ef5 e0e0      	LDI  R30,LOW(0)
001ef6 93e0 0441 	STS  _act_G000,R30
001ef8 93e0 0442 	STS  _act_G000+1,R30
                 ; 0000 0303             }
                 _0x172:
                 ; 0000 0304 
                 ; 0000 0305          }
                 ; 0000 0306       }
                 _0x16E:
                 ; 0000 0307 
                 ; 0000 0308       //Encabezado: GPRMC para igualar el reloj desde trama GPS
                 ; 0000 0309       if ( rx_b0[i+0] == 'G' &&
                 _0x166:
                 ; 0000 030A             rx_b0[i+1] == 'P' &&
                 ; 0000 030B              rx_b0[i+2] == 'R' &&
                 ; 0000 030C               rx_b0[i+3] == 'M' &&
                 ; 0000 030D                rx_b0[i+4] == 'C')
001efa 940e 2616 	CALL SUBOPT_0x33
001efc 34a7      	CPI  R26,LOW(0x47)
001efd f481      	BRNE _0x174
001efe 940e 261b 	CALL SUBOPT_0x34
001f00 35a0      	CPI  R26,LOW(0x50)
001f01 f461      	BRNE _0x174
001f02 940e 263b 	CALL SUBOPT_0x3A
001f04 35a2      	CPI  R26,LOW(0x52)
001f05 f441      	BRNE _0x174
001f06 940e 2620 	CALL SUBOPT_0x35
001f08 34ad      	CPI  R26,LOW(0x4D)
001f09 f421      	BRNE _0x174
001f0a 940e 2625 	CALL SUBOPT_0x36
001f0c 34a3      	CPI  R26,LOW(0x43)
001f0d f009      	BREQ _0x175
                 _0x174:
001f0e c124      	RJMP _0x173
                 _0x175:
                 ; 0000 030E       {
                 ; 0000 030F 
                 ; 0000 0310          ini=i+4;
001f0f 940e 2644 	CALL SUBOPT_0x3C
                 ; 0000 0311          for (n=0;n<201;n++)
                +
001f11 e040     +LDI R20 , LOW ( 0 )
001f12 e050     +LDI R21 , HIGH ( 0 )
                 	__GETWRN 20,21,0
                 _0x177:
                +
001f13 3c49     +CPI R20 , LOW ( 201 )
001f14 e0e0     +LDI R30 , HIGH ( 201 )
001f15 075e     +CPC R21 , R30
                 	__CPWRN 20,21,201
001f16 f544      	BRGE _0x178
                 ; 0000 0312          {
                 ; 0000 0313             if(rx_b0[ini+n+1]==44)
001f17 01fa      	MOVW R30,R20
001f18 8da9      	LDD  R26,Y+25
001f19 8dba      	LDD  R27,Y+25+1
001f1a 0fea      	ADD  R30,R26
001f1b 1ffb      	ADC  R31,R27
                +
001f1c 5ae3     +SUBI R30 , LOW ( - _rx_b0 - ( 1 ) )
001f1d 4ffc     +SBCI R31 , HIGH ( - _rx_b0 - ( 1 ) )
                 	__ADDW1MN _rx_b0,1
001f1e 81a0      	LD   R26,Z
001f1f 32ac      	CPI  R26,LOW(0x2C)
001f20 f4d9      	BRNE _0x179
                 ; 0000 0314             {
                 ; 0000 0315                coma++;
001f21 940e 2653 	CALL SUBOPT_0x3E
                 ; 0000 0316                if(coma==1) pos1=n+ini+1;
001f23 f411      	BRNE _0x17A
001f24 940e 265c 	CALL SUBOPT_0x3F
                 ; 0000 0317                if(coma==2) pos2=n+ini+1;
                 _0x17A:
001f26 89af      	LDD  R26,Y+23
001f27 8db8      	LDD  R27,Y+23+1
001f28 9712      	SBIW R26,2
001f29 f439      	BRNE _0x17B
001f2a 8de9      	LDD  R30,Y+25
001f2b 8dfa      	LDD  R31,Y+25+1
001f2c 0fe4      	ADD  R30,R20
001f2d 1ff5      	ADC  R31,R21
001f2e 9631      	ADIW R30,1
001f2f 8beb      	STD  Y+19,R30
001f30 8bfc      	STD  Y+19+1,R31
                 ; 0000 0318                if(coma==9) pos3=n+ini+1;
                 _0x17B:
001f31 89af      	LDD  R26,Y+23
001f32 8db8      	LDD  R27,Y+23+1
001f33 9719      	SBIW R26,9
001f34 f439      	BRNE _0x17C
001f35 8de9      	LDD  R30,Y+25
001f36 8dfa      	LDD  R31,Y+25+1
001f37 0fe4      	ADD  R30,R20
001f38 1ff5      	ADC  R31,R21
001f39 9631      	ADIW R30,1
001f3a 8be9      	STD  Y+17,R30
001f3b 8bfa      	STD  Y+17+1,R31
                 ; 0000 0319             }
                 _0x17C:
                 ; 0000 031A          }
                 _0x179:
                +
001f3c 5f4f     +SUBI R20 , LOW ( - 1 )
001f3d 4f5f     +SBCI R21 , HIGH ( - 1 )
                 	__ADDWRN 20,21,1
001f3e cfd4      	RJMP _0x177
                 _0x178:
                 ; 0000 031B 
                 ; 0000 031C          glcd_clrln(3);
001f3f e0e3      	LDI  R30,LOW(3)
001f40 93ea      	ST   -Y,R30
001f41 d8c2      	RCALL _glcd_clrln
                 ; 0000 031D          glcd_clrln(4);
001f42 e0e4      	LDI  R30,LOW(4)
001f43 93ea      	ST   -Y,R30
001f44 d8bf      	RCALL _glcd_clrln
                 ; 0000 031E          glcd_clrln(5);
001f45 e0e5      	LDI  R30,LOW(5)
001f46 93ea      	ST   -Y,R30
001f47 d8bc      	RCALL _glcd_clrln
                 ; 0000 031F 
                 ; 0000 0320 
                 ; 0000 0321          // Comprueba que las comas no esten seguidas
                 ; 0000 0322          // en caso de no haber senial gps.
                 ; 0000 0323          if( (rx_b0[ pos1+1 ]-48)>= 0 &&
                 ; 0000 0324              (rx_b0[ pos1+1 ]-48)< 10 &&
                 ; 0000 0325               pos2 != (pos1 +1)
                 ; 0000 0326            )
001f48 940e 2683 	CALL SUBOPT_0x44
001f4a 940e 2640 	CALL SUBOPT_0x3B
001f4c 23ff      	TST  R31
001f4d f052      	BRMI _0x17E
001f4e 973a      	SBIW R30,10
001f4f f444      	BRGE _0x17E
001f50 89ed      	LDD  R30,Y+21
001f51 89fe      	LDD  R31,Y+21+1
001f52 9631      	ADIW R30,1
001f53 89ab      	LDD  R26,Y+19
001f54 89bc      	LDD  R27,Y+19+1
001f55 17ea      	CP   R30,R26
001f56 07fb      	CPC  R31,R27
001f57 f409      	BRNE _0x17F
                 _0x17E:
001f58 c081      	RJMP _0x17D
                 _0x17F:
                 ; 0000 0327          {
                 ; 0000 0328 
                 ; 0000 0329             digito_hora_temp = rx_b0[pos1 + 6 ] - 48;
001f59 89ed      	LDD  R30,Y+21
001f5a 89fe      	LDD  R31,Y+21+1
001f5b 940e 262a 	CALL SUBOPT_0x37
001f5d 83ee      	STD  Y+6,R30
                 ; 0000 032A             if ( digito_hora_temp >= 0 && digito_hora_temp <= 9)
001f5e 81ae      	LDD  R26,Y+6
001f5f 30a0      	CPI  R26,0
001f60 f010      	BRLO _0x181
001f61 30aa      	CPI  R26,LOW(0xA)
001f62 f008      	BRLO _0x182
                 _0x181:
001f63 c005      	RJMP _0x180
                 _0x182:
                 ; 0000 032B                seg = digito_hora_temp;
001f64 81ee      	LDD  R30,Y+6
001f65 e8a0      	LDI  R26,LOW(_seg)
001f66 e0b0      	LDI  R27,HIGH(_seg)
001f67 940e 27a3 	CALL __EEPROMWRB
                 ; 0000 032C 
                 ; 0000 032D             digito_hora_temp = rx_b0[pos1 + 5 ] - 48;
                 _0x180:
001f69 940e 266e 	CALL SUBOPT_0x42
001f6b 940e 2640 	CALL SUBOPT_0x3B
001f6d 83ee      	STD  Y+6,R30
                 ; 0000 032E             if ( digito_hora_temp >= 0 && digito_hora_temp <= 9)
001f6e 81ae      	LDD  R26,Y+6
001f6f 30a0      	CPI  R26,0
001f70 f010      	BRLO _0x184
001f71 30aa      	CPI  R26,LOW(0xA)
001f72 f008      	BRLO _0x185
                 _0x184:
001f73 c005      	RJMP _0x183
                 _0x185:
                 ; 0000 032F                seg1 = digito_hora_temp;
001f74 81ee      	LDD  R30,Y+6
001f75 e8a2      	LDI  R26,LOW(_seg1)
001f76 e0b0      	LDI  R27,HIGH(_seg1)
001f77 940e 27a3 	CALL __EEPROMWRB
                 ; 0000 0330 
                 ; 0000 0331             digito_hora_temp = rx_b0[pos1 + 4 ] - 48;
                 _0x183:
001f79 940e 2669 	CALL SUBOPT_0x41
001f7b 940e 2640 	CALL SUBOPT_0x3B
001f7d 83ee      	STD  Y+6,R30
                 ; 0000 0332             if ( digito_hora_temp >= 0 && digito_hora_temp <= 9)
001f7e 81ae      	LDD  R26,Y+6
001f7f 30a0      	CPI  R26,0
001f80 f010      	BRLO _0x187
001f81 30aa      	CPI  R26,LOW(0xA)
001f82 f008      	BRLO _0x188
                 _0x187:
001f83 c005      	RJMP _0x186
                 _0x188:
                 ; 0000 0333                minu = digito_hora_temp;
001f84 81ee      	LDD  R30,Y+6
001f85 e8a4      	LDI  R26,LOW(_minu)
001f86 e0b0      	LDI  R27,HIGH(_minu)
001f87 940e 27a3 	CALL __EEPROMWRB
                 ; 0000 0334 
                 ; 0000 0335             digito_hora_temp = rx_b0[pos1 + 3 ] - 48;
                 _0x186:
001f89 940e 2664 	CALL SUBOPT_0x40
001f8b 940e 2640 	CALL SUBOPT_0x3B
001f8d 83ee      	STD  Y+6,R30
                 ; 0000 0336             if ( digito_hora_temp >= 0 && digito_hora_temp <= 9)
001f8e 81ae      	LDD  R26,Y+6
001f8f 30a0      	CPI  R26,0
001f90 f010      	BRLO _0x18A
001f91 30aa      	CPI  R26,LOW(0xA)
001f92 f008      	BRLO _0x18B
                 _0x18A:
001f93 c005      	RJMP _0x189
                 _0x18B:
                 ; 0000 0337                min1  = digito_hora_temp;
001f94 81ee      	LDD  R30,Y+6
001f95 e8a6      	LDI  R26,LOW(_min1)
001f96 e0b0      	LDI  R27,HIGH(_min1)
001f97 940e 27a3 	CALL __EEPROMWRB
                 ; 0000 0338 
                 ; 0000 0339             digito_hora_temp = rx_b0[pos1 + 2 ] - 48;
                 _0x189:
001f99 89ed      	LDD  R30,Y+21
001f9a 89fe      	LDD  R31,Y+21+1
                +
001f9b 5ae2     +SUBI R30 , LOW ( - _rx_b0 - ( 2 ) )
001f9c 4ffc     +SBCI R31 , HIGH ( - _rx_b0 - ( 2 ) )
                 	__ADDW1MN _rx_b0,2
001f9d 940e 2640 	CALL SUBOPT_0x3B
001f9f 83ee      	STD  Y+6,R30
                 ; 0000 033A             if ( digito_hora_temp >= 0 && digito_hora_temp <= 9)
001fa0 81ae      	LDD  R26,Y+6
001fa1 30a0      	CPI  R26,0
001fa2 f010      	BRLO _0x18D
001fa3 30aa      	CPI  R26,LOW(0xA)
001fa4 f008      	BRLO _0x18E
                 _0x18D:
001fa5 c004      	RJMP _0x18C
                 _0x18E:
                 ; 0000 033B                n2 = digito_hora_temp;
001fa6 940e 24d6 	CALL SUBOPT_0x8
001fa8 87eb      	STD  Y+11,R30
001fa9 87fc      	STD  Y+11+1,R31
                 ; 0000 033C 
                 ; 0000 033D             digito_hora_temp = rx_b0[pos1 + 1 ] - 48;
                 _0x18C:
001faa 940e 2683 	CALL SUBOPT_0x44
001fac 940e 2640 	CALL SUBOPT_0x3B
001fae 83ee      	STD  Y+6,R30
                 ; 0000 033E             if ( digito_hora_temp >= 0 && digito_hora_temp <= 9)
001faf 81ae      	LDD  R26,Y+6
001fb0 30a0      	CPI  R26,0
001fb1 f010      	BRLO _0x190
001fb2 30aa      	CPI  R26,LOW(0xA)
001fb3 f008      	BRLO _0x191
                 _0x190:
001fb4 c004      	RJMP _0x18F
                 _0x191:
                 ; 0000 033F                n1  = digito_hora_temp;
001fb5 940e 24d6 	CALL SUBOPT_0x8
001fb7 87ed      	STD  Y+13,R30
001fb8 87fe      	STD  Y+13+1,R31
                 ; 0000 0340 
                 ; 0000 0341 
                 ; 0000 0342             n3 = ( n1*10 ) + n2;   // Hora total suma unidades y decenas
                 _0x18F:
001fb9 85ed      	LDD  R30,Y+13
001fba 85fe      	LDD  R31,Y+13+1
001fbb e0aa      	LDI  R26,LOW(10)
001fbc e0b0      	LDI  R27,HIGH(10)
001fbd 940e 274a 	CALL __MULW12
001fbf 85ab      	LDD  R26,Y+11
001fc0 85bc      	LDD  R27,Y+11+1
001fc1 0fea      	ADD  R30,R26
001fc2 1ffb      	ADC  R31,R27
001fc3 87e9      	STD  Y+9,R30
001fc4 87fa      	STD  Y+9+1,R31
                 ; 0000 0343             n4 = n3 - 5;  // Zona horaria
001fc5 9735      	SBIW R30,5
001fc6 83ef      	STD  Y+7,R30
001fc7 87f8      	STD  Y+7+1,R31
                 ; 0000 0344 
                 ; 0000 0345             if( n4 < 0 )
001fc8 85a8      	LDD  R26,Y+8
001fc9 23aa      	TST  R26
001fca f44a      	BRPL _0x192
                 ; 0000 0346             {
                 ; 0000 0347                n4    = n4 + 24;
001fcb 9678      	ADIW R30,24
001fcc 83ef      	STD  Y+7,R30
001fcd 87f8      	STD  Y+7+1,R31
                 ; 0000 0348                hora  = n4 % 10;
001fce 940e 268f 	CALL SUBOPT_0x46
001fd0 940e 2694 	CALL SUBOPT_0x47
                 ; 0000 0349                hora1 = n4 / 10;
001fd2 940e 269b 	CALL SUBOPT_0x48
                 ; 0000 034A             }
                 ; 0000 034B 
                 ; 0000 034C             hora = n4 % 10;
                 _0x192:
001fd4 940e 268f 	CALL SUBOPT_0x46
001fd6 940e 2694 	CALL SUBOPT_0x47
                 ; 0000 034D             hora1= n4 / 10;
001fd8 940e 269b 	CALL SUBOPT_0x48
                 ; 0000 034E 
                 ; 0000 034F          }
                 ; 0000 0350 
                 ; 0000 0351          // Comprueva la conexin de GPS
                 ; 0000 0352          gps = rx_b0 [ pos2 + 1 ];
                 _0x17D:
001fda 89eb      	LDD  R30,Y+19
001fdb 89fc      	LDD  R31,Y+19+1
                +
001fdc 5ae3     +SUBI R30 , LOW ( - _rx_b0 - ( 1 ) )
001fdd 4ffc     +SBCI R31 , HIGH ( - _rx_b0 - ( 1 ) )
                 	__ADDW1MN _rx_b0,1
001fde 81e0      	LD   R30,Z
001fdf e0f0      	LDI  R31,0
001fe0 93e0 0453 	STS  _gps,R30
001fe2 93f0 0454 	STS  _gps+1,R31
                 ; 0000 0353          printf( "%c", gps);  //Herramienta de DEBUG
                +
001fe4 e3e3     +LDI R30 , LOW ( 2 * _0x0 + ( 205 ) )
001fe5 e2fe     +LDI R31 , HIGH ( 2 * _0x0 + ( 205 ) )
                 	__POINTW1FN _0x0,205
001fe6 93fa      	ST   -Y,R31
001fe7 93ea      	ST   -Y,R30
001fe8 91e0 0453 	LDS  R30,_gps
001fea 91f0 0454 	LDS  R31,_gps+1
001fec 940e 273d 	CALL __CWD1
001fee 940e 278b 	CALL __PUTPARD1
001ff0 e084      	LDI  R24,4
001ff1 940e 2476 	CALL _printf
001ff3 9626      	ADIW R28,6
                 ; 0000 0354 
                 ; 0000 0355          //Obtener Hora y dia
                 ; 0000 0356          if( (rx_b0[pos3+1]-48) >= 0 &&
                 ; 0000 0357              (rx_b0[pos3+1]-48) < 10 )
001ff4 940e 26a2 	CALL SUBOPT_0x49
001ff6 23ff      	TST  R31
001ff7 f012      	BRMI _0x194
001ff8 973a      	SBIW R30,10
001ff9 f00c      	BRLT _0x195
                 _0x194:
001ffa c038      	RJMP _0x193
                 _0x195:
                 ; 0000 0358          {
                 ; 0000 0359 
                 ; 0000 035A             dia1 = rx_b0[pos3+1]-48;
001ffb 940e 26a2 	CALL SUBOPT_0x49
001ffd e8ae      	LDI  R26,LOW(_dia1)
001ffe e0b0      	LDI  R27,HIGH(_dia1)
001fff 940e 26a7 	CALL SUBOPT_0x4A
                 ; 0000 035B             dia  = rx_b0[pos3+2]-48;
                +
002001 5ae2     +SUBI R30 , LOW ( - _rx_b0 - ( 2 ) )
002002 4ffc     +SBCI R31 , HIGH ( - _rx_b0 - ( 2 ) )
                 	__ADDW1MN _rx_b0,2
002003 940e 2640 	CALL SUBOPT_0x3B
002005 e8ac      	LDI  R26,LOW(_dia)
002006 e0b0      	LDI  R27,HIGH(_dia)
002007 940e 26a7 	CALL SUBOPT_0x4A
                 ; 0000 035C             mes1 = rx_b0[pos3+3]-48;
                +
002009 5ae1     +SUBI R30 , LOW ( - _rx_b0 - ( 3 ) )
00200a 4ffc     +SBCI R31 , HIGH ( - _rx_b0 - ( 3 ) )
                 	__ADDW1MN _rx_b0,3
00200b 940e 2640 	CALL SUBOPT_0x3B
00200d e9a2      	LDI  R26,LOW(_mes1)
00200e e0b0      	LDI  R27,HIGH(_mes1)
00200f 940e 26a7 	CALL SUBOPT_0x4A
                 ; 0000 035D             mes  = rx_b0[pos3+4]-48;
                +
002011 5ae0     +SUBI R30 , LOW ( - _rx_b0 - ( 4 ) )
002012 4ffc     +SBCI R31 , HIGH ( - _rx_b0 - ( 4 ) )
                 	__ADDW1MN _rx_b0,4
002013 940e 2640 	CALL SUBOPT_0x3B
002015 e9a0      	LDI  R26,LOW(_mes)
002016 e0b0      	LDI  R27,HIGH(_mes)
002017 940e 26a7 	CALL SUBOPT_0x4A
                 ; 0000 035E             an1  = rx_b0[pos3+5]-48;
                +
002019 59ef     +SUBI R30 , LOW ( - _rx_b0 - ( 5 ) )
00201a 4ffc     +SBCI R31 , HIGH ( - _rx_b0 - ( 5 ) )
                 	__ADDW1MN _rx_b0,5
00201b 940e 2640 	CALL SUBOPT_0x3B
00201d e9a6      	LDI  R26,LOW(_an1)
00201e e0b0      	LDI  R27,HIGH(_an1)
00201f 940e 26a7 	CALL SUBOPT_0x4A
                 ; 0000 035F             an   = rx_b0[pos3+6]-48;
002021 940e 262a 	CALL SUBOPT_0x37
002023 e9a4      	LDI  R26,LOW(_an)
002024 e0b0      	LDI  R27,HIGH(_an)
002025 940e 27a3 	CALL __EEPROMWRB
                 ; 0000 0360 
                 ; 0000 0361             if( n4 > 18)
002027 81af      	LDD  R26,Y+7
002028 85b8      	LDD  R27,Y+7+1
002029 9753      	SBIW R26,19
00202a f044      	BRLT _0x196
                 ; 0000 0362                dia = dia-1;  // Por la zona horaria de EC-5GTM
00202b 940e 26ac 	CALL SUBOPT_0x4B
00202d e0f0      	LDI  R31,0
00202e 9731      	SBIW R30,1
00202f e8ac      	LDI  R26,LOW(_dia)
002030 e0b0      	LDI  R27,HIGH(_dia)
002031 940e 27a3 	CALL __EEPROMWRB
                 ; 0000 0363 
                 ; 0000 0364          }else{
                 _0x196:
                 _0x193:
                 ; 0000 0365 
                 ; 0000 0366           // No actualizar la hora, continuar con la anterior
                 ; 0000 0367          }
                 ; 0000 0368       }
                 ; 0000 0369    }
                 _0x173:
                +
002033 5f0f     +SUBI R16 , LOW ( - 1 )
002034 4f1f     +SBCI R17 , HIGH ( - 1 )
                 	__ADDWRN 16,17,1
002035 cd18      	RJMP _0x13B
                 _0x13C:
                 ; 0000 036A 
                 ; 0000 036B    rx_counter0  = 0;
002036 2466      	CLR  R6
                 ; 0000 036C    rx_wr_index0 = 0;
002037 2444      	CLR  R4
                 ; 0000 036D 
                 ; 0000 036E    BIT_UART=1;
002038 9af1      	SBI  0x1E,1
                 ; 0000 036F 
                 ; 0000 0370    for (j=0;j<201;j++)
                +
002039 e020     +LDI R18 , LOW ( 0 )
00203a e030     +LDI R19 , HIGH ( 0 )
                 	__GETWRN 18,19,0
                 _0x19B:
                +
00203b 3c29     +CPI R18 , LOW ( 201 )
00203c e0e0     +LDI R30 , HIGH ( 201 )
00203d 073e     +CPC R19 , R30
                 	__CPWRN 18,19,201
00203e f44c      	BRGE _0x19C
                 ; 0000 0371    {
                 ; 0000 0372       rx_b0[j]=0;
00203f e5ac      	LDI  R26,LOW(_rx_b0)
002040 e0b3      	LDI  R27,HIGH(_rx_b0)
002041 0fa2      	ADD  R26,R18
002042 1fb3      	ADC  R27,R19
002043 e0e0      	LDI  R30,LOW(0)
002044 93ec      	ST   X,R30
                 ; 0000 0373    };
                +
002045 5f2f     +SUBI R18 , LOW ( - 1 )
002046 4f3f     +SBCI R19 , HIGH ( - 1 )
                 	__ADDWRN 18,19,1
002047 cff3      	RJMP _0x19B
                 _0x19C:
                 ; 0000 0374 }
002048 940e 27bb 	CALL __LOADLOCR6
00204a 966b      	ADIW R28,27
00204b 9508      	RET
                 ;
                 ;//-------------------------------------------------------------------------------------------------------------------//
                 ;
                 ;
                 ;
                 ;
                 ;/////////////////////////////////////////////////////////////////////////////////////////////////////////////////////
                 ;//******************************************** PROGRAMA PRINCIPAL *************************************************//
                 ;/////////////////////////////////////////////////////////////////////////////////////////////////////////////////////
                 ;void main(void)
                 ; 0000 037F {
                 _main:
                 ; 0000 0380    #pragma optsize-
                 ; 0000 0381    CLKPR=0x80;
00204c e8e0      	LDI  R30,LOW(128)
00204d 93e0 0061 	STS  97,R30
                 ; 0000 0382    CLKPR=0x00;
00204f e0e0      	LDI  R30,LOW(0)
002050 93e0 0061 	STS  97,R30
                 ; 0000 0383    #ifdef _OPTIMIZE_SIZE_
                 ; 0000 0384       #pragma optsize+
                 ; 0000 0385    #endif
                 ; 0000 0386 
                 ; 0000 0387    DATADDR = 0xff;
002052 efef      	LDI  R30,LOW(255)
002053 b9e7      	OUT  0x7,R30
                 ; 0000 0388 
                 ; 0000 0389    PORTA=0xFF;
002054 b9e2      	OUT  0x2,R30
                 ; 0000 038A    DDRA=0xF0;
002055 efe0      	LDI  R30,LOW(240)
002056 b9e1      	OUT  0x1,R30
                 ; 0000 038B 
                 ; 0000 038C    PORTB=0x00;
002057 e0e0      	LDI  R30,LOW(0)
002058 b9e5      	OUT  0x5,R30
                 ; 0000 038D    DDRB=0xFF;
002059 efef      	LDI  R30,LOW(255)
00205a b9e4      	OUT  0x4,R30
                 ; 0000 038E 
                 ; 0000 038F    PORTD=0x00;
00205b e0e0      	LDI  R30,LOW(0)
00205c b9eb      	OUT  0xB,R30
                 ; 0000 0390    DDRD=0b11110000;
00205d efe0      	LDI  R30,LOW(240)
00205e b9ea      	OUT  0xA,R30
                 ; 0000 0391 
                 ; 0000 0392    // USART0 initialization
                 ; 0000 0393    // Communication Parameters: 8 Data, 1 Stop, No Parity
                 ; 0000 0394    // USART0 Receiver: On
                 ; 0000 0395    // USART0 Transmitter: On
                 ; 0000 0396    // USART0 Mode: Asynchronous
                 ; 0000 0397    //// USART0 Baud Rate: 9600 11.0592 MHz
                 ; 0000 0398    //UCSR0A=0x00;
                 ; 0000 0399    //UCSR0B=0x98;
                 ; 0000 039A    //UCSR0C=0x06;
                 ; 0000 039B    //UBRR0H=0x00;
                 ; 0000 039C    //UBRR0L=0x47;
                 ; 0000 039D 
                 ; 0000 039E    // USART0 Baud Rate: 115200
                 ; 0000 039F    UCSR0A=0x00;
00205f e0e0      	LDI  R30,LOW(0)
002060 93e0 00c0 	STS  192,R30
                 ; 0000 03A0    UCSR0B=0x98;
002062 e9e8      	LDI  R30,LOW(152)
002063 93e0 00c1 	STS  193,R30
                 ; 0000 03A1    UCSR0C=0x06;
002065 e0e6      	LDI  R30,LOW(6)
002066 93e0 00c2 	STS  194,R30
                 ; 0000 03A2    UBRR0H=0x00;
002068 e0e0      	LDI  R30,LOW(0)
002069 93e0 00c5 	STS  197,R30
                 ; 0000 03A3    UBRR0L=0x05;
00206b e0e5      	LDI  R30,LOW(5)
00206c 93e0 00c4 	STS  196,R30
                 ; 0000 03A4 
                 ; 0000 03A5    //USART0 Baud Rate: 9600 8 MHz
                 ; 0000 03A6    //UCSR0A=0x00;
                 ; 0000 03A7    //UCSR0B=0x18;
                 ; 0000 03A8    //UCSR0C=0x06;
                 ; 0000 03A9    //UBRR0H=0x00;
                 ; 0000 03AA    //UBRR0L=0x33;
                 ; 0000 03AB 
                 ; 0000 03AC    // Timer/Counter 0 initialization
                 ; 0000 03AD    // Clock source: System Clock
                 ; 0000 03AE    // Clock value: 10,800 kHz
                 ; 0000 03AF    // Mode: Normal top=0xFF
                 ; 0000 03B0    // OC0A output: Disconnected
                 ; 0000 03B1    // OC0B output: Disconnected
                 ; 0000 03B2    TCCR0A=0x00;
00206e e0e0      	LDI  R30,LOW(0)
00206f bde4      	OUT  0x24,R30
                 ; 0000 03B3    TCCR0B=0x05;
002070 e0e5      	LDI  R30,LOW(5)
002071 bde5      	OUT  0x25,R30
                 ; 0000 03B4    TCNT0=0x00;
002072 e0e0      	LDI  R30,LOW(0)
002073 bde6      	OUT  0x26,R30
                 ; 0000 03B5    OCR0A=0x00;
002074 bde7      	OUT  0x27,R30
                 ; 0000 03B6    OCR0B=0x00;
002075 bde8      	OUT  0x28,R30
                 ; 0000 03B7 
                 ; 0000 03B8    // Timer/Counter 0 Interrupt(s) initialization
                 ; 0000 03B9    TIMSK0=0x01;
002076 e0e1      	LDI  R30,LOW(1)
002077 93e0 006e 	STS  110,R30
                 ; 0000 03BA 
                 ; 0000 03BB    // Inicilizar GLCD
                 ; 0000 03BC    glcd_on();
002079 940e 17c0 	CALL _glcd_on
                 ; 0000 03BD    delay_ms(INIT_DELAY_GLCD_MS);
00207b e0ea      	LDI  R30,LOW(10)
00207c e0f0      	LDI  R31,HIGH(10)
00207d 940e 26b1 	CALL SUBOPT_0x4C
                 ; 0000 03BE    glcd_clear();
                 ; 0000 03BF 
                 ; 0000 03C0    buzz();
00207f 940e 26b7 	CALL SUBOPT_0x4D
                 ; 0000 03C1    buzz();
                 ; 0000 03C2 
                 ; 0000 03C3    // Dibuja KRADAC
                 ; 0000 03C4    bmp_disp(arr,0,0,127,7);
002081 efe0      	LDI  R30,LOW(_arr*2)
002082 e0f9      	LDI  R31,HIGH(_arr*2)
002083 940e 25eb 	CALL SUBOPT_0x2B
002085 940e 24b4 	CALL SUBOPT_0x2
002087 e7ef      	LDI  R30,LOW(127)
002088 e0f0      	LDI  R31,HIGH(127)
002089 940e 25f3 	CALL SUBOPT_0x2D
00208b d9c1      	RCALL _bmp_disp
                 ; 0000 03C5    delay_ms( DELAY_PANTALLA_INI );
00208c ede0      	LDI  R30,LOW(2000)
00208d e0f7      	LDI  R31,HIGH(2000)
00208e 940e 26b1 	CALL SUBOPT_0x4C
                 ; 0000 03C6    glcd_clear();
                 ; 0000 03C7 
                 ; 0000 03C8    // Dibuja BUS
                 ; 0000 03C9    bmp_disp(bus,0,0,45,7);
002090 efe0      	LDI  R30,LOW(_bus*2)
002091 e0fd      	LDI  R31,HIGH(_bus*2)
002092 940e 25eb 	CALL SUBOPT_0x2B
002094 940e 24b4 	CALL SUBOPT_0x2
002096 e2ed      	LDI  R30,LOW(45)
002097 e0f0      	LDI  R31,HIGH(45)
002098 940e 25f3 	CALL SUBOPT_0x2D
00209a d9b2      	RCALL _bmp_disp
                 ; 0000 03CA 
                 ; 0000 03CB    // Escribe NOMBRE_PANTALLA "SITU"
                 ; 0000 03CC    glcd_puts(NOMBRE_DISP,55,2,0,2,-1);
00209b e2e4      	LDI  R30,LOW(_NOMBRE_DISP)
00209c e0f4      	LDI  R31,HIGH(_NOMBRE_DISP)
00209d 93fa      	ST   -Y,R31
00209e 93ea      	ST   -Y,R30
00209f e3e7      	LDI  R30,LOW(55)
0020a0 e0f0      	LDI  R31,HIGH(55)
0020a1 940e 26bb 	CALL SUBOPT_0x4E
0020a3 940e 26c0 	CALL SUBOPT_0x4F
                 ; 0000 03CD 
                 ; 0000 03CE    // Escribe NUMERO_PANTALLA "BUS####"
                 ; 0000 03CF    glcd_puts("BUS",59,5,0,1,-1);
                +
0020a5 e0ed     +LDI R30 , LOW ( _0x19D + ( 0 ) )
0020a6 e0f3     +LDI R31 , HIGH ( _0x19D + ( 0 ) )
                 	__POINTW1MN _0x19D,0
0020a7 93fa      	ST   -Y,R31
0020a8 93ea      	ST   -Y,R30
0020a9 e3eb      	LDI  R30,LOW(59)
0020aa e0f0      	LDI  R31,HIGH(59)
0020ab 940e 26c7 	CALL SUBOPT_0x50
0020ad 940e 25ff 	CALL SUBOPT_0x2F
0020af 940e 2604 	CALL SUBOPT_0x30
                 ; 0000 03D0    glcd_puts(NUM_DISP,82,5,0,1,-1);
0020b1 e2e9      	LDI  R30,LOW(_NUM_DISP)
0020b2 e0f4      	LDI  R31,HIGH(_NUM_DISP)
0020b3 93fa      	ST   -Y,R31
0020b4 93ea      	ST   -Y,R30
0020b5 e5e2      	LDI  R30,LOW(82)
0020b6 e0f0      	LDI  R31,HIGH(82)
0020b7 940e 26c7 	CALL SUBOPT_0x50
0020b9 940e 25ff 	CALL SUBOPT_0x2F
0020bb 940e 2604 	CALL SUBOPT_0x30
                 ; 0000 03D1 
                 ; 0000 03D2    //Tiempo q muestra la pantalla de inicio
                 ; 0000 03D3    delay_ms( DELAY_PANTALLA_INI );
0020bd ede0      	LDI  R30,LOW(2000)
0020be e0f7      	LDI  R31,HIGH(2000)
0020bf 940e 26b1 	CALL SUBOPT_0x4C
                 ; 0000 03D4    glcd_clear();
                 ; 0000 03D5 
                 ; 0000 03D6 
                 ; 0000 03D7    ////////////  VALORES INICIALES PARA VARIABLES DE LA EEPROM ///////////
                 ; 0000 03D8 
                 ; 0000 03D9    // En caso de que no haya recibido tramas del sky
                 ; 0000 03DA    // previene que muestre valores de -1 en la hora y fecha
                 ; 0000 03DB    if (hora1 == 0xff )
0020c1 940e 2593 	CALL SUBOPT_0x25
0020c3 3fef      	CPI  R30,LOW(0xFF)
0020c4 f479      	BRNE _0x19E
                 ; 0000 03DC    {
                 ; 0000 03DD       hora1 = 0; min1 = 0; seg1 = 0;
0020c5 e8aa      	LDI  R26,LOW(_hora1)
0020c6 e0b0      	LDI  R27,HIGH(_hora1)
0020c7 e0e0      	LDI  R30,LOW(0)
0020c8 940e 27a3 	CALL __EEPROMWRB
0020ca 940e 2582 	CALL SUBOPT_0x22
0020cc 940e 256c 	CALL SUBOPT_0x1E
                 ; 0000 03DE         hora = 0; minu = 0;  seg = 0;
0020ce 940e 258d 	CALL SUBOPT_0x24
0020d0 940e 2577 	CALL SUBOPT_0x20
0020d2 940e 2566 	CALL SUBOPT_0x1D
                 ; 0000 03DF    }
                 ; 0000 03E0 
                 ; 0000 03E1    // En caso de que no haya fecha
                 ; 0000 03E2    if (mes == 0xff && dia == 0xff && an == 0xff)
                 _0x19E:
0020d4 940e 26ca 	CALL SUBOPT_0x51
0020d6 3fef      	CPI  R30,LOW(0xFF)
0020d7 f441      	BRNE _0x1A0
0020d8 940e 26ac 	CALL SUBOPT_0x4B
0020da 3fef      	CPI  R30,LOW(0xFF)
0020db f421      	BRNE _0x1A0
0020dc 940e 26cf 	CALL SUBOPT_0x52
0020de 3fef      	CPI  R30,LOW(0xFF)
0020df f009      	BREQ _0x1A1
                 _0x1A0:
0020e0 c019      	RJMP _0x19F
                 _0x1A1:
                 ; 0000 03E3    {
                 ; 0000 03E4       dia = 0; dia1 = 0;
0020e1 e8ac      	LDI  R26,LOW(_dia)
0020e2 e0b0      	LDI  R27,HIGH(_dia)
0020e3 e0e0      	LDI  R30,LOW(0)
0020e4 940e 27a3 	CALL __EEPROMWRB
0020e6 e8ae      	LDI  R26,LOW(_dia1)
0020e7 e0b0      	LDI  R27,HIGH(_dia1)
0020e8 940e 27a3 	CALL __EEPROMWRB
                 ; 0000 03E5        mes = 0; mes1 = 0;
0020ea e9a0      	LDI  R26,LOW(_mes)
0020eb e0b0      	LDI  R27,HIGH(_mes)
0020ec 940e 27a3 	CALL __EEPROMWRB
0020ee e9a2      	LDI  R26,LOW(_mes1)
0020ef e0b0      	LDI  R27,HIGH(_mes1)
0020f0 940e 27a3 	CALL __EEPROMWRB
                 ; 0000 03E6         an = 0;  an1 = 0;
0020f2 e9a4      	LDI  R26,LOW(_an)
0020f3 e0b0      	LDI  R27,HIGH(_an)
0020f4 940e 27a3 	CALL __EEPROMWRB
0020f6 e9a6      	LDI  R26,LOW(_an1)
0020f7 e0b0      	LDI  R27,HIGH(_an1)
0020f8 940e 27a3 	CALL __EEPROMWRB
                 ; 0000 03E7    }
                 ; 0000 03E8 
                 ; 0000 03E9    // Iniciala la eeprom.
                 ; 0000 03EA    if (num_ruta  == 0xff)
                 _0x19F:
0020fa e2a8      	LDI  R26,LOW(_num_ruta)
0020fb e0b0      	LDI  R27,HIGH(_num_ruta)
0020fc 940e 2797 	CALL __EEPROMRDB
0020fe 3fef      	CPI  R30,LOW(0xFF)
0020ff f431      	BRNE _0x1A2
                 ; 0000 03EB    {
                 ; 0000 03EC       num_ruta  = 0;
002100 e2a8      	LDI  R26,LOW(_num_ruta)
002101 e0b0      	LDI  R27,HIGH(_num_ruta)
002102 e0e0      	LDI  R30,LOW(0)
002103 940e 27a3 	CALL __EEPROMWRB
                 ; 0000 03ED       _num_ruta = 0;
002105 c004      	RJMP _0x1CA
                 ; 0000 03EE    }
                 ; 0000 03EF    else
                 _0x1A2:
                 ; 0000 03F0       _num_ruta = num_ruta;
002106 e2a8      	LDI  R26,LOW(_num_ruta)
002107 e0b0      	LDI  R27,HIGH(_num_ruta)
002108 940e 2797 	CALL __EEPROMRDB
                 _0x1CA:
00210a 93e0 044f 	STS  __num_ruta,R30
                 ; 0000 03F1 
                 ; 0000 03F2    if (laborando == 0xff)
00210c e2aa      	LDI  R26,LOW(_laborando)
00210d e0b0      	LDI  R27,HIGH(_laborando)
00210e 940e 2797 	CALL __EEPROMRDB
002110 3fef      	CPI  R30,LOW(0xFF)
002111 f431      	BRNE _0x1A4
                 ; 0000 03F3    {
                 ; 0000 03F4       laborando = 0;
002112 e2aa      	LDI  R26,LOW(_laborando)
002113 e0b0      	LDI  R27,HIGH(_laborando)
002114 e0e0      	LDI  R30,LOW(0)
002115 940e 27a3 	CALL __EEPROMWRB
                 ; 0000 03F5       _laborando= 0;
002117 c004      	RJMP _0x1CB
                 ; 0000 03F6    }
                 ; 0000 03F7    else
                 _0x1A4:
                 ; 0000 03F8       _laborando = laborando;
002118 e2aa      	LDI  R26,LOW(_laborando)
002119 e0b0      	LDI  R27,HIGH(_laborando)
00211a 940e 2797 	CALL __EEPROMRDB
                 _0x1CB:
00211c 93e0 0450 	STS  __laborando,R30
                 ; 0000 03F9 
                 ; 0000 03FA    ////////////////////////////////////////////////////////////////////
                 ; 0000 03FB 
                 ; 0000 03FC 
                 ; 0000 03FD    // Encender interrupciones
                 ; 0000 03FE    #asm("sei")
00211e 9478      	sei
                 ; 0000 03FF 
                 ; 0000 0400    // Muestra vacio
                 ; 0000 0401    bmp_disp(vacio,0,5,25,7);
00211f efe0      	LDI  R30,LOW(_vacio*2)
002120 e1f1      	LDI  R31,HIGH(_vacio*2)
002121 940e 25eb 	CALL SUBOPT_0x2B
002123 940e 25ee 	CALL SUBOPT_0x2C
002125 e1e9      	LDI  R30,LOW(25)
002126 e0f0      	LDI  R31,HIGH(25)
002127 940e 25f3 	CALL SUBOPT_0x2D
002129 d923      	RCALL _bmp_disp
                 ; 0000 0402 
                 ; 0000 0403    // Pide el ID del Skypatrol para verificar la pantalla
                 ; 0000 0404    printf("AT$TTDEVID?\n\r");
00212a 940e 2556 	CALL SUBOPT_0x1B
                 ; 0000 0405    delay_us( 500 );
                +
00212c e686     +LDI R24 , LOW ( 1382 )
00212d e095     +LDI R25 , HIGH ( 1382 )
                +__DELAY_USW_LOOP :
00212e 9701     +SBIW R24 , 1
00212f f7f1     +BRNE __DELAY_USW_LOOP
                 	__DELAY_USW 1382
                 ; 0000 0406    obt();
002130 dc0d      	RCALL _obt
                 ; 0000 0407 
                 ; 0000 0408 
                 ; 0000 0409    bandera1 = 0;
002131 2477      	CLR  R7
                 ; 0000 040A    bandera2 = 0;
002132 24aa      	CLR  R10
                 ; 0000 040B    bandera3 = 0;
002133 2499      	CLR  R9
                 ; 0000 040C 
                 ; 0000 040D     act =1;
002134 940e 2688 	CALL SUBOPT_0x45
                 ; 0000 040E 
                 ; 0000 040F    while (1)
                 _0x1A6:
                 ; 0000 0410    {
                 ; 0000 0411 
                 ; 0000 0412       // Verifica la bandera de interrupcion serial
                 ; 0000 0413       if( BIT_UART == 0 )
002136 99f1      	SBIC 0x1E,1
002137 c002      	RJMP _0x1A9
                 ; 0000 0414       {
                 ; 0000 0415          obt();
002138 dc05      	RCALL _obt
                 ; 0000 0416          BIT_UART=1;
002139 9af1      	SBI  0x1E,1
                 ; 0000 0417       }
                 ; 0000 0418 
                 ; 0000 0419       // GRAFICA LA RUTA ACTUAL.
                 ; 0000 041A       glcd_putchar(ruta_aux,79,7,0,1);
                 _0x1A9:
00213a 925a      	ST   -Y,R5
00213b e4ef      	LDI  R30,LOW(79)
00213c e0f0      	LDI  R31,HIGH(79)
00213d 940e 25f3 	CALL SUBOPT_0x2D
00213f 940e 25ff 	CALL SUBOPT_0x2F
002141 940e 190c 	CALL _glcd_putchar
                 ; 0000 041B 
                 ; 0000 041C 
                 ; 0000 041D       boton1();
002143 da86      	RCALL _boton1
                 ; 0000 041E 
                 ; 0000 041F       boton2();
002144 daf1      	RCALL _boton2
                 ; 0000 0420 
                 ; 0000 0421       boton3();
002145 db65      	RCALL _boton3
                 ; 0000 0422 
                 ; 0000 0423       boton4();
002146 db8a      	RCALL _boton4
                 ; 0000 0424 
                 ; 0000 0425       dibujar_senal();
002147 dbcc      	RCALL _dibujar_senal
                 ; 0000 0426 
                 ; 0000 0427       // act = autoirzado
                 ; 0000 0428       if(act==1)
002148 91a0 0441 	LDS  R26,_act_G000
00214a 91b0 0442 	LDS  R27,_act_G000+1
00214c 9711      	SBIW R26,1
00214d f011      	BREQ PC+3
00214e 940c 229f 	JMP _0x1AC
                 ; 0000 0429       {
                 ; 0000 042A          if( gsm == 1)
002150 91a0 0451 	LDS  R26,_gsm
002152 91b0 0452 	LDS  R27,_gsm+1
002154 9711      	SBIW R26,1
002155 f411      	BRNE _0x1AD
                 ; 0000 042B          {
                 ; 0000 042C             glcd_putchar('E',19,0,1,1);
002156 e4e5      	LDI  R30,LOW(69)
002157 c001      	RJMP _0x1CC
                 ; 0000 042D          }else{
                 _0x1AD:
                 ; 0000 042E             glcd_putchar(' ',19,0,1,1);
002158 e2e0      	LDI  R30,LOW(32)
                 _0x1CC:
002159 93ea      	ST   -Y,R30
00215a e1e3      	LDI  R30,LOW(19)
00215b e0f0      	LDI  R31,HIGH(19)
00215c 940e 25eb 	CALL SUBOPT_0x2B
00215e e0e1      	LDI  R30,LOW(1)
00215f 93ea      	ST   -Y,R30
002160 93ea      	ST   -Y,R30
002161 940e 190c 	CALL _glcd_putchar
                 ; 0000 042F          }
                 ; 0000 0430 
                 ; 0000 0431 
                 ; 0000 0432          // Para mostrar el  Reloj
                 ; 0000 0433          if(pt==0)
002163 91e0 0434 	LDS  R30,_pt
002165 30e0      	CPI  R30,0
002166 f011      	BREQ PC+3
002167 940c 21d7 	JMP _0x1AF
                 ; 0000 0434          {
                 ; 0000 0435             sprintf(reloj,"%d%d:%d%d:%d%d",hora1, hora, min1, minu, seg1, seg);
002169 e5e7      	LDI  R30,LOW(_reloj)
00216a e0f4      	LDI  R31,HIGH(_reloj)
00216b 93fa      	ST   -Y,R31
00216c 93ea      	ST   -Y,R30
                +
00216d e3ea     +LDI R30 , LOW ( 2 * _0x0 + ( 212 ) )
00216e e2fe     +LDI R31 , HIGH ( 2 * _0x0 + ( 212 ) )
                 	__POINTW1FN _0x0,212
00216f 93fa      	ST   -Y,R31
002170 93ea      	ST   -Y,R30
002171 940e 2593 	CALL SUBOPT_0x25
002173 940e 25d8 	CALL SUBOPT_0x28
002175 940e 2588 	CALL SUBOPT_0x23
002177 940e 25d8 	CALL SUBOPT_0x28
002179 940e 257d 	CALL SUBOPT_0x21
00217b 940e 25d8 	CALL SUBOPT_0x28
00217d 940e 2572 	CALL SUBOPT_0x1F
00217f 940e 25d8 	CALL SUBOPT_0x28
002181 940e 2551 	CALL SUBOPT_0x1A
002183 940e 25d8 	CALL SUBOPT_0x28
002185 940e 2547 	CALL SUBOPT_0x18
002187 940e 25d8 	CALL SUBOPT_0x28
002189 e188      	LDI  R24,24
00218a d2bb      	RCALL _sprintf
00218b 966c      	ADIW R28,28
                 ; 0000 0436             //printf("%d%d:%d%d:%d%d\n\r",hora1, hora, min1, minu, seg1, seg);
                 ; 0000 0437 
                 ; 0000 0438             // pasa de la eeprom a la flash del micro
                 ; 0000 0439             _seg  = seg  ;
00218c 940e 2547 	CALL SUBOPT_0x18
00218e 93e0 0443 	STS  __seg,R30
                 ; 0000 043A             _seg1 = seg1 ;    // segundos en unidades y decenas
002190 940e 2551 	CALL SUBOPT_0x1A
002192 93e0 0444 	STS  __seg1,R30
                 ; 0000 043B             _minu = minu ;
002194 940e 2572 	CALL SUBOPT_0x1F
002196 93e0 0445 	STS  __minu,R30
                 ; 0000 043C             _min1 = min1 ;    // minutos en unidades y decenas
002198 940e 257d 	CALL SUBOPT_0x21
00219a 93e0 0446 	STS  __min1,R30
                 ; 0000 043D             _hora = hora ;
00219c 940e 2588 	CALL SUBOPT_0x23
00219e 93e0 0447 	STS  __hora,R30
                 ; 0000 043E             _hora1= hora1;    // hora en unidades y decenas
0021a0 940e 2593 	CALL SUBOPT_0x25
0021a2 93e0 0448 	STS  __hora1,R30
                 ; 0000 043F             _dia  = dia  ;
0021a4 940e 26ac 	CALL SUBOPT_0x4B
0021a6 93e0 0449 	STS  __dia,R30
                 ; 0000 0440             _dia1 = dia1 ;    // dias en unidades y decenas
0021a8 e8ae      	LDI  R26,LOW(_dia1)
0021a9 e0b0      	LDI  R27,HIGH(_dia1)
0021aa 940e 2797 	CALL __EEPROMRDB
0021ac 93e0 044a 	STS  __dia1,R30
                 ; 0000 0441             _mes  = mes  ;
0021ae 940e 26ca 	CALL SUBOPT_0x51
0021b0 93e0 044b 	STS  __mes,R30
                 ; 0000 0442             _mes1 = mes1 ;    // mes en unidades y decenas
0021b2 e9a2      	LDI  R26,LOW(_mes1)
0021b3 e0b0      	LDI  R27,HIGH(_mes1)
0021b4 940e 2797 	CALL __EEPROMRDB
0021b6 93e0 044c 	STS  __mes1,R30
                 ; 0000 0443             _an   = an   ;
0021b8 940e 26cf 	CALL SUBOPT_0x52
0021ba 93e0 044d 	STS  __an,R30
                 ; 0000 0444             _an1  = an1  ;     // anos en unidades y decenas
0021bc e9a6      	LDI  R26,LOW(_an1)
0021bd e0b0      	LDI  R27,HIGH(_an1)
0021be 940e 2797 	CALL __EEPROMRDB
0021c0 93e0 044e 	STS  __an1,R30
                 ; 0000 0445 
                 ; 0000 0446             num_ruta  = _num_ruta;
0021c2 91e0 044f 	LDS  R30,__num_ruta
0021c4 e2a8      	LDI  R26,LOW(_num_ruta)
0021c5 e0b0      	LDI  R27,HIGH(_num_ruta)
0021c6 940e 27a3 	CALL __EEPROMWRB
                 ; 0000 0447             laborando = _laborando;
0021c8 91e0 0450 	LDS  R30,__laborando
0021ca e2aa      	LDI  R26,LOW(_laborando)
0021cb e0b0      	LDI  R27,HIGH(_laborando)
0021cc 940e 27a3 	CALL __EEPROMWRB
                 ; 0000 0448 
                 ; 0000 0449             glcd_puts(reloj,7,2,0,2,-1);
0021ce e5e7      	LDI  R30,LOW(_reloj)
0021cf e0f4      	LDI  R31,HIGH(_reloj)
0021d0 940e 25f3 	CALL SUBOPT_0x2D
0021d2 e0e2      	LDI  R30,LOW(2)
0021d3 e0f0      	LDI  R31,HIGH(2)
0021d4 940e 26c0 	CALL SUBOPT_0x4F
                 ; 0000 044A          }
                 ; 0000 044B 
                 ; 0000 044C          else if(pt==1)
0021d6 c07a      	RJMP _0x1B0
                 _0x1AF:
0021d7 91a0 0434 	LDS  R26,_pt
0021d9 30a1      	CPI  R26,LOW(0x1)
0021da f4e9      	BRNE _0x1B1
                 ; 0000 044D          {     //Entra a esta funcion cuando llega un punto de control, verificando por el evento 18  pt=1
                 ; 0000 044E             glcd_clrln(2);
0021db 940e 2673 	CALL SUBOPT_0x43
                 ; 0000 044F             glcd_clrln(3);
                 ; 0000 0450             glcd_clrln(4);
                 ; 0000 0451             glcd_clrln(5);
                 ; 0000 0452 
                 ; 0000 0453             delay_ms(1);
0021dd 940e 26d4 	CALL SUBOPT_0x53
                 ; 0000 0454 
                 ; 0000 0455             glcd_puts(no_pt,48,3,0,2,1);
0021df e3e5      	LDI  R30,LOW(_no_pt)
0021e0 e0f4      	LDI  R31,HIGH(_no_pt)
0021e1 93fa      	ST   -Y,R31
0021e2 93ea      	ST   -Y,R30
0021e3 e3e0      	LDI  R30,LOW(48)
0021e4 e0f0      	LDI  R31,HIGH(48)
0021e5 93fa      	ST   -Y,R31
0021e6 93ea      	ST   -Y,R30
0021e7 e0e3      	LDI  R30,LOW(3)
0021e8 e0f0      	LDI  R31,HIGH(3)
0021e9 93fa      	ST   -Y,R31
0021ea 93ea      	ST   -Y,R30
0021eb e0e0      	LDI  R30,LOW(0)
0021ec 93ea      	ST   -Y,R30
0021ed e0e2      	LDI  R30,LOW(2)
0021ee 93ea      	ST   -Y,R30
0021ef e0e1      	LDI  R30,LOW(1)
0021f0 93ea      	ST   -Y,R30
0021f1 940e 1993 	CALL _glcd_puts
                 ; 0000 0456             //glcd_puts(nombre_pt,10,2,0,1,-2);
                 ; 0000 0457 
                 ; 0000 0458             buzz();
0021f3 940e 26b7 	CALL SUBOPT_0x4D
                 ; 0000 0459             buzz();
                 ; 0000 045A 
                 ; 0000 045B             delay_ms(MOSTRAR_NUM_RUTA_MS);
0021f5 ede0      	LDI  R30,LOW(2000)
0021f6 e0f7      	LDI  R31,HIGH(2000)
0021f7 c050      	RJMP _0x1CD
                 ; 0000 045C 
                 ; 0000 045D             glcd_clrln(2);
                 ; 0000 045E             glcd_clrln(3);
                 ; 0000 045F             glcd_clrln(4);
                 ; 0000 0460             glcd_clrln(5);
                 ; 0000 0461 
                 ; 0000 0462             pt=0;  //esta variable se pone en 0 para que se vuelva a mostrar el reloj
                 ; 0000 0463          }
                 ; 0000 0464          else if (pt==2){
                 _0x1B1:
0021f8 91a0 0434 	LDS  R26,_pt
0021fa 30a2      	CPI  R26,LOW(0x2)
0021fb f471      	BRNE _0x1B3
                 ; 0000 0465             glcd_clrln(2);
0021fc 940e 2673 	CALL SUBOPT_0x43
                 ; 0000 0466             glcd_clrln(3);
                 ; 0000 0467             glcd_clrln(4);
                 ; 0000 0468             glcd_clrln(5);
                 ; 0000 0469 
                 ; 0000 046A             delay_ms(1);
0021fe 940e 26d4 	CALL SUBOPT_0x53
                 ; 0000 046B 
                 ; 0000 046C             //glcd_puts("MENSAJE ENVIADO",10,6,0,1,-2);
                 ; 0000 046D             glcd_puts("  BIENVENIDO ",20,4,0,1,-2);
                +
002200 e1e1     +LDI R30 , LOW ( _0x19D + ( 4 ) )
002201 e0f3     +LDI R31 , HIGH ( _0x19D + ( 4 ) )
                 	__POINTW1MN _0x19D,4
002202 93fa      	ST   -Y,R31
002203 93ea      	ST   -Y,R30
002204 e1e4      	LDI  R30,LOW(20)
002205 e0f0      	LDI  R31,HIGH(20)
002206 940e 26da 	CALL SUBOPT_0x54
002208 efee      	LDI  R30,LOW(254)
002209 c037      	RJMP _0x1CE
                 ; 0000 046E 
                 ; 0000 046F             buzz();
                 ; 0000 0470             buzz();
                 ; 0000 0471 
                 ; 0000 0472             delay_ms(MOSTRAR_MSN_ENV_MS);
                 ; 0000 0473 
                 ; 0000 0474             glcd_clrln(2);
                 ; 0000 0475             glcd_clrln(3);
                 ; 0000 0476             glcd_clrln(4);
                 ; 0000 0477             glcd_clrln(5);
                 ; 0000 0478 
                 ; 0000 0479             pt=0;  //esta variable se pone en 0 para que se vuelva a mostrar el reloj
                 ; 0000 047A          }
                 ; 0000 047B 
                 ; 0000 047C          else if (pt==5){
                 _0x1B3:
00220a 91a0 0434 	LDS  R26,_pt
00220c 30a5      	CPI  R26,LOW(0x5)
00220d f469      	BRNE _0x1B5
                 ; 0000 047D             glcd_clrln(2);
00220e 940e 2673 	CALL SUBOPT_0x43
                 ; 0000 047E             glcd_clrln(3);
                 ; 0000 047F             glcd_clrln(4);
                 ; 0000 0480             glcd_clrln(5);
                 ; 0000 0481 
                 ; 0000 0482             delay_ms(1);
002210 940e 26d4 	CALL SUBOPT_0x53
                 ; 0000 0483 
                 ; 0000 0484             glcd_puts("FIN JORNADA",25,2,0,1,-1);
                +
002212 e1ef     +LDI R30 , LOW ( _0x19D + ( 18 ) )
002213 e0f3     +LDI R31 , HIGH ( _0x19D + ( 18 ) )
                 	__POINTW1MN _0x19D,18
002214 93fa      	ST   -Y,R31
002215 93ea      	ST   -Y,R30
002216 e1e9      	LDI  R30,LOW(25)
002217 e0f0      	LDI  R31,HIGH(25)
002218 940e 26bb 	CALL SUBOPT_0x4E
00221a c021      	RJMP _0x1CF
                 ; 0000 0485 
                 ; 0000 0486             buzz();
                 ; 0000 0487             buzz();
                 ; 0000 0488 
                 ; 0000 0489             delay_ms(MOSTRAR_MSN_ENV_MS);
                 ; 0000 048A 
                 ; 0000 048B             glcd_clrln(2);
                 ; 0000 048C             glcd_clrln(3);
                 ; 0000 048D             glcd_clrln(4);
                 ; 0000 048E             glcd_clrln(5);
                 ; 0000 048F 
                 ; 0000 0490             pt=0;  //esta variable se pone en 0 para que se vuelva a mostrar el reloj
                 ; 0000 0491          }
                 ; 0000 0492 
                 ; 0000 0493          else if (pt==3){
                 _0x1B5:
00221b 91a0 0434 	LDS  R26,_pt
00221d 30a3      	CPI  R26,LOW(0x3)
00221e f459      	BRNE _0x1B7
                 ; 0000 0494 
                 ; 0000 0495             glcd_clrln(2);
00221f 940e 2673 	CALL SUBOPT_0x43
                 ; 0000 0496             glcd_clrln(3);
                 ; 0000 0497             glcd_clrln(4);
                 ; 0000 0498             glcd_clrln(5);
                 ; 0000 0499             delay_ms(1);
002221 940e 26d4 	CALL SUBOPT_0x53
                 ; 0000 049A 
                 ; 0000 049B             glcd_puts("FIN RUTA",28,3,0,1,-1);
                +
002223 e2eb     +LDI R30 , LOW ( _0x19D + ( 30 ) )
002224 e0f3     +LDI R31 , HIGH ( _0x19D + ( 30 ) )
                 	__POINTW1MN _0x19D,30
002225 93fa      	ST   -Y,R31
002226 93ea      	ST   -Y,R30
002227 e1ec      	LDI  R30,LOW(28)
002228 e0f0      	LDI  R31,HIGH(28)
002229 c00e      	RJMP _0x1D0
                 ; 0000 049C 
                 ; 0000 049D             buzz();
                 ; 0000 049E             buzz();
                 ; 0000 049F 
                 ; 0000 04A0             delay_ms(1000);
                 ; 0000 04A1 
                 ; 0000 04A2             glcd_clrln(2);
                 ; 0000 04A3             glcd_clrln(3);
                 ; 0000 04A4             glcd_clrln(4);
                 ; 0000 04A5             glcd_clrln(5);
                 ; 0000 04A6             pt=0;  //esta variable se pone en 0 para que se vuelva a mostrar el reloj
                 ; 0000 04A7          }
                 ; 0000 04A8          else if (pt==4){
                 _0x1B7:
00222a 91a0 0434 	LDS  R26,_pt
00222c 30a4      	CPI  R26,LOW(0x4)
00222d f519      	BRNE _0x1B9
                 ; 0000 04A9 
                 ; 0000 04AA             glcd_clrln(2);
00222e 940e 2673 	CALL SUBOPT_0x43
                 ; 0000 04AB             glcd_clrln(3);
                 ; 0000 04AC             glcd_clrln(4);
                 ; 0000 04AD             glcd_clrln(5);
                 ; 0000 04AE             delay_ms(1);
002230 940e 26d4 	CALL SUBOPT_0x53
                 ; 0000 04AF 
                 ; 0000 04B0             glcd_puts("INICIO RUTA",20,3,0,1,-1);
                +
002232 e3e4     +LDI R30 , LOW ( _0x19D + ( 39 ) )
002233 e0f3     +LDI R31 , HIGH ( _0x19D + ( 39 ) )
                 	__POINTW1MN _0x19D,39
002234 93fa      	ST   -Y,R31
002235 93ea      	ST   -Y,R30
002236 e1e4      	LDI  R30,LOW(20)
002237 e0f0      	LDI  R31,HIGH(20)
                 _0x1D0:
002238 93fa      	ST   -Y,R31
002239 93ea      	ST   -Y,R30
00223a e0e3      	LDI  R30,LOW(3)
00223b e0f0      	LDI  R31,HIGH(3)
                 _0x1CF:
00223c 93fa      	ST   -Y,R31
00223d 93ea      	ST   -Y,R30
00223e 940e 25ff 	CALL SUBOPT_0x2F
002240 efef      	LDI  R30,LOW(255)
                 _0x1CE:
002241 93ea      	ST   -Y,R30
002242 940e 1993 	CALL _glcd_puts
                 ; 0000 04B1             buzz();
002244 940e 26b7 	CALL SUBOPT_0x4D
                 ; 0000 04B2             buzz();
                 ; 0000 04B3             delay_ms(MOSTRAR_MSN_ENV_MS);
002246 eee8      	LDI  R30,LOW(1000)
002247 e0f3      	LDI  R31,HIGH(1000)
                 _0x1CD:
002248 93fa      	ST   -Y,R31
002249 93ea      	ST   -Y,R30
00224a 940e 2722 	CALL _delay_ms
                 ; 0000 04B4 
                 ; 0000 04B5             glcd_clrln(2);
00224c 940e 2673 	CALL SUBOPT_0x43
                 ; 0000 04B6             glcd_clrln(3);
                 ; 0000 04B7             glcd_clrln(4);
                 ; 0000 04B8             glcd_clrln(5);
                 ; 0000 04B9             pt=0;  //esta variable se pone en 0 para que se vuelva a mostrar el reloj
00224e e0e0      	LDI  R30,LOW(0)
00224f 93e0 0434 	STS  _pt,R30
                 ; 0000 04BA          }
                 ; 0000 04BB 
                 ; 0000 04BC          // Con senal GPS
                 ; 0000 04BD          if( gps == 'A' )
                 _0x1B9:
                 _0x1B0:
002251 940e 26e1 	CALL SUBOPT_0x55
002253 34a1      	CPI  R26,LOW(0x41)
002254 e0e0      	LDI  R30,HIGH(0x41)
002255 07be      	CPC  R27,R30
002256 f419      	BRNE _0x1BA
                 ; 0000 04BE          {
                 ; 0000 04BF             bmp_disp(GPS1,95,0,127,1);
002257 efe0      	LDI  R30,LOW(_GPS1*2)
002258 e1fd      	LDI  R31,HIGH(_GPS1*2)
002259 c00b      	RJMP _0x1D1
                 ; 0000 04C0 
                 ; 0000 04C1             sprintf(fecha,"20%d%d-%d%d-%d%d",an1, an, mes1, mes, dia1, dia);
                 ; 0000 04C2             glcd_puts(fecha,34,5,0,1,-1);
                 ; 0000 04C3 
                 ; 0000 04C4          }
                 ; 0000 04C5          // Sin senal GPS
                 ; 0000 04C6          else if (gps == 'V' || gps == '9' )
                 _0x1BA:
00225a 940e 26e1 	CALL SUBOPT_0x55
00225c 35a6      	CPI  R26,LOW(0x56)
00225d e0e0      	LDI  R30,HIGH(0x56)
00225e 07be      	CPC  R27,R30
00225f f019      	BREQ _0x1BD
002260 940e 26e1 	CALL SUBOPT_0x55
002262 97d9      	SBIW R26,57
                 _0x1BD:
                 ; 0000 04C7          {
                 ; 0000 04C8             bmp_disp(GPS2,95,0,127,1);
                 ; 0000 04C9 
                 ; 0000 04CA             sprintf(fecha,"20%d%d-%d%d-%d%d",an1, an, mes1, mes, dia1, dia);
                 ; 0000 04CB             glcd_puts(fecha,34,5,0,1,-1);
                 ; 0000 04CC 
                 ; 0000 04CD          }
                 ; 0000 04CE          else
                 ; 0000 04CF          {
                 ; 0000 04D0             bmp_disp(GPS2,95,0,127,1);
                 _0x1D2:
002263 efe0      	LDI  R30,LOW(_GPS2*2)
002264 e2f1      	LDI  R31,HIGH(_GPS2*2)
                 _0x1D1:
002265 93fa      	ST   -Y,R31
002266 93ea      	ST   -Y,R30
002267 e5ef      	LDI  R30,LOW(95)
002268 e0f0      	LDI  R31,HIGH(95)
002269 940e 25eb 	CALL SUBOPT_0x2B
00226b e7ef      	LDI  R30,LOW(127)
00226c e0f0      	LDI  R31,HIGH(127)
00226d 940e 260e 	CALL SUBOPT_0x32
                 ; 0000 04D1             sprintf(fecha,"20%d%d-%d%d-%d%d",an1, an, mes1, mes, dia1, dia);
00226f e5ef      	LDI  R30,LOW(_fecha)
002270 e0f4      	LDI  R31,HIGH(_fecha)
002271 93fa      	ST   -Y,R31
002272 93ea      	ST   -Y,R30
                +
002273 e7e8     +LDI R30 , LOW ( 2 * _0x0 + ( 274 ) )
002274 e2fe     +LDI R31 , HIGH ( 2 * _0x0 + ( 274 ) )
                 	__POINTW1FN _0x0,274
002275 93fa      	ST   -Y,R31
002276 93ea      	ST   -Y,R30
002277 e9a6      	LDI  R26,LOW(_an1)
002278 e0b0      	LDI  R27,HIGH(_an1)
002279 940e 26e6 	CALL SUBOPT_0x56
00227b 940e 26cf 	CALL SUBOPT_0x52
00227d 940e 25d8 	CALL SUBOPT_0x28
00227f e9a2      	LDI  R26,LOW(_mes1)
002280 e0b0      	LDI  R27,HIGH(_mes1)
002281 940e 26e6 	CALL SUBOPT_0x56
002283 940e 26ca 	CALL SUBOPT_0x51
002285 940e 25d8 	CALL SUBOPT_0x28
002287 e8ae      	LDI  R26,LOW(_dia1)
002288 e0b0      	LDI  R27,HIGH(_dia1)
002289 940e 26e6 	CALL SUBOPT_0x56
00228b 940e 26ac 	CALL SUBOPT_0x4B
00228d 940e 25d8 	CALL SUBOPT_0x28
00228f e188      	LDI  R24,24
002290 d1b5      	RCALL _sprintf
002291 966c      	ADIW R28,28
                 ; 0000 04D2             glcd_puts(fecha,34,5,0,1,-1);
002292 e5ef      	LDI  R30,LOW(_fecha)
002293 e0f4      	LDI  R31,HIGH(_fecha)
002294 93fa      	ST   -Y,R31
002295 93ea      	ST   -Y,R30
002296 e2e2      	LDI  R30,LOW(34)
002297 e0f0      	LDI  R31,HIGH(34)
002298 940e 26c7 	CALL SUBOPT_0x50
00229a 940e 25ff 	CALL SUBOPT_0x2F
00229c 940e 2604 	CALL SUBOPT_0x30
                 ; 0000 04D3          }
                 ; 0000 04D4       }
                 ; 0000 04D5 
                 ; 0000 04D6       else
00229e c018      	RJMP _0x1C0
                 _0x1AC:
                 ; 0000 04D7       {
                 ; 0000 04D8          glcd_puts("Pantalla",30,2,0,1,-1);
                +
00229f e4e0     +LDI R30 , LOW ( _0x19D + ( 51 ) )
0022a0 e0f3     +LDI R31 , HIGH ( _0x19D + ( 51 ) )
                 	__POINTW1MN _0x19D,51
0022a1 93fa      	ST   -Y,R31
0022a2 93ea      	ST   -Y,R30
0022a3 e1ee      	LDI  R30,LOW(30)
0022a4 e0f0      	LDI  R31,HIGH(30)
0022a5 940e 26bb 	CALL SUBOPT_0x4E
0022a7 93fa      	ST   -Y,R31
0022a8 93ea      	ST   -Y,R30
0022a9 940e 25ff 	CALL SUBOPT_0x2F
0022ab 940e 2604 	CALL SUBOPT_0x30
                 ; 0000 04D9          glcd_puts("No Autorizada",15,4,0,1,-1);
                +
0022ad e4e9     +LDI R30 , LOW ( _0x19D + ( 60 ) )
0022ae e0f3     +LDI R31 , HIGH ( _0x19D + ( 60 ) )
                 	__POINTW1MN _0x19D,60
0022af 93fa      	ST   -Y,R31
0022b0 93ea      	ST   -Y,R30
0022b1 e0ef      	LDI  R30,LOW(15)
0022b2 e0f0      	LDI  R31,HIGH(15)
0022b3 940e 26da 	CALL SUBOPT_0x54
0022b5 940e 2604 	CALL SUBOPT_0x30
                 ; 0000 04DA       }
                 _0x1C0:
                 ; 0000 04DB 
                 ; 0000 04DC          bmp_disp(frente,105,5,127,7);
0022b7 efe0      	LDI  R30,LOW(_frente*2)
0022b8 e1f5      	LDI  R31,HIGH(_frente*2)
0022b9 93fa      	ST   -Y,R31
0022ba 93ea      	ST   -Y,R30
0022bb e6e9      	LDI  R30,LOW(105)
0022bc e0f0      	LDI  R31,HIGH(105)
0022bd 940e 26c7 	CALL SUBOPT_0x50
0022bf e7ef      	LDI  R30,LOW(127)
0022c0 e0f0      	LDI  R31,HIGH(127)
0022c1 940e 25f3 	CALL SUBOPT_0x2D
0022c3 940e 1a4d 	CALL _bmp_disp
                 ; 0000 04DD    } // Fin del While
0022c5 ce70      	RJMP _0x1A6
                 ; 0000 04DE }
                 _0x1C1:
0022c6 cfff      	RJMP _0x1C1
                 
                 	.DSEG
                 _0x19D:
00030d           	.BYTE 0x4A
                 ;//---------------------------------------- FIN DEL PROGRAMA PRINCIPAL ---------------------------------------------//
                 	#ifndef __SLEEP_DEFINED__
                 	#endif
                 
                 	.CSEG
                 _putchar:
                 _0x2000006:
0022c7 91e0 00c0 	LDS  R30,192
0022c9 72e0      	ANDI R30,LOW(0x20)
0022ca f3e1      	BREQ _0x2000006
0022cb 81e8      	LD   R30,Y
0022cc 93e0 00c6 	STS  198,R30
0022ce 9621      	ADIW R28,1
0022cf 9508      	RET
                 _put_usart_G100:
0022d0 81ea      	LDD  R30,Y+2
0022d1 93ea      	ST   -Y,R30
0022d2 dff4      	RCALL _putchar
0022d3 81a8      	LD   R26,Y
0022d4 81b9      	LDD  R27,Y+1
0022d5 940e 24d0 	CALL SUBOPT_0x7
0022d7 9623      	ADIW R28,3
0022d8 9508      	RET
                 _put_buff_G100:
0022d9 931a      	ST   -Y,R17
0022da 930a      	ST   -Y,R16
0022db 81aa      	LDD  R26,Y+2
0022dc 81bb      	LDD  R27,Y+2+1
0022dd 9612      	ADIW R26,2
0022de 940e 2783 	CALL __GETW1P
0022e0 9730      	SBIW R30,0
0022e1 f129      	BREQ _0x2000016
0022e2 81aa      	LDD  R26,Y+2
0022e3 81bb      	LDD  R27,Y+2+1
0022e4 9614      	ADIW R26,4
0022e5 940e 2783 	CALL __GETW1P
0022e7 018f      	MOVW R16,R30
0022e8 9730      	SBIW R30,0
0022e9 f061      	BREQ _0x2000018
                +
0022ea 3002     +CPI R16 , LOW ( 2 )
0022eb e0e0     +LDI R30 , HIGH ( 2 )
0022ec 071e     +CPC R17 , R30
                 	__CPWRN 16,17,2
0022ed f0c0      	BRLO _0x2000019
0022ee 01f8      	MOVW R30,R16
0022ef 9731      	SBIW R30,1
0022f0 018f      	MOVW R16,R30
                +
0022f1 81aa     +LDD R26 , Y + 2
0022f2 81bb     +LDD R27 , Y + 2 + 1
0022f3 9614     +ADIW R26 , 4
0022f4 93ed     +ST X + , R30
0022f5 93fc     +ST X , R31
                 	__PUTW1SNS 2,4
                 _0x2000018:
0022f6 81aa      	LDD  R26,Y+2
0022f7 81bb      	LDD  R27,Y+2+1
0022f8 9612      	ADIW R26,2
0022f9 940e 24d0 	CALL SUBOPT_0x7
0022fb 9731      	SBIW R30,1
0022fc 81ac      	LDD  R26,Y+4
0022fd 83a0      	STD  Z+0,R26
0022fe 81aa      	LDD  R26,Y+2
0022ff 81bb      	LDD  R27,Y+2+1
002300 940e 2783 	CALL __GETW1P
002302 23ff      	TST  R31
002303 f012      	BRMI _0x200001A
002304 940e 24d0 	CALL SUBOPT_0x7
                 _0x200001A:
                 _0x2000019:
002306 c006      	RJMP _0x200001B
                 _0x2000016:
002307 81aa      	LDD  R26,Y+2
002308 81bb      	LDD  R27,Y+2+1
002309 efef      	LDI  R30,LOW(65535)
00230a efff      	LDI  R31,HIGH(65535)
00230b 93ed      	ST   X+,R30
00230c 93fc      	ST   X,R31
                 _0x200001B:
00230d 8119      	LDD  R17,Y+1
00230e 8108      	LDD  R16,Y+0
00230f 9625      	ADIW R28,5
002310 9508      	RET
                 __print_G100:
002311 9726      	SBIW R28,6
002312 940e 27b4 	CALL __SAVELOCR6
002314 e010      	LDI  R17,0
002315 85ac      	LDD  R26,Y+12
002316 85bd      	LDD  R27,Y+12+1
002317 e0e0      	LDI  R30,LOW(0)
002318 e0f0      	LDI  R31,HIGH(0)
002319 93ed      	ST   X+,R30
00231a 93fc      	ST   X,R31
                 _0x200001C:
00231b 89ea      	LDD  R30,Y+18
00231c 89fb      	LDD  R31,Y+18+1
00231d 9631      	ADIW R30,1
00231e 8bea      	STD  Y+18,R30
00231f 8bfb      	STD  Y+18+1,R31
002320 9731      	SBIW R30,1
002321 91e4      	LPM  R30,Z
002322 2f2e      	MOV  R18,R30
002323 30e0      	CPI  R30,0
002324 f411      	BRNE PC+3
002325 940c 243e 	JMP _0x200001E
002327 2fe1      	MOV  R30,R17
002328 30e0      	CPI  R30,0
002329 f439      	BRNE _0x2000022
00232a 3225      	CPI  R18,37
00232b f411      	BRNE _0x2000023
00232c e011      	LDI  R17,LOW(1)
00232d c002      	RJMP _0x2000024
                 _0x2000023:
00232e 940e 26e9 	CALL SUBOPT_0x57
                 _0x2000024:
002330 c10c      	RJMP _0x2000021
                 _0x2000022:
002331 30e1      	CPI  R30,LOW(0x1)
002332 f4a9      	BRNE _0x2000025
002333 3225      	CPI  R18,37
002334 f419      	BRNE _0x2000026
002335 940e 26e9 	CALL SUBOPT_0x57
002337 c104      	RJMP _0x20000CF
                 _0x2000026:
002338 e012      	LDI  R17,LOW(2)
002339 e040      	LDI  R20,LOW(0)
00233a e000      	LDI  R16,LOW(0)
00233b 322d      	CPI  R18,45
00233c f411      	BRNE _0x2000027
00233d e001      	LDI  R16,LOW(1)
00233e c0fe      	RJMP _0x2000021
                 _0x2000027:
00233f 322b      	CPI  R18,43
002340 f411      	BRNE _0x2000028
002341 e24b      	LDI  R20,LOW(43)
002342 c0fa      	RJMP _0x2000021
                 _0x2000028:
002343 3220      	CPI  R18,32
002344 f411      	BRNE _0x2000029
002345 e240      	LDI  R20,LOW(32)
002346 c0f6      	RJMP _0x2000021
                 _0x2000029:
002347 c002      	RJMP _0x200002A
                 _0x2000025:
002348 30e2      	CPI  R30,LOW(0x2)
002349 f439      	BRNE _0x200002B
                 _0x200002A:
00234a e050      	LDI  R21,LOW(0)
00234b e013      	LDI  R17,LOW(3)
00234c 3320      	CPI  R18,48
00234d f411      	BRNE _0x200002C
00234e 6800      	ORI  R16,LOW(128)
00234f c0ed      	RJMP _0x2000021
                 _0x200002C:
002350 c004      	RJMP _0x200002D
                 _0x200002B:
002351 30e3      	CPI  R30,LOW(0x3)
002352 f011      	BREQ PC+3
002353 940c 243d 	JMP _0x2000021
                 _0x200002D:
002355 3320      	CPI  R18,48
002356 f010      	BRLO _0x2000030
002357 332a      	CPI  R18,58
002358 f008      	BRLO _0x2000031
                 _0x2000030:
002359 c007      	RJMP _0x200002F
                 _0x2000031:
00235a e0aa      	LDI  R26,LOW(10)
00235b 9f5a      	MUL  R21,R26
00235c 2d50      	MOV  R21,R0
00235d 2fe2      	MOV  R30,R18
00235e 53e0      	SUBI R30,LOW(48)
00235f 0f5e      	ADD  R21,R30
002360 c0dc      	RJMP _0x2000021
                 _0x200002F:
002361 2fe2      	MOV  R30,R18
002362 36e3      	CPI  R30,LOW(0x63)
002363 f449      	BRNE _0x2000035
002364 940e 26f2 	CALL SUBOPT_0x58
002366 89e8      	LDD  R30,Y+16
002367 89f9      	LDD  R31,Y+16+1
002368 81a4      	LDD  R26,Z+4
002369 93aa      	ST   -Y,R26
00236a 940e 26f8 	CALL SUBOPT_0x59
00236c c0cf      	RJMP _0x2000036
                 _0x2000035:
00236d 37e3      	CPI  R30,LOW(0x73)
00236e f441      	BRNE _0x2000038
00236f 940e 26f2 	CALL SUBOPT_0x58
002371 940e 2700 	CALL SUBOPT_0x5A
002373 940e 2497 	CALL _strlen
002375 2f1e      	MOV  R17,R30
002376 c00a      	RJMP _0x2000039
                 _0x2000038:
002377 37e0      	CPI  R30,LOW(0x70)
002378 f461      	BRNE _0x200003B
002379 940e 26f2 	CALL SUBOPT_0x58
00237b 940e 2700 	CALL SUBOPT_0x5A
00237d 940e 24a1 	CALL _strlenf
00237f 2f1e      	MOV  R17,R30
002380 6008      	ORI  R16,LOW(8)
                 _0x2000039:
002381 6002      	ORI  R16,LOW(2)
002382 770f      	ANDI R16,LOW(127)
002383 e030      	LDI  R19,LOW(0)
002384 c035      	RJMP _0x200003C
                 _0x200003B:
002385 36e4      	CPI  R30,LOW(0x64)
002386 f011      	BREQ _0x200003F
002387 36e9      	CPI  R30,LOW(0x69)
002388 f411      	BRNE _0x2000040
                 _0x200003F:
002389 6004      	ORI  R16,LOW(4)
00238a c002      	RJMP _0x2000041
                 _0x2000040:
00238b 37e5      	CPI  R30,LOW(0x75)
00238c f431      	BRNE _0x2000042
                 _0x2000041:
00238d e4e0      	LDI  R30,LOW(_tbl10_G100*2)
00238e e2fd      	LDI  R31,HIGH(_tbl10_G100*2)
00238f 83ee      	STD  Y+6,R30
002390 83ff      	STD  Y+6+1,R31
002391 e015      	LDI  R17,LOW(5)
002392 c00d      	RJMP _0x2000043
                 _0x2000042:
002393 35e8      	CPI  R30,LOW(0x58)
002394 f411      	BRNE _0x2000045
002395 6008      	ORI  R16,LOW(8)
002396 c004      	RJMP _0x2000046
                 _0x2000045:
002397 37e8      	CPI  R30,LOW(0x78)
002398 f011      	BREQ PC+3
002399 940c 243c 	JMP _0x2000077
                 _0x2000046:
00239b e4ea      	LDI  R30,LOW(_tbl16_G100*2)
00239c e2fd      	LDI  R31,HIGH(_tbl16_G100*2)
00239d 83ee      	STD  Y+6,R30
00239e 83ff      	STD  Y+6+1,R31
00239f e014      	LDI  R17,LOW(4)
                 _0x2000043:
0023a0 ff02      	SBRS R16,2
0023a1 c014      	RJMP _0x2000048
0023a2 940e 26f2 	CALL SUBOPT_0x58
0023a4 940e 270a 	CALL SUBOPT_0x5B
0023a6 85ab      	LDD  R26,Y+11
0023a7 23aa      	TST  R26
0023a8 f43a      	BRPL _0x2000049
0023a9 85ea      	LDD  R30,Y+10
0023aa 85fb      	LDD  R31,Y+10+1
0023ab 940e 2732 	CALL __ANEGW1
0023ad 87ea      	STD  Y+10,R30
0023ae 87fb      	STD  Y+10+1,R31
0023af e24d      	LDI  R20,LOW(45)
                 _0x2000049:
0023b0 3040      	CPI  R20,0
0023b1 f011      	BREQ _0x200004A
0023b2 5f1f      	SUBI R17,-LOW(1)
0023b3 c001      	RJMP _0x200004B
                 _0x200004A:
0023b4 7f0b      	ANDI R16,LOW(251)
                 _0x200004B:
0023b5 c004      	RJMP _0x200004C
                 _0x2000048:
0023b6 940e 26f2 	CALL SUBOPT_0x58
0023b8 940e 270a 	CALL SUBOPT_0x5B
                 _0x200004C:
                 _0x200003C:
0023ba fd00      	SBRC R16,0
0023bb c011      	RJMP _0x200004D
                 _0x200004E:
0023bc 1715      	CP   R17,R21
0023bd f478      	BRSH _0x2000050
0023be ff07      	SBRS R16,7
0023bf c008      	RJMP _0x2000051
0023c0 ff02      	SBRS R16,2
0023c1 c004      	RJMP _0x2000052
0023c2 7f0b      	ANDI R16,LOW(251)
0023c3 2f24      	MOV  R18,R20
0023c4 5011      	SUBI R17,LOW(1)
0023c5 c001      	RJMP _0x2000053
                 _0x2000052:
0023c6 e320      	LDI  R18,LOW(48)
                 _0x2000053:
0023c7 c001      	RJMP _0x2000054
                 _0x2000051:
0023c8 e220      	LDI  R18,LOW(32)
                 _0x2000054:
0023c9 940e 26e9 	CALL SUBOPT_0x57
0023cb 5051      	SUBI R21,LOW(1)
0023cc cfef      	RJMP _0x200004E
                 _0x2000050:
                 _0x200004D:
0023cd 2f31      	MOV  R19,R17
0023ce ff01      	SBRS R16,1
0023cf c017      	RJMP _0x2000055
                 _0x2000056:
0023d0 3030      	CPI  R19,0
0023d1 f0a1      	BREQ _0x2000058
0023d2 ff03      	SBRS R16,3
0023d3 c006      	RJMP _0x2000059
0023d4 81ee      	LDD  R30,Y+6
0023d5 81ff      	LDD  R31,Y+6+1
0023d6 9125      	LPM  R18,Z+
0023d7 83ee      	STD  Y+6,R30
0023d8 83ff      	STD  Y+6+1,R31
0023d9 c005      	RJMP _0x200005A
                 _0x2000059:
0023da 81ae      	LDD  R26,Y+6
0023db 81bf      	LDD  R27,Y+6+1
0023dc 912d      	LD   R18,X+
0023dd 83ae      	STD  Y+6,R26
0023de 83bf      	STD  Y+6+1,R27
                 _0x200005A:
0023df 940e 26e9 	CALL SUBOPT_0x57
0023e1 3050      	CPI  R21,0
0023e2 f009      	BREQ _0x200005B
0023e3 5051      	SUBI R21,LOW(1)
                 _0x200005B:
0023e4 5031      	SUBI R19,LOW(1)
0023e5 cfea      	RJMP _0x2000056
                 _0x2000058:
0023e6 c04b      	RJMP _0x200005C
                 _0x2000055:
                 _0x200005E:
0023e7 e320      	LDI  R18,LOW(48)
0023e8 81ee      	LDD  R30,Y+6
0023e9 81ff      	LDD  R31,Y+6+1
0023ea 940e 2787 	CALL __GETW1PF
0023ec 87e8      	STD  Y+8,R30
0023ed 87f9      	STD  Y+8+1,R31
0023ee 81ee      	LDD  R30,Y+6
0023ef 81ff      	LDD  R31,Y+6+1
0023f0 9632      	ADIW R30,2
0023f1 83ee      	STD  Y+6,R30
0023f2 83ff      	STD  Y+6+1,R31
                 _0x2000060:
0023f3 85e8      	LDD  R30,Y+8
0023f4 85f9      	LDD  R31,Y+8+1
0023f5 85aa      	LDD  R26,Y+10
0023f6 85bb      	LDD  R27,Y+10+1
0023f7 17ae      	CP   R26,R30
0023f8 07bf      	CPC  R27,R31
0023f9 f050      	BRLO _0x2000062
0023fa 5f2f      	SUBI R18,-LOW(1)
0023fb 85a8      	LDD  R26,Y+8
0023fc 85b9      	LDD  R27,Y+8+1
0023fd 85ea      	LDD  R30,Y+10
0023fe 85fb      	LDD  R31,Y+10+1
0023ff 1bea      	SUB  R30,R26
002400 0bfb      	SBC  R31,R27
002401 87ea      	STD  Y+10,R30
002402 87fb      	STD  Y+10+1,R31
002403 cfef      	RJMP _0x2000060
                 _0x2000062:
002404 332a      	CPI  R18,58
002405 f028      	BRLO _0x2000063
002406 ff03      	SBRS R16,3
002407 c002      	RJMP _0x2000064
002408 5f29      	SUBI R18,-LOW(7)
002409 c001      	RJMP _0x2000065
                 _0x2000064:
00240a 5d29      	SUBI R18,-LOW(39)
                 _0x2000065:
                 _0x2000063:
00240b fd04      	SBRC R16,4
00240c c01a      	RJMP _0x2000067
00240d 3321      	CPI  R18,49
00240e f420      	BRSH _0x2000069
00240f 85a8      	LDD  R26,Y+8
002410 85b9      	LDD  R27,Y+8+1
002411 9711      	SBIW R26,1
002412 f409      	BRNE _0x2000068
                 _0x2000069:
002413 c009      	RJMP _0x20000D0
                 _0x2000068:
002414 1753      	CP   R21,R19
002415 f010      	BRLO _0x200006D
002416 ff00      	SBRS R16,0
002417 c001      	RJMP _0x200006E
                 _0x200006D:
002418 c013      	RJMP _0x200006C
                 _0x200006E:
002419 e220      	LDI  R18,LOW(32)
00241a ff07      	SBRS R16,7
00241b c00b      	RJMP _0x200006F
00241c e320      	LDI  R18,LOW(48)
                 _0x20000D0:
00241d 6100      	ORI  R16,LOW(16)
00241e ff02      	SBRS R16,2
00241f c007      	RJMP _0x2000070
002420 7f0b      	ANDI R16,LOW(251)
002421 934a      	ST   -Y,R20
002422 940e 26f8 	CALL SUBOPT_0x59
002424 3050      	CPI  R21,0
002425 f009      	BREQ _0x2000071
002426 5051      	SUBI R21,LOW(1)
                 _0x2000071:
                 _0x2000070:
                 _0x200006F:
                 _0x2000067:
002427 940e 26e9 	CALL SUBOPT_0x57
002429 3050      	CPI  R21,0
00242a f009      	BREQ _0x2000072
00242b 5051      	SUBI R21,LOW(1)
                 _0x2000072:
                 _0x200006C:
00242c 5031      	SUBI R19,LOW(1)
00242d 85a8      	LDD  R26,Y+8
00242e 85b9      	LDD  R27,Y+8+1
00242f 9712      	SBIW R26,2
002430 f008      	BRLO _0x200005F
002431 cfb5      	RJMP _0x200005E
                 _0x200005F:
                 _0x200005C:
002432 ff00      	SBRS R16,0
002433 c008      	RJMP _0x2000073
                 _0x2000074:
002434 3050      	CPI  R21,0
002435 f031      	BREQ _0x2000076
002436 5051      	SUBI R21,LOW(1)
002437 e2e0      	LDI  R30,LOW(32)
002438 93ea      	ST   -Y,R30
002439 940e 26f8 	CALL SUBOPT_0x59
00243b cff8      	RJMP _0x2000074
                 _0x2000076:
                 _0x2000073:
                 _0x2000077:
                 _0x2000036:
                 _0x20000CF:
00243c e010      	LDI  R17,LOW(0)
                 _0x2000021:
00243d cedd      	RJMP _0x200001C
                 _0x200001E:
00243e 85ac      	LDD  R26,Y+12
00243f 85bd      	LDD  R27,Y+12+1
002440 940e 2783 	CALL __GETW1P
002442 940e 27bb 	CALL __LOADLOCR6
002444 9664      	ADIW R28,20
002445 9508      	RET
                 _sprintf:
002446 92ff      	PUSH R15
002447 2ef8      	MOV  R15,R24
002448 9726      	SBIW R28,6
002449 940e 27b6 	CALL __SAVELOCR4
00244b 940e 2712 	CALL SUBOPT_0x5C
00244d 9730      	SBIW R30,0
00244e f419      	BRNE _0x2000078
00244f efef      	LDI  R30,LOW(65535)
002450 efff      	LDI  R31,HIGH(65535)
002451 c01f      	RJMP _0x20A0001
                 _0x2000078:
002452 01de      	MOVW R26,R28
002453 9616      	ADIW R26,6
002454 940e 272e 	CALL __ADDW2R15
002456 018d      	MOVW R16,R26
002457 940e 2712 	CALL SUBOPT_0x5C
002459 83ee      	STD  Y+6,R30
00245a 83ff      	STD  Y+6+1,R31
00245b e0e0      	LDI  R30,LOW(0)
00245c 87e8      	STD  Y+8,R30
00245d 87e9      	STD  Y+8+1,R30
00245e 01de      	MOVW R26,R28
00245f 961a      	ADIW R26,10
002460 940e 2719 	CALL SUBOPT_0x5D
002462 ede9      	LDI  R30,LOW(_put_buff_G100)
002463 e2f2      	LDI  R31,HIGH(_put_buff_G100)
002464 93fa      	ST   -Y,R31
002465 93ea      	ST   -Y,R30
002466 01fe      	MOVW R30,R28
002467 963a      	ADIW R30,10
002468 93fa      	ST   -Y,R31
002469 93ea      	ST   -Y,R30
00246a dea6      	RCALL __print_G100
00246b 019f      	MOVW R18,R30
00246c 81ae      	LDD  R26,Y+6
00246d 81bf      	LDD  R27,Y+6+1
00246e e0e0      	LDI  R30,LOW(0)
00246f 93ec      	ST   X,R30
002470 01f9      	MOVW R30,R18
                 _0x20A0001:
002471 940e 27bd 	CALL __LOADLOCR4
002473 962a      	ADIW R28,10
002474 90ff      	POP  R15
002475 9508      	RET
                 _printf:
002476 92ff      	PUSH R15
002477 2ef8      	MOV  R15,R24
002478 9726      	SBIW R28,6
002479 931a      	ST   -Y,R17
00247a 930a      	ST   -Y,R16
00247b 01de      	MOVW R26,R28
00247c 9614      	ADIW R26,4
00247d 940e 272e 	CALL __ADDW2R15
00247f 018d      	MOVW R16,R26
002480 e0e0      	LDI  R30,LOW(0)
002481 83ec      	STD  Y+4,R30
002482 83ed      	STD  Y+4+1,R30
002483 83ee      	STD  Y+6,R30
002484 83ef      	STD  Y+6+1,R30
002485 01de      	MOVW R26,R28
002486 9618      	ADIW R26,8
002487 940e 2719 	CALL SUBOPT_0x5D
002489 ede0      	LDI  R30,LOW(_put_usart_G100)
00248a e2f2      	LDI  R31,HIGH(_put_usart_G100)
00248b 93fa      	ST   -Y,R31
00248c 93ea      	ST   -Y,R30
00248d 01fe      	MOVW R30,R28
00248e 9638      	ADIW R30,8
00248f 93fa      	ST   -Y,R31
002490 93ea      	ST   -Y,R30
002491 de7f      	RCALL __print_G100
002492 8119      	LDD  R17,Y+1
002493 8108      	LDD  R16,Y+0
002494 9628      	ADIW R28,8
002495 90ff      	POP  R15
002496 9508      	RET
                 
                 	.CSEG
                 
                 	.DSEG
                 
                 	.CSEG
                 
                 	.CSEG
                 
                 	.CSEG
                 _strlen:
002497 91a9          ld   r26,y+
002498 91b9          ld   r27,y+
002499 27ee          clr  r30
00249a 27ff          clr  r31
                 strlen0:
00249b 916d          ld   r22,x+
00249c 2366          tst  r22
00249d f011          breq strlen1
00249e 9631          adiw r30,1
00249f cffb          rjmp strlen0
                 strlen1:
0024a0 9508          ret
                 _strlenf:
0024a1 27aa          clr  r26
0024a2 27bb          clr  r27
0024a3 91e9          ld   r30,y+
0024a4 91f9          ld   r31,y+
                 strlenf0:
0024a5 9005      	lpm  r0,z+
0024a6 2000          tst  r0
0024a7 f011          breq strlenf1
0024a8 9611          adiw r26,1
0024a9 cffb          rjmp strlenf0
                 strlenf1:
0024aa 01fd          movw r30,r26
0024ab 9508          ret
                 
                 	.CSEG
                 
                 	.DSEG
                 _prevLet_G000:
000357           	.BYTE 0x2
                 _stat_G000:
000359           	.BYTE 0x1
                 _prevX_G000:
00035a           	.BYTE 0x1
                 _prevY_G000:
00035b           	.BYTE 0x1
                 _rx_b0:
00035c           	.BYTE 0xC8
                 _NOMBRE_DISP:
000424           	.BYTE 0x5
                 _NUM_DISP:
000429           	.BYTE 0x5
                 _btn5:
00042e           	.BYTE 0x1
                 _aux:
00042f           	.BYTE 0x1
                 _punto:
000430           	.BYTE 0x4
                 _pt:
000434           	.BYTE 0x1
                 _no_pt:
000435           	.BYTE 0x4
                 _unidades_ruta:
000439           	.BYTE 0x2
                 _decenas_ruta:
00043b           	.BYTE 0x2
                 _centenas_ruta:
00043d           	.BYTE 0x2
                 _time_count_G000:
00043f           	.BYTE 0x2
                 _act_G000:
000441           	.BYTE 0x2
                 
                 	.ESEG
                 
                 	.ORG 0x80
                 _seg:
000080           	.BYTE 0x1
                 
                 	.ORG 0x0
                 
                 	.ORG 0x82
                 _seg1:
000082           	.BYTE 0x1
                 
                 	.ORG 0x0
                 
                 	.ORG 0x84
                 _minu:
000084           	.BYTE 0x1
                 
                 	.ORG 0x0
                 
                 	.ORG 0x86
                 _min1:
000086           	.BYTE 0x1
                 
                 	.ORG 0x0
                 
                 	.ORG 0x88
                 _hora:
000088           	.BYTE 0x1
                 
                 	.ORG 0x0
                 
                 	.ORG 0x8A
                 _hora1:
00008a           	.BYTE 0x1
                 
                 	.ORG 0x0
                 
                 	.ORG 0x8C
                 _dia:
00008c           	.BYTE 0x1
                 
                 	.ORG 0x0
                 
                 	.ORG 0x8E
                 _dia1:
00008e           	.BYTE 0x1
                 
                 	.ORG 0x0
                 
                 	.ORG 0x90
                 _mes:
000090           	.BYTE 0x1
                 
                 	.ORG 0x0
                 
                 	.ORG 0x92
                 _mes1:
000092           	.BYTE 0x1
                 
                 	.ORG 0x0
                 
                 	.ORG 0x94
                 _an:
000094           	.BYTE 0x1
                 
                 	.ORG 0x0
                 
                 	.ORG 0x96
                 _an1:
000096           	.BYTE 0x1
                 
                 	.ORG 0x0
                 
                 	.ORG 0x28
                 _num_ruta:
000028           	.BYTE 0x1
                 
                 	.ORG 0x0
                 
                 	.ORG 0x2A
                 _laborando:
00002a           	.BYTE 0x1
                 
                 	.ORG 0x0
                 
                 	.DSEG
                 __seg:
000443           	.BYTE 0x1
                 __seg1:
000444           	.BYTE 0x1
                 __minu:
000445           	.BYTE 0x1
                 __min1:
000446           	.BYTE 0x1
                 __hora:
000447           	.BYTE 0x1
                 __hora1:
000448           	.BYTE 0x1
                 __dia:
000449           	.BYTE 0x1
                 __dia1:
00044a           	.BYTE 0x1
                 __mes:
00044b           	.BYTE 0x1
                 __mes1:
00044c           	.BYTE 0x1
                 __an:
00044d           	.BYTE 0x1
                 __an1:
00044e           	.BYTE 0x1
                 __num_ruta:
00044f           	.BYTE 0x1
                 __laborando:
000450           	.BYTE 0x1
                 _gsm:
000451           	.BYTE 0x2
                 _gps:
000453           	.BYTE 0x2
                 _ind_sen:
000455           	.BYTE 0x2
                 _reloj:
000457           	.BYTE 0x8
                 _fecha:
00045f           	.BYTE 0x8
                 __seed_G101:
000467           	.BYTE 0x4
                 
                 	.CSEG
                 ;OPTIMIZER ADDED SUBROUTINE, CALLED 3 TIMES, CODE SIZE REDUCTION:1 WORDS
                 SUBOPT_0x0:
0024ac 93fa      	ST   -Y,R31
0024ad 93ea      	ST   -Y,R30
0024ae 940c 17c8 	JMP  _goto_col
                 
                 ;OPTIMIZER ADDED SUBROUTINE, CALLED 3 TIMES, CODE SIZE REDUCTION:1 WORDS
                 SUBOPT_0x1:
0024b0 93fa      	ST   -Y,R31
0024b1 93ea      	ST   -Y,R30
0024b2 940c 17e4 	JMP  _goto_row
                 
                 ;OPTIMIZER ADDED SUBROUTINE, CALLED 12 TIMES, CODE SIZE REDUCTION:19 WORDS
                 SUBOPT_0x2:
0024b4 e0e0      	LDI  R30,LOW(0)
0024b5 e0f0      	LDI  R31,HIGH(0)
0024b6 93fa      	ST   -Y,R31
0024b7 93ea      	ST   -Y,R30
0024b8 9508      	RET
                 
                 ;OPTIMIZER ADDED SUBROUTINE, CALLED 2 TIMES, CODE SIZE REDUCTION:3 WORDS
                 SUBOPT_0x3:
0024b9 81ec      	LDD  R30,Y+4
0024ba e0f0      	LDI  R31,0
0024bb 93fa      	ST   -Y,R31
0024bc 93ea      	ST   -Y,R30
0024bd 940c 17ef 	JMP  _goto_xy
                 
                 ;OPTIMIZER ADDED SUBROUTINE, CALLED 11 TIMES, CODE SIZE REDUCTION:17 WORDS
                 SUBOPT_0x4:
0024bf 2fe1      	MOV  R30,R17
0024c0 e0f0      	LDI  R31,0
0024c1 9508      	RET
                 
                 ;OPTIMIZER ADDED SUBROUTINE, CALLED 2 TIMES, CODE SIZE REDUCTION:1 WORDS
                 SUBOPT_0x5:
0024c2 81ae      	LDD  R26,Y+6
0024c3 81bf      	LDD  R27,Y+6+1
0024c4 27ee      	CLR  R30
0024c5 0fa1      	ADD  R26,R17
0024c6 1fbe      	ADC  R27,R30
0024c7 91ec      	LD   R30,X
0024c8 9508      	RET
                 
                 ;OPTIMIZER ADDED SUBROUTINE, CALLED 3 TIMES, CODE SIZE REDUCTION:5 WORDS
                 SUBOPT_0x6:
                +
0024c9 01fe     +MOVW R30 , R28
0024ca 5be9     +SUBI R30 , LOW ( - 71 )
0024cb 4fff     +SBCI R31 , HIGH ( - 71 )
0024cc 9001     +LD R0 , Z +
0024cd 81f0     +LD R31 , Z
0024ce 2de0     +MOV R30 , R0
                 	__GETW1SX 71
0024cf 9508      	RET
                 
                 ;OPTIMIZER ADDED SUBROUTINE, CALLED 5 TIMES, CODE SIZE REDUCTION:9 WORDS
                 SUBOPT_0x7:
0024d0 91ed      	LD   R30,X+
0024d1 91fd      	LD   R31,X+
0024d2 9631      	ADIW R30,1
0024d3 93fe      	ST   -X,R31
0024d4 93ee      	ST   -X,R30
0024d5 9508      	RET
                 
                 ;OPTIMIZER ADDED SUBROUTINE, CALLED 7 TIMES, CODE SIZE REDUCTION:9 WORDS
                 SUBOPT_0x8:
0024d6 81ee      	LDD  R30,Y+6
0024d7 e0f0      	LDI  R31,0
0024d8 9508      	RET
                 
                 ;OPTIMIZER ADDED SUBROUTINE, CALLED 2 TIMES, CODE SIZE REDUCTION:7 WORDS
                 SUBOPT_0x9:
0024d9 91e0 0357 	LDS  R30,_prevLet_G000
0024db 91f0 0358 	LDS  R31,_prevLet_G000+1
0024dd 5ce1      	SUBI R30,LOW(193)
0024de 40f0      	SBCI R31,HIGH(193)
0024df e0a6      	LDI  R26,LOW(6)
0024e0 e0b0      	LDI  R27,HIGH(6)
0024e1 940e 2742 	CALL __MULW12U
0024e3 58e4      	SUBI R30,LOW(-_map*2)
0024e4 4ff7      	SBCI R31,HIGH(-_map*2)
0024e5 9508      	RET
                 
                 ;OPTIMIZER ADDED SUBROUTINE, CALLED 2 TIMES, CODE SIZE REDUCTION:3 WORDS
                 SUBOPT_0xA:
0024e6 5ce1      	SUBI R30,LOW(193)
0024e7 40f0      	SBCI R31,HIGH(193)
0024e8 e0a6      	LDI  R26,LOW(6)
0024e9 e0b0      	LDI  R27,HIGH(6)
0024ea 940e 2742 	CALL __MULW12U
0024ec 58e4      	SUBI R30,LOW(-_map*2)
0024ed 4ff7      	SBCI R31,HIGH(-_map*2)
0024ee 9508      	RET
                 
                 ;OPTIMIZER ADDED SUBROUTINE, CALLED 3 TIMES, CODE SIZE REDUCTION:3 WORDS
                 SUBOPT_0xB:
0024ef e0f0      	LDI  R31,0
0024f0 93fa      	ST   -Y,R31
0024f1 93ea      	ST   -Y,R30
0024f2 9508      	RET
                 
                 ;OPTIMIZER ADDED SUBROUTINE, CALLED 4 TIMES, CODE SIZE REDUCTION:3 WORDS
                 SUBOPT_0xC:
0024f3 93fa      	ST   -Y,R31
0024f4 93ea      	ST   -Y,R30
0024f5 81ee      	LDD  R30,Y+6
0024f6 81ff      	LDD  R31,Y+6+1
0024f7 9508      	RET
                 
                 ;OPTIMIZER ADDED SUBROUTINE, CALLED 2 TIMES, CODE SIZE REDUCTION:1 WORDS
                 SUBOPT_0xD:
0024f8 93fa      	ST   -Y,R31
0024f9 93ea      	ST   -Y,R30
0024fa 81ee      	LDD  R30,Y+6
0024fb 93ea      	ST   -Y,R30
0024fc 940c 187a 	JMP  _putItSz
                 
                 ;OPTIMIZER ADDED SUBROUTINE, CALLED 2 TIMES, CODE SIZE REDUCTION:7 WORDS
                 SUBOPT_0xE:
0024fe 85e9      	LDD  R30,Y+9
0024ff 85fa      	LDD  R31,Y+9+1
002500 93fa      	ST   -Y,R31
002501 93ea      	ST   -Y,R30
002502 940e 2497 	CALL _strlen
002504 2fa1      	MOV  R26,R17
002505 e0b0      	LDI  R27,0
002506 17ae      	CP   R26,R30
002507 07bf      	CPC  R27,R31
002508 9508      	RET
                 
                 ;OPTIMIZER ADDED SUBROUTINE, CALLED 7 TIMES, CODE SIZE REDUCTION:9 WORDS
                 SUBOPT_0xF:
002509 85a9      	LDD  R26,Y+9
00250a 85ba      	LDD  R27,Y+9+1
00250b 0fae      	ADD  R26,R30
00250c 1fbf      	ADC  R27,R31
00250d 9508      	RET
                 
                 ;OPTIMIZER ADDED SUBROUTINE, CALLED 4 TIMES, CODE SIZE REDUCTION:3 WORDS
                 SUBOPT_0x10:
00250e 85e8      	LDD  R30,Y+8
00250f 85f9      	LDD  R31,Y+8+1
002510 93fa      	ST   -Y,R31
002511 93ea      	ST   -Y,R30
002512 9508      	RET
                 
                 ;OPTIMIZER ADDED SUBROUTINE, CALLED 3 TIMES, CODE SIZE REDUCTION:3 WORDS
                 SUBOPT_0x11:
002513 93ea      	ST   -Y,R30
002514 85e9      	LDD  R30,Y+9
002515 93ea      	ST   -Y,R30
002516 940c 190c 	JMP  _glcd_putchar
                 
                 ;OPTIMIZER ADDED SUBROUTINE, CALLED 2 TIMES, CODE SIZE REDUCTION:7 WORDS
                 SUBOPT_0x12:
002518 81ea      	LDD  R30,Y+2
002519 e0f0      	LDI  R31,0
00251a fde7      	SBRC R30,7
00251b efff      	SER  R31
00251c 9638      	ADIW R30,8
00251d 01df      	MOVW R26,R30
00251e 81eb      	LDD  R30,Y+3
00251f e0f0      	LDI  R31,0
002520 940e 274a 	CALL __MULW12
002522 9508      	RET
                 
                 ;OPTIMIZER ADDED SUBROUTINE, CALLED 5 TIMES, CODE SIZE REDUCTION:5 WORDS
                 SUBOPT_0x13:
002523 81eb      	LDD  R30,Y+3
002524 e0a8      	LDI  R26,LOW(8)
002525 02ea      	MULS R30,R26
002526 01f0      	MOVW R30,R0
002527 9508      	RET
                 
                 ;OPTIMIZER ADDED SUBROUTINE, CALLED 2 TIMES, CODE SIZE REDUCTION:5 WORDS
                 SUBOPT_0x14:
002528 81eb      	LDD  R30,Y+3
002529 e0f0      	LDI  R31,0
00252a 81ad      	LDD  R26,Y+5
00252b 81be      	LDD  R27,Y+5+1
00252c 0fea      	ADD  R30,R26
00252d 1ffb      	ADC  R31,R27
00252e 83ed      	STD  Y+5,R30
00252f 83fe      	STD  Y+5+1,R31
002530 9508      	RET
                 
                 ;OPTIMIZER ADDED SUBROUTINE, CALLED 4 TIMES, CODE SIZE REDUCTION:6 WORDS
                 SUBOPT_0x15:
002531 85a9      	LDD  R26,Y+9
002532 85ba      	LDD  R27,Y+9+1
002533 0fea      	ADD  R30,R26
002534 1ffb      	ADC  R31,R27
002535 81a1      	LDD  R26,Z+1
002536 9508      	RET
                 
                 ;OPTIMIZER ADDED SUBROUTINE, CALLED 2 TIMES, CODE SIZE REDUCTION:7 WORDS
                 SUBOPT_0x16:
002537 81ec      	LDD  R30,Y+4
002538 e0a8      	LDI  R26,LOW(8)
002539 02ea      	MULS R30,R26
00253a 01f0      	MOVW R30,R0
00253b 85a8      	LDD  R26,Y+8
00253c 85b9      	LDD  R27,Y+8+1
00253d 1bae      	SUB  R26,R30
00253e 0bbf      	SBC  R27,R31
00253f 93ba      	ST   -Y,R27
002540 93aa      	ST   -Y,R26
002541 cfcc      	RJMP SUBOPT_0x10
                 
                 ;OPTIMIZER ADDED SUBROUTINE, CALLED 3 TIMES, CODE SIZE REDUCTION:1 WORDS
                 SUBOPT_0x17:
002542 1bae      	SUB  R26,R30
002543 0bbf      	SBC  R27,R31
002544 83af      	STD  Y+7,R26
002545 87b8      	STD  Y+7+1,R27
002546 9508      	RET
                 
                 ;OPTIMIZER ADDED SUBROUTINE, CALLED 11 TIMES, CODE SIZE REDUCTION:17 WORDS
                 SUBOPT_0x18:
002547 e8a0      	LDI  R26,LOW(_seg)
002548 e0b0      	LDI  R27,HIGH(_seg)
002549 940e 2797 	CALL __EEPROMRDB
00254b 9508      	RET
                 
                 ;OPTIMIZER ADDED SUBROUTINE, CALLED 6 TIMES, CODE SIZE REDUCTION:7 WORDS
                 SUBOPT_0x19:
00254c 5fef      	SUBI R30,-LOW(1)
00254d 940e 27a3 	CALL __EEPROMWRB
00254f 50e1      	SUBI R30,LOW(1)
002550 9508      	RET
                 
                 ;OPTIMIZER ADDED SUBROUTINE, CALLED 9 TIMES, CODE SIZE REDUCTION:13 WORDS
                 SUBOPT_0x1A:
002551 e8a2      	LDI  R26,LOW(_seg1)
002552 e0b0      	LDI  R27,HIGH(_seg1)
002553 940e 2797 	CALL __EEPROMRDB
002555 9508      	RET
                 
                 ;OPTIMIZER ADDED SUBROUTINE, CALLED 2 TIMES, CODE SIZE REDUCTION:3 WORDS
                 SUBOPT_0x1B:
                +
002556 e6e6     +LDI R30 , LOW ( 2 * _0x0 + ( 0 ) )
002557 e2fd     +LDI R31 , HIGH ( 2 * _0x0 + ( 0 ) )
                 	__POINTW1FN _0x0,0
002558 93fa      	ST   -Y,R31
002559 93ea      	ST   -Y,R30
00255a e080      	LDI  R24,0
00255b 940e 2476 	CALL _printf
00255d 9622      	ADIW R28,2
00255e 9508      	RET
                 
                 ;OPTIMIZER ADDED SUBROUTINE, CALLED 3 TIMES, CODE SIZE REDUCTION:5 WORDS
                 SUBOPT_0x1C:
00255f 93fa      	ST   -Y,R31
002560 93ea      	ST   -Y,R30
002561 e080      	LDI  R24,0
002562 940e 2476 	CALL _printf
002564 9622      	ADIW R28,2
002565 9508      	RET
                 
                 ;OPTIMIZER ADDED SUBROUTINE, CALLED 3 TIMES, CODE SIZE REDUCTION:3 WORDS
                 SUBOPT_0x1D:
002566 e8a0      	LDI  R26,LOW(_seg)
002567 e0b0      	LDI  R27,HIGH(_seg)
002568 e0e0      	LDI  R30,LOW(0)
002569 940e 27a3 	CALL __EEPROMWRB
00256b 9508      	RET
                 
                 ;OPTIMIZER ADDED SUBROUTINE, CALLED 3 TIMES, CODE SIZE REDUCTION:3 WORDS
                 SUBOPT_0x1E:
00256c e8a2      	LDI  R26,LOW(_seg1)
00256d e0b0      	LDI  R27,HIGH(_seg1)
00256e e0e0      	LDI  R30,LOW(0)
00256f 940e 27a3 	CALL __EEPROMWRB
002571 9508      	RET
                 
                 ;OPTIMIZER ADDED SUBROUTINE, CALLED 7 TIMES, CODE SIZE REDUCTION:9 WORDS
                 SUBOPT_0x1F:
002572 e8a4      	LDI  R26,LOW(_minu)
002573 e0b0      	LDI  R27,HIGH(_minu)
002574 940e 2797 	CALL __EEPROMRDB
002576 9508      	RET
                 
                 ;OPTIMIZER ADDED SUBROUTINE, CALLED 3 TIMES, CODE SIZE REDUCTION:3 WORDS
                 SUBOPT_0x20:
002577 e8a4      	LDI  R26,LOW(_minu)
002578 e0b0      	LDI  R27,HIGH(_minu)
002579 e0e0      	LDI  R30,LOW(0)
00257a 940e 27a3 	CALL __EEPROMWRB
00257c 9508      	RET
                 
                 ;OPTIMIZER ADDED SUBROUTINE, CALLED 5 TIMES, CODE SIZE REDUCTION:5 WORDS
                 SUBOPT_0x21:
00257d e8a6      	LDI  R26,LOW(_min1)
00257e e0b0      	LDI  R27,HIGH(_min1)
00257f 940e 2797 	CALL __EEPROMRDB
002581 9508      	RET
                 
                 ;OPTIMIZER ADDED SUBROUTINE, CALLED 3 TIMES, CODE SIZE REDUCTION:3 WORDS
                 SUBOPT_0x22:
002582 e8a6      	LDI  R26,LOW(_min1)
002583 e0b0      	LDI  R27,HIGH(_min1)
002584 e0e0      	LDI  R30,LOW(0)
002585 940e 27a3 	CALL __EEPROMWRB
002587 9508      	RET
                 
                 ;OPTIMIZER ADDED SUBROUTINE, CALLED 7 TIMES, CODE SIZE REDUCTION:9 WORDS
                 SUBOPT_0x23:
002588 e8a8      	LDI  R26,LOW(_hora)
002589 e0b0      	LDI  R27,HIGH(_hora)
00258a 940e 2797 	CALL __EEPROMRDB
00258c 9508      	RET
                 
                 ;OPTIMIZER ADDED SUBROUTINE, CALLED 3 TIMES, CODE SIZE REDUCTION:3 WORDS
                 SUBOPT_0x24:
00258d e8a8      	LDI  R26,LOW(_hora)
00258e e0b0      	LDI  R27,HIGH(_hora)
00258f e0e0      	LDI  R30,LOW(0)
002590 940e 27a3 	CALL __EEPROMWRB
002592 9508      	RET
                 
                 ;OPTIMIZER ADDED SUBROUTINE, CALLED 5 TIMES, CODE SIZE REDUCTION:5 WORDS
                 SUBOPT_0x25:
002593 e8aa      	LDI  R26,LOW(_hora1)
002594 e0b0      	LDI  R27,HIGH(_hora1)
002595 940e 2797 	CALL __EEPROMRDB
002597 9508      	RET
                 
                 ;OPTIMIZER ADDED SUBROUTINE, CALLED 2 TIMES, CODE SIZE REDUCTION:1 WORDS
                 SUBOPT_0x26:
002598 e6e4      	LDI  R30,LOW(100)
002599 e0f0      	LDI  R31,HIGH(100)
00259a 93fa      	ST   -Y,R31
00259b 93ea      	ST   -Y,R30
00259c 940c 2722 	JMP  _delay_ms
                 
                 ;OPTIMIZER ADDED SUBROUTINE, CALLED 2 TIMES, CODE SIZE REDUCTION:54 WORDS
                 SUBOPT_0x27:
00259e 93fa      	ST   -Y,R31
00259f 93ea      	ST   -Y,R30
0025a0 e2e9      	LDI  R30,LOW(_NUM_DISP)
0025a1 e0f4      	LDI  R31,HIGH(_NUM_DISP)
0025a2 2766      	CLR  R22
0025a3 2777      	CLR  R23
0025a4 940e 278b 	CALL __PUTPARD1
0025a6 91e0 044a 	LDS  R30,__dia1
0025a8 27ff      	CLR  R31
0025a9 2766      	CLR  R22
0025aa 2777      	CLR  R23
0025ab 940e 278b 	CALL __PUTPARD1
0025ad 91e0 0449 	LDS  R30,__dia
0025af 27ff      	CLR  R31
0025b0 2766      	CLR  R22
0025b1 2777      	CLR  R23
0025b2 940e 278b 	CALL __PUTPARD1
0025b4 91e0 044c 	LDS  R30,__mes1
0025b6 27ff      	CLR  R31
0025b7 2766      	CLR  R22
0025b8 2777      	CLR  R23
0025b9 940e 278b 	CALL __PUTPARD1
0025bb 91e0 044b 	LDS  R30,__mes
0025bd 27ff      	CLR  R31
0025be 2766      	CLR  R22
0025bf 2777      	CLR  R23
0025c0 940e 278b 	CALL __PUTPARD1
0025c2 91e0 044e 	LDS  R30,__an1
0025c4 27ff      	CLR  R31
0025c5 2766      	CLR  R22
0025c6 2777      	CLR  R23
0025c7 940e 278b 	CALL __PUTPARD1
0025c9 91e0 044d 	LDS  R30,__an
0025cb 27ff      	CLR  R31
0025cc 2766      	CLR  R22
0025cd 2777      	CLR  R23
0025ce 940e 278b 	CALL __PUTPARD1
0025d0 91e0 0448 	LDS  R30,__hora1
0025d2 27ff      	CLR  R31
0025d3 2766      	CLR  R22
0025d4 2777      	CLR  R23
0025d5 940e 278b 	CALL __PUTPARD1
0025d7 cfb0      	RJMP SUBOPT_0x23
                 
                 ;OPTIMIZER ADDED SUBROUTINE, CALLED 25 TIMES, CODE SIZE REDUCTION:69 WORDS
                 SUBOPT_0x28:
0025d8 27ff      	CLR  R31
0025d9 2766      	CLR  R22
0025da 2777      	CLR  R23
0025db 940e 278b 	CALL __PUTPARD1
0025dd 9508      	RET
                 
                 ;OPTIMIZER ADDED SUBROUTINE, CALLED 3 TIMES, CODE SIZE REDUCTION:9 WORDS
                 SUBOPT_0x29:
0025de 940e 1b6d 	CALL _buzz
0025e0 ece8      	LDI  R30,LOW(200)
0025e1 e0f0      	LDI  R31,HIGH(200)
0025e2 93fa      	ST   -Y,R31
0025e3 93ea      	ST   -Y,R30
0025e4 940c 2722 	JMP  _delay_ms
                 
                 ;OPTIMIZER ADDED SUBROUTINE, CALLED 2 TIMES, CODE SIZE REDUCTION:1 WORDS
                 SUBOPT_0x2A:
0025e6 e0f0      	LDI  R31,0
0025e7 30e1      	CPI  R30,LOW(0x1)
0025e8 e0a0      	LDI  R26,HIGH(0x1)
0025e9 07fa      	CPC  R31,R26
0025ea 9508      	RET
                 
                 ;OPTIMIZER ADDED SUBROUTINE, CALLED 7 TIMES, CODE SIZE REDUCTION:9 WORDS
                 SUBOPT_0x2B:
0025eb 93fa      	ST   -Y,R31
0025ec 93ea      	ST   -Y,R30
0025ed cec6      	RJMP SUBOPT_0x2
                 
                 ;OPTIMIZER ADDED SUBROUTINE, CALLED 7 TIMES, CODE SIZE REDUCTION:9 WORDS
                 SUBOPT_0x2C:
0025ee e0e5      	LDI  R30,LOW(5)
0025ef e0f0      	LDI  R31,HIGH(5)
0025f0 93fa      	ST   -Y,R31
0025f1 93ea      	ST   -Y,R30
0025f2 9508      	RET
                 
                 ;OPTIMIZER ADDED SUBROUTINE, CALLED 11 TIMES, CODE SIZE REDUCTION:37 WORDS
                 SUBOPT_0x2D:
0025f3 93fa      	ST   -Y,R31
0025f4 93ea      	ST   -Y,R30
0025f5 e0e7      	LDI  R30,LOW(7)
0025f6 e0f0      	LDI  R31,HIGH(7)
0025f7 93fa      	ST   -Y,R31
0025f8 93ea      	ST   -Y,R30
0025f9 9508      	RET
                 
                 ;OPTIMIZER ADDED SUBROUTINE, CALLED 2 TIMES, CODE SIZE REDUCTION:1 WORDS
                 SUBOPT_0x2E:
0025fa 93fa      	ST   -Y,R31
0025fb 93ea      	ST   -Y,R30
0025fc e2ec      	LDI  R30,LOW(44)
0025fd e0f0      	LDI  R31,HIGH(44)
0025fe cff4      	RJMP SUBOPT_0x2D
                 
                 ;OPTIMIZER ADDED SUBROUTINE, CALLED 11 TIMES, CODE SIZE REDUCTION:17 WORDS
                 SUBOPT_0x2F:
0025ff e0e0      	LDI  R30,LOW(0)
002600 93ea      	ST   -Y,R30
002601 e0e1      	LDI  R30,LOW(1)
002602 93ea      	ST   -Y,R30
002603 9508      	RET
                 
                 ;OPTIMIZER ADDED SUBROUTINE, CALLED 9 TIMES, CODE SIZE REDUCTION:13 WORDS
                 SUBOPT_0x30:
002604 efef      	LDI  R30,LOW(255)
002605 93ea      	ST   -Y,R30
002606 940c 1993 	JMP  _glcd_puts
                 
                 ;OPTIMIZER ADDED SUBROUTINE, CALLED 2 TIMES, CODE SIZE REDUCTION:1 WORDS
                 SUBOPT_0x31:
002608 ece8      	LDI  R30,LOW(200)
002609 e0f0      	LDI  R31,HIGH(200)
00260a 93fa      	ST   -Y,R31
00260b 93ea      	ST   -Y,R30
00260c 940c 2722 	JMP  _delay_ms
                 
                 ;OPTIMIZER ADDED SUBROUTINE, CALLED 2 TIMES, CODE SIZE REDUCTION:3 WORDS
                 SUBOPT_0x32:
00260e 93fa      	ST   -Y,R31
00260f 93ea      	ST   -Y,R30
002610 e0e1      	LDI  R30,LOW(1)
002611 e0f0      	LDI  R31,HIGH(1)
002612 93fa      	ST   -Y,R31
002613 93ea      	ST   -Y,R30
002614 940c 1a4d 	JMP  _bmp_disp
                 
                 ;OPTIMIZER ADDED SUBROUTINE, CALLED 5 TIMES, CODE SIZE REDUCTION:5 WORDS
                 SUBOPT_0x33:
002616 01f8      	MOVW R30,R16
                +
002617 5ae4     +SUBI R30 , LOW ( - _rx_b0 - ( 0 ) )
002618 4ffc     +SBCI R31 , HIGH ( - _rx_b0 - ( 0 ) )
                 	__ADDW1MN _rx_b0,0
002619 81a0      	LD   R26,Z
00261a 9508      	RET
                 
                 ;OPTIMIZER ADDED SUBROUTINE, CALLED 5 TIMES, CODE SIZE REDUCTION:5 WORDS
                 SUBOPT_0x34:
00261b 01f8      	MOVW R30,R16
                +
00261c 5ae3     +SUBI R30 , LOW ( - _rx_b0 - ( 1 ) )
00261d 4ffc     +SBCI R31 , HIGH ( - _rx_b0 - ( 1 ) )
                 	__ADDW1MN _rx_b0,1
00261e 81a0      	LD   R26,Z
00261f 9508      	RET
                 
                 ;OPTIMIZER ADDED SUBROUTINE, CALLED 4 TIMES, CODE SIZE REDUCTION:3 WORDS
                 SUBOPT_0x35:
002620 01f8      	MOVW R30,R16
                +
002621 5ae1     +SUBI R30 , LOW ( - _rx_b0 - ( 3 ) )
002622 4ffc     +SBCI R31 , HIGH ( - _rx_b0 - ( 3 ) )
                 	__ADDW1MN _rx_b0,3
002623 81a0      	LD   R26,Z
002624 9508      	RET
                 
                 ;OPTIMIZER ADDED SUBROUTINE, CALLED 4 TIMES, CODE SIZE REDUCTION:3 WORDS
                 SUBOPT_0x36:
002625 01f8      	MOVW R30,R16
                +
002626 5ae0     +SUBI R30 , LOW ( - _rx_b0 - ( 4 ) )
002627 4ffc     +SBCI R31 , HIGH ( - _rx_b0 - ( 4 ) )
                 	__ADDW1MN _rx_b0,4
002628 81a0      	LD   R26,Z
002629 9508      	RET
                 
                 ;OPTIMIZER ADDED SUBROUTINE, CALLED 3 TIMES, CODE SIZE REDUCTION:7 WORDS
                 SUBOPT_0x37:
                +
00262a 59ee     +SUBI R30 , LOW ( - _rx_b0 - ( 6 ) )
00262b 4ffc     +SBCI R31 , HIGH ( - _rx_b0 - ( 6 ) )
                 	__ADDW1MN _rx_b0,6
00262c 81e0      	LD   R30,Z
00262d e0f0      	LDI  R31,0
00262e 97f0      	SBIW R30,48
00262f 9508      	RET
                 
                 ;OPTIMIZER ADDED SUBROUTINE, CALLED 2 TIMES, CODE SIZE REDUCTION:2 WORDS
                 SUBOPT_0x38:
                +
002630 59ed     +SUBI R30 , LOW ( - _rx_b0 - ( 7 ) )
002631 4ffc     +SBCI R31 , HIGH ( - _rx_b0 - ( 7 ) )
                 	__ADDW1MN _rx_b0,7
002632 81e0      	LD   R30,Z
002633 e0f0      	LDI  R31,0
002634 97f0      	SBIW R30,48
002635 9508      	RET
                 
                 ;OPTIMIZER ADDED SUBROUTINE, CALLED 4 TIMES, CODE SIZE REDUCTION:3 WORDS
                 SUBOPT_0x39:
002636 93e0 0455 	STS  _ind_sen,R30
002638 93f0 0456 	STS  _ind_sen+1,R31
00263a 9508      	RET
                 
                 ;OPTIMIZER ADDED SUBROUTINE, CALLED 4 TIMES, CODE SIZE REDUCTION:3 WORDS
                 SUBOPT_0x3A:
00263b 01f8      	MOVW R30,R16
                +
00263c 5ae2     +SUBI R30 , LOW ( - _rx_b0 - ( 2 ) )
00263d 4ffc     +SBCI R31 , HIGH ( - _rx_b0 - ( 2 ) )
                 	__ADDW1MN _rx_b0,2
00263e 81a0      	LD   R26,Z
00263f 9508      	RET
                 
                 ;OPTIMIZER ADDED SUBROUTINE, CALLED 21 TIMES, CODE SIZE REDUCTION:57 WORDS
                 SUBOPT_0x3B:
002640 81e0      	LD   R30,Z
002641 e0f0      	LDI  R31,0
002642 97f0      	SBIW R30,48
002643 9508      	RET
                 
                 ;OPTIMIZER ADDED SUBROUTINE, CALLED 3 TIMES, CODE SIZE REDUCTION:1 WORDS
                 SUBOPT_0x3C:
002644 01f8      	MOVW R30,R16
002645 9634      	ADIW R30,4
002646 8fe9      	STD  Y+25,R30
002647 8ffa      	STD  Y+25+1,R31
002648 9508      	RET
                 
                 ;OPTIMIZER ADDED SUBROUTINE, CALLED 2 TIMES, CODE SIZE REDUCTION:4 WORDS
                 SUBOPT_0x3D:
002649 01fa      	MOVW R30,R20
00264a 8da9      	LDD  R26,Y+25
00264b 8dba      	LDD  R27,Y+25+1
00264c 0fea      	ADD  R30,R26
00264d 1ffb      	ADC  R31,R27
                +
00264e 5ae3     +SUBI R30 , LOW ( - _rx_b0 - ( 1 ) )
00264f 4ffc     +SBCI R31 , HIGH ( - _rx_b0 - ( 1 ) )
                 	__ADDW1MN _rx_b0,1
002650 81a0      	LD   R26,Z
002651 33aa      	CPI  R26,LOW(0x3A)
002652 9508      	RET
                 
                 ;OPTIMIZER ADDED SUBROUTINE, CALLED 3 TIMES, CODE SIZE REDUCTION:9 WORDS
                 SUBOPT_0x3E:
002653 89ef      	LDD  R30,Y+23
002654 8df8      	LDD  R31,Y+23+1
002655 9631      	ADIW R30,1
002656 8bef      	STD  Y+23,R30
002657 8ff8      	STD  Y+23+1,R31
002658 89af      	LDD  R26,Y+23
002659 8db8      	LDD  R27,Y+23+1
00265a 9711      	SBIW R26,1
00265b 9508      	RET
                 
                 ;OPTIMIZER ADDED SUBROUTINE, CALLED 3 TIMES, CODE SIZE REDUCTION:7 WORDS
                 SUBOPT_0x3F:
00265c 8de9      	LDD  R30,Y+25
00265d 8dfa      	LDD  R31,Y+25+1
00265e 0fe4      	ADD  R30,R20
00265f 1ff5      	ADC  R31,R21
002660 9631      	ADIW R30,1
002661 8bed      	STD  Y+21,R30
002662 8bfe      	STD  Y+21+1,R31
002663 9508      	RET
                 
                 ;OPTIMIZER ADDED SUBROUTINE, CALLED 3 TIMES, CODE SIZE REDUCTION:1 WORDS
                 SUBOPT_0x40:
002664 89ed      	LDD  R30,Y+21
002665 89fe      	LDD  R31,Y+21+1
                +
002666 5ae1     +SUBI R30 , LOW ( - _rx_b0 - ( 3 ) )
002667 4ffc     +SBCI R31 , HIGH ( - _rx_b0 - ( 3 ) )
                 	__ADDW1MN _rx_b0,3
002668 9508      	RET
                 
                 ;OPTIMIZER ADDED SUBROUTINE, CALLED 3 TIMES, CODE SIZE REDUCTION:1 WORDS
                 SUBOPT_0x41:
002669 89ed      	LDD  R30,Y+21
00266a 89fe      	LDD  R31,Y+21+1
                +
00266b 5ae0     +SUBI R30 , LOW ( - _rx_b0 - ( 4 ) )
00266c 4ffc     +SBCI R31 , HIGH ( - _rx_b0 - ( 4 ) )
                 	__ADDW1MN _rx_b0,4
00266d 9508      	RET
                 
                 ;OPTIMIZER ADDED SUBROUTINE, CALLED 3 TIMES, CODE SIZE REDUCTION:1 WORDS
                 SUBOPT_0x42:
00266e 89ed      	LDD  R30,Y+21
00266f 89fe      	LDD  R31,Y+21+1
                +
002670 59ef     +SUBI R30 , LOW ( - _rx_b0 - ( 5 ) )
002671 4ffc     +SBCI R31 , HIGH ( - _rx_b0 - ( 5 ) )
                 	__ADDW1MN _rx_b0,5
002672 9508      	RET
                 
                 ;OPTIMIZER ADDED SUBROUTINE, CALLED 7 TIMES, CODE SIZE REDUCTION:81 WORDS
                 SUBOPT_0x43:
002673 e0e2      	LDI  R30,LOW(2)
002674 93ea      	ST   -Y,R30
002675 940e 1804 	CALL _glcd_clrln
002677 e0e3      	LDI  R30,LOW(3)
002678 93ea      	ST   -Y,R30
002679 940e 1804 	CALL _glcd_clrln
00267b e0e4      	LDI  R30,LOW(4)
00267c 93ea      	ST   -Y,R30
00267d 940e 1804 	CALL _glcd_clrln
00267f e0e5      	LDI  R30,LOW(5)
002680 93ea      	ST   -Y,R30
002681 940c 1804 	JMP  _glcd_clrln
                 
                 ;OPTIMIZER ADDED SUBROUTINE, CALLED 3 TIMES, CODE SIZE REDUCTION:1 WORDS
                 SUBOPT_0x44:
002683 89ed      	LDD  R30,Y+21
002684 89fe      	LDD  R31,Y+21+1
                +
002685 5ae3     +SUBI R30 , LOW ( - _rx_b0 - ( 1 ) )
002686 4ffc     +SBCI R31 , HIGH ( - _rx_b0 - ( 1 ) )
                 	__ADDW1MN _rx_b0,1
002687 9508      	RET
                 
                 ;OPTIMIZER ADDED SUBROUTINE, CALLED 2 TIMES, CODE SIZE REDUCTION:1 WORDS
                 SUBOPT_0x45:
002688 e0e1      	LDI  R30,LOW(1)
002689 e0f0      	LDI  R31,HIGH(1)
00268a 93e0 0441 	STS  _act_G000,R30
00268c 93f0 0442 	STS  _act_G000+1,R31
00268e 9508      	RET
                 
                 ;OPTIMIZER ADDED SUBROUTINE, CALLED 4 TIMES, CODE SIZE REDUCTION:3 WORDS
                 SUBOPT_0x46:
00268f 81af      	LDD  R26,Y+7
002690 85b8      	LDD  R27,Y+7+1
002691 e0ea      	LDI  R30,LOW(10)
002692 e0f0      	LDI  R31,HIGH(10)
002693 9508      	RET
                 
                 ;OPTIMIZER ADDED SUBROUTINE, CALLED 2 TIMES, CODE SIZE REDUCTION:3 WORDS
                 SUBOPT_0x47:
002694 940e 2767 	CALL __MODW21
002696 e8a8      	LDI  R26,LOW(_hora)
002697 e0b0      	LDI  R27,HIGH(_hora)
002698 940e 27a3 	CALL __EEPROMWRB
00269a cff4      	RJMP SUBOPT_0x46
                 
                 ;OPTIMIZER ADDED SUBROUTINE, CALLED 2 TIMES, CODE SIZE REDUCTION:1 WORDS
                 SUBOPT_0x48:
00269b 940e 2762 	CALL __DIVW21
00269d e8aa      	LDI  R26,LOW(_hora1)
00269e e0b0      	LDI  R27,HIGH(_hora1)
00269f 940e 27a3 	CALL __EEPROMWRB
0026a1 9508      	RET
                 
                 ;OPTIMIZER ADDED SUBROUTINE, CALLED 2 TIMES, CODE SIZE REDUCTION:1 WORDS
                 SUBOPT_0x49:
0026a2 89e9      	LDD  R30,Y+17
0026a3 89fa      	LDD  R31,Y+17+1
                +
0026a4 5ae3     +SUBI R30 , LOW ( - _rx_b0 - ( 1 ) )
0026a5 4ffc     +SBCI R31 , HIGH ( - _rx_b0 - ( 1 ) )
                 	__ADDW1MN _rx_b0,1
0026a6 cf99      	RJMP SUBOPT_0x3B
                 
                 ;OPTIMIZER ADDED SUBROUTINE, CALLED 5 TIMES, CODE SIZE REDUCTION:5 WORDS
                 SUBOPT_0x4A:
0026a7 940e 27a3 	CALL __EEPROMWRB
0026a9 89e9      	LDD  R30,Y+17
0026aa 89fa      	LDD  R31,Y+17+1
0026ab 9508      	RET
                 
                 ;OPTIMIZER ADDED SUBROUTINE, CALLED 4 TIMES, CODE SIZE REDUCTION:3 WORDS
                 SUBOPT_0x4B:
0026ac e8ac      	LDI  R26,LOW(_dia)
0026ad e0b0      	LDI  R27,HIGH(_dia)
0026ae 940e 2797 	CALL __EEPROMRDB
0026b0 9508      	RET
                 
                 ;OPTIMIZER ADDED SUBROUTINE, CALLED 3 TIMES, CODE SIZE REDUCTION:5 WORDS
                 SUBOPT_0x4C:
0026b1 93fa      	ST   -Y,R31
0026b2 93ea      	ST   -Y,R30
0026b3 940e 2722 	CALL _delay_ms
0026b5 940c 1821 	JMP  _glcd_clear
                 
                 ;OPTIMIZER ADDED SUBROUTINE, CALLED 3 TIMES, CODE SIZE REDUCTION:1 WORDS
                 SUBOPT_0x4D:
0026b7 940e 1b6d 	CALL _buzz
0026b9 940c 1b6d 	JMP  _buzz
                 
                 ;OPTIMIZER ADDED SUBROUTINE, CALLED 3 TIMES, CODE SIZE REDUCTION:1 WORDS
                 SUBOPT_0x4E:
0026bb 93fa      	ST   -Y,R31
0026bc 93ea      	ST   -Y,R30
0026bd e0e2      	LDI  R30,LOW(2)
0026be e0f0      	LDI  R31,HIGH(2)
0026bf 9508      	RET
                 
                 ;OPTIMIZER ADDED SUBROUTINE, CALLED 2 TIMES, CODE SIZE REDUCTION:3 WORDS
                 SUBOPT_0x4F:
0026c0 93fa      	ST   -Y,R31
0026c1 93ea      	ST   -Y,R30
0026c2 e0e0      	LDI  R30,LOW(0)
0026c3 93ea      	ST   -Y,R30
0026c4 e0e2      	LDI  R30,LOW(2)
0026c5 93ea      	ST   -Y,R30
0026c6 cf3d      	RJMP SUBOPT_0x30
                 
                 ;OPTIMIZER ADDED SUBROUTINE, CALLED 4 TIMES, CODE SIZE REDUCTION:3 WORDS
                 SUBOPT_0x50:
0026c7 93fa      	ST   -Y,R31
0026c8 93ea      	ST   -Y,R30
0026c9 cf24      	RJMP SUBOPT_0x2C
                 
                 ;OPTIMIZER ADDED SUBROUTINE, CALLED 3 TIMES, CODE SIZE REDUCTION:1 WORDS
                 SUBOPT_0x51:
0026ca e9a0      	LDI  R26,LOW(_mes)
0026cb e0b0      	LDI  R27,HIGH(_mes)
0026cc 940e 2797 	CALL __EEPROMRDB
0026ce 9508      	RET
                 
                 ;OPTIMIZER ADDED SUBROUTINE, CALLED 3 TIMES, CODE SIZE REDUCTION:1 WORDS
                 SUBOPT_0x52:
0026cf e9a4      	LDI  R26,LOW(_an)
0026d0 e0b0      	LDI  R27,HIGH(_an)
0026d1 940e 2797 	CALL __EEPROMRDB
0026d3 9508      	RET
                 
                 ;OPTIMIZER ADDED SUBROUTINE, CALLED 5 TIMES, CODE SIZE REDUCTION:13 WORDS
                 SUBOPT_0x53:
0026d4 e0e1      	LDI  R30,LOW(1)
0026d5 e0f0      	LDI  R31,HIGH(1)
0026d6 93fa      	ST   -Y,R31
0026d7 93ea      	ST   -Y,R30
0026d8 940c 2722 	JMP  _delay_ms
                 
                 ;OPTIMIZER ADDED SUBROUTINE, CALLED 2 TIMES, CODE SIZE REDUCTION:3 WORDS
                 SUBOPT_0x54:
0026da 93fa      	ST   -Y,R31
0026db 93ea      	ST   -Y,R30
0026dc e0e4      	LDI  R30,LOW(4)
0026dd e0f0      	LDI  R31,HIGH(4)
0026de 93fa      	ST   -Y,R31
0026df 93ea      	ST   -Y,R30
0026e0 cf1e      	RJMP SUBOPT_0x2F
                 
                 ;OPTIMIZER ADDED SUBROUTINE, CALLED 3 TIMES, CODE SIZE REDUCTION:1 WORDS
                 SUBOPT_0x55:
0026e1 91a0 0453 	LDS  R26,_gps
0026e3 91b0 0454 	LDS  R27,_gps+1
0026e5 9508      	RET
                 
                 ;OPTIMIZER ADDED SUBROUTINE, CALLED 3 TIMES, CODE SIZE REDUCTION:1 WORDS
                 SUBOPT_0x56:
0026e6 940e 2797 	CALL __EEPROMRDB
0026e8 ceef      	RJMP SUBOPT_0x28
                 
                 ;OPTIMIZER ADDED SUBROUTINE, CALLED 5 TIMES, CODE SIZE REDUCTION:21 WORDS
                 SUBOPT_0x57:
0026e9 932a      	ST   -Y,R18
0026ea 85ed      	LDD  R30,Y+13
0026eb 85fe      	LDD  R31,Y+13+1
0026ec 93fa      	ST   -Y,R31
0026ed 93ea      	ST   -Y,R30
0026ee 89e9      	LDD  R30,Y+17
0026ef 89fa      	LDD  R31,Y+17+1
0026f0 9509      	ICALL
0026f1 9508      	RET
                 
                 ;OPTIMIZER ADDED SUBROUTINE, CALLED 5 TIMES, CODE SIZE REDUCTION:9 WORDS
                 SUBOPT_0x58:
0026f2 89e8      	LDD  R30,Y+16
0026f3 89f9      	LDD  R31,Y+16+1
0026f4 9734      	SBIW R30,4
0026f5 8be8      	STD  Y+16,R30
0026f6 8bf9      	STD  Y+16+1,R31
0026f7 9508      	RET
                 
                 ;OPTIMIZER ADDED SUBROUTINE, CALLED 3 TIMES, CODE SIZE REDUCTION:7 WORDS
                 SUBOPT_0x59:
0026f8 85ed      	LDD  R30,Y+13
0026f9 85fe      	LDD  R31,Y+13+1
0026fa 93fa      	ST   -Y,R31
0026fb 93ea      	ST   -Y,R30
0026fc 89e9      	LDD  R30,Y+17
0026fd 89fa      	LDD  R31,Y+17+1
0026fe 9509      	ICALL
0026ff 9508      	RET
                 
                 ;OPTIMIZER ADDED SUBROUTINE, CALLED 2 TIMES, CODE SIZE REDUCTION:6 WORDS
                 SUBOPT_0x5A:
002700 89a8      	LDD  R26,Y+16
002701 89b9      	LDD  R27,Y+16+1
002702 9614      	ADIW R26,4
002703 940e 2783 	CALL __GETW1P
002705 83ee      	STD  Y+6,R30
002706 83ff      	STD  Y+6+1,R31
002707 93fa      	ST   -Y,R31
002708 93ea      	ST   -Y,R30
002709 9508      	RET
                 
                 ;OPTIMIZER ADDED SUBROUTINE, CALLED 2 TIMES, CODE SIZE REDUCTION:2 WORDS
                 SUBOPT_0x5B:
00270a 89a8      	LDD  R26,Y+16
00270b 89b9      	LDD  R27,Y+16+1
00270c 9614      	ADIW R26,4
00270d 940e 2783 	CALL __GETW1P
00270f 87ea      	STD  Y+10,R30
002710 87fb      	STD  Y+10+1,R31
002711 9508      	RET
                 
                 ;OPTIMIZER ADDED SUBROUTINE, CALLED 2 TIMES, CODE SIZE REDUCTION:1 WORDS
                 SUBOPT_0x5C:
002712 01de      	MOVW R26,R28
002713 961c      	ADIW R26,12
002714 940e 272e 	CALL __ADDW2R15
002716 940e 2783 	CALL __GETW1P
002718 9508      	RET
                 
                 ;OPTIMIZER ADDED SUBROUTINE, CALLED 2 TIMES, CODE SIZE REDUCTION:3 WORDS
                 SUBOPT_0x5D:
002719 940e 272e 	CALL __ADDW2R15
00271b 940e 2783 	CALL __GETW1P
00271d 93fa      	ST   -Y,R31
00271e 93ea      	ST   -Y,R30
00271f 931a      	ST   -Y,R17
002720 930a      	ST   -Y,R16
002721 9508      	RET
                 
                 
                 	.CSEG
                 _delay_ms:
002722 91e9      	ld   r30,y+
002723 91f9      	ld   r31,y+
002724 9630      	adiw r30,0
002725 f039      	breq __delay_ms1
                 __delay_ms0:
                +
002726 ec8d     +LDI R24 , LOW ( 0xACD )
002727 e09a     +LDI R25 , HIGH ( 0xACD )
                +__DELAY_USW_LOOP :
002728 9701     +SBIW R24 , 1
002729 f7f1     +BRNE __DELAY_USW_LOOP
                 	__DELAY_USW 0xACD
00272a 95a8      	wdr
00272b 9731      	sbiw r30,1
00272c f7c9      	brne __delay_ms0
                 __delay_ms1:
00272d 9508      	ret
                 
                 __ADDW2R15:
00272e 2400      	CLR  R0
00272f 0daf      	ADD  R26,R15
002730 1db0      	ADC  R27,R0
002731 9508      	RET
                 
                 __ANEGW1:
002732 95f1      	NEG  R31
002733 95e1      	NEG  R30
002734 40f0      	SBCI R31,0
002735 9508      	RET
                 
                 __LSLW3:
002736 0fee      	LSL  R30
002737 1fff      	ROL  R31
                 __LSLW2:
002738 0fee      	LSL  R30
002739 1fff      	ROL  R31
00273a 0fee      	LSL  R30
00273b 1fff      	ROL  R31
00273c 9508      	RET
                 
                 __CWD1:
00273d 2f6f      	MOV  R22,R31
00273e 0f66      	ADD  R22,R22
00273f 0b66      	SBC  R22,R22
002740 2f76      	MOV  R23,R22
002741 9508      	RET
                 
                 __MULW12U:
002742 9ffa      	MUL  R31,R26
002743 2df0      	MOV  R31,R0
002744 9feb      	MUL  R30,R27
002745 0df0      	ADD  R31,R0
002746 9fea      	MUL  R30,R26
002747 2de0      	MOV  R30,R0
002748 0df1      	ADD  R31,R1
002749 9508      	RET
                 
                 __MULW12:
00274a d02a      	RCALL __CHKSIGNW
00274b dff6      	RCALL __MULW12U
00274c f40e      	BRTC __MULW121
00274d dfe4      	RCALL __ANEGW1
                 __MULW121:
00274e 9508      	RET
                 
                 __DIVW21U:
00274f 2400      	CLR  R0
002750 2411      	CLR  R1
002751 e190      	LDI  R25,16
                 __DIVW21U1:
002752 0faa      	LSL  R26
002753 1fbb      	ROL  R27
002754 1c00      	ROL  R0
002755 1c11      	ROL  R1
002756 1a0e      	SUB  R0,R30
002757 0a1f      	SBC  R1,R31
002758 f418      	BRCC __DIVW21U2
002759 0e0e      	ADD  R0,R30
00275a 1e1f      	ADC  R1,R31
00275b c001      	RJMP __DIVW21U3
                 __DIVW21U2:
00275c 60a1      	SBR  R26,1
                 __DIVW21U3:
00275d 959a      	DEC  R25
00275e f799      	BRNE __DIVW21U1
00275f 01fd      	MOVW R30,R26
002760 01d0      	MOVW R26,R0
002761 9508      	RET
                 
                 __DIVW21:
002762 d012      	RCALL __CHKSIGNW
002763 dfeb      	RCALL __DIVW21U
002764 f40e      	BRTC __DIVW211
002765 dfcc      	RCALL __ANEGW1
                 __DIVW211:
002766 9508      	RET
                 
                 __MODW21:
002767 94e8      	CLT
002768 ffb7      	SBRS R27,7
002769 c004      	RJMP __MODW211
00276a 95a0      	COM  R26
00276b 95b0      	COM  R27
00276c 9611      	ADIW R26,1
00276d 9468      	SET
                 __MODW211:
00276e fdf7      	SBRC R31,7
00276f dfc2      	RCALL __ANEGW1
002770 dfde      	RCALL __DIVW21U
002771 01fd      	MOVW R30,R26
002772 f40e      	BRTC __MODW212
002773 dfbe      	RCALL __ANEGW1
                 __MODW212:
002774 9508      	RET
                 
                 __CHKSIGNW:
002775 94e8      	CLT
002776 fff7      	SBRS R31,7
002777 c002      	RJMP __CHKSW1
002778 dfb9      	RCALL __ANEGW1
002779 9468      	SET
                 __CHKSW1:
00277a ffb7      	SBRS R27,7
00277b c006      	RJMP __CHKSW2
00277c 95a0      	COM  R26
00277d 95b0      	COM  R27
00277e 9611      	ADIW R26,1
00277f f800      	BLD  R0,0
002780 9403      	INC  R0
002781 fa00      	BST  R0,0
                 __CHKSW2:
002782 9508      	RET
                 
                 __GETW1P:
002783 91ed      	LD   R30,X+
002784 91fc      	LD   R31,X
002785 9711      	SBIW R26,1
002786 9508      	RET
                 
                 __GETW1PF:
002787 9005      	LPM  R0,Z+
002788 91f4      	LPM  R31,Z
002789 2de0      	MOV  R30,R0
00278a 9508      	RET
                 
                 __PUTPARD1:
00278b 937a      	ST   -Y,R23
00278c 936a      	ST   -Y,R22
00278d 93fa      	ST   -Y,R31
00278e 93ea      	ST   -Y,R30
00278f 9508      	RET
                 
                 __SWAPW12:
002790 2e1b      	MOV  R1,R27
002791 2fbf      	MOV  R27,R31
002792 2df1      	MOV  R31,R1
                 
                 __SWAPB12:
002793 2e1a      	MOV  R1,R26
002794 2fae      	MOV  R26,R30
002795 2de1      	MOV  R30,R1
002796 9508      	RET
                 
                 __EEPROMRDB:
002797 99f9      	SBIC EECR,EEWE
002798 cffe      	RJMP __EEPROMRDB
002799 93ff      	PUSH R31
00279a b7ff      	IN   R31,SREG
00279b 94f8      	CLI
00279c bda1      	OUT  EEARL,R26
00279d bdb2      	OUT  EEARH,R27
00279e 9af8      	SBI  EECR,EERE
00279f b5e0      	IN   R30,EEDR
0027a0 bfff      	OUT  SREG,R31
0027a1 91ff      	POP  R31
0027a2 9508      	RET
                 
                 __EEPROMWRB:
0027a3 9bf9      	SBIS EECR,EEWE
0027a4 c002      	RJMP __EEPROMWRB1
0027a5 95a8      	WDR
0027a6 cffc      	RJMP __EEPROMWRB
                 __EEPROMWRB1:
0027a7 b79f      	IN   R25,SREG
0027a8 94f8      	CLI
0027a9 bda1      	OUT  EEARL,R26
0027aa bdb2      	OUT  EEARH,R27
0027ab 9af8      	SBI  EECR,EERE
0027ac b580      	IN   R24,EEDR
0027ad 17e8      	CP   R30,R24
0027ae f019      	BREQ __EEPROMWRB0
0027af bde0      	OUT  EEDR,R30
0027b0 9afa      	SBI  EECR,EEMWE
0027b1 9af9      	SBI  EECR,EEWE
                 __EEPROMWRB0:
0027b2 bf9f      	OUT  SREG,R25
0027b3 9508      	RET
                 
                 __SAVELOCR6:
0027b4 935a      	ST   -Y,R21
                 __SAVELOCR5:
0027b5 934a      	ST   -Y,R20
                 __SAVELOCR4:
0027b6 933a      	ST   -Y,R19
                 __SAVELOCR3:
0027b7 932a      	ST   -Y,R18
                 __SAVELOCR2:
0027b8 931a      	ST   -Y,R17
0027b9 930a      	ST   -Y,R16
0027ba 9508      	RET
                 
                 __LOADLOCR6:
0027bb 815d      	LDD  R21,Y+5
                 __LOADLOCR5:
0027bc 814c      	LDD  R20,Y+4
                 __LOADLOCR4:
0027bd 813b      	LDD  R19,Y+3
                 __LOADLOCR3:
0027be 812a      	LDD  R18,Y+2
                 __LOADLOCR2:
0027bf 8119      	LDD  R17,Y+1
0027c0 8108      	LD   R16,Y
0027c1 9508      	RET
                 
                 ;END OF CODE MARKER
                 __END_OF_CODE:


RESOURCE USE INFORMATION
------------------------

Notice:
The register and instruction counts are symbol table hit counts,
and hence implicitly used resources are not counted, eg, the
'lpm' instruction without operands implicitly uses r0 and z,
none of which are counted.

x,y,z are separate entities in the symbol table and are
counted separately from r26..r31 here.

.dseg memory usage only counts static data declared with .byte

ATmega324P register use summary:
r0 :  38 r1 :  12 r2 :   0 r3 :   0 r4 :   5 r5 :   3 r6 :   4 r7 :   5 
r8 :   5 r9 :   5 r10:   5 r11:   7 r12:   8 r13:  13 r14:   3 r15:   9 
r16:  92 r17:  84 r18:  42 r19:  23 r20:  24 r21:  30 r22:  26 r23:  14 
r24:  31 r25:  11 r26: 430 r27: 172 r28:  50 r29:   1 r30: 973 r31: 440 
x  :  33 y  : 575 z  :  52 
Registers used: 33 out of 35 (94.3%)

ATmega324P instruction use summary:
.lds  :   0 .lds.l:   0 .sts  :   0 .sts.l:   0 adc   :  29 add   :  34 
adiw  :  60 and   :   0 andi  :  10 asr   :   2 bclr  :   0 bld   :   1 
brbc  :   0 brbs  :   0 brcc  :   1 brcs  :   0 break :   0 breq  :  58 
brge  :   9 brhc  :   0 brhs  :   0 brid  :   0 brie  :   0 brlo  :  31 
brlt  :  12 brmi  :   3 brne  : 136 brpl  :   2 brsh  :  14 brtc  :   3 
brts  :   0 brvc  :   0 brvs  :   0 bset  :   0 bst   :   1 call  : 499 
cbi   :  12 cbr   :   1 clc   :   0 clh   :   0 cli   :   3 cln   :   0 
clr   :  52 cls   :   0 clt   :   2 clv   :   0 clz   :   0 com   :   4 
cp    :  37 cpc   :  43 cpi   : 172 cpse  :   0 dec   :   5 des   :   0 
eor   :   0 fmul  :   0 fmuls :   0 fmulsu:   0 icall :   2 ijmp  :   0 
in    :   7 inc   :   8 jmp   :  59 ld    :  77 ldd   : 240 ldi   : 600 
lds   :  65 lpm   :  28 lsl   :   4 lsr   :   0 mov   :  55 movw  :  64 
mul   :   6 muls  :   4 mulsu :   0 neg   :   2 nop   :   0 or    :   0 
ori   :   9 out   :  33 pop   :   3 push  :   3 rcall :  53 ret   : 118 
reti  :   2 rjmp  : 196 rol   :   6 ror   :   2 sbc   :   6 sbci  :  59 
sbi   :  16 sbic  :   7 sbis  :   6 sbiw  :  49 sbr   :   1 sbrc  :   4 
sbrs  :  13 sec   :   0 seh   :   0 sei   :   1 sen   :   0 ser   :   1 
ses   :   0 set   :   2 sev   :   0 sez   :   0 sleep :   0 spm   :   0 
st    : 245 std   :  79 sts   :  70 sub   :   5 subi  :  84 swap  :   0 
tst   :   8 wdr   :   3 
Instructions used: 72 out of 116 (62.1%)

ATmega324P memory use summary [bytes]:
Segment   Begin    End      Code   Data   Used    Size   Use%
---------------------------------------------------------------
[.cseg] 0x000000 0x004f84   8450  11906  20356   32768  62.1%
[.dseg] 0x000100 0x00046b      0    363    363    2048  17.7%
[.eseg] 0x000000 0x000097      0     14     14    1024   1.4%

Assembly complete, 0 errors, 15 warnings
