
;CodeVisionAVR C Compiler V2.04.4a Advanced
;(C) Copyright 1998-2009 Pavel Haiduc, HP InfoTech s.r.l.
;http://www.hpinfotech.com

;Chip type                : ATmega324P
;Program type             : Application
;Clock frequency          : 11,059200 MHz
;Memory model             : Small
;Optimize for             : Size
;(s)printf features       : int, width
;(s)scanf features        : int, width
;External RAM size        : 0
;Data Stack size          : 512 byte(s)
;Heap size                : 0 byte(s)
;Promote 'char' to 'int'  : Yes
;'char' is unsigned       : Yes
;8 bit enums              : Yes
;global 'const' stored in FLASH: No
;Enhanced core instructions    : On
;Smart register allocation     : On
;Automatic register allocation : On

	#pragma AVRPART ADMIN PART_NAME ATmega324P
	#pragma AVRPART MEMORY PROG_FLASH 32768
	#pragma AVRPART MEMORY EEPROM 1024
	#pragma AVRPART MEMORY INT_SRAM SIZE 2048
	#pragma AVRPART MEMORY INT_SRAM START_ADDR 0x100

	.LISTMAC
	.EQU EERE=0x0
	.EQU EEWE=0x1
	.EQU EEMWE=0x2
	.EQU UDRE=0x5
	.EQU RXC=0x7
	.EQU EECR=0x1F
	.EQU EEDR=0x20
	.EQU EEARL=0x21
	.EQU EEARH=0x22
	.EQU SPSR0=0x2D
	.EQU SPDR0=0x2E
	.EQU SMCR=0x33
	.EQU MCUSR=0x34
	.EQU MCUCR=0x35
	.EQU WDTCSR=0x60
	.EQU UCSR0A=0xC0
	.EQU UDR0=0xC6
	.EQU SPL=0x3D
	.EQU SPH=0x3E
	.EQU SREG=0x3F
	.EQU GPIOR0=0x1E

	.DEF R0X0=R0
	.DEF R0X1=R1
	.DEF R0X2=R2
	.DEF R0X3=R3
	.DEF R0X4=R4
	.DEF R0X5=R5
	.DEF R0X6=R6
	.DEF R0X7=R7
	.DEF R0X8=R8
	.DEF R0X9=R9
	.DEF R0XA=R10
	.DEF R0XB=R11
	.DEF R0XC=R12
	.DEF R0XD=R13
	.DEF R0XE=R14
	.DEF R0XF=R15
	.DEF R0X10=R16
	.DEF R0X11=R17
	.DEF R0X12=R18
	.DEF R0X13=R19
	.DEF R0X14=R20
	.DEF R0X15=R21
	.DEF R0X16=R22
	.DEF R0X17=R23
	.DEF R0X18=R24
	.DEF R0X19=R25
	.DEF R0X1A=R26
	.DEF R0X1B=R27
	.DEF R0X1C=R28
	.DEF R0X1D=R29
	.DEF R0X1E=R30
	.DEF R0X1F=R31

	.MACRO __CPD1N
	CPI  R30,LOW(@0)
	LDI  R26,HIGH(@0)
	CPC  R31,R26
	LDI  R26,BYTE3(@0)
	CPC  R22,R26
	LDI  R26,BYTE4(@0)
	CPC  R23,R26
	.ENDM

	.MACRO __CPD2N
	CPI  R26,LOW(@0)
	LDI  R30,HIGH(@0)
	CPC  R27,R30
	LDI  R30,BYTE3(@0)
	CPC  R24,R30
	LDI  R30,BYTE4(@0)
	CPC  R25,R30
	.ENDM

	.MACRO __CPWRR
	CP   R@0,R@2
	CPC  R@1,R@3
	.ENDM

	.MACRO __CPWRN
	CPI  R@0,LOW(@2)
	LDI  R30,HIGH(@2)
	CPC  R@1,R30
	.ENDM

	.MACRO __ADDB1MN
	SUBI R30,LOW(-@0-(@1))
	.ENDM

	.MACRO __ADDB2MN
	SUBI R26,LOW(-@0-(@1))
	.ENDM

	.MACRO __ADDW1MN
	SUBI R30,LOW(-@0-(@1))
	SBCI R31,HIGH(-@0-(@1))
	.ENDM

	.MACRO __ADDW2MN
	SUBI R26,LOW(-@0-(@1))
	SBCI R27,HIGH(-@0-(@1))
	.ENDM

	.MACRO __ADDW1FN
	SUBI R30,LOW(-2*@0-(@1))
	SBCI R31,HIGH(-2*@0-(@1))
	.ENDM

	.MACRO __ADDD1FN
	SUBI R30,LOW(-2*@0-(@1))
	SBCI R31,HIGH(-2*@0-(@1))
	SBCI R22,BYTE3(-2*@0-(@1))
	.ENDM

	.MACRO __ADDD1N
	SUBI R30,LOW(-@0)
	SBCI R31,HIGH(-@0)
	SBCI R22,BYTE3(-@0)
	SBCI R23,BYTE4(-@0)
	.ENDM

	.MACRO __ADDD2N
	SUBI R26,LOW(-@0)
	SBCI R27,HIGH(-@0)
	SBCI R24,BYTE3(-@0)
	SBCI R25,BYTE4(-@0)
	.ENDM

	.MACRO __SUBD1N
	SUBI R30,LOW(@0)
	SBCI R31,HIGH(@0)
	SBCI R22,BYTE3(@0)
	SBCI R23,BYTE4(@0)
	.ENDM

	.MACRO __SUBD2N
	SUBI R26,LOW(@0)
	SBCI R27,HIGH(@0)
	SBCI R24,BYTE3(@0)
	SBCI R25,BYTE4(@0)
	.ENDM

	.MACRO __ANDBMNN
	LDS  R30,@0+(@1)
	ANDI R30,LOW(@2)
	STS  @0+(@1),R30
	.ENDM

	.MACRO __ANDWMNN
	LDS  R30,@0+(@1)
	ANDI R30,LOW(@2)
	STS  @0+(@1),R30
	LDS  R30,@0+(@1)+1
	ANDI R30,HIGH(@2)
	STS  @0+(@1)+1,R30
	.ENDM

	.MACRO __ANDD1N
	ANDI R30,LOW(@0)
	ANDI R31,HIGH(@0)
	ANDI R22,BYTE3(@0)
	ANDI R23,BYTE4(@0)
	.ENDM

	.MACRO __ANDD2N
	ANDI R26,LOW(@0)
	ANDI R27,HIGH(@0)
	ANDI R24,BYTE3(@0)
	ANDI R25,BYTE4(@0)
	.ENDM

	.MACRO __ORBMNN
	LDS  R30,@0+(@1)
	ORI  R30,LOW(@2)
	STS  @0+(@1),R30
	.ENDM

	.MACRO __ORWMNN
	LDS  R30,@0+(@1)
	ORI  R30,LOW(@2)
	STS  @0+(@1),R30
	LDS  R30,@0+(@1)+1
	ORI  R30,HIGH(@2)
	STS  @0+(@1)+1,R30
	.ENDM

	.MACRO __ORD1N
	ORI  R30,LOW(@0)
	ORI  R31,HIGH(@0)
	ORI  R22,BYTE3(@0)
	ORI  R23,BYTE4(@0)
	.ENDM

	.MACRO __ORD2N
	ORI  R26,LOW(@0)
	ORI  R27,HIGH(@0)
	ORI  R24,BYTE3(@0)
	ORI  R25,BYTE4(@0)
	.ENDM

	.MACRO __DELAY_USB
	LDI  R24,LOW(@0)
__DELAY_USB_LOOP:
	DEC  R24
	BRNE __DELAY_USB_LOOP
	.ENDM

	.MACRO __DELAY_USW
	LDI  R24,LOW(@0)
	LDI  R25,HIGH(@0)
__DELAY_USW_LOOP:
	SBIW R24,1
	BRNE __DELAY_USW_LOOP
	.ENDM

	.MACRO __GETD1S
	LDD  R30,Y+@0
	LDD  R31,Y+@0+1
	LDD  R22,Y+@0+2
	LDD  R23,Y+@0+3
	.ENDM

	.MACRO __GETD2S
	LDD  R26,Y+@0
	LDD  R27,Y+@0+1
	LDD  R24,Y+@0+2
	LDD  R25,Y+@0+3
	.ENDM

	.MACRO __PUTD1S
	STD  Y+@0,R30
	STD  Y+@0+1,R31
	STD  Y+@0+2,R22
	STD  Y+@0+3,R23
	.ENDM

	.MACRO __PUTD2S
	STD  Y+@0,R26
	STD  Y+@0+1,R27
	STD  Y+@0+2,R24
	STD  Y+@0+3,R25
	.ENDM

	.MACRO __PUTDZ2
	STD  Z+@0,R26
	STD  Z+@0+1,R27
	STD  Z+@0+2,R24
	STD  Z+@0+3,R25
	.ENDM

	.MACRO __CLRD1S
	STD  Y+@0,R30
	STD  Y+@0+1,R30
	STD  Y+@0+2,R30
	STD  Y+@0+3,R30
	.ENDM

	.MACRO __POINTB1MN
	LDI  R30,LOW(@0+(@1))
	.ENDM

	.MACRO __POINTW1MN
	LDI  R30,LOW(@0+(@1))
	LDI  R31,HIGH(@0+(@1))
	.ENDM

	.MACRO __POINTD1M
	LDI  R30,LOW(@0)
	LDI  R31,HIGH(@0)
	LDI  R22,BYTE3(@0)
	LDI  R23,BYTE4(@0)
	.ENDM

	.MACRO __POINTW1FN
	LDI  R30,LOW(2*@0+(@1))
	LDI  R31,HIGH(2*@0+(@1))
	.ENDM

	.MACRO __POINTD1FN
	LDI  R30,LOW(2*@0+(@1))
	LDI  R31,HIGH(2*@0+(@1))
	LDI  R22,BYTE3(2*@0+(@1))
	LDI  R23,BYTE4(2*@0+(@1))
	.ENDM

	.MACRO __POINTB2MN
	LDI  R26,LOW(@0+(@1))
	.ENDM

	.MACRO __POINTW2MN
	LDI  R26,LOW(@0+(@1))
	LDI  R27,HIGH(@0+(@1))
	.ENDM

	.MACRO __POINTBRM
	LDI  R@0,LOW(@1)
	.ENDM

	.MACRO __POINTWRM
	LDI  R@0,LOW(@2)
	LDI  R@1,HIGH(@2)
	.ENDM

	.MACRO __POINTBRMN
	LDI  R@0,LOW(@1+(@2))
	.ENDM

	.MACRO __POINTWRMN
	LDI  R@0,LOW(@2+(@3))
	LDI  R@1,HIGH(@2+(@3))
	.ENDM

	.MACRO __POINTWRFN
	LDI  R@0,LOW(@2*2+(@3))
	LDI  R@1,HIGH(@2*2+(@3))
	.ENDM

	.MACRO __GETD1N
	LDI  R30,LOW(@0)
	LDI  R31,HIGH(@0)
	LDI  R22,BYTE3(@0)
	LDI  R23,BYTE4(@0)
	.ENDM

	.MACRO __GETD2N
	LDI  R26,LOW(@0)
	LDI  R27,HIGH(@0)
	LDI  R24,BYTE3(@0)
	LDI  R25,BYTE4(@0)
	.ENDM

	.MACRO __GETB1MN
	LDS  R30,@0+(@1)
	.ENDM

	.MACRO __GETB1HMN
	LDS  R31,@0+(@1)
	.ENDM

	.MACRO __GETW1MN
	LDS  R30,@0+(@1)
	LDS  R31,@0+(@1)+1
	.ENDM

	.MACRO __GETD1MN
	LDS  R30,@0+(@1)
	LDS  R31,@0+(@1)+1
	LDS  R22,@0+(@1)+2
	LDS  R23,@0+(@1)+3
	.ENDM

	.MACRO __GETBRMN
	LDS  R@0,@1+(@2)
	.ENDM

	.MACRO __GETWRMN
	LDS  R@0,@2+(@3)
	LDS  R@1,@2+(@3)+1
	.ENDM

	.MACRO __GETWRZ
	LDD  R@0,Z+@2
	LDD  R@1,Z+@2+1
	.ENDM

	.MACRO __GETD2Z
	LDD  R26,Z+@0
	LDD  R27,Z+@0+1
	LDD  R24,Z+@0+2
	LDD  R25,Z+@0+3
	.ENDM

	.MACRO __GETB2MN
	LDS  R26,@0+(@1)
	.ENDM

	.MACRO __GETW2MN
	LDS  R26,@0+(@1)
	LDS  R27,@0+(@1)+1
	.ENDM

	.MACRO __GETD2MN
	LDS  R26,@0+(@1)
	LDS  R27,@0+(@1)+1
	LDS  R24,@0+(@1)+2
	LDS  R25,@0+(@1)+3
	.ENDM

	.MACRO __PUTB1MN
	STS  @0+(@1),R30
	.ENDM

	.MACRO __PUTW1MN
	STS  @0+(@1),R30
	STS  @0+(@1)+1,R31
	.ENDM

	.MACRO __PUTD1MN
	STS  @0+(@1),R30
	STS  @0+(@1)+1,R31
	STS  @0+(@1)+2,R22
	STS  @0+(@1)+3,R23
	.ENDM

	.MACRO __PUTB1EN
	LDI  R26,LOW(@0+(@1))
	LDI  R27,HIGH(@0+(@1))
	CALL __EEPROMWRB
	.ENDM

	.MACRO __PUTW1EN
	LDI  R26,LOW(@0+(@1))
	LDI  R27,HIGH(@0+(@1))
	CALL __EEPROMWRW
	.ENDM

	.MACRO __PUTD1EN
	LDI  R26,LOW(@0+(@1))
	LDI  R27,HIGH(@0+(@1))
	CALL __EEPROMWRD
	.ENDM

	.MACRO __PUTBR0MN
	STS  @0+(@1),R0
	.ENDM

	.MACRO __PUTBMRN
	STS  @0+(@1),R@2
	.ENDM

	.MACRO __PUTWMRN
	STS  @0+(@1),R@2
	STS  @0+(@1)+1,R@3
	.ENDM

	.MACRO __PUTBZR
	STD  Z+@1,R@0
	.ENDM

	.MACRO __PUTWZR
	STD  Z+@2,R@0
	STD  Z+@2+1,R@1
	.ENDM

	.MACRO __GETW1R
	MOV  R30,R@0
	MOV  R31,R@1
	.ENDM

	.MACRO __GETW2R
	MOV  R26,R@0
	MOV  R27,R@1
	.ENDM

	.MACRO __GETWRN
	LDI  R@0,LOW(@2)
	LDI  R@1,HIGH(@2)
	.ENDM

	.MACRO __PUTW1R
	MOV  R@0,R30
	MOV  R@1,R31
	.ENDM

	.MACRO __PUTW2R
	MOV  R@0,R26
	MOV  R@1,R27
	.ENDM

	.MACRO __ADDWRN
	SUBI R@0,LOW(-@2)
	SBCI R@1,HIGH(-@2)
	.ENDM

	.MACRO __ADDWRR
	ADD  R@0,R@2
	ADC  R@1,R@3
	.ENDM

	.MACRO __SUBWRN
	SUBI R@0,LOW(@2)
	SBCI R@1,HIGH(@2)
	.ENDM

	.MACRO __SUBWRR
	SUB  R@0,R@2
	SBC  R@1,R@3
	.ENDM

	.MACRO __ANDWRN
	ANDI R@0,LOW(@2)
	ANDI R@1,HIGH(@2)
	.ENDM

	.MACRO __ANDWRR
	AND  R@0,R@2
	AND  R@1,R@3
	.ENDM

	.MACRO __ORWRN
	ORI  R@0,LOW(@2)
	ORI  R@1,HIGH(@2)
	.ENDM

	.MACRO __ORWRR
	OR   R@0,R@2
	OR   R@1,R@3
	.ENDM

	.MACRO __EORWRR
	EOR  R@0,R@2
	EOR  R@1,R@3
	.ENDM

	.MACRO __GETWRS
	LDD  R@0,Y+@2
	LDD  R@1,Y+@2+1
	.ENDM

	.MACRO __PUTBSR
	STD  Y+@1,R@0
	.ENDM

	.MACRO __PUTWSR
	STD  Y+@2,R@0
	STD  Y+@2+1,R@1
	.ENDM

	.MACRO __MOVEWRR
	MOV  R@0,R@2
	MOV  R@1,R@3
	.ENDM

	.MACRO __INWR
	IN   R@0,@2
	IN   R@1,@2+1
	.ENDM

	.MACRO __OUTWR
	OUT  @2+1,R@1
	OUT  @2,R@0
	.ENDM

	.MACRO __CALL1MN
	LDS  R30,@0+(@1)
	LDS  R31,@0+(@1)+1
	ICALL
	.ENDM

	.MACRO __CALL1FN
	LDI  R30,LOW(2*@0+(@1))
	LDI  R31,HIGH(2*@0+(@1))
	CALL __GETW1PF
	ICALL
	.ENDM

	.MACRO __CALL2EN
	LDI  R26,LOW(@0+(@1))
	LDI  R27,HIGH(@0+(@1))
	CALL __EEPROMRDW
	ICALL
	.ENDM

	.MACRO __GETW1STACK
	IN   R26,SPL
	IN   R27,SPH
	ADIW R26,@0+1
	LD   R30,X+
	LD   R31,X
	.ENDM

	.MACRO __GETD1STACK
	IN   R26,SPL
	IN   R27,SPH
	ADIW R26,@0+1
	LD   R30,X+
	LD   R31,X+
	LD   R22,X
	.ENDM

	.MACRO __NBST
	BST  R@0,@1
	IN   R30,SREG
	LDI  R31,0x40
	EOR  R30,R31
	OUT  SREG,R30
	.ENDM


	.MACRO __PUTB1SN
	LDD  R26,Y+@0
	LDD  R27,Y+@0+1
	SUBI R26,LOW(-@1)
	SBCI R27,HIGH(-@1)
	ST   X,R30
	.ENDM

	.MACRO __PUTW1SN
	LDD  R26,Y+@0
	LDD  R27,Y+@0+1
	SUBI R26,LOW(-@1)
	SBCI R27,HIGH(-@1)
	ST   X+,R30
	ST   X,R31
	.ENDM

	.MACRO __PUTD1SN
	LDD  R26,Y+@0
	LDD  R27,Y+@0+1
	SUBI R26,LOW(-@1)
	SBCI R27,HIGH(-@1)
	CALL __PUTDP1
	.ENDM

	.MACRO __PUTB1SNS
	LDD  R26,Y+@0
	LDD  R27,Y+@0+1
	ADIW R26,@1
	ST   X,R30
	.ENDM

	.MACRO __PUTW1SNS
	LDD  R26,Y+@0
	LDD  R27,Y+@0+1
	ADIW R26,@1
	ST   X+,R30
	ST   X,R31
	.ENDM

	.MACRO __PUTD1SNS
	LDD  R26,Y+@0
	LDD  R27,Y+@0+1
	ADIW R26,@1
	CALL __PUTDP1
	.ENDM

	.MACRO __PUTB1PMN
	LDS  R26,@0
	LDS  R27,@0+1
	SUBI R26,LOW(-@1)
	SBCI R27,HIGH(-@1)
	ST   X,R30
	.ENDM

	.MACRO __PUTW1PMN
	LDS  R26,@0
	LDS  R27,@0+1
	SUBI R26,LOW(-@1)
	SBCI R27,HIGH(-@1)
	ST   X+,R30
	ST   X,R31
	.ENDM

	.MACRO __PUTD1PMN
	LDS  R26,@0
	LDS  R27,@0+1
	SUBI R26,LOW(-@1)
	SBCI R27,HIGH(-@1)
	CALL __PUTDP1
	.ENDM

	.MACRO __PUTB1PMNS
	LDS  R26,@0
	LDS  R27,@0+1
	ADIW R26,@1
	ST   X,R30
	.ENDM

	.MACRO __PUTW1PMNS
	LDS  R26,@0
	LDS  R27,@0+1
	ADIW R26,@1
	ST   X+,R30
	ST   X,R31
	.ENDM

	.MACRO __PUTD1PMNS
	LDS  R26,@0
	LDS  R27,@0+1
	ADIW R26,@1
	CALL __PUTDP1
	.ENDM

	.MACRO __PUTB1RN
	MOVW R26,R@0
	SUBI R26,LOW(-@1)
	SBCI R27,HIGH(-@1)
	ST   X,R30
	.ENDM

	.MACRO __PUTW1RN
	MOVW R26,R@0
	SUBI R26,LOW(-@1)
	SBCI R27,HIGH(-@1)
	ST   X+,R30
	ST   X,R31
	.ENDM

	.MACRO __PUTD1RN
	MOVW R26,R@0
	SUBI R26,LOW(-@1)
	SBCI R27,HIGH(-@1)
	CALL __PUTDP1
	.ENDM

	.MACRO __PUTB1RNS
	MOVW R26,R@0
	ADIW R26,@1
	ST   X,R30
	.ENDM

	.MACRO __PUTW1RNS
	MOVW R26,R@0
	ADIW R26,@1
	ST   X+,R30
	ST   X,R31
	.ENDM

	.MACRO __PUTD1RNS
	MOVW R26,R@0
	ADIW R26,@1
	CALL __PUTDP1
	.ENDM

	.MACRO __PUTB1RON
	MOV  R26,R@0
	MOV  R27,R@1
	SUBI R26,LOW(-@2)
	SBCI R27,HIGH(-@2)
	ST   X,R30
	.ENDM

	.MACRO __PUTW1RON
	MOV  R26,R@0
	MOV  R27,R@1
	SUBI R26,LOW(-@2)
	SBCI R27,HIGH(-@2)
	ST   X+,R30
	ST   X,R31
	.ENDM

	.MACRO __PUTD1RON
	MOV  R26,R@0
	MOV  R27,R@1
	SUBI R26,LOW(-@2)
	SBCI R27,HIGH(-@2)
	CALL __PUTDP1
	.ENDM

	.MACRO __PUTB1RONS
	MOV  R26,R@0
	MOV  R27,R@1
	ADIW R26,@2
	ST   X,R30
	.ENDM

	.MACRO __PUTW1RONS
	MOV  R26,R@0
	MOV  R27,R@1
	ADIW R26,@2
	ST   X+,R30
	ST   X,R31
	.ENDM

	.MACRO __PUTD1RONS
	MOV  R26,R@0
	MOV  R27,R@1
	ADIW R26,@2
	CALL __PUTDP1
	.ENDM


	.MACRO __GETB1SX
	MOVW R30,R28
	SUBI R30,LOW(-@0)
	SBCI R31,HIGH(-@0)
	LD   R30,Z
	.ENDM

	.MACRO __GETB1HSX
	MOVW R30,R28
	SUBI R30,LOW(-@0)
	SBCI R31,HIGH(-@0)
	LD   R31,Z
	.ENDM

	.MACRO __GETW1SX
	MOVW R30,R28
	SUBI R30,LOW(-@0)
	SBCI R31,HIGH(-@0)
	LD   R0,Z+
	LD   R31,Z
	MOV  R30,R0
	.ENDM

	.MACRO __GETD1SX
	MOVW R30,R28
	SUBI R30,LOW(-@0)
	SBCI R31,HIGH(-@0)
	LD   R0,Z+
	LD   R1,Z+
	LD   R22,Z+
	LD   R23,Z
	MOVW R30,R0
	.ENDM

	.MACRO __GETB2SX
	MOVW R26,R28
	SUBI R26,LOW(-@0)
	SBCI R27,HIGH(-@0)
	LD   R26,X
	.ENDM

	.MACRO __GETW2SX
	MOVW R26,R28
	SUBI R26,LOW(-@0)
	SBCI R27,HIGH(-@0)
	LD   R0,X+
	LD   R27,X
	MOV  R26,R0
	.ENDM

	.MACRO __GETD2SX
	MOVW R26,R28
	SUBI R26,LOW(-@0)
	SBCI R27,HIGH(-@0)
	LD   R0,X+
	LD   R1,X+
	LD   R24,X+
	LD   R25,X
	MOVW R26,R0
	.ENDM

	.MACRO __GETBRSX
	MOVW R30,R28
	SUBI R30,LOW(-@1)
	SBCI R31,HIGH(-@1)
	LD   R@0,Z
	.ENDM

	.MACRO __GETWRSX
	MOVW R30,R28
	SUBI R30,LOW(-@2)
	SBCI R31,HIGH(-@2)
	LD   R@0,Z+
	LD   R@1,Z
	.ENDM

	.MACRO __GETBRSX2
	MOVW R26,R28
	SUBI R26,LOW(-@1)
	SBCI R27,HIGH(-@1)
	LD   R@0,X
	.ENDM

	.MACRO __GETWRSX2
	MOVW R26,R28
	SUBI R26,LOW(-@2)
	SBCI R27,HIGH(-@2)
	LD   R@0,X+
	LD   R@1,X
	.ENDM

	.MACRO __LSLW8SX
	MOVW R30,R28
	SUBI R30,LOW(-@0)
	SBCI R31,HIGH(-@0)
	LD   R31,Z
	CLR  R30
	.ENDM

	.MACRO __PUTB1SX
	MOVW R26,R28
	SUBI R26,LOW(-@0)
	SBCI R27,HIGH(-@0)
	ST   X,R30
	.ENDM

	.MACRO __PUTW1SX
	MOVW R26,R28
	SUBI R26,LOW(-@0)
	SBCI R27,HIGH(-@0)
	ST   X+,R30
	ST   X,R31
	.ENDM

	.MACRO __PUTD1SX
	MOVW R26,R28
	SUBI R26,LOW(-@0)
	SBCI R27,HIGH(-@0)
	ST   X+,R30
	ST   X+,R31
	ST   X+,R22
	ST   X,R23
	.ENDM

	.MACRO __CLRW1SX
	MOVW R26,R28
	SUBI R26,LOW(-@0)
	SBCI R27,HIGH(-@0)
	ST   X+,R30
	ST   X,R30
	.ENDM

	.MACRO __CLRD1SX
	MOVW R26,R28
	SUBI R26,LOW(-@0)
	SBCI R27,HIGH(-@0)
	ST   X+,R30
	ST   X+,R30
	ST   X+,R30
	ST   X,R30
	.ENDM

	.MACRO __PUTB2SX
	MOVW R30,R28
	SUBI R30,LOW(-@0)
	SBCI R31,HIGH(-@0)
	ST   Z,R26
	.ENDM

	.MACRO __PUTW2SX
	MOVW R30,R28
	SUBI R30,LOW(-@0)
	SBCI R31,HIGH(-@0)
	ST   Z+,R26
	ST   Z,R27
	.ENDM

	.MACRO __PUTD2SX
	MOVW R30,R28
	SUBI R30,LOW(-@0)
	SBCI R31,HIGH(-@0)
	ST   Z+,R26
	ST   Z+,R27
	ST   Z+,R24
	ST   Z,R25
	.ENDM

	.MACRO __PUTBSRX
	MOVW R30,R28
	SUBI R30,LOW(-@1)
	SBCI R31,HIGH(-@1)
	ST   Z,R@0
	.ENDM

	.MACRO __PUTWSRX
	MOVW R30,R28
	SUBI R30,LOW(-@2)
	SBCI R31,HIGH(-@2)
	ST   Z+,R@0
	ST   Z,R@1
	.ENDM

	.MACRO __PUTB1SNX
	MOVW R26,R28
	SUBI R26,LOW(-@0)
	SBCI R27,HIGH(-@0)
	LD   R0,X+
	LD   R27,X
	MOV  R26,R0
	SUBI R26,LOW(-@1)
	SBCI R27,HIGH(-@1)
	ST   X,R30
	.ENDM

	.MACRO __PUTW1SNX
	MOVW R26,R28
	SUBI R26,LOW(-@0)
	SBCI R27,HIGH(-@0)
	LD   R0,X+
	LD   R27,X
	MOV  R26,R0
	SUBI R26,LOW(-@1)
	SBCI R27,HIGH(-@1)
	ST   X+,R30
	ST   X,R31
	.ENDM

	.MACRO __PUTD1SNX
	MOVW R26,R28
	SUBI R26,LOW(-@0)
	SBCI R27,HIGH(-@0)
	LD   R0,X+
	LD   R27,X
	MOV  R26,R0
	SUBI R26,LOW(-@1)
	SBCI R27,HIGH(-@1)
	ST   X+,R30
	ST   X+,R31
	ST   X+,R22
	ST   X,R23
	.ENDM

	.MACRO __MULBRR
	MULS R@0,R@1
	MOVW R30,R0
	.ENDM

	.MACRO __MULBRRU
	MUL  R@0,R@1
	MOVW R30,R0
	.ENDM

	.MACRO __MULBRR0
	MULS R@0,R@1
	.ENDM

	.MACRO __MULBRRU0
	MUL  R@0,R@1
	.ENDM

	.MACRO __MULBNWRU
	LDI  R26,@2
	MUL  R26,R@0
	MOVW R30,R0
	MUL  R26,R@1
	ADD  R31,R0
	.ENDM

;NAME DEFINITIONS FOR GLOBAL VARIABLES ALLOCATED TO REGISTERS
	.DEF _rx_wr_index0=R4
	.DEF _rx_rd_index0=R3
	.DEF _rx_counter0=R6
	.DEF _ruta_aux=R5
	.DEF _ruta=R8
	.DEF _bandera1=R7
	.DEF _bandera2=R10
	.DEF _bandera3=R9
	.DEF _bandera4=R12
	.DEF _aceptar=R11
	.DEF _btn1=R13

	.CSEG
	.ORG 0x00

;INTERRUPT VECTORS
	JMP  __RESET
	JMP  0x00
	JMP  0x00
	JMP  0x00
	JMP  0x00
	JMP  0x00
	JMP  0x00
	JMP  0x00
	JMP  0x00
	JMP  0x00
	JMP  0x00
	JMP  0x00
	JMP  0x00
	JMP  0x00
	JMP  0x00
	JMP  0x00
	JMP  0x00
	JMP  0x00
	JMP  _timer0_ovf_isr
	JMP  0x00
	JMP  _usart0_rx_isr
	JMP  0x00
	JMP  0x00
	JMP  0x00
	JMP  0x00
	JMP  0x00
	JMP  0x00
	JMP  0x00
	JMP  0x00
	JMP  0x00
	JMP  0x00

_font:
	.DB  0x0,0x0,0x0,0x0,0x0,0x0,0x0,0x0
	.DB  0x0,0x0,0x0,0x0,0x0,0x0,0x0,0x0
	.DB  0x0,0x0,0x0,0x0,0x0,0x0,0x0,0x0
	.DB  0x0,0x0,0x0,0x0,0x0,0x0,0x0,0x0
	.DB  0x0,0x0,0x0,0x0,0x0,0x0,0x0,0x0
	.DB  0x0,0x0,0x0,0x0,0x0,0x0,0x0,0x0
	.DB  0x0,0x0,0x0,0x0,0x0,0x0,0x0,0x0
	.DB  0x0,0x0,0x0,0x0,0x0,0x0,0x0,0x0
	.DB  0x0,0x0,0x0,0x0,0x0,0x0,0x0,0x0
	.DB  0x0,0x0,0x0,0x0,0x0,0x0,0x0,0x0
	.DB  0x0,0x0,0x0,0x0,0x0,0x0,0x0,0x0
	.DB  0x0,0x0,0x0,0x0,0x0,0x0,0x0,0x0
	.DB  0x0,0x0,0x0,0x0,0x0,0x0,0x0,0x0
	.DB  0x0,0x0,0x0,0x0,0x0,0x0,0x0,0x0
	.DB  0x0,0x0,0x0,0x0,0x0,0x0,0x0,0x0
	.DB  0x0,0x0,0x0,0x0,0x0,0x0,0x0,0x0
	.DB  0x0,0x0,0x0,0x0,0x0,0x0,0x0,0x0
	.DB  0x0,0x0,0x0,0x0,0x0,0x0,0x0,0x0
	.DB  0x0,0x0,0x0,0x0,0x0,0x0,0x0,0x0
	.DB  0x0,0x0,0x0,0x0,0x0,0x0,0x0,0x0
	.DB  0x0,0x0,0x0,0x0,0x0,0x0,0x0,0x0
	.DB  0x0,0x0,0x0,0x0,0x0,0x0,0x0,0x0
	.DB  0x0,0x0,0x0,0x0,0x0,0x0,0x0,0x0
	.DB  0x0,0x0,0x0,0x0,0x0,0x0,0x0,0x0
	.DB  0x0,0x0,0x0,0x0,0x0,0x0,0x0,0x0
	.DB  0x0,0x0,0x0,0x0,0x0,0x0,0x0,0x0
	.DB  0x0,0x0,0x0,0x0,0x0,0x0,0x0,0x0
	.DB  0x0,0x0,0x0,0x0,0x0,0x0,0x0,0x0
	.DB  0x0,0x0,0x0,0x0,0x0,0x0,0x0,0x0
	.DB  0x0,0x0,0x0,0x0,0x0,0x0,0x0,0x0
	.DB  0x0,0x0,0x0,0x0,0x0,0x0,0x0,0x0
	.DB  0x0,0x0,0x0,0x0,0x0,0x0,0x0,0x0
	.DB  0x0,0x0,0x0,0x0,0x0,0x0,0x0,0x0
	.DB  0x0,0x0,0x4F,0x0,0x0,0x0,0x0,0x0
	.DB  0x0,0x7,0x0,0x7,0x0,0x0,0x0,0x0
	.DB  0x0,0x24,0xFF,0x24,0xFF,0x24,0x0,0x0
	.DB  0x0,0x44,0x4A,0xFF,0x4A,0x32,0x0,0x0
	.DB  0x40,0x23,0x13,0x8,0xC4,0xC2,0x0,0x0
	.DB  0x0,0x36,0x49,0x55,0x22,0x40,0x80,0x0
	.DB  0x0,0x0,0x5,0x3,0x0,0x0,0x0,0x0
	.DB  0x0,0x3C,0x42,0x81,0x0,0x0,0x0,0x0
	.DB  0x0,0x81,0x42,0x3C,0x0,0x0,0x0,0x0
	.DB  0x0,0x14,0x8,0x3E,0x8,0x14,0x0,0x0
	.DB  0x0,0x10,0x10,0x7C,0x10,0x10,0x0,0x0
	.DB  0x0,0x0,0x28,0x18,0x0,0x0,0x0,0x0
	.DB  0x0,0x8,0x8,0x8,0x8,0x8,0x8,0x0
	.DB  0x0,0x60,0x60,0x0,0x0,0x0,0x0,0x0
	.DB  0x40,0x20,0x10,0x8,0x4,0x2,0x0,0x0
	.DB  0x0,0x7E,0xFF,0x81,0x81,0xFF,0x7E,0x0
	.DB  0x0,0x80,0x82,0xFE,0xFF,0x80,0x80,0x0
	.DB  0x0,0xE2,0xF1,0x91,0x91,0x9F,0x8E,0x0
	.DB  0x0,0x62,0xC3,0xC9,0xC9,0xFF,0x76,0x0
	.DB  0x0,0x18,0x14,0x12,0xFF,0xFF,0x10,0x0
	.DB  0x0,0x6F,0x8F,0x89,0x89,0xF9,0x71,0x0
	.DB  0x0,0x7E,0xFF,0x89,0x89,0xF9,0x72,0x0
	.DB  0x0,0x1,0x1,0xF1,0xFD,0x7,0x3,0x0
	.DB  0x0,0x76,0xFF,0x89,0x89,0xFF,0x76,0x0
	.DB  0x0,0x46,0x8F,0x89,0x89,0xFF,0x7E,0x0
	.DB  0x0,0x0,0x66,0x66,0x0,0x0,0x0,0x0
	.DB  0x0,0x0,0x56,0x36,0x0,0x0,0x0,0x0
	.DB  0x0,0x8,0x14,0x22,0x41,0x0,0x0,0x0
	.DB  0x0,0x24,0x24,0x24,0x24,0x24,0x0,0x0
	.DB  0x0,0x0,0x41,0x22,0x14,0x8,0x0,0x0
	.DB  0x0,0x2,0x1,0xB1,0x9,0x6,0x0,0x0
	.DB  0x0,0x62,0x91,0xF1,0x81,0x7E,0x0,0x0
	.DB  0x0,0xFE,0x11,0x11,0x11,0xFE,0x0,0x0
	.DB  0x0,0xFF,0x89,0x89,0x89,0x76,0x0,0x0
	.DB  0x0,0x7E,0x81,0x81,0x81,0x42,0x0,0x0
	.DB  0x0,0xFF,0x81,0x81,0x42,0x3C,0x0,0x0
	.DB  0x0,0xFF,0x89,0x89,0x89,0x81,0x0,0x0
	.DB  0x0,0xFF,0x9,0x9,0x9,0x1,0x0,0x0
	.DB  0x0,0x7E,0x81,0x91,0x91,0x72,0x0,0x0
	.DB  0x0,0xFF,0x10,0x10,0x10,0xFF,0x0,0x0
	.DB  0x0,0x0,0x81,0xFF,0x81,0x0,0x0,0x0
	.DB  0x0,0x40,0x80,0x81,0x7F,0x1,0x0,0x0
	.DB  0x0,0xFF,0x18,0x24,0x42,0x81,0x0,0x0
	.DB  0x0,0xFF,0x80,0x80,0x80,0x80,0x0,0x0
	.DB  0x0,0xFF,0x2,0xC,0x2,0xFF,0x0,0x0
	.DB  0x0,0xFF,0x4,0x8,0x10,0xFF,0x0,0x0
	.DB  0x0,0x7E,0x81,0x81,0x81,0x7E,0x0,0x0
	.DB  0x0,0xFF,0x11,0x11,0x11,0xE,0x0,0x0
	.DB  0x7E,0x81,0xA1,0x41,0xBE,0x0,0x0,0x0
	.DB  0x0,0xFF,0x11,0x31,0x51,0x8E,0x0,0x0
	.DB  0x0,0x86,0x89,0x89,0x89,0x71,0x0,0x0
	.DB  0x0,0x1,0x1,0xFF,0x1,0x1,0x0,0x0
	.DB  0x0,0x7F,0x80,0x80,0x80,0x7F,0x0,0x0
	.DB  0x0,0x3F,0x40,0x80,0x40,0x3F,0x0,0x0
	.DB  0x0,0x3F,0xC0,0x60,0xC0,0x3F,0x0,0x0
	.DB  0x0,0xE3,0x14,0x8,0x14,0xE3,0x0,0x0
	.DB  0x0,0x7,0x8,0xF0,0x8,0x7,0x0,0x0
	.DB  0x0,0xC1,0xA1,0x91,0x89,0x87,0x0,0x0
	.DB  0x0,0xFF,0x81,0x81,0x0,0x0,0x0,0x0
	.DB  0x0,0x15,0x16,0x7C,0x16,0x15,0x0,0x0
	.DB  0x0,0x41,0x41,0x7F,0x0,0x0,0x0,0x0
	.DB  0x0,0x4,0x2,0x1,0x2,0x4,0x0,0x0
	.DB  0x0,0x40,0x40,0x40,0x40,0x40,0x0,0x0
	.DB  0x0,0x1,0x2,0x4,0x0,0x0,0x0,0x0
	.DB  0x0,0x60,0x94,0x94,0x94,0x78,0x0,0x0
	.DB  0x0,0xFF,0x88,0x88,0x88,0x70,0x0,0x0
	.DB  0x0,0x78,0x84,0x84,0x84,0x0,0x0,0x0
	.DB  0x0,0x78,0x84,0x84,0x88,0x7F,0x0,0x0
	.DB  0x0,0x78,0x94,0x94,0x94,0x58,0x0,0x0
	.DB  0x0,0x10,0xFE,0x11,0x1,0x2,0x0,0x0
	.DB  0x0,0xC,0x92,0x92,0x92,0x7E,0x0,0x0
	.DB  0x0,0xFF,0x10,0x8,0x8,0xF0,0x0,0x0
	.DB  0x0,0x0,0x84,0xFD,0x80,0x0,0x0,0x0
	.DB  0x0,0x60,0x80,0x80,0x7D,0x0,0x0,0x0
	.DB  0x0,0xFF,0x30,0x48,0x84,0x0,0x0,0x0
	.DB  0x0,0x0,0x81,0xFF,0x80,0x0,0x0,0x0
	.DB  0x0,0xFC,0x4,0x38,0x4,0xF8,0x0,0x0
	.DB  0x0,0xFC,0x8,0x4,0x4,0xF8,0x0,0x0
	.DB  0x0,0x78,0x84,0x84,0x84,0x78,0x0,0x0
	.DB  0x0,0xFC,0x14,0x14,0x14,0x8,0x0,0x0
	.DB  0x0,0x8,0x14,0x14,0x18,0xFC,0x0,0x0
	.DB  0x0,0xFC,0x8,0x4,0x4,0x8,0x0,0x0
	.DB  0x0,0x88,0x94,0x94,0x94,0x60,0x0,0x0
	.DB  0x0,0x4,0x7F,0x84,0x80,0x40,0x0,0x0
	.DB  0x0,0x7C,0x80,0x80,0x40,0xFC,0x0,0x0
	.DB  0x0,0x3C,0x40,0x80,0x40,0x3C,0x0,0x0
	.DB  0x0,0x3E,0xC0,0x60,0xC0,0x3E,0x0,0x0
	.DB  0x0,0x42,0x24,0x18,0x24,0x42,0x0,0x0
	.DB  0x0,0x6,0x88,0x88,0x88,0x7E,0x0,0x0
	.DB  0x0,0xC4,0xA4,0x94,0x8C,0x84,0x0,0x0
	.DB  0x0,0x8,0x76,0x81,0x0,0x0,0x0,0x0
	.DB  0x0,0x0,0x0,0xFF,0x0,0x0,0x0,0x0
	.DB  0x0,0x81,0x76,0x8,0x0,0x0,0x0,0x0
	.DB  0x0,0x8,0x8,0x2A,0x1C,0x8,0x0,0x0
	.DB  0x0,0x8,0x1C,0x2A,0x8,0x8,0x0,0x0
	.DB  0x0,0x7C,0x82,0x81,0x82,0x7C,0x0,0x0
	.DB  0x0,0x0,0x0,0x0,0x0,0x0,0x0,0x0
	.DB  0x0,0x0,0x0,0x0,0x0,0x0,0x0,0x0
	.DB  0x0,0x0,0x0,0x0,0x0,0x0,0x0,0x0
	.DB  0x0,0x0,0x0,0x0,0x0,0x0,0x0,0x0
	.DB  0x0,0x0,0x0,0x0,0x0,0x0,0x0,0x0
	.DB  0x0,0x0,0x0,0x0,0x0,0x0,0x0,0x0
	.DB  0x0,0x0,0x0,0x0,0x0,0x0,0x0,0x0
	.DB  0x0,0x0,0x0,0x0,0x0,0x0,0x0,0x0
	.DB  0x0,0x0,0x0,0x0,0x0,0x0,0x0,0x0
	.DB  0x0,0x0,0x0,0x0,0x0,0x0,0x0,0x0
	.DB  0x0,0x0,0x0,0x0,0x0,0x0,0x0,0x0
	.DB  0x0,0x0,0x0,0x0,0x0,0x0,0x0,0x0
	.DB  0x0,0x0,0x0,0x0,0x0,0x0,0x0,0x0
	.DB  0x0,0x0,0x0,0x0,0x0,0x0,0x0,0x0
	.DB  0x0,0x0,0x0,0x0,0x0,0x0,0x0,0x0
	.DB  0x0,0x0,0x0,0x0,0x0,0x0,0x0,0x0
	.DB  0x0,0x0,0x0,0x0,0x0,0x0,0x0,0x0
	.DB  0x0,0x0,0x0,0x0,0x0,0x0,0x0,0x0
	.DB  0x0,0x0,0x0,0x0,0x0,0x0,0x0,0x0
	.DB  0x0,0x0,0x0,0x0,0x0,0x0,0x0,0x0
	.DB  0x0,0x0,0x0,0x0,0x0,0x0,0x0,0x0
	.DB  0x0,0x0,0x0,0x0,0x0,0x0,0x0,0x0
	.DB  0x0,0x0,0x0,0x0,0x0,0x0,0x0,0x0
	.DB  0x0,0x0,0x0,0x0,0x0,0x0,0x0,0x0
	.DB  0x0,0x0,0x0,0x0,0x0,0x0,0x0,0x0
	.DB  0x0,0x0,0x0,0x0,0x0,0x0,0x0,0x0
	.DB  0x0,0x0,0x0,0x0,0x0,0x0,0x0,0x0
	.DB  0x0,0x0,0x0,0x0,0x0,0x0,0x0,0x0
	.DB  0x0,0x0,0x0,0x0,0x0,0x0,0x0,0x0
	.DB  0x0,0x0,0x0,0x0,0x0,0x0,0x0,0x0
	.DB  0x0,0x0,0x0,0x0,0x0,0x0,0x0,0x0
	.DB  0x0,0x0,0x0,0x0,0x0,0x0,0x0,0x0
	.DB  0x0,0x0,0x0,0x0,0x0,0x0,0x0,0x0
	.DB  0x0,0x0,0x0,0x0,0x0,0x0,0x0,0x0
	.DB  0x0,0x0,0x0,0x0,0x0,0x0,0x0,0x0
	.DB  0x0,0x0,0x0,0x0,0x0,0x0,0x0,0x0
	.DB  0x0,0x0,0x0,0x0,0x0,0x0,0x0,0x0
	.DB  0x0,0x0,0x0,0x0,0x0,0x0,0x0,0x0
	.DB  0x0,0x0,0x0,0x0,0x0,0x0,0x0,0x0
	.DB  0x0,0x0,0x0,0x0,0x0,0x0,0x0,0x0
	.DB  0x0,0x0,0x0,0x0,0x0,0x0,0x0,0x0
	.DB  0x0,0x0,0x0,0x0,0x0,0x0,0x0,0x0
	.DB  0x0,0x0,0x0,0x0,0x0,0x0,0x0,0x0
	.DB  0x0,0x0,0x0,0x0,0x0,0x0,0x0,0x0
	.DB  0x0,0x0,0x0,0x0,0x0,0x0,0x0,0x0
	.DB  0x0,0x0,0x0,0x0,0x0,0x0,0x0,0x0
	.DB  0x0,0x0,0x0,0x0,0x0,0x0,0x0,0x0
	.DB  0x0,0x0,0x0,0x0,0x0,0x0,0x0,0x0
	.DB  0x0,0x0,0x0,0x0,0x0,0x0,0x0,0x0
	.DB  0x0,0x0,0x0,0x0,0x0,0x0,0x0,0x0
	.DB  0x0,0x0,0x0,0x0,0x0,0x0,0x0,0x0
	.DB  0x0,0x0,0x0,0x0,0x0,0x0,0x0,0x0
	.DB  0x0,0x0,0x0,0x0,0x0,0x0,0x0,0x0
	.DB  0x0,0x0,0x0,0x0,0x0,0x0,0x0,0x0
	.DB  0x0,0x0,0x0,0x0,0x0,0x0,0x0,0x0
	.DB  0x0,0x0,0x0,0x0,0x0,0x0,0x0,0x0
	.DB  0x0,0x0,0x0,0x0,0x0,0x0,0x0,0x0
	.DB  0x0,0x0,0x0,0x0,0x0,0x0,0x0,0x0
	.DB  0x0,0x0,0x0,0x0,0x0,0x0,0x0,0x0
	.DB  0x0,0x0,0x0,0x0,0x0,0x0,0x0,0x0
	.DB  0x0,0x0,0x0,0x0,0x0,0x0,0x0,0x0
	.DB  0x0,0x0,0x0,0x0,0x0,0x0,0x0,0x0
	.DB  0x0,0x0,0x0,0x0,0x0,0x0,0x0,0x0
	.DB  0x0,0x0,0x0,0x0,0x0,0x0,0x0,0x0
	.DB  0x0,0x0,0x0,0x0,0x0,0x0,0x0,0x0
	.DB  0x0,0x0,0x0,0x0,0x0,0x0,0x0,0x0
	.DB  0x0,0x0,0x0,0x0,0x0,0x0,0x0,0x0
	.DB  0x0,0x0,0x0,0x0,0x0,0x0,0x0,0x0
	.DB  0x0,0x0,0x0,0x0,0x0,0x0,0x0,0x0
	.DB  0x0,0x0,0x0,0x0,0x0,0x0,0x0,0x0
	.DB  0x0,0x0,0x0,0x0,0x0,0x0,0x0,0x0
	.DB  0x0,0x0,0x0,0x0,0x0,0x0,0x0,0x0
	.DB  0x0,0x0,0x0,0x0,0x0,0x0,0x0,0x0
	.DB  0x0,0x0,0x0,0x0,0x0,0x0,0x0,0x0
	.DB  0x0,0x0,0x0,0x0,0x0,0x0,0x0,0x0
	.DB  0x0,0x0,0x0,0x0,0x0,0x0,0x0,0x0
	.DB  0x0,0x0,0x0,0x0,0x0,0x0,0x0,0x0
	.DB  0x0,0x0,0x0,0x0,0x0,0x0,0x0,0x0
	.DB  0x0,0x0,0x0,0x0,0x0,0x0,0x0,0x0
	.DB  0x0,0x0,0x0,0x0,0x0,0x0,0x0,0x0
	.DB  0x0,0x0,0x0,0x0,0x0,0x0,0x0,0x0
	.DB  0x0,0x0,0x0,0x0,0x0,0x0,0x0,0x0
	.DB  0x0,0x0,0x0,0x0,0x0,0x0,0x0,0x0
	.DB  0x0,0x0,0x0,0x0,0x0,0x0,0x0,0x0
	.DB  0x0,0x0,0x0,0x0,0x0,0x0,0x0,0x0
	.DB  0x0,0x0,0x0,0x0,0x0,0x0,0x0,0x0
	.DB  0x0,0x0,0x0,0x0,0x0,0x0,0x0,0x0
	.DB  0x0,0x0,0x0,0x0,0x0,0x0,0x0,0x0
	.DB  0x0,0x0,0x0,0x0,0x0,0x0,0x0,0x0
	.DB  0x0,0x0,0x0,0x0,0x0,0x0,0x0,0x0
	.DB  0x0,0x0,0x0,0x0,0x0,0x0,0x0,0x0
	.DB  0x0,0x0,0x0,0x0,0x0,0x0,0x0,0x0
	.DB  0x0,0x0,0x0,0x0,0x0,0x0,0x0,0x0
	.DB  0x0,0x0,0x0,0x0,0x0,0x0,0x0,0x0
	.DB  0x0,0x0,0x0,0x0,0x0,0x0,0x0,0x0
	.DB  0x0,0x0,0x0,0x0,0x0,0x0,0x0,0x0
	.DB  0x0,0x0,0x0,0x0,0x0,0x0,0x0,0x0
	.DB  0x0,0x0,0x0,0x0,0x0,0x0,0x0,0x0
	.DB  0x0,0x0,0x0,0x0,0x0,0x0,0x0,0x0
	.DB  0x0,0x0,0x0,0x0,0x0,0x0,0x0,0x0
	.DB  0x0,0x0,0x0,0x0,0x0,0x0,0x0,0x0
	.DB  0x0,0x0,0x0,0x0,0x0,0x0,0x0,0x0
	.DB  0x0,0x0,0x0,0x0,0x0,0x0,0x0,0x0
	.DB  0x0,0x0,0x0,0x0,0x0,0x0,0x0,0x0
	.DB  0x0,0x0,0x0,0x0,0x0,0x0,0x0,0x0
	.DB  0x0,0x0,0x0,0x0,0x0,0x0,0x0,0x0
	.DB  0x0,0x0,0x0,0x0,0x0,0x0,0x0,0x0
	.DB  0x0,0x0,0x0,0x0,0x0,0x0,0x0,0x0
	.DB  0x0,0x0,0x0,0x0,0x0,0x0,0x0,0x0
	.DB  0x0,0x0,0x0,0x0,0x0,0x0,0x0,0x0
	.DB  0x0,0x0,0x0,0x0,0x0,0x0,0x0,0x0
	.DB  0x0,0x0,0x0,0x0,0x0,0x0,0x0,0x0
	.DB  0x0,0x0,0x0,0x0,0x0,0x0,0x0,0x0
	.DB  0x0,0x0,0x0,0x0,0x0,0x0,0x0,0x0
	.DB  0x0,0x0,0x0,0x0,0x0,0x0,0x0,0x0
	.DB  0x0,0x0,0x0,0x0,0x0,0x0,0x0,0x0
	.DB  0x0,0x0,0x0,0x0,0x0,0x0,0x0,0x0
	.DB  0x0,0x0,0x0,0x0,0x0,0x0,0x0,0x0
	.DB  0x0,0x0,0x0,0x0,0x0,0x0,0x0,0x0
	.DB  0x0,0x0,0x0,0x0,0x0,0x0,0x0,0x0
	.DB  0x0,0x0,0x0,0x0,0x0,0x0,0x0,0x0
	.DB  0x0,0x0,0x0,0x0,0x0,0x0,0x0,0x0
	.DB  0x0,0x0,0x0,0x0,0x0,0x0,0x0,0x0
	.DB  0x0,0x0,0x0,0x0,0x0,0x0,0x0,0x0
	.DB  0x0,0x0,0x0,0x0,0x0,0x0,0x0,0x0
	.DB  0x0,0x0,0x0,0x0,0x0,0x0,0x0,0x0
	.DB  0x0,0x0,0x0,0x0,0x0,0x0,0x0,0x0
_map:
	.DB  0xC1,0xC1,0xC1,0xC1,0x0,0x0,0xC2,0xC2
	.DB  0xFE,0xFE,0x1,0x0,0xC3,0xC3,0x1F,0x1F
	.DB  0x1,0x0,0xC4,0xC4,0xFC,0xFC,0x1,0x0
	.DB  0xC5,0xC5,0xC5,0xC5,0x1,0x1,0xC6,0xBD
	.DB  0xBF,0xBE,0x1,0x1,0xC7,0xC7,0xC0,0xC0
	.DB  0x1,0x0,0xC8,0x82,0x84,0x83,0x1,0x1
	.DB  0xC9,0xC9,0xFD,0xFD,0x1,0x0,0xCA,0x85
	.DB  0x87,0x86,0x1,0x1,0xCB,0x88,0x8A,0x89
	.DB  0x1,0x1,0xCC,0x8B,0xCC,0x8B,0x1,0x1
	.DB  0xCD,0x8C,0xCD,0x8C,0x1,0x1,0xCE,0x11
	.DB  0xCE,0x11,0x1,0x1,0xCF,0xCF,0x13,0x13
	.DB  0x1,0x0,0xD0,0xD0,0x8F,0x8F,0x1,0x0
	.DB  0xD1,0xD1,0x1B,0x1B,0x1,0x0,0xD2,0xD2
	.DB  0x91,0x91,0x1,0x0,0xD3,0x92,0x94,0x93
	.DB  0x1,0x1,0xD4,0x95,0x97,0x96,0x1,0x1
	.DB  0xD5,0x17,0x9A,0x99,0x1,0x1,0xD6,0x9B
	.DB  0x9D,0x9C,0x1,0x1,0xD7,0xD7,0xD7,0xD7
	.DB  0x0,0x0,0xD8,0xD8,0x9E,0x9E,0x1,0x1
	.DB  0xD9,0xD9,0x9F,0x9F,0x1,0x1,0xDA,0xA0
	.DB  0xA2,0xA1,0x1,0x1,0xDB,0xA3,0xA5,0xA4
	.DB  0x1,0x1,0xDC,0xDC,0xDC,0xDC,0x0,0x0
	.DB  0xDD,0xA6,0xA8,0xA7,0x1,0x1,0xDE,0xA9
	.DB  0xAB,0xAA,0x1,0x1,0xDF,0xAC,0xAE,0xAD
	.DB  0x1,0x1,0xE0,0xE0,0xE0,0xE0,0x0,0x0
	.DB  0xE1,0xAF,0xB1,0xB0,0x1,0x1,0xE2,0xE2
	.DB  0xE2,0xE2,0x0,0x0,0xE3,0xB2,0xB4,0xB3
	.DB  0x1,0x1,0xE4,0xB5,0xB7,0xB6,0x1,0x1
	.DB  0xE5,0xB8,0xBA,0xB9,0x1,0x1,0xE6,0xE6
	.DB  0xBC,0xBC,0x1,0x0,0xE7,0xE7,0xE7,0xE7
	.DB  0x0,0x0,0xE8,0xE8,0xE8,0xE8,0x0,0x0
	.DB  0xE9,0xE9,0xE9,0xE9,0x0,0x0,0xEA,0xEA
	.DB  0xEA,0xEA,0x0,0x0,0xEB,0xEB,0xEB,0xEB
	.DB  0x0,0x0,0xEC,0xBD,0xBF,0xBE,0x1,0x1
	.DB  0xED,0xBD,0xBF,0xBE,0x1,0x1,0xEE,0xEE
	.DB  0xEE,0xEE,0x0,0x0,0xEF,0xEF,0xEF,0xEF
	.DB  0x0,0x0,0xF0,0xF0,0xF0,0xF0,0x0,0x0
	.DB  0xF1,0xF1,0xF1,0xF1,0x0,0x0,0xF2,0xF2
	.DB  0xF2,0xF2,0x0,0x0,0xF3,0xF3,0xF3,0xF3
	.DB  0x0,0x0,0xF5,0xF5,0xF5,0xF5,0x0,0x0
	.DB  0xF6,0xF6,0xF6,0xF6,0x0,0x0,0xF7,0xF7
	.DB  0xF7,0xF7,0x0,0x0,0xF8,0xF8,0xF8,0xF8
	.DB  0x0,0x0,0xFB,0xF9,0xFB,0xFA,0x1,0x1
	.DB  0xBB,0xBB,0xF4,0xF4,0x1,0x0,0x81,0x1C
	.DB  0x1E,0x1D,0x1,0x1,0x90,0x18,0x1A,0x19
	.DB  0x1,0x1,0x98,0x14,0x16,0x15,0x1,0x1
	.DB  0x8E,0x8E,0x12,0x12,0x1,0x0,0x8D,0x10
	.DB  0x8D,0x10,0x1,0x1
_arr:
	.DB  0x0,0xC0,0xF0,0x30,0x38,0x18,0x18,0x18
	.DB  0x18,0x98,0xB0,0xB0,0x30,0x30,0x30,0x60
	.DB  0x60,0x60,0x60,0x60,0x60,0xC0,0xC0,0xC0
	.DB  0xC0,0xC0,0xC0,0xC0,0x80,0x80,0x80,0x80
	.DB  0x80,0x0,0x0,0x0,0x0,0x0,0x0,0x0
	.DB  0x0,0x0,0x0,0x0,0x0,0x0,0x0,0x0
	.DB  0x0,0x0,0x0,0x0,0x0,0x0,0x0,0x0
	.DB  0x0,0x0,0x0,0x0,0x0,0x0,0x0,0x0
	.DB  0x0,0x0,0x0,0x0,0x0,0x0,0x0,0x0
	.DB  0x0,0x0,0x0,0x0,0x0,0x0,0x0,0x0
	.DB  0x0,0x0,0x0,0x0,0x0,0x0,0x0,0x0
	.DB  0x0,0x0,0x0,0x0,0x0,0x0,0x0,0x0
	.DB  0x0,0x0,0x0,0x0,0x0,0x0,0x0,0x0
	.DB  0x0,0x0,0x0,0x0,0x0,0x0,0x0,0x0
	.DB  0x0,0x0,0x0,0x0,0x0,0x0,0x0,0x0
	.DB  0x0,0x0,0x0,0x0,0x0,0x0,0x0,0x0
	.DB  0x0,0xFF,0xFF,0x0,0x0,0xC,0x18,0xF0
	.DB  0xE7,0xF,0xFD,0xF,0x7,0x0,0x0,0x0
	.DB  0x0,0x0,0x0,0x0,0x0,0x0,0x0,0x0
	.DB  0x0,0x0,0x0,0x0,0x1,0x1,0x1,0x81
	.DB  0x83,0x83,0x83,0xC3,0xE7,0x67,0xE6,0xC6
	.DB  0x6,0xE,0xC,0xC,0xC,0xC,0xC,0x18
	.DB  0x18,0x18,0x78,0x70,0xE0,0xC0,0x0,0x0
	.DB  0x0,0x0,0x0,0xE0,0xE0,0x0,0x0,0x0
	.DB  0x0,0x0,0x80,0xC0,0xE0,0x60,0x0,0xE0
	.DB  0xE0,0x60,0x60,0x60,0x60,0x60,0x60,0xE0
	.DB  0xC0,0x0,0x0,0x0,0x80,0xC0,0x60,0x60
	.DB  0xC0,0x80,0x0,0x0,0x0,0xE0,0xE0,0x60
	.DB  0x60,0x60,0x60,0x60,0x60,0xC0,0x80,0x0
	.DB  0x0,0x0,0x80,0xC0,0x60,0x60,0xC0,0x80
	.DB  0x0,0x0,0x0,0x0,0x80,0xC0,0x60,0x60
	.DB  0x60,0x60,0x60,0xC0,0x80,0x0,0x0,0x0
	.DB  0x0,0xFF,0xFF,0x0,0x0,0x0,0x0,0xFF
	.DB  0xFF,0x0,0xFF,0x0,0x0,0x0,0x0,0x0
	.DB  0x0,0x0,0x0,0x0,0x0,0x0,0x0,0x80
	.DB  0xC0,0x60,0x30,0x18,0x8C,0xC6,0x63,0x31
	.DB  0x18,0x8,0x8,0x9,0xB,0xB,0xB,0x9
	.DB  0x8,0x8,0x8,0x8,0x8,0x8,0x1C,0x3E
	.DB  0x36,0x3E,0x1C,0x0,0xFF,0xFF,0x0,0x0
	.DB  0x0,0x0,0x0,0xFF,0xFF,0x70,0xF8,0x8C
	.DB  0x8E,0x7,0x3,0x1,0x0,0x0,0x0,0xFF
	.DB  0xFF,0xE0,0xE0,0xE0,0x60,0x60,0x60,0x7F
	.DB  0x3F,0x0,0xFE,0xFF,0x61,0x60,0x60,0x60
	.DB  0x60,0x61,0xFF,0xFE,0x0,0xFF,0xFF,0x0
	.DB  0x0,0x0,0x0,0x0,0x0,0xFF,0xFF,0x0
	.DB  0xFE,0xFF,0x61,0x60,0x60,0x60,0x60,0x61
	.DB  0xFF,0xFE,0x0,0xFF,0xFF,0x0,0x0,0x0
	.DB  0x0,0x0,0x0,0x0,0x1,0x0,0x0,0x0
	.DB  0x0,0xFF,0xFF,0x0,0x0,0x0,0x0,0xFF
	.DB  0xFF,0x0,0x3F,0x30,0x30,0x30,0x30,0x30
	.DB  0x30,0x30,0x30,0x18,0xC,0xC6,0xE3,0x31
	.DB  0x18,0xC,0x6,0x3,0x1,0x0,0x0,0x0
	.DB  0x0,0x0,0x0,0x0,0x0,0x0,0x0,0x0
	.DB  0x0,0x0,0x0,0x0,0x0,0x0,0x0,0x0
	.DB  0x0,0x0,0x0,0x0,0xFF,0xFF,0x0,0x0
	.DB  0x0,0x0,0x0,0x3F,0x3F,0x0,0x0,0x1
	.DB  0x3,0x7,0xE,0x1C,0x38,0x30,0x0,0x3F
	.DB  0x3F,0x0,0x0,0x1,0x3,0x7,0xE,0x3C
	.DB  0x38,0x0,0x3F,0x3F,0x0,0x0,0x0,0x0
	.DB  0x0,0x0,0x3F,0x3F,0x0,0x3F,0x3F,0x30
	.DB  0x30,0x30,0x30,0x30,0x30,0x1F,0xF,0x0
	.DB  0x3F,0x3F,0x0,0x0,0x0,0x0,0x0,0x0
	.DB  0x3F,0x3F,0x0,0xF,0x1F,0x30,0x30,0x30
	.DB  0x30,0x30,0x30,0x38,0x18,0x0,0x0,0x0
	.DB  0x0,0xFF,0xFF,0x0,0x0,0x0,0x0,0xFF
	.DB  0xFF,0x0,0xFF,0x3,0x3,0x3,0x3,0x3
	.DB  0x3,0x3,0x3,0x6,0xC,0x19,0x33,0x66
	.DB  0xCC,0x98,0x30,0x60,0xC0,0x80,0x0,0x0
	.DB  0x0,0x0,0x0,0x0,0x0,0x0,0x0,0x0
	.DB  0x0,0x0,0x0,0x0,0x0,0x0,0x0,0x0
	.DB  0x0,0x0,0x0,0x0,0xFF,0xFF,0x0,0x0
	.DB  0x0,0x0,0x0,0x0,0x0,0x0,0x0,0x0
	.DB  0x0,0x0,0x0,0x0,0x0,0x0,0x0,0x0
	.DB  0x0,0x0,0x0,0x0,0x0,0x0,0x0,0x0
	.DB  0x0,0x0,0x0,0x0,0x0,0x0,0x0,0x0
	.DB  0x0,0x0,0x0,0x0,0x0,0x0,0x0,0x0
	.DB  0x0,0x0,0x0,0x0,0x0,0x0,0x0,0x0
	.DB  0x0,0x0,0x0,0x0,0x0,0x0,0x0,0x0
	.DB  0x0,0x0,0x0,0x0,0x0,0x0,0x0,0x0
	.DB  0x0,0x0,0x0,0x0,0x0,0x0,0x0,0x0
	.DB  0x0,0xFF,0xFF,0x0,0x0,0x0,0x0,0xFF
	.DB  0xFF,0x0,0xFF,0x0,0x0,0x0,0x0,0x0
	.DB  0x0,0x0,0x0,0x0,0x0,0x0,0x0,0x0
	.DB  0x0,0x1,0x3,0x6,0xC,0x19,0x33,0x66
	.DB  0x44,0x44,0x44,0xE4,0xF4,0xB4,0xF4,0xE4
	.DB  0x4,0x4,0x4,0x4,0x4,0x4,0xE,0x1F
	.DB  0x1B,0x1F,0xE,0x0,0xFF,0xFF,0x0,0x0
	.DB  0x0,0xFC,0x0,0x0,0x0,0x0,0x0,0xF8
	.DB  0x4,0x4,0x4,0xF8,0x0,0xC,0x4,0x4
	.DB  0x4,0xFC,0x0,0xF0,0x88,0x84,0x88,0xF0
	.DB  0x0,0x80,0x80,0x80,0x0,0xFC,0x84,0x84
	.DB  0x4,0x4,0x0,0xF8,0x4,0x4,0x4,0x8
	.DB  0x0,0xFC,0x0,0x0,0x0,0xFC,0x0,0xF0
	.DB  0x88,0x84,0x88,0xF0,0x0,0xFC,0x4,0x4
	.DB  0x4,0xF8,0x0,0xF8,0x4,0x4,0x4,0xF8
	.DB  0x0,0xFC,0x44,0xC4,0x44,0x38,0x0,0x0
	.DB  0x0,0xFF,0xFF,0x0,0x0,0x6,0x3,0x1
	.DB  0x1C,0x3E,0x37,0x3E,0x1C,0x0,0x0,0x0
	.DB  0x0,0x0,0x0,0x80,0x80,0x80,0x80,0xC0
	.DB  0xC0,0xC0,0xC0,0xC0,0xE0,0x60,0x60,0x60
	.DB  0x30,0x30,0x30,0x30,0x31,0x39,0x19,0x18
	.DB  0x18,0x1C,0xC,0xC,0xC,0xC,0xE,0x6
	.DB  0x6,0x6,0x7,0x3,0x1,0x0,0x0,0x0
	.DB  0x0,0xF,0x8,0x8,0x8,0x8,0x0,0x7
	.DB  0x8,0x8,0x8,0x7,0x0,0x6,0x8,0x8
	.DB  0x8,0x7,0x0,0xF,0x0,0x0,0x0,0xF
	.DB  0x0,0x0,0x0,0x0,0x0,0xF,0x8,0x8
	.DB  0x8,0x8,0x0,0x7,0x8,0x8,0x8,0x4
	.DB  0x0,0x7,0x8,0x8,0x8,0x7,0x0,0xF
	.DB  0x0,0x0,0x0,0xF,0x0,0xF,0x8,0x8
	.DB  0x8,0x7,0x0,0x7,0x8,0x8,0x8,0x7
	.DB  0x0,0xF,0x0,0x0,0x1,0xE,0x0,0x0
	.DB  0x0,0x1,0x7,0x6,0xE,0xC,0xC,0xC
	.DB  0xC,0xC,0x6,0x6,0x6,0x6,0x3,0x3
	.DB  0x3,0x3,0x3,0x1,0x1,0x1,0x1,0x1
	.DB  0x0,0x0,0x0,0x0,0x0,0x0,0x0,0x0
	.DB  0x0,0x0,0x0,0x0,0x0,0x0,0x0,0x0
	.DB  0x0,0x0,0x0,0x0,0x0,0x0,0x0,0x0
	.DB  0x0,0x0,0x0,0x0,0x0,0x0,0x0,0x0
	.DB  0x0,0x0,0x0,0x0,0x0,0x0,0x0,0x0
	.DB  0x0,0x0,0x0,0x0,0x0,0x0,0x0,0x0
	.DB  0x0,0x0,0x0,0x0,0x0,0x0,0x0,0x0
	.DB  0x0,0x0,0x0,0x0,0x0,0x0,0x0,0x0
	.DB  0x0,0x0,0x0,0x0,0x0,0x0,0x0,0x0
	.DB  0x0,0x0,0x0,0x0,0x0,0x0,0x0,0x0
	.DB  0x0,0x0,0x0,0x0,0x0,0x0,0x0,0x0
	.DB  0x0,0x0,0x0,0x0,0x0,0x0,0x0,0x0
	.DB  0x0,0x0,0x0,0x0,0x0,0x0,0x0,0x0
_bus:
	.DB  0x0,0x0,0x0,0x0,0x0,0x0,0x0,0x0
	.DB  0x0,0x0,0x0,0x0,0x0,0x0,0x0,0x0
	.DB  0x0,0x0,0x0,0x0,0x0,0x0,0x0,0x0
	.DB  0x0,0x0,0x0,0x0,0x0,0x0,0x0,0x0
	.DB  0x0,0x0,0x0,0x0,0x0,0x0,0x0,0x0
	.DB  0x0,0x0,0x0,0x0,0x0,0x0,0x0,0x0
	.DB  0x0,0x0,0x0,0x0,0x0,0x0,0x0,0x0
	.DB  0x0,0x0,0x0,0x0,0x0,0x0,0x0,0x0
	.DB  0x0,0x0,0x0,0x0,0x0,0x0,0x0,0x0
	.DB  0x0,0x0,0x0,0x0,0x0,0x0,0x0,0x0
	.DB  0x0,0x0,0x0,0x0,0x0,0x0,0x0,0x0
	.DB  0x0,0x0,0x0,0x0,0x0,0x0,0x0,0x0
	.DB  0x0,0x0,0x0,0x0,0x0,0x0,0x0,0x0
	.DB  0x0,0x0,0x0,0x0,0x0,0x0,0x0,0x0
	.DB  0x0,0x0,0x0,0x0,0x0,0x0,0x0,0x0
	.DB  0x0,0x0,0x0,0x0,0x0,0x0,0x0,0x0
	.DB  0x0,0x0,0x0,0x0,0x0,0xC0,0xE0,0xF0
	.DB  0xF0,0xF8,0xF8,0xF8,0xF8,0xF8,0xFC,0xFC
	.DB  0xFC,0xFC,0xFC,0xFC,0xFC,0xFC,0xFC,0xFC
	.DB  0xFC,0xFC,0xFC,0xFC,0xFC,0xFC,0xFC,0xFC
	.DB  0xFC,0xFC,0xF8,0xF8,0xF8,0xF8,0xF8,0xF0
	.DB  0xE0,0xE0,0xC0,0x0,0x0,0x0,0x0,0x0
	.DB  0x0,0x0,0x0,0x0,0x0,0x0,0x0,0x0
	.DB  0x0,0x0,0x0,0x0,0x0,0x0,0x0,0x0
	.DB  0x0,0x0,0x0,0x0,0x0,0x0,0x0,0x0
	.DB  0x0,0x0,0x0,0x0,0x0,0x0,0x0,0x0
	.DB  0x0,0x0,0x0,0x0,0x0,0x0,0x0,0x0
	.DB  0x0,0x0,0x0,0x0,0x0,0x0,0x0,0x0
	.DB  0x0,0x0,0x0,0x0,0x0,0x0,0x0,0x0
	.DB  0x0,0x0,0x0,0x0,0x0,0x0,0x0,0x0
	.DB  0x0,0x0,0x0,0x0,0x0,0x0,0x0,0x0
	.DB  0x0,0x0,0x0,0x0,0x0,0x0,0x0,0x0
	.DB  0x0,0x0,0x0,0x0,0xFE,0xFF,0xFF,0x3
	.DB  0x1,0x3,0x3,0x3,0x3,0x3,0x3,0x3
	.DB  0x3,0x3,0x3,0x3,0x3,0x3,0x3,0xFF
	.DB  0xFF,0x3,0x3,0x1,0x3,0x3,0x3,0x3
	.DB  0x3,0x3,0x3,0x3,0x3,0x3,0x3,0x3
	.DB  0x3,0x7,0xFF,0xFE,0x0,0x0,0x0,0x0
	.DB  0x0,0x0,0x0,0x0,0x0,0x0,0x0,0x0
	.DB  0x0,0x0,0x0,0x0,0x0,0x0,0x0,0x0
	.DB  0x0,0x0,0x0,0x0,0x0,0x0,0x0,0x0
	.DB  0x0,0x0,0x0,0x0,0x0,0x0,0x0,0x0
	.DB  0x0,0x0,0x0,0x0,0x0,0x0,0x0,0x0
	.DB  0x0,0x0,0x0,0x0,0x0,0x0,0x0,0x0
	.DB  0x0,0x0,0x0,0x0,0x0,0x0,0x0,0x0
	.DB  0x0,0x0,0x0,0x0,0x0,0x0,0x0,0x0
	.DB  0x0,0x0,0x0,0x0,0x0,0x0,0x0,0x0
	.DB  0x0,0x0,0x0,0x0,0x0,0x0,0x0,0x0
	.DB  0x0,0x0,0x0,0x0,0xFF,0xFF,0xFF,0xC0
	.DB  0xC0,0xC0,0xC0,0xC0,0xC0,0xC0,0xC0,0xC0
	.DB  0xC0,0xC0,0xC0,0xC0,0xC0,0xC0,0xE0,0xFF
	.DB  0xFF,0xE0,0xC0,0xC0,0xC0,0xE0,0xD0,0xC8
	.DB  0xC4,0xC4,0xC4,0xC4,0xC8,0xD0,0xE0,0xC0
	.DB  0xE0,0xF0,0xFF,0xFF,0x0,0x0,0x0,0x0
	.DB  0x0,0x0,0x0,0x0,0x0,0x0,0x0,0x0
	.DB  0x0,0x0,0x0,0x0,0x0,0x0,0x0,0x0
	.DB  0x0,0x0,0x0,0x0,0x0,0x0,0x0,0x0
	.DB  0x0,0x0,0x0,0x0,0x0,0x0,0x0,0x0
	.DB  0x0,0x0,0x0,0x0,0x0,0x0,0x0,0x0
	.DB  0x0,0x0,0x0,0x0,0x0,0x0,0x0,0x0
	.DB  0x0,0x0,0x0,0x0,0x0,0x0,0x0,0x0
	.DB  0x0,0x0,0x0,0x0,0x0,0x0,0x0,0x0
	.DB  0x0,0x0,0x0,0x0,0x0,0x0,0x0,0x0
	.DB  0x0,0x0,0x0,0x0,0x0,0x0,0x0,0x0
	.DB  0x0,0x0,0x0,0x0,0xFF,0xFF,0xFF,0xFF
	.DB  0xFF,0xFF,0xFF,0xFF,0xFF,0xFF,0xFF,0xFF
	.DB  0xFF,0xFF,0xFF,0xFF,0xFF,0xFF,0xFF,0xFF
	.DB  0xFF,0xFF,0xFF,0xFF,0xFF,0xFF,0xFF,0xFF
	.DB  0xFF,0xFF,0xFF,0xFF,0xFF,0xFF,0xFF,0xFF
	.DB  0xFF,0xFF,0xFF,0xFF,0x0,0x0,0x0,0x0
	.DB  0x0,0x0,0x0,0x0,0x0,0x0,0x0,0x0
	.DB  0x0,0x0,0x0,0x0,0x0,0x0,0x0,0x0
	.DB  0x0,0x0,0x0,0x0,0x0,0x0,0x0,0x0
	.DB  0x0,0x0,0x0,0x0,0x0,0x0,0x0,0x0
	.DB  0x0,0x0,0x0,0x0,0x0,0x0,0x0,0x0
	.DB  0x0,0x0,0x0,0x0,0x0,0x0,0x0,0x0
	.DB  0x0,0x0,0x0,0x0,0x0,0x0,0x0,0x0
	.DB  0x0,0x0,0x0,0x0,0x0,0x0,0x0,0x0
	.DB  0x0,0x0,0x0,0x0,0x0,0x0,0x0,0x0
	.DB  0x0,0x0,0x0,0x0,0x0,0x0,0x0,0x0
	.DB  0x0,0x0,0x0,0x0,0x3F,0xFF,0xFF,0xE1
	.DB  0xE1,0xE1,0xE1,0xFF,0xFF,0xFF,0xF9,0xD9
	.DB  0xD9,0xD9,0xD9,0xD9,0xD9,0xD9,0xD9,0xD9
	.DB  0xD9,0xD9,0xD9,0xD9,0xD9,0xD9,0xD9,0xD9
	.DB  0xC9,0xFB,0xFF,0xFF,0xFF,0xE1,0xE1,0xC1
	.DB  0xE1,0xF7,0xFF,0x3F,0x0,0x0,0x0,0x0
	.DB  0x0,0x0,0x0,0x0,0x0,0x0,0x0,0x0
	.DB  0x0,0x0,0x0,0x0,0x0,0x0,0x0,0x0
	.DB  0x0,0x0,0x0,0x0,0x0,0x0,0x0,0x0
	.DB  0x0,0x0,0x0,0x0,0x0,0x0,0x0,0x0
	.DB  0x0,0x0,0x0,0x0,0x0,0x0,0x0,0x0
	.DB  0x0,0x0,0x0,0x0,0x0,0x0,0x0,0x0
	.DB  0x0,0x0,0x0,0x0,0x0,0x0,0x0,0x0
	.DB  0x0,0x0,0x0,0x0,0x0,0x0,0x0,0x0
	.DB  0x0,0x0,0x0,0x0,0x0,0x0,0x0,0x0
	.DB  0x0,0x0,0x0,0x0,0x0,0x0,0x0,0x0
	.DB  0x0,0x0,0x0,0x0,0x0,0x0,0x1F,0x3F
	.DB  0x3F,0x3F,0x3F,0x3F,0x3F,0x0,0x0,0x0
	.DB  0x0,0x0,0x0,0x0,0x0,0x0,0x0,0x0
	.DB  0x0,0x0,0x0,0x0,0x0,0x0,0x0,0x0
	.DB  0x0,0x0,0x1F,0x3F,0x3F,0x3F,0x3F,0x3F
	.DB  0x3F,0x1F,0x0,0x0,0x0,0x0,0x0,0x0
	.DB  0x0,0x0,0x0,0x0,0x0,0x0,0x0,0x0
	.DB  0x0,0x0,0x0,0x0,0x0,0x0,0x0,0x0
	.DB  0x0,0x0,0x0,0x0,0x0,0x0,0x0,0x0
	.DB  0x0,0x0,0x0,0x0,0x0,0x0,0x0,0x0
	.DB  0x0,0x0,0x0,0x0,0x0,0x0,0x0,0x0
	.DB  0x0,0x0,0x0,0x0,0x0,0x0,0x0,0x0
	.DB  0x0,0x0,0x0,0x0,0x0,0x0,0x0,0x0
	.DB  0x0,0x0,0x0,0x0,0x0,0x0,0x0,0x0
	.DB  0x0,0x0,0x0,0x0,0x0,0x0,0x0,0x0
	.DB  0x0,0x0,0x0,0x0,0x0,0x0,0x0,0x0
	.DB  0x0,0x0,0x0,0x0,0x0,0x0,0x0,0x0
	.DB  0x0,0x0,0x0,0x0,0x0,0x0,0x0,0x0
	.DB  0x0,0x0,0x0,0x0,0x0,0x0,0x0,0x0
	.DB  0x0,0x0,0x0,0x0,0x0,0x0,0x0,0x0
	.DB  0x0,0x0,0x0,0x0,0x0,0x0,0x0,0x0
	.DB  0x0,0x0,0x0,0x0,0x0,0x0,0x0,0x0
	.DB  0x0,0x0,0x0,0x0,0x0,0x0,0x0,0x0
	.DB  0x0,0x0,0x0,0x0,0x0,0x0,0x0,0x0
	.DB  0x0,0x0,0x0,0x0,0x0,0x0,0x0,0x0
	.DB  0x0,0x0,0x0,0x0,0x0,0x0,0x0,0x0
	.DB  0x0,0x0,0x0,0x0,0x0,0x0,0x0,0x0
	.DB  0x0,0x0,0x0,0x0,0x0,0x0,0x0,0x0
	.DB  0x0,0x0,0x0,0x0,0x0,0x0,0x0,0x0
	.DB  0x0,0x0,0x0,0x0,0x0,0x0,0x0,0x0
	.DB  0x0,0x0,0x0,0x0,0x0,0x0,0x0,0x0
	.DB  0x0,0x0,0x0,0x0,0x0,0x0,0x0,0x0
_vacio:
	.DB  0x0,0x0,0x0,0x0,0x0,0x0,0x0,0x0
	.DB  0x0,0x0,0x0,0x0,0x0,0x0,0x0,0x0
	.DB  0x0,0x0,0x0,0x0,0x0,0x0,0x0,0x0
	.DB  0x0,0x0,0x0,0x0,0x0,0x0,0x0,0x0
	.DB  0x0,0x0,0x0,0x0,0x0,0x0,0x0,0x0
	.DB  0x0,0x0,0x0,0x0,0x0,0x0,0x0,0x0
	.DB  0x0,0x0,0x0,0x0,0x0,0x0,0x0,0x0
	.DB  0x0,0x0,0x0,0x0,0x0,0x0,0x0,0x0
	.DB  0x0,0x0,0x0,0x0,0x0,0x0,0x0,0x0
	.DB  0x0,0x0,0x0,0x0,0x0,0x0,0x0,0x0
	.DB  0x0,0x0,0x0,0x0,0x0,0x0,0x0,0x0
	.DB  0x0,0x0,0x0,0x0,0x0,0x0,0x0,0x0
	.DB  0x0,0x0,0x0,0x0,0x0,0x0,0x0,0x0
	.DB  0x0,0x0,0x0,0x0,0x0,0x0,0x0,0x0
	.DB  0x0,0x0,0x0,0x0,0x0,0x0,0x0,0x0
	.DB  0x0,0x0,0x0,0x0,0x0,0x0,0x0,0x0
	.DB  0x0,0x0,0x0,0x0,0x0,0x0,0x0,0x0
	.DB  0x0,0x0,0x0,0x0,0x0,0x0,0x0,0x0
	.DB  0x0,0x0,0x0,0x0,0x0,0x0,0x0,0x0
	.DB  0x0,0x0,0x0,0x0,0x0,0x0,0x0,0x0
	.DB  0x0,0x0,0x0,0x0,0x0,0x0,0x0,0x0
	.DB  0x0,0x0,0x0,0x0,0x0,0x0,0x0,0x0
	.DB  0x0,0x0,0x0,0x0,0x0,0x0,0x0,0x0
	.DB  0x0,0x0,0x0,0x0,0x0,0x0,0x0,0x0
	.DB  0x0,0x0,0x0,0x0,0x0,0x0,0x0,0x0
	.DB  0x0,0x0,0x0,0x0,0x0,0x0,0x0,0x0
	.DB  0x0,0x0,0x0,0x0,0x0,0x0,0x0,0x0
	.DB  0x0,0x0,0x0,0x0,0x0,0x0,0x0,0x0
	.DB  0x0,0x0,0x0,0x0,0x0,0x0,0x0,0x0
	.DB  0x0,0x0,0x0,0x0,0x0,0x0,0x0,0x0
	.DB  0x0,0x0,0x0,0x0,0x0,0x0,0x0,0x0
	.DB  0x0,0x0,0x0,0x0,0x0,0x0,0x0,0x0
	.DB  0x0,0x0,0x0,0x0,0x0,0x0,0x0,0x0
	.DB  0x0,0x0,0x0,0x0,0x0,0x0,0x0,0x0
	.DB  0x0,0x0,0x0,0x0,0x0,0x0,0x0,0x0
	.DB  0x0,0x0,0x0,0x0,0x0,0x0,0x0,0x0
	.DB  0x0,0x0,0x0,0x0,0x0,0x0,0x0,0x0
	.DB  0x0,0x0,0x0,0x0,0x0,0x0,0x0,0x0
	.DB  0x0,0x0,0x0,0x0,0x0,0x0,0x0,0x0
	.DB  0x0,0x0,0x0,0x0,0x0,0x0,0x0,0x0
	.DB  0x0,0x0,0x0,0x0,0x0,0x0,0x0,0x0
	.DB  0x0,0x0,0x0,0x0,0x0,0x0,0x0,0x0
	.DB  0x0,0x0,0x0,0x0,0x0,0x0,0x0,0x0
	.DB  0x0,0x0,0x0,0x0,0x0,0x0,0x0,0x0
	.DB  0x0,0x0,0x0,0x0,0x0,0x0,0x0,0x0
	.DB  0x0,0x0,0x0,0x0,0x0,0x0,0x0,0x0
	.DB  0x0,0x0,0x0,0x0,0x0,0x0,0x0,0x0
	.DB  0x0,0x0,0x0,0x0,0x0,0x0,0x0,0x0
	.DB  0x0,0x0,0x0,0x0,0x0,0x0,0x0,0x0
	.DB  0x0,0x0,0x0,0x0,0x0,0x0,0x0,0x0
	.DB  0x0,0x0,0x0,0x0,0x0,0x0,0x0,0x0
	.DB  0x0,0x0,0x0,0x0,0x0,0x0,0x0,0x0
	.DB  0x0,0x0,0x0,0x0,0x0,0x0,0x0,0x0
	.DB  0x0,0x0,0x0,0x0,0x0,0x0,0x0,0x0
	.DB  0x0,0x0,0x0,0x0,0x0,0x0,0x0,0x0
	.DB  0x0,0x0,0x0,0x0,0x0,0x0,0x0,0x0
	.DB  0x0,0x0,0x0,0x0,0x0,0x0,0x0,0x0
	.DB  0x0,0x0,0x0,0x0,0x0,0x0,0x0,0x0
	.DB  0x0,0x0,0x0,0x0,0x0,0x0,0x0,0x0
	.DB  0x0,0x0,0x0,0x0,0x0,0x0,0x0,0x0
	.DB  0x0,0x0,0x0,0x0,0x0,0x0,0x0,0x0
	.DB  0x0,0x0,0x0,0x0,0x0,0x0,0x0,0x0
	.DB  0x0,0x0,0x0,0x0,0x0,0x0,0x0,0x0
	.DB  0x0,0x0,0x0,0x0,0x0,0x0,0x0,0x0
	.DB  0x0,0x0,0x0,0x0,0x0,0x0,0x0,0x0
	.DB  0x0,0x0,0x0,0x0,0x0,0x0,0x0,0x0
	.DB  0x0,0x0,0x0,0x0,0x0,0x0,0x0,0x0
	.DB  0x0,0x0,0x0,0x0,0x0,0x0,0x0,0x0
	.DB  0x0,0x0,0x0,0x0,0x0,0x0,0x0,0x0
	.DB  0x0,0x0,0x0,0x0,0x0,0x0,0x0,0x0
	.DB  0x0,0x0,0x0,0x0,0x0,0x0,0x0,0x0
	.DB  0x0,0x0,0x0,0x0,0x0,0x0,0x0,0x0
	.DB  0x0,0x0,0x0,0x0,0x0,0x0,0x0,0x0
	.DB  0x0,0x0,0x0,0x0,0x0,0x0,0x0,0x0
	.DB  0x0,0x0,0x0,0x0,0x0,0x0,0x0,0x0
	.DB  0x0,0x0,0x0,0x0,0x0,0x0,0x0,0x0
	.DB  0x0,0x0,0x0,0x0,0x0,0x0,0x0,0x0
	.DB  0x0,0x0,0x0,0x0,0x0,0x0,0x0,0x0
	.DB  0x0,0x0,0x0,0x0,0x0,0x0,0x0,0x0
	.DB  0x0,0x0,0x0,0x0,0x0,0x0,0x0,0x0
	.DB  0x0,0x0,0x0,0x0,0x0,0x0,0x0,0x0
	.DB  0x0,0x0,0x0,0x0,0x0,0x0,0x0,0x0
	.DB  0x0,0x0,0x0,0x0,0x0,0x0,0x0,0x0
	.DB  0x0,0x0,0x0,0x0,0x0,0x0,0x0,0x0
	.DB  0x0,0x0,0x0,0x0,0x0,0x0,0x0,0x0
	.DB  0x0,0x0,0x0,0x0,0x0,0x0,0x0,0x0
	.DB  0x0,0x0,0x0,0x0,0x0,0x0,0x0,0x0
	.DB  0x0,0x0,0x0,0x0,0x0,0x0,0x0,0x0
	.DB  0x0,0x0,0x0,0x0,0x0,0x0,0x0,0x0
	.DB  0x0,0x0,0x0,0x0,0x0,0x0,0x0,0x0
	.DB  0x0,0x0,0x0,0x0,0x0,0x0,0x0,0x0
	.DB  0x0,0x0,0x0,0x0,0x0,0x0,0x0,0x0
	.DB  0x0,0x0,0x0,0x0,0x0,0x0,0x0,0x0
	.DB  0x0,0x0,0x0,0x0,0x0,0x0,0x0,0x0
	.DB  0x0,0x0,0x0,0x0,0x0,0x0,0x0,0x0
	.DB  0x0,0x0,0x0,0x0,0x0,0x0,0x0,0x0
	.DB  0x0,0x0,0x0,0x0,0x0,0xF8,0x84,0xC2
	.DB  0x2,0x2,0x2,0x2,0xFE,0x2,0x2,0x2
	.DB  0xC2,0xFE,0x2,0x2,0x2,0x2,0xC4,0xF8
	.DB  0x0,0x0,0x0,0x0,0x0,0x0,0x0,0x0
	.DB  0x0,0x0,0x0,0x0,0x0,0x0,0x0,0x0
	.DB  0x0,0x0,0x0,0x0,0x0,0x0,0x0,0x0
	.DB  0x0,0x0,0x0,0x0,0x0,0x0,0x0,0x0
	.DB  0x0,0x0,0x0,0x0,0x0,0x0,0x0,0x0
	.DB  0x0,0x0,0x0,0x0,0x0,0x0,0x0,0x0
	.DB  0x0,0x0,0x0,0x0,0x0,0x0,0x0,0x0
	.DB  0x0,0x0,0x0,0x0,0x0,0x0,0x0,0x0
	.DB  0x0,0x0,0x0,0x0,0x0,0x0,0x0,0x0
	.DB  0x0,0x0,0x0,0x0,0x0,0x0,0x0,0x0
	.DB  0x0,0x0,0x0,0x0,0x0,0x0,0x0,0x0
	.DB  0x0,0x0,0x0,0x0,0x0,0x0,0x0,0x0
	.DB  0x0,0x0,0x0,0x0,0x0,0x0,0x0,0x0
	.DB  0x0,0x0,0x0,0x1E,0x1F,0x7F,0xFF,0xFD
	.DB  0x7C,0x1C,0x1C,0x1C,0x1F,0x1C,0x1C,0x1C
	.DB  0x1F,0x1F,0x7C,0xFC,0xFC,0x7C,0x1F,0xF
	.DB  0x0,0x0,0x0,0x0,0x0,0x0,0x0,0x0
	.DB  0x0,0x0,0x0,0x0,0x0,0x0,0x0,0x0
	.DB  0x0,0x0,0x0,0x0,0x0,0x0,0x0,0x0
	.DB  0x0,0x0,0x0,0x0,0x0,0x0,0x0,0x0
	.DB  0x0,0x0,0x0,0x0,0x0,0x0,0x0,0x0
	.DB  0x0,0x0,0x0,0x0,0x0,0x0,0x0,0x0
	.DB  0x0,0x0,0x0,0x0,0x0,0x0,0x0,0x0
	.DB  0x0,0x0,0x0,0x0,0x0,0x0,0x0,0x0
	.DB  0x0,0x0,0x0,0x0,0x0,0x0,0x0,0x0
	.DB  0x0,0x0,0x0,0x0,0x0,0x0,0x0,0x0
	.DB  0x0,0x0,0x0,0x0,0x0,0x0,0x0,0x0
	.DB  0x0,0x0,0x0,0x0,0x0,0x0,0x0,0x0
	.DB  0x0,0x0,0x0,0x0,0x0,0x0,0x0,0x0
_frente:
	.DB  0x0,0x0,0x0,0x0,0x0,0x0,0x0,0x0
	.DB  0x0,0x0,0x0,0x0,0x0,0x0,0x0,0x0
	.DB  0x0,0x0,0x0,0x0,0x0,0x0,0x0,0x0
	.DB  0x0,0x0,0x0,0x0,0x0,0x0,0x0,0x0
	.DB  0x0,0x0,0x0,0x0,0x0,0x0,0x0,0x0
	.DB  0x0,0x0,0x0,0x0,0x0,0x0,0x0,0x0
	.DB  0x0,0x0,0x0,0x0,0x0,0x0,0x0,0x0
	.DB  0x0,0x0,0x0,0x0,0x0,0x0,0x0,0x0
	.DB  0x0,0x0,0x0,0x0,0x0,0x0,0x0,0x0
	.DB  0x0,0x0,0x0,0x0,0x0,0x0,0x0,0x0
	.DB  0x0,0x0,0x0,0x0,0x0,0x0,0x0,0x0
	.DB  0x0,0x0,0x0,0x0,0x0,0x0,0x0,0x0
	.DB  0x0,0x0,0x0,0x0,0x0,0x0,0x0,0x0
	.DB  0x0,0x0,0x0,0x0,0x0,0x0,0x0,0x0
	.DB  0x0,0x0,0x0,0x0,0x0,0x0,0x0,0x0
	.DB  0x0,0x0,0x0,0x0,0x0,0x0,0x0,0x0
	.DB  0x0,0x0,0x0,0x0,0x0,0x0,0x0,0x0
	.DB  0x0,0x0,0x0,0x0,0x0,0x0,0x0,0x0
	.DB  0x0,0x0,0x0,0x0,0x0,0x0,0x0,0x0
	.DB  0x0,0x0,0x0,0x0,0x0,0x0,0x0,0x0
	.DB  0x0,0x0,0x0,0x0,0x0,0x0,0x0,0x0
	.DB  0x0,0x0,0x0,0x0,0x0,0x0,0x0,0x0
	.DB  0x0,0x0,0x0,0x0,0x0,0x0,0x0,0x0
	.DB  0x0,0x0,0x0,0x0,0x0,0x0,0x0,0x0
	.DB  0x0,0x0,0x0,0x0,0x0,0x0,0x0,0x0
	.DB  0x0,0x0,0x0,0x0,0x0,0x0,0x0,0x0
	.DB  0x0,0x0,0x0,0x0,0x0,0x0,0x0,0x0
	.DB  0x0,0x0,0x0,0x0,0x0,0x0,0x0,0x0
	.DB  0x0,0x0,0x0,0x0,0x0,0x0,0x0,0x0
	.DB  0x0,0x0,0x0,0x0,0x0,0x0,0x0,0x0
	.DB  0x0,0x0,0x0,0x0,0x0,0x0,0x0,0x0
	.DB  0x0,0x0,0x0,0x0,0x0,0x0,0x0,0x0
	.DB  0x0,0x0,0x0,0x0,0x0,0x0,0x0,0x0
	.DB  0x0,0x0,0x0,0x0,0x0,0x0,0x0,0x0
	.DB  0x0,0x0,0x0,0x0,0x0,0x0,0x0,0x0
	.DB  0x0,0x0,0x0,0x0,0x0,0x0,0x0,0x0
	.DB  0x0,0x0,0x0,0x0,0x0,0x0,0x0,0x0
	.DB  0x0,0x0,0x0,0x0,0x0,0x0,0x0,0x0
	.DB  0x0,0x0,0x0,0x0,0x0,0x0,0x0,0x0
	.DB  0x0,0x0,0x0,0x0,0x0,0x0,0x0,0x0
	.DB  0x0,0x0,0x0,0x0,0x0,0x0,0x0,0x0
	.DB  0x0,0x0,0x0,0x0,0x0,0x0,0x0,0x0
	.DB  0x0,0x0,0x0,0x0,0x0,0x0,0x0,0x0
	.DB  0x0,0x0,0x0,0x0,0x0,0x0,0x0,0x0
	.DB  0x0,0x0,0x0,0x0,0x0,0x0,0x0,0x0
	.DB  0x0,0x0,0x0,0x0,0x0,0x0,0x0,0x0
	.DB  0x0,0x0,0x0,0x0,0x0,0x0,0x0,0x0
	.DB  0x0,0x0,0x0,0x0,0x0,0x0,0x0,0x0
	.DB  0x0,0x0,0x0,0x0,0x0,0x0,0x0,0x0
	.DB  0x0,0x0,0x0,0x0,0x0,0x0,0x0,0x0
	.DB  0x0,0x0,0x0,0x0,0x0,0x0,0x0,0x0
	.DB  0x0,0x0,0x0,0x0,0x0,0x0,0x0,0x0
	.DB  0x0,0x0,0x0,0x0,0x0,0x0,0x0,0x0
	.DB  0x0,0x0,0x0,0x0,0x0,0x0,0x0,0x0
	.DB  0x0,0x0,0x0,0x0,0x0,0x0,0x0,0x0
	.DB  0x0,0x0,0x0,0x0,0x0,0x0,0x0,0x0
	.DB  0x0,0x0,0x0,0x0,0x0,0x0,0x0,0x0
	.DB  0x0,0x0,0x0,0x0,0x0,0x0,0x0,0x0
	.DB  0x0,0x0,0x0,0x0,0x0,0x0,0x0,0x0
	.DB  0x0,0x0,0x0,0x0,0x0,0x0,0x0,0x0
	.DB  0x0,0x0,0x0,0x0,0x0,0x0,0x0,0x0
	.DB  0x0,0x0,0x0,0x0,0x0,0x0,0x0,0x0
	.DB  0x0,0x0,0x0,0x0,0x0,0x0,0x0,0x0
	.DB  0x0,0x0,0x0,0x0,0x0,0x0,0x0,0x0
	.DB  0x0,0x0,0x0,0x0,0x0,0x0,0x0,0x0
	.DB  0x0,0x0,0x0,0x0,0x0,0x0,0x0,0x0
	.DB  0x0,0x0,0x0,0x0,0x0,0x0,0x0,0x0
	.DB  0x0,0x0,0x0,0x0,0x0,0x0,0x0,0x0
	.DB  0x0,0x0,0x0,0x0,0x0,0x0,0x0,0x0
	.DB  0x0,0x0,0x0,0x0,0x0,0x0,0x0,0x0
	.DB  0x0,0x0,0x0,0x0,0x0,0x0,0x0,0x0
	.DB  0x0,0x0,0x0,0x0,0x0,0x0,0x0,0x0
	.DB  0x0,0x0,0x0,0x0,0x0,0x0,0x0,0x0
	.DB  0x0,0x0,0x0,0x0,0x0,0x0,0x0,0x0
	.DB  0x0,0x0,0x0,0x0,0x0,0x0,0x0,0x0
	.DB  0x0,0x0,0x0,0x0,0x0,0x0,0x0,0x0
	.DB  0x0,0x0,0x0,0x0,0x0,0x0,0x0,0x0
	.DB  0x0,0x0,0x0,0x0,0x0,0x0,0x0,0x0
	.DB  0x0,0x0,0x0,0x0,0x0,0x0,0x0,0x0
	.DB  0x0,0x0,0x0,0x0,0x0,0x0,0x0,0x0
	.DB  0x0,0x0,0x0,0x0,0x0,0x0,0x0,0x0
	.DB  0x0,0x0,0x0,0x0,0x0,0x0,0x0,0x0
	.DB  0x0,0x0,0x0,0x0,0x0,0x0,0x0,0x0
	.DB  0x0,0x0,0x0,0x0,0x0,0x0,0x0,0x0
	.DB  0x0,0x0,0x0,0x0,0x0,0x0,0x0,0x0
	.DB  0x0,0x0,0x0,0x0,0x0,0x0,0x0,0x0
	.DB  0x0,0x0,0x0,0x0,0x0,0x0,0x0,0x0
	.DB  0x0,0x0,0x0,0x0,0x0,0x0,0x0,0x0
	.DB  0x0,0x0,0x0,0x0,0x0,0x0,0x0,0x0
	.DB  0x0,0x0,0x0,0x0,0x0,0x0,0x0,0x0
	.DB  0x0,0x0,0x0,0x0,0x0,0x0,0x0,0x0
	.DB  0x0,0x0,0x0,0x0,0x0,0x0,0x0,0x0
	.DB  0x0,0x0,0x0,0x0,0x0,0x0,0x0,0x0
	.DB  0x0,0x0,0x0,0x0,0x0,0x0,0x0,0x0
	.DB  0x0,0x0,0x0,0x0,0x0,0x0,0x0,0x0
	.DB  0x0,0x0,0x0,0x0,0x0,0x0,0x0,0x0
	.DB  0x0,0x0,0x0,0x0,0x0,0x0,0x0,0x0
	.DB  0x0,0x0,0x0,0x0,0x0,0x0,0x0,0x0
	.DB  0x0,0x0,0x0,0x0,0x0,0x0,0x0,0x0
	.DB  0x0,0x0,0x0,0x0,0x0,0x0,0x0,0x0
	.DB  0x0,0x0,0x0,0x0,0x0,0x0,0x0,0x0
	.DB  0x0,0x0,0x0,0x0,0x0,0x0,0x0,0x0
	.DB  0x0,0x0,0x0,0x0,0x0,0x0,0x0,0x0
	.DB  0x0,0x0,0x0,0x0,0x0,0x0,0x0,0x0
	.DB  0x0,0x0,0x0,0x0,0x0,0x0,0x0,0x0
	.DB  0x0,0x0,0x0,0x0,0x0,0x0,0x0,0x0
	.DB  0x0,0x0,0x0,0x0,0x0,0x0,0x0,0x0
	.DB  0x0,0x0,0x0,0x0,0x0,0x0,0x0,0x0
	.DB  0x0,0x0,0x0,0x0,0x0,0x0,0x0,0x0
	.DB  0x0,0x0,0x0,0x0,0x0,0x38,0xFC,0x2
	.DB  0x2,0x2,0x2,0x2,0x6,0x6,0x6,0xBA
	.DB  0xFA,0xBA,0x2,0x2,0xFC,0x38,0x0,0x0
	.DB  0x0,0x0,0x0,0x0,0x0,0x0,0x0,0x0
	.DB  0x0,0x0,0x0,0x0,0x0,0x0,0x0,0x0
	.DB  0x0,0x0,0x0,0x0,0x0,0x0,0x0,0x0
	.DB  0x0,0x0,0x0,0x0,0x0,0x0,0x0,0x0
	.DB  0x0,0x0,0x0,0x0,0x0,0x0,0x0,0x0
	.DB  0x0,0x0,0x0,0x0,0x0,0x0,0x0,0x0
	.DB  0x0,0x0,0x0,0x0,0x0,0x0,0x0,0x0
	.DB  0x0,0x0,0x0,0x0,0x0,0x0,0x0,0x0
	.DB  0x0,0x0,0x0,0x0,0x0,0x0,0x0,0x0
	.DB  0x0,0x0,0x0,0x0,0x0,0x0,0x0,0x0
	.DB  0x0,0x0,0x0,0x0,0x0,0x0,0x0,0x0
	.DB  0x0,0x0,0x0,0x0,0x0,0x0,0x0,0x0
	.DB  0x0,0x0,0x0,0x0,0x0,0x0,0x0,0x0
	.DB  0x0,0x0,0x0,0x0,0x0,0x0,0x3F,0x3E
	.DB  0xFE,0xF2,0xF2,0x3E,0x3E,0x3E,0x3F,0x3F
	.DB  0xF3,0xF3,0xFF,0x3E,0x3F,0x0,0x0,0x0
_chofer:
	.DB  0x0,0x0,0x0,0x0,0x0,0x0,0x0,0x0
	.DB  0x0,0x0,0x0,0x0,0x0,0x0,0x0,0x0
	.DB  0x0,0x0,0x0,0x0,0x0,0x0,0x0,0x0
	.DB  0x0,0x0,0x0,0x0,0x0,0x0,0x0,0x0
	.DB  0x0,0x0,0x0,0x0,0x0,0x0,0x0,0x0
	.DB  0x0,0x0,0x0,0x0,0x0,0x0,0x0,0x0
	.DB  0x0,0x0,0x0,0x0,0x0,0x0,0x0,0x0
	.DB  0x0,0x0,0x0,0x0,0x0,0x0,0x0,0x0
	.DB  0x0,0x0,0x0,0x0,0x0,0x0,0x0,0x0
	.DB  0x0,0x0,0x0,0x0,0x0,0x0,0x0,0x0
	.DB  0x0,0x0,0x0,0x0,0x0,0x0,0x0,0x0
	.DB  0x0,0x0,0x0,0x0,0x0,0x0,0x0,0x0
	.DB  0x0,0x0,0x0,0x0,0x0,0x0,0x0,0x0
	.DB  0x0,0x0,0x0,0x0,0x0,0x0,0x0,0x0
	.DB  0x0,0x0,0x0,0x0,0x0,0x0,0x0,0x0
	.DB  0x0,0x0,0x0,0x0,0x0,0x0,0x0,0x0
	.DB  0x0,0x0,0x0,0x0,0x0,0x0,0x0,0x0
	.DB  0x0,0x0,0x0,0x0,0x0,0x0,0x0,0x0
	.DB  0x0,0x0,0x0,0x0,0x0,0x0,0x0,0x0
	.DB  0x0,0x0,0x0,0x0,0x0,0x0,0x0,0x0
	.DB  0x0,0x0,0x0,0x0,0x0,0x0,0x0,0x0
	.DB  0x0,0x0,0x0,0x0,0x0,0x0,0x0,0x0
	.DB  0x0,0x0,0x0,0x0,0x0,0x0,0x0,0x0
	.DB  0x0,0x0,0x0,0x0,0x0,0x0,0x0,0x0
	.DB  0x0,0x0,0x0,0x0,0x0,0x0,0x0,0x0
	.DB  0x0,0x0,0x0,0x0,0x0,0x0,0x0,0x0
	.DB  0x0,0x0,0x0,0x0,0x0,0x0,0x0,0x0
	.DB  0x0,0x0,0x0,0x0,0x0,0x0,0x0,0x0
	.DB  0x0,0x0,0x0,0x0,0x0,0x0,0x0,0x0
	.DB  0x0,0x0,0x0,0x0,0x0,0x0,0x0,0x0
	.DB  0x0,0x0,0x0,0x0,0x0,0x0,0x0,0x0
	.DB  0x0,0x0,0x0,0x0,0x0,0x0,0x0,0x0
	.DB  0x0,0x0,0x0,0x0,0x0,0x0,0x0,0x0
	.DB  0x0,0x0,0x0,0x0,0x0,0x0,0x0,0x0
	.DB  0x0,0x0,0x0,0x0,0x0,0x0,0x0,0x0
	.DB  0x0,0x0,0x0,0x0,0x0,0x0,0x0,0x0
	.DB  0x0,0x0,0x0,0x0,0x0,0x0,0x0,0x0
	.DB  0x0,0x0,0x0,0x0,0x0,0x0,0x0,0x0
	.DB  0x0,0x0,0x0,0x0,0x0,0x0,0x0,0x0
	.DB  0x0,0x0,0x0,0x0,0x0,0x0,0x0,0x0
	.DB  0x0,0x0,0x0,0x0,0x0,0x0,0x0,0x0
	.DB  0x0,0x0,0x0,0x0,0x0,0x0,0x0,0x0
	.DB  0x0,0x0,0x0,0x0,0x0,0x0,0x0,0x0
	.DB  0x0,0x0,0x0,0x0,0x0,0x0,0x0,0x0
	.DB  0x0,0x0,0x0,0x0,0x0,0x0,0x0,0x0
	.DB  0x0,0x0,0x0,0x0,0x0,0x0,0x0,0x0
	.DB  0x0,0x0,0x0,0x0,0x0,0x0,0x0,0x0
	.DB  0x0,0x0,0x0,0x0,0x0,0x0,0x0,0x0
	.DB  0x0,0x0,0x0,0x0,0x0,0x0,0x0,0x0
	.DB  0x0,0x0,0x0,0x0,0x0,0x0,0x0,0x0
	.DB  0x0,0x0,0x0,0x0,0x0,0x0,0x0,0x0
	.DB  0x0,0x0,0x0,0x0,0x0,0x0,0x0,0x0
	.DB  0x0,0x0,0x0,0x0,0x0,0x0,0x0,0x0
	.DB  0x0,0x0,0x0,0x0,0x0,0x0,0x0,0x0
	.DB  0x0,0x0,0x0,0x0,0x0,0x0,0x0,0x0
	.DB  0x0,0x0,0x0,0x0,0x0,0x0,0x0,0x0
	.DB  0x0,0x0,0x0,0x0,0x0,0x0,0x0,0x0
	.DB  0x0,0x0,0x0,0x0,0x0,0x0,0x0,0x0
	.DB  0x0,0x0,0x0,0x0,0x0,0x0,0x0,0x0
	.DB  0x0,0x0,0x0,0x0,0x0,0x0,0x0,0x0
	.DB  0x0,0x0,0x0,0x0,0x0,0x0,0x0,0x0
	.DB  0x0,0x0,0x0,0x0,0x0,0x0,0x0,0x0
	.DB  0x0,0x0,0x0,0x0,0x0,0x0,0x0,0x0
	.DB  0x0,0x0,0x0,0x0,0x0,0x0,0x0,0x0
	.DB  0x0,0x0,0x0,0x0,0x0,0x0,0x0,0x0
	.DB  0x0,0x0,0x0,0x0,0x0,0x0,0x0,0x0
	.DB  0x0,0x0,0x0,0x0,0x0,0x0,0x0,0x0
	.DB  0x0,0x0,0x0,0x0,0x0,0x0,0x0,0x0
	.DB  0x0,0x0,0x0,0x0,0x0,0x0,0x0,0x0
	.DB  0x0,0x0,0x0,0x0,0x0,0x0,0x0,0x0
	.DB  0x0,0x0,0x0,0x0,0x0,0x0,0x0,0x0
	.DB  0x0,0x0,0x0,0x0,0x0,0x0,0x0,0x0
	.DB  0x0,0x0,0x0,0x0,0x0,0x0,0x0,0x0
	.DB  0x0,0x0,0x0,0x0,0x0,0x0,0x0,0x0
	.DB  0x0,0x0,0x0,0x0,0x0,0x0,0x0,0x0
	.DB  0x0,0x0,0x0,0x0,0x0,0x0,0x0,0x0
	.DB  0x0,0x0,0x0,0x0,0x0,0x0,0x0,0x0
	.DB  0x0,0x0,0x0,0x0,0x0,0x0,0x0,0x0
	.DB  0x0,0x0,0x0,0x0,0x0,0x0,0x0,0x0
	.DB  0x0,0x0,0x0,0x0,0x0,0x0,0x0,0x0
	.DB  0x0,0x0,0x0,0x0,0x0,0x0,0x0,0x0
	.DB  0x0,0x0,0x0,0x0,0x0,0x0,0x0,0x0
	.DB  0x0,0x0,0x0,0x0,0x0,0x0,0x0,0x0
	.DB  0x0,0x0,0x0,0x0,0x0,0x0,0x0,0x0
	.DB  0x0,0x0,0x0,0x0,0x0,0x0,0x0,0x0
	.DB  0x0,0x0,0x0,0x0,0x0,0x0,0x0,0x0
	.DB  0x0,0x0,0x0,0x0,0x0,0x0,0x0,0x0
	.DB  0x0,0x0,0x0,0x0,0x0,0x0,0x0,0x0
	.DB  0x0,0x0,0x0,0x0,0x0,0x0,0x0,0x0
	.DB  0x0,0x0,0x0,0x0,0x0,0x0,0x0,0x0
	.DB  0x0,0x0,0x0,0x0,0x0,0x0,0x0,0x0
	.DB  0x0,0x0,0x0,0x0,0x0,0x0,0x0,0x0
	.DB  0x0,0x0,0x0,0x0,0x0,0x0,0x0,0x0
	.DB  0x0,0x0,0x0,0x0,0x0,0x0,0x0,0x0
	.DB  0x0,0x0,0x0,0x0,0x0,0x0,0x0,0x0
	.DB  0x0,0x0,0x0,0x0,0x0,0x0,0x0,0x0
	.DB  0x0,0x0,0x0,0x0,0x0,0xF8,0x84,0xC2
	.DB  0x82,0xDA,0xFA,0xE2,0xFE,0x2,0x2,0x2
	.DB  0xC2,0xFE,0x2,0x2,0x2,0x2,0xC4,0xF8
	.DB  0x0,0x0,0x0,0x0,0x0,0x0,0x0,0x0
	.DB  0x0,0x0,0x0,0x0,0x0,0x0,0x0,0x0
	.DB  0x0,0x0,0x0,0x0,0x0,0x0,0x0,0x0
	.DB  0x0,0x0,0x0,0x0,0x0,0x0,0x0,0x0
	.DB  0x0,0x0,0x0,0x0,0x0,0x0,0x0,0x0
	.DB  0x0,0x0,0x0,0x0,0x0,0x0,0x0,0x0
	.DB  0x0,0x0,0x0,0x0,0x0,0x0,0x0,0x0
	.DB  0x0,0x0,0x0,0x0,0x0,0x0,0x0,0x0
	.DB  0x0,0x0,0x0,0x0,0x0,0x0,0x0,0x0
	.DB  0x0,0x0,0x0,0x0,0x0,0x0,0x0,0x0
	.DB  0x0,0x0,0x0,0x0,0x0,0x0,0x0,0x0
	.DB  0x0,0x0,0x0,0x0,0x0,0x0,0x0,0x0
	.DB  0x0,0x0,0x0,0x0,0x0,0x0,0x0,0x0
	.DB  0x0,0x0,0x0,0x1E,0x1F,0x7F,0xFF,0xFD
	.DB  0x7C,0x1F,0x1F,0x1F,0x1F,0x1C,0x1C,0x1C
	.DB  0x1F,0x1F,0x7C,0xFC,0xFC,0x7C,0x1F,0xF
	.DB  0x0,0x0,0x0,0x0,0x0,0x0,0x0,0x0
	.DB  0x0,0x0,0x0,0x0,0x0,0x0,0x0,0x0
	.DB  0x0,0x0,0x0,0x0,0x0,0x0,0x0,0x0
	.DB  0x0,0x0,0x0,0x0,0x0,0x0,0x0,0x0
	.DB  0x0,0x0,0x0,0x0,0x0,0x0,0x0,0x0
	.DB  0x0,0x0,0x0,0x0,0x0,0x0,0x0,0x0
	.DB  0x0,0x0,0x0,0x0,0x0,0x0,0x0,0x0
	.DB  0x0,0x0,0x0,0x0,0x0,0x0,0x0,0x0
	.DB  0x0,0x0,0x0,0x0,0x0,0x0,0x0,0x0
	.DB  0x0,0x0,0x0,0x0,0x0,0x0,0x0,0x0
	.DB  0x0,0x0,0x0,0x0,0x0,0x0,0x0,0x0
	.DB  0x0,0x0,0x0,0x0,0x0,0x0,0x0,0x0
	.DB  0x0,0x0,0x0,0x0,0x0,0x0,0x0,0x0
_GPS1:
	.DB  0x0,0x0,0x0,0x0,0x0,0x0,0x0,0x0
	.DB  0x0,0x0,0x0,0x0,0x0,0x0,0x0,0x0
	.DB  0x0,0x0,0x0,0x0,0x0,0x0,0x0,0x0
	.DB  0x0,0x0,0x0,0x0,0x0,0x0,0x0,0x0
	.DB  0x0,0x0,0x0,0x0,0x0,0x0,0x0,0x0
	.DB  0x0,0x0,0x0,0x0,0x0,0x0,0x0,0x0
	.DB  0x0,0x0,0x0,0x0,0x0,0x0,0x0,0x0
	.DB  0x0,0x0,0x0,0x0,0x0,0x0,0x0,0x0
	.DB  0x0,0x0,0x0,0x0,0x0,0x0,0x0,0x0
	.DB  0x0,0x0,0x0,0x0,0x0,0x0,0x0,0x0
	.DB  0x0,0x0,0x0,0x0,0x0,0x0,0x0,0x0
	.DB  0x0,0x0,0x0,0x0,0x0,0x0,0x0,0x0
	.DB  0xE0,0x10,0x90,0x90,0x80,0x0,0xF0,0x90
	.DB  0x90,0x90,0x60,0x0,0x60,0x90,0x90,0x10
	.DB  0x0,0x0,0x0,0x0,0x20,0x70,0xF8,0x70
	.DB  0x20,0x0,0x80,0x78,0x0,0xFC,0x0,0x0
	.DB  0x0,0x0,0x0,0x0,0x0,0x0,0x0,0x0
	.DB  0x0,0x0,0x0,0x0,0x0,0x0,0x0,0x0
	.DB  0x0,0x0,0x0,0x0,0x0,0x0,0x0,0x0
	.DB  0x0,0x0,0x0,0x0,0x0,0x0,0x0,0x0
	.DB  0x0,0x0,0x0,0x0,0x0,0x0,0x0,0x0
	.DB  0x0,0x0,0x0,0x0,0x0,0x0,0x0,0x0
	.DB  0x0,0x0,0x0,0x0,0x0,0x0,0x0,0x0
	.DB  0x0,0x0,0x0,0x0,0x0,0x0,0x0,0x0
	.DB  0x0,0x0,0x0,0x0,0x0,0x0,0x0,0x0
	.DB  0x0,0x0,0x0,0x0,0x0,0x0,0x0,0x0
	.DB  0x0,0x0,0x0,0x0,0x0,0x0,0x0,0x0
	.DB  0x0,0x0,0x0,0x0,0x0,0x0,0x0,0x0
	.DB  0x3,0x4,0x4,0x4,0x3,0x0,0x7,0x0
	.DB  0x0,0x0,0x0,0x0,0x4,0x4,0x4,0x3
	.DB  0x0,0x0,0x0,0x10,0x14,0x14,0x14,0x14
	.DB  0x12,0x9,0x4,0xA,0x35,0x18,0x8,0x0
	.DB  0x0,0x0,0x0,0x0,0x0,0x0,0x0,0x0
	.DB  0x0,0x0,0x0,0x0,0x0,0x0,0x0,0x0
	.DB  0x0,0x0,0x0,0x0,0x0,0x0,0x0,0x0
	.DB  0x0,0x0,0x0,0x0,0x0,0x0,0x0,0x0
	.DB  0x0,0x0,0x0,0x0,0x0,0x0,0x0,0x0
	.DB  0x0,0x0,0x0,0x0,0x0,0x0,0x0,0x0
	.DB  0x0,0x0,0x0,0x0,0x0,0x0,0x0,0x0
	.DB  0x0,0x0,0x0,0x0,0x0,0x0,0x0,0x0
	.DB  0x0,0x0,0x0,0x0,0x0,0x0,0x0,0x0
	.DB  0x0,0x0,0x0,0x0,0x0,0x0,0x0,0x0
	.DB  0x0,0x0,0x0,0x0,0x0,0x0,0x0,0x0
	.DB  0x0,0x0,0x0,0x0,0x0,0x0,0x0,0x0
	.DB  0x0,0x0,0x0,0x0,0x0,0x0,0x0,0x0
	.DB  0x0,0x0,0x0,0x0,0x0,0x0,0x0,0x0
	.DB  0x0,0x0,0x0,0x0,0x0,0x0,0x0,0x0
	.DB  0x0,0x0,0x0,0x0,0x0,0x0,0x0,0x0
	.DB  0x0,0x0,0x0,0x0,0x0,0x0,0x0,0x0
	.DB  0x0,0x0,0x0,0x0,0x0,0x0,0x0,0x0
	.DB  0x0,0x0,0x0,0x0,0x0,0x0,0x0,0x0
	.DB  0x0,0x0,0x0,0x0,0x0,0x0,0x0,0x0
	.DB  0x0,0x0,0x0,0x0,0x0,0x0,0x0,0x0
	.DB  0x0,0x0,0x0,0x0,0x0,0x0,0x0,0x0
	.DB  0x0,0x0,0x0,0x0,0x0,0x0,0x0,0x0
	.DB  0x0,0x0,0x0,0x0,0x0,0x0,0x0,0x0
	.DB  0x0,0x0,0x0,0x0,0x0,0x0,0x0,0x0
	.DB  0x0,0x0,0x0,0x0,0x0,0x0,0x0,0x0
	.DB  0x0,0x0,0x0,0x0,0x0,0x0,0x0,0x0
	.DB  0x0,0x0,0x0,0x0,0x0,0x0,0x0,0x0
	.DB  0x0,0x0,0x0,0x0,0x0,0x0,0x0,0x0
	.DB  0x0,0x0,0x0,0x0,0x0,0x0,0x0,0x0
	.DB  0x0,0x0,0x0,0x0,0x0,0x0,0x0,0x0
	.DB  0x0,0x0,0x0,0x0,0x0,0x0,0x0,0x0
	.DB  0x0,0x0,0x0,0x0,0x0,0x0,0x0,0x0
	.DB  0x0,0x0,0x0,0x0,0x0,0x0,0x0,0x0
	.DB  0x0,0x0,0x0,0x0,0x0,0x0,0x0,0x0
	.DB  0x0,0x0,0x0,0x0,0x0,0x0,0x0,0x0
	.DB  0x0,0x0,0x0,0x0,0x0,0x0,0x0,0x0
	.DB  0x0,0x0,0x0,0x0,0x0,0x0,0x0,0x0
	.DB  0x0,0x0,0x0,0x0,0x0,0x0,0x0,0x0
	.DB  0x0,0x0,0x0,0x0,0x0,0x0,0x0,0x0
	.DB  0x0,0x0,0x0,0x0,0x0,0x0,0x0,0x0
	.DB  0x0,0x0,0x0,0x0,0x0,0x0,0x0,0x0
	.DB  0x0,0x0,0x0,0x0,0x0,0x0,0x0,0x0
	.DB  0x0,0x0,0x0,0x0,0x0,0x0,0x0,0x0
	.DB  0x0,0x0,0x0,0x0,0x0,0x0,0x0,0x0
	.DB  0x0,0x0,0x0,0x0,0x0,0x0,0x0,0x0
	.DB  0x0,0x0,0x0,0x0,0x0,0x0,0x0,0x0
	.DB  0x0,0x0,0x0,0x0,0x0,0x0,0x0,0x0
	.DB  0x0,0x0,0x0,0x0,0x0,0x0,0x0,0x0
	.DB  0x0,0x0,0x0,0x0,0x0,0x0,0x0,0x0
	.DB  0x0,0x0,0x0,0x0,0x0,0x0,0x0,0x0
	.DB  0x0,0x0,0x0,0x0,0x0,0x0,0x0,0x0
	.DB  0x0,0x0,0x0,0x0,0x0,0x0,0x0,0x0
	.DB  0x0,0x0,0x0,0x0,0x0,0x0,0x0,0x0
	.DB  0x0,0x0,0x0,0x0,0x0,0x0,0x0,0x0
	.DB  0x0,0x0,0x0,0x0,0x0,0x0,0x0,0x0
	.DB  0x0,0x0,0x0,0x0,0x0,0x0,0x0,0x0
	.DB  0x0,0x0,0x0,0x0,0x0,0x0,0x0,0x0
	.DB  0x0,0x0,0x0,0x0,0x0,0x0,0x0,0x0
	.DB  0x0,0x0,0x0,0x0,0x0,0x0,0x0,0x0
	.DB  0x0,0x0,0x0,0x0,0x0,0x0,0x0,0x0
	.DB  0x0,0x0,0x0,0x0,0x0,0x0,0x0,0x0
	.DB  0x0,0x0,0x0,0x0,0x0,0x0,0x0,0x0
	.DB  0x0,0x0,0x0,0x0,0x0,0x0,0x0,0x0
	.DB  0x0,0x0,0x0,0x0,0x0,0x0,0x0,0x0
	.DB  0x0,0x0,0x0,0x0,0x0,0x0,0x0,0x0
	.DB  0x0,0x0,0x0,0x0,0x0,0x0,0x0,0x0
	.DB  0x0,0x0,0x0,0x0,0x0,0x0,0x0,0x0
	.DB  0x0,0x0,0x0,0x0,0x0,0x0,0x0,0x0
	.DB  0x0,0x0,0x0,0x0,0x0,0x0,0x0,0x0
	.DB  0x0,0x0,0x0,0x0,0x0,0x0,0x0,0x0
	.DB  0x0,0x0,0x0,0x0,0x0,0x0,0x0,0x0
	.DB  0x0,0x0,0x0,0x0,0x0,0x0,0x0,0x0
	.DB  0x0,0x0,0x0,0x0,0x0,0x0,0x0,0x0
	.DB  0x0,0x0,0x0,0x0,0x0,0x0,0x0,0x0
	.DB  0x0,0x0,0x0,0x0,0x0,0x0,0x0,0x0
	.DB  0x0,0x0,0x0,0x0,0x0,0x0,0x0,0x0
	.DB  0x0,0x0,0x0,0x0,0x0,0x0,0x0,0x0
	.DB  0x0,0x0,0x0,0x0,0x0,0x0,0x0,0x0
	.DB  0x0,0x0,0x0,0x0,0x0,0x0,0x0,0x0
	.DB  0x0,0x0,0x0,0x0,0x0,0x0,0x0,0x0
	.DB  0x0,0x0,0x0,0x0,0x0,0x0,0x0,0x0
	.DB  0x0,0x0,0x0,0x0,0x0,0x0,0x0,0x0
	.DB  0x0,0x0,0x0,0x0,0x0,0x0,0x0,0x0
	.DB  0x0,0x0,0x0,0x0,0x0,0x0,0x0,0x0
	.DB  0x0,0x0,0x0,0x0,0x0,0x0,0x0,0x0
	.DB  0x0,0x0,0x0,0x0,0x0,0x0,0x0,0x0
	.DB  0x0,0x0,0x0,0x0,0x0,0x0,0x0,0x0
	.DB  0x0,0x0,0x0,0x0,0x0,0x0,0x0,0x0
	.DB  0x0,0x0,0x0,0x0,0x0,0x0,0x0,0x0
	.DB  0x0,0x0,0x0,0x0,0x0,0x0,0x0,0x0
	.DB  0x0,0x0,0x0,0x0,0x0,0x0,0x0,0x0
	.DB  0x0,0x0,0x0,0x0,0x0,0x0,0x0,0x0
	.DB  0x0,0x0,0x0,0x0,0x0,0x0,0x0,0x0
	.DB  0x0,0x0,0x0,0x0,0x0,0x0,0x0,0x0
	.DB  0x0,0x0,0x0,0x0,0x0,0x0,0x0,0x0
_GPS2:
	.DB  0x0,0x0,0x0,0x0,0x0,0x0,0x0,0x0
	.DB  0x0,0x0,0x0,0x0,0x0,0x0,0x0,0x0
	.DB  0x0,0x0,0x0,0x0,0x0,0x0,0x0,0x0
	.DB  0x0,0x0,0x0,0x0,0x0,0x0,0x0,0x0
	.DB  0x0,0x0,0x0,0x0,0x0,0x0,0x0,0x0
	.DB  0x0,0x0,0x0,0x0,0x0,0x0,0x0,0x0
	.DB  0x0,0x0,0x0,0x0,0x0,0x0,0x0,0x0
	.DB  0x0,0x0,0x0,0x0,0x0,0x0,0x0,0x0
	.DB  0x0,0x0,0x0,0x0,0x0,0x0,0x0,0x0
	.DB  0x0,0x0,0x0,0x0,0x0,0x0,0x0,0x0
	.DB  0x0,0x0,0x0,0x0,0x0,0x0,0x0,0x0
	.DB  0x0,0x0,0x0,0x0,0x0,0x0,0x0,0x0
	.DB  0xE0,0x10,0x90,0x90,0x80,0x0,0xF0,0x90
	.DB  0x90,0x90,0x60,0x0,0x60,0x90,0x90,0x10
	.DB  0x0,0x0,0x0,0x0,0x0,0x0,0x0,0x0
	.DB  0x0,0x0,0x80,0x78,0x0,0xFC,0x0,0x0
	.DB  0x0,0x0,0x0,0x0,0x0,0x0,0x0,0x0
	.DB  0x0,0x0,0x0,0x0,0x0,0x0,0x0,0x0
	.DB  0x0,0x0,0x0,0x0,0x0,0x0,0x0,0x0
	.DB  0x0,0x0,0x0,0x0,0x0,0x0,0x0,0x0
	.DB  0x0,0x0,0x0,0x0,0x0,0x0,0x0,0x0
	.DB  0x0,0x0,0x0,0x0,0x0,0x0,0x0,0x0
	.DB  0x0,0x0,0x0,0x0,0x0,0x0,0x0,0x0
	.DB  0x0,0x0,0x0,0x0,0x0,0x0,0x0,0x0
	.DB  0x0,0x0,0x0,0x0,0x0,0x0,0x0,0x0
	.DB  0x0,0x0,0x0,0x0,0x0,0x0,0x0,0x0
	.DB  0x0,0x0,0x0,0x0,0x0,0x0,0x0,0x0
	.DB  0x0,0x0,0x0,0x0,0x0,0x0,0x0,0x0
	.DB  0x3,0x4,0x4,0x4,0x3,0x0,0x7,0x0
	.DB  0x0,0x0,0x0,0x0,0x4,0x4,0x4,0x3
	.DB  0x0,0x0,0x0,0x10,0x14,0x14,0x14,0x14
	.DB  0x12,0x9,0x4,0xA,0x35,0x18,0x8,0x0
	.DB  0x0,0x0,0x0,0x0,0x0,0x0,0x0,0x0
	.DB  0x0,0x0,0x0,0x0,0x0,0x0,0x0,0x0
	.DB  0x0,0x0,0x0,0x0,0x0,0x0,0x0,0x0
	.DB  0x0,0x0,0x0,0x0,0x0,0x0,0x0,0x0
	.DB  0x0,0x0,0x0,0x0,0x0,0x0,0x0,0x0
	.DB  0x0,0x0,0x0,0x0,0x0,0x0,0x0,0x0
	.DB  0x0,0x0,0x0,0x0,0x0,0x0,0x0,0x0
	.DB  0x0,0x0,0x0,0x0,0x0,0x0,0x0,0x0
	.DB  0x0,0x0,0x0,0x0,0x0,0x0,0x0,0x0
	.DB  0x0,0x0,0x0,0x0,0x0,0x0,0x0,0x0
	.DB  0x0,0x0,0x0,0x0,0x0,0x0,0x0,0x0
	.DB  0x0,0x0,0x0,0x0,0x0,0x0,0x0,0x0
	.DB  0x0,0x0,0x0,0x0,0x0,0x0,0x0,0x0
	.DB  0x0,0x0,0x0,0x0,0x0,0x0,0x0,0x0
	.DB  0x0,0x0,0x0,0x0,0x0,0x0,0x0,0x0
	.DB  0x0,0x0,0x0,0x0,0x0,0x0,0x0,0x0
	.DB  0x0,0x0,0x0,0x0,0x0,0x0,0x0,0x0
	.DB  0x0,0x0,0x0,0x0,0x0,0x0,0x0,0x0
	.DB  0x0,0x0,0x0,0x0,0x0,0x0,0x0,0x0
	.DB  0x0,0x0,0x0,0x0,0x0,0x0,0x0,0x0
	.DB  0x0,0x0,0x0,0x0,0x0,0x0,0x0,0x0
	.DB  0x0,0x0,0x0,0x0,0x0,0x0,0x0,0x0
	.DB  0x0,0x0,0x0,0x0,0x0,0x0,0x0,0x0
	.DB  0x0,0x0,0x0,0x0,0x0,0x0,0x0,0x0
	.DB  0x0,0x0,0x0,0x0,0x0,0x0,0x0,0x0
	.DB  0x0,0x0,0x0,0x0,0x0,0x0,0x0,0x0
	.DB  0x0,0x0,0x0,0x0,0x0,0x0,0x0,0x0
	.DB  0x0,0x0,0x0,0x0,0x0,0x0,0x0,0x0
	.DB  0x0,0x0,0x0,0x0,0x0,0x0,0x0,0x0
	.DB  0x0,0x0,0x0,0x0,0x0,0x0,0x0,0x0
	.DB  0x0,0x0,0x0,0x0,0x0,0x0,0x0,0x0
	.DB  0x0,0x0,0x0,0x0,0x0,0x0,0x0,0x0
	.DB  0x0,0x0,0x0,0x0,0x0,0x0,0x0,0x0
	.DB  0x0,0x0,0x0,0x0,0x0,0x0,0x0,0x0
	.DB  0x0,0x0,0x0,0x0,0x0,0x0,0x0,0x0
	.DB  0x0,0x0,0x0,0x0,0x0,0x0,0x0,0x0
	.DB  0x0,0x0,0x0,0x0,0x0,0x0,0x0,0x0
	.DB  0x0,0x0,0x0,0x0,0x0,0x0,0x0,0x0
	.DB  0x0,0x0,0x0,0x0,0x0,0x0,0x0,0x0
	.DB  0x0,0x0,0x0,0x0,0x0,0x0,0x0,0x0
	.DB  0x0,0x0,0x0,0x0,0x0,0x0,0x0,0x0
	.DB  0x0,0x0,0x0,0x0,0x0,0x0,0x0,0x0
	.DB  0x0,0x0,0x0,0x0,0x0,0x0,0x0,0x0
	.DB  0x0,0x0,0x0,0x0,0x0,0x0,0x0,0x0
	.DB  0x0,0x0,0x0,0x0,0x0,0x0,0x0,0x0
	.DB  0x0,0x0,0x0,0x0,0x0,0x0,0x0,0x0
	.DB  0x0,0x0,0x0,0x0,0x0,0x0,0x0,0x0
	.DB  0x0,0x0,0x0,0x0,0x0,0x0,0x0,0x0
	.DB  0x0,0x0,0x0,0x0,0x0,0x0,0x0,0x0
	.DB  0x0,0x0,0x0,0x0,0x0,0x0,0x0,0x0
	.DB  0x0,0x0,0x0,0x0,0x0,0x0,0x0,0x0
	.DB  0x0,0x0,0x0,0x0,0x0,0x0,0x0,0x0
	.DB  0x0,0x0,0x0,0x0,0x0,0x0,0x0,0x0
	.DB  0x0,0x0,0x0,0x0,0x0,0x0,0x0,0x0
	.DB  0x0,0x0,0x0,0x0,0x0,0x0,0x0,0x0
	.DB  0x0,0x0,0x0,0x0,0x0,0x0,0x0,0x0
	.DB  0x0,0x0,0x0,0x0,0x0,0x0,0x0,0x0
	.DB  0x0,0x0,0x0,0x0,0x0,0x0,0x0,0x0
	.DB  0x0,0x0,0x0,0x0,0x0,0x0,0x0,0x0
	.DB  0x0,0x0,0x0,0x0,0x0,0x0,0x0,0x0
	.DB  0x0,0x0,0x0,0x0,0x0,0x0,0x0,0x0
	.DB  0x0,0x0,0x0,0x0,0x0,0x0,0x0,0x0
	.DB  0x0,0x0,0x0,0x0,0x0,0x0,0x0,0x0
	.DB  0x0,0x0,0x0,0x0,0x0,0x0,0x0,0x0
	.DB  0x0,0x0,0x0,0x0,0x0,0x0,0x0,0x0
	.DB  0x0,0x0,0x0,0x0,0x0,0x0,0x0,0x0
	.DB  0x0,0x0,0x0,0x0,0x0,0x0,0x0,0x0
	.DB  0x0,0x0,0x0,0x0,0x0,0x0,0x0,0x0
	.DB  0x0,0x0,0x0,0x0,0x0,0x0,0x0,0x0
	.DB  0x0,0x0,0x0,0x0,0x0,0x0,0x0,0x0
	.DB  0x0,0x0,0x0,0x0,0x0,0x0,0x0,0x0
	.DB  0x0,0x0,0x0,0x0,0x0,0x0,0x0,0x0
	.DB  0x0,0x0,0x0,0x0,0x0,0x0,0x0,0x0
	.DB  0x0,0x0,0x0,0x0,0x0,0x0,0x0,0x0
	.DB  0x0,0x0,0x0,0x0,0x0,0x0,0x0,0x0
	.DB  0x0,0x0,0x0,0x0,0x0,0x0,0x0,0x0
	.DB  0x0,0x0,0x0,0x0,0x0,0x0,0x0,0x0
	.DB  0x0,0x0,0x0,0x0,0x0,0x0,0x0,0x0
	.DB  0x0,0x0,0x0,0x0,0x0,0x0,0x0,0x0
	.DB  0x0,0x0,0x0,0x0,0x0,0x0,0x0,0x0
	.DB  0x0,0x0,0x0,0x0,0x0,0x0,0x0,0x0
	.DB  0x0,0x0,0x0,0x0,0x0,0x0,0x0,0x0
	.DB  0x0,0x0,0x0,0x0,0x0,0x0,0x0,0x0
	.DB  0x0,0x0,0x0,0x0,0x0,0x0,0x0,0x0
	.DB  0x0,0x0,0x0,0x0,0x0,0x0,0x0,0x0
	.DB  0x0,0x0,0x0,0x0,0x0,0x0,0x0,0x0
	.DB  0x0,0x0,0x0,0x0,0x0,0x0,0x0,0x0
	.DB  0x0,0x0,0x0,0x0,0x0,0x0,0x0,0x0
	.DB  0x0,0x0,0x0,0x0,0x0,0x0,0x0,0x0
	.DB  0x0,0x0,0x0,0x0,0x0,0x0,0x0,0x0
	.DB  0x0,0x0,0x0,0x0,0x0,0x0,0x0,0x0
	.DB  0x0,0x0,0x0,0x0,0x0,0x0,0x0,0x0
	.DB  0x0,0x0,0x0,0x0,0x0,0x0,0x0,0x0
	.DB  0x0,0x0,0x0,0x0,0x0,0x0,0x0,0x0
	.DB  0x0,0x0,0x0,0x0,0x0,0x0,0x0,0x0
	.DB  0x0,0x0,0x0,0x0,0x0,0x0,0x0,0x0
_GSM1:
	.DB  0x0,0x0,0x0,0x0,0x0,0x0,0x0,0x80
	.DB  0x80,0x0,0xE0,0xE0,0x0,0xF8,0xF8,0x0
	.DB  0xFE,0xFE,0x0,0x0,0x0,0x0,0x0,0x0
	.DB  0x0,0x0,0x0,0x0,0x0,0x0,0x0,0x0
	.DB  0x0,0x0,0x0,0x0,0x0,0x0,0x0,0x0
	.DB  0x0,0x0,0x0,0x0,0x0,0x0,0x0,0x0
	.DB  0x0,0x0,0x0,0x0,0x0,0x0,0x0,0x0
	.DB  0x0,0x0,0x0,0x0,0x0,0x0,0x0,0x0
	.DB  0x0,0x0,0x0,0x0,0x0,0x0,0x0,0x0
	.DB  0x0,0x0,0x0,0x0,0x0,0x0,0x0,0x0
	.DB  0x0,0x0,0x0,0x0,0x0,0x0,0x0,0x0
	.DB  0x0,0x0,0x0,0x0,0x0,0x0,0x0,0x0
	.DB  0x0,0x0,0x0,0x0,0x0,0x0,0x0,0x0
	.DB  0x0,0x0,0x0,0x0,0x0,0x0,0x0,0x0
	.DB  0x0,0x0,0x0,0x0,0x0,0x0,0x0,0x0
	.DB  0x0,0x0,0x0,0x0,0x0,0x0,0x0,0x0
	.DB  0x0,0x6,0x6,0x0,0x7,0x7,0x0,0x7
	.DB  0x7,0x0,0x7,0x7,0x0,0x7,0x7,0x0
	.DB  0x7,0x7,0x0,0x0,0x0,0x0,0x0,0x0
	.DB  0x0,0x0,0x0,0x0,0x0,0x0,0x0,0x0
	.DB  0x0,0x0,0x0,0x0,0x0,0x0,0x0,0x0
	.DB  0x0,0x0,0x0,0x0,0x0,0x0,0x0,0x0
	.DB  0x0,0x0,0x0,0x0,0x0,0x0,0x0,0x0
	.DB  0x0,0x0,0x0,0x0,0x0,0x0,0x0,0x0
	.DB  0x0,0x0,0x0,0x0,0x0,0x0,0x0,0x0
	.DB  0x0,0x0,0x0,0x0,0x0,0x0,0x0,0x0
	.DB  0x0,0x0,0x0,0x0,0x0,0x0,0x0,0x0
	.DB  0x0,0x0,0x0,0x0,0x0,0x0,0x0,0x0
	.DB  0x0,0x0,0x0,0x0,0x0,0x0,0x0,0x0
	.DB  0x0,0x0,0x0,0x0,0x0,0x0,0x0,0x0
	.DB  0x0,0x0,0x0,0x0,0x0,0x0,0x0,0x0
	.DB  0x0,0x0,0x0,0x0,0x0,0x0,0x0,0x0
	.DB  0x0,0x0,0x0,0x0,0x0,0x0,0x0,0x0
	.DB  0x0,0x0,0x0,0x0,0x0,0x0,0x0,0x0
	.DB  0x0,0x0,0x0,0x0,0x0,0x0,0x0,0x0
	.DB  0x0,0x0,0x0,0x0,0x0,0x0,0x0,0x0
	.DB  0x0,0x0,0x0,0x0,0x0,0x0,0x0,0x0
	.DB  0x0,0x0,0x0,0x0,0x0,0x0,0x0,0x0
	.DB  0x0,0x0,0x0,0x0,0x0,0x0,0x0,0x0
	.DB  0x0,0x0,0x0,0x0,0x0,0x0,0x0,0x0
	.DB  0x0,0x0,0x0,0x0,0x0,0x0,0x0,0x0
	.DB  0x0,0x0,0x0,0x0,0x0,0x0,0x0,0x0
	.DB  0x0,0x0,0x0,0x0,0x0,0x0,0x0,0x0
	.DB  0x0,0x0,0x0,0x0,0x0,0x0,0x0,0x0
	.DB  0x0,0x0,0x0,0x0,0x0,0x0,0x0,0x0
	.DB  0x0,0x0,0x0,0x0,0x0,0x0,0x0,0x0
	.DB  0x0,0x0,0x0,0x0,0x0,0x0,0x0,0x0
	.DB  0x0,0x0,0x0,0x0,0x0,0x0,0x0,0x0
	.DB  0x0,0x0,0x0,0x0,0x0,0x0,0x0,0x0
	.DB  0x0,0x0,0x0,0x0,0x0,0x0,0x0,0x0
	.DB  0x0,0x0,0x0,0x0,0x0,0x0,0x0,0x0
	.DB  0x0,0x0,0x0,0x0,0x0,0x0,0x0,0x0
	.DB  0x0,0x0,0x0,0x0,0x0,0x0,0x0,0x0
	.DB  0x0,0x0,0x0,0x0,0x0,0x0,0x0,0x0
	.DB  0x0,0x0,0x0,0x0,0x0,0x0,0x0,0x0
	.DB  0x0,0x0,0x0,0x0,0x0,0x0,0x0,0x0
	.DB  0x0,0x0,0x0,0x0,0x0,0x0,0x0,0x0
	.DB  0x0,0x0,0x0,0x0,0x0,0x0,0x0,0x0
	.DB  0x0,0x0,0x0,0x0,0x0,0x0,0x0,0x0
	.DB  0x0,0x0,0x0,0x0,0x0,0x0,0x0,0x0
	.DB  0x0,0x0,0x0,0x0,0x0,0x0,0x0,0x0
	.DB  0x0,0x0,0x0,0x0,0x0,0x0,0x0,0x0
	.DB  0x0,0x0,0x0,0x0,0x0,0x0,0x0,0x0
	.DB  0x0,0x0,0x0,0x0,0x0,0x0,0x0,0x0
	.DB  0x0,0x0,0x0,0x0,0x0,0x0,0x0,0x0
	.DB  0x0,0x0,0x0,0x0,0x0,0x0,0x0,0x0
	.DB  0x0,0x0,0x0,0x0,0x0,0x0,0x0,0x0
	.DB  0x0,0x0,0x0,0x0,0x0,0x0,0x0,0x0
	.DB  0x0,0x0,0x0,0x0,0x0,0x0,0x0,0x0
	.DB  0x0,0x0,0x0,0x0,0x0,0x0,0x0,0x0
	.DB  0x0,0x0,0x0,0x0,0x0,0x0,0x0,0x0
	.DB  0x0,0x0,0x0,0x0,0x0,0x0,0x0,0x0
	.DB  0x0,0x0,0x0,0x0,0x0,0x0,0x0,0x0
	.DB  0x0,0x0,0x0,0x0,0x0,0x0,0x0,0x0
	.DB  0x0,0x0,0x0,0x0,0x0,0x0,0x0,0x0
	.DB  0x0,0x0,0x0,0x0,0x0,0x0,0x0,0x0
	.DB  0x0,0x0,0x0,0x0,0x0,0x0,0x0,0x0
	.DB  0x0,0x0,0x0,0x0,0x0,0x0,0x0,0x0
	.DB  0x0,0x0,0x0,0x0,0x0,0x0,0x0,0x0
	.DB  0x0,0x0,0x0,0x0,0x0,0x0,0x0,0x0
	.DB  0x0,0x0,0x0,0x0,0x0,0x0,0x0,0x0
	.DB  0x0,0x0,0x0,0x0,0x0,0x0,0x0,0x0
	.DB  0x0,0x0,0x0,0x0,0x0,0x0,0x0,0x0
	.DB  0x0,0x0,0x0,0x0,0x0,0x0,0x0,0x0
	.DB  0x0,0x0,0x0,0x0,0x0,0x0,0x0,0x0
	.DB  0x0,0x0,0x0,0x0,0x0,0x0,0x0,0x0
	.DB  0x0,0x0,0x0,0x0,0x0,0x0,0x0,0x0
	.DB  0x0,0x0,0x0,0x0,0x0,0x0,0x0,0x0
	.DB  0x0,0x0,0x0,0x0,0x0,0x0,0x0,0x0
	.DB  0x0,0x0,0x0,0x0,0x0,0x0,0x0,0x0
	.DB  0x0,0x0,0x0,0x0,0x0,0x0,0x0,0x0
	.DB  0x0,0x0,0x0,0x0,0x0,0x0,0x0,0x0
	.DB  0x0,0x0,0x0,0x0,0x0,0x0,0x0,0x0
	.DB  0x0,0x0,0x0,0x0,0x0,0x0,0x0,0x0
	.DB  0x0,0x0,0x0,0x0,0x0,0x0,0x0,0x0
	.DB  0x0,0x0,0x0,0x0,0x0,0x0,0x0,0x0
	.DB  0x0,0x0,0x0,0x0,0x0,0x0,0x0,0x0
	.DB  0x0,0x0,0x0,0x0,0x0,0x0,0x0,0x0
	.DB  0x0,0x0,0x0,0x0,0x0,0x0,0x0,0x0
	.DB  0x0,0x0,0x0,0x0,0x0,0x0,0x0,0x0
	.DB  0x0,0x0,0x0,0x0,0x0,0x0,0x0,0x0
	.DB  0x0,0x0,0x0,0x0,0x0,0x0,0x0,0x0
	.DB  0x0,0x0,0x0,0x0,0x0,0x0,0x0,0x0
	.DB  0x0,0x0,0x0,0x0,0x0,0x0,0x0,0x0
	.DB  0x0,0x0,0x0,0x0,0x0,0x0,0x0,0x0
	.DB  0x0,0x0,0x0,0x0,0x0,0x0,0x0,0x0
	.DB  0x0,0x0,0x0,0x0,0x0,0x0,0x0,0x0
	.DB  0x0,0x0,0x0,0x0,0x0,0x0,0x0,0x0
	.DB  0x0,0x0,0x0,0x0,0x0,0x0,0x0,0x0
	.DB  0x0,0x0,0x0,0x0,0x0,0x0,0x0,0x0
	.DB  0x0,0x0,0x0,0x0,0x0,0x0,0x0,0x0
	.DB  0x0,0x0,0x0,0x0,0x0,0x0,0x0,0x0
	.DB  0x0,0x0,0x0,0x0,0x0,0x0,0x0,0x0
	.DB  0x0,0x0,0x0,0x0,0x0,0x0,0x0,0x0
	.DB  0x0,0x0,0x0,0x0,0x0,0x0,0x0,0x0
	.DB  0x0,0x0,0x0,0x0,0x0,0x0,0x0,0x0
	.DB  0x0,0x0,0x0,0x0,0x0,0x0,0x0,0x0
	.DB  0x0,0x0,0x0,0x0,0x0,0x0,0x0,0x0
	.DB  0x0,0x0,0x0,0x0,0x0,0x0,0x0,0x0
	.DB  0x0,0x0,0x0,0x0,0x0,0x0,0x0,0x0
	.DB  0x0,0x0,0x0,0x0,0x0,0x0,0x0,0x0
	.DB  0x0,0x0,0x0,0x0,0x0,0x0,0x0,0x0
	.DB  0x0,0x0,0x0,0x0,0x0,0x0,0x0,0x0
	.DB  0x0,0x0,0x0,0x0,0x0,0x0,0x0,0x0
	.DB  0x0,0x0,0x0,0x0,0x0,0x0,0x0,0x0
	.DB  0x0,0x0,0x0,0x0,0x0,0x0,0x0,0x0
	.DB  0x0,0x0,0x0,0x0,0x0,0x0,0x0,0x0
	.DB  0x0,0x0,0x0,0x0,0x0,0x0,0x0,0x0
_GSM2:
	.DB  0x0,0x0,0x0,0x0,0x0,0x0,0x0,0x80
	.DB  0x80,0x0,0xE0,0xE0,0x0,0x0,0x0,0x0
	.DB  0x0,0x0,0x0,0x0,0x0,0x0,0x0,0x0
	.DB  0x0,0x0,0x0,0x0,0x0,0x0,0x0,0x0
	.DB  0x0,0x0,0x0,0x0,0x0,0x0,0x0,0x0
	.DB  0x0,0x0,0x0,0x0,0x0,0x0,0x0,0x0
	.DB  0x0,0x0,0x0,0x0,0x0,0x0,0x0,0x0
	.DB  0x0,0x0,0x0,0x0,0x0,0x0,0x0,0x0
	.DB  0x0,0x0,0x0,0x0,0x0,0x0,0x0,0x0
	.DB  0x0,0x0,0x0,0x0,0x0,0x0,0x0,0x0
	.DB  0x0,0x0,0x0,0x0,0x0,0x0,0x0,0x0
	.DB  0x0,0x0,0x0,0x0,0x0,0x0,0x0,0x0
	.DB  0x0,0x0,0x0,0x0,0x0,0x0,0x0,0x0
	.DB  0x0,0x0,0x0,0x0,0x0,0x0,0x0,0x0
	.DB  0x0,0x0,0x0,0x0,0x0,0x0,0x0,0x0
	.DB  0x0,0x0,0x0,0x0,0x0,0x0,0x0,0x0
	.DB  0x0,0x6,0x6,0x0,0x7,0x7,0x0,0x7
	.DB  0x7,0x0,0x7,0x7,0x0,0x0,0x0,0x0
	.DB  0x0,0x0,0x0,0x0,0x0,0x0,0x0,0x0
	.DB  0x0,0x0,0x0,0x0,0x0,0x0,0x0,0x0
	.DB  0x0,0x0,0x0,0x0,0x0,0x0,0x0,0x0
	.DB  0x0,0x0,0x0,0x0,0x0,0x0,0x0,0x0
	.DB  0x0,0x0,0x0,0x0,0x0,0x0,0x0,0x0
	.DB  0x0,0x0,0x0,0x0,0x0,0x0,0x0,0x0
	.DB  0x0,0x0,0x0,0x0,0x0,0x0,0x0,0x0
	.DB  0x0,0x0,0x0,0x0,0x0,0x0,0x0,0x0
	.DB  0x0,0x0,0x0,0x0,0x0,0x0,0x0,0x0
	.DB  0x0,0x0,0x0,0x0,0x0,0x0,0x0,0x0
	.DB  0x0,0x0,0x0,0x0,0x0,0x0,0x0,0x0
	.DB  0x0,0x0,0x0,0x0,0x0,0x0,0x0,0x0
	.DB  0x0,0x0,0x0,0x0,0x0,0x0,0x0,0x0
	.DB  0x0,0x0,0x0,0x0,0x0,0x0,0x0,0x0
	.DB  0x0,0x0,0x0,0x0,0x0,0x0,0x0,0x0
	.DB  0x0,0x0,0x0,0x0,0x0,0x0,0x0,0x0
	.DB  0x0,0x0,0x0,0x0,0x0,0x0,0x0,0x0
	.DB  0x0,0x0,0x0,0x0,0x0,0x0,0x0,0x0
	.DB  0x0,0x0,0x0,0x0,0x0,0x0,0x0,0x0
	.DB  0x0,0x0,0x0,0x0,0x0,0x0,0x0,0x0
_GSM3:
	.DB  0x0,0x0,0x0,0x0,0x0,0x0,0x0,0x0
	.DB  0x0,0x0,0x0,0x0,0x0,0x0,0x0,0x0
	.DB  0x0,0x0,0x0,0x0,0x0,0x0,0x0,0x0
	.DB  0x0,0x0,0x0,0x0,0x0,0x0,0x0,0x0
	.DB  0x0,0x0,0x0,0x0,0x0,0x0,0x0,0x0
	.DB  0x0,0x0,0x0,0x0,0x0,0x0,0x0,0x0
	.DB  0x0,0x0,0x0,0x0,0x0,0x0,0x0,0x0
	.DB  0x0,0x0,0x0,0x0,0x0,0x0,0x0,0x0
	.DB  0x0,0x0,0x0,0x0,0x0,0x0,0x0,0x0
	.DB  0x0,0x0,0x0,0x0,0x0,0x0,0x0,0x0
	.DB  0x0,0x0,0x0,0x0,0x0,0x0,0x0,0x0
	.DB  0x0,0x0,0x0,0x0,0x0,0x0,0x0,0x0
	.DB  0x0,0x0,0x0,0x0,0x0,0x0,0x0,0x0
	.DB  0x0,0x0,0x0,0x0,0x0,0x0,0x0,0x0
	.DB  0x0,0x0,0x0,0x0,0x0,0x0,0x0,0x0
	.DB  0x0,0x0,0x0,0x0,0x0,0x0,0x0,0x0
	.DB  0x0,0x6,0x6,0x0,0x7,0x7,0x0,0x0
	.DB  0x0,0x0,0x0,0x0,0x0,0x0,0x0,0x0
	.DB  0x0,0x0,0x0,0x0,0x0,0x0,0x0,0x0
	.DB  0x0,0x0,0x0,0x0,0x0,0x0,0x0,0x0
	.DB  0x0,0x0,0x0,0x0,0x0,0x0,0x0,0x0
	.DB  0x0,0x0,0x0,0x0,0x0,0x0,0x0,0x0
	.DB  0x0,0x0,0x0,0x0,0x0,0x0,0x0,0x0
	.DB  0x0,0x0,0x0,0x0,0x0,0x0,0x0,0x0
	.DB  0x0,0x0,0x0,0x0,0x0,0x0,0x0,0x0
	.DB  0x0,0x0,0x0,0x0,0x0,0x0,0x0,0x0
	.DB  0x0,0x0,0x0,0x0,0x0,0x0,0x0,0x0
	.DB  0x0,0x0,0x0,0x0,0x0,0x0,0x0,0x0
	.DB  0x0,0x0,0x0,0x0,0x0,0x0,0x0,0x0
	.DB  0x0,0x0,0x0,0x0,0x0,0x0,0x0,0x0
	.DB  0x0,0x0,0x0,0x0,0x0,0x0,0x0,0x0
	.DB  0x0,0x0,0x0,0x0,0x0,0x0,0x0,0x0
	.DB  0x0,0x0,0x0,0x0,0x0,0x0,0x0,0x0
	.DB  0x0,0x0,0x0,0x0,0x0,0x0,0x0,0x0
	.DB  0x0,0x0,0x0,0x0,0x0,0x0,0x0,0x0
	.DB  0x0,0x0,0x0,0x0,0x0,0x0,0x0,0x0
	.DB  0x0,0x0,0x0,0x0,0x0,0x0,0x0,0x0
	.DB  0x0,0x0,0x0,0x0,0x0,0x0,0x0,0x0
_GSM4:
	.DB  0x0,0x0,0x0,0x0,0x0,0x0,0x0,0x0
	.DB  0x0,0x0,0x0,0x0,0x0,0x0,0x0,0x0
	.DB  0x0,0x0,0x0,0x0,0x0,0x0,0x0,0x0
	.DB  0x0,0x0,0x0,0x0,0x0,0x0,0x0,0x0
	.DB  0x0,0x0,0x0,0x0,0x0,0x0,0x0,0x0
	.DB  0x0,0x0,0x0,0x0,0x0,0x0,0x0,0x0
	.DB  0x0,0x0,0x0,0x0,0x0,0x0,0x0,0x0
	.DB  0x0,0x0,0x0,0x0,0x0,0x0,0x0,0x0
	.DB  0x0,0x0,0x0,0x0,0x0,0x0,0x0,0x0
	.DB  0x0,0x0,0x0,0x0,0x0,0x0,0x0,0x0
	.DB  0x0,0x0,0x0,0x0,0x0,0x0,0x0,0x0
	.DB  0x0,0x0,0x0,0x0,0x0,0x0,0x0,0x0
	.DB  0x0,0x0,0x0,0x0,0x0,0x0,0x0,0x0
	.DB  0x0,0x0,0x0,0x0,0x0,0x0,0x0,0x0
	.DB  0x0,0x0,0x0,0x0,0x0,0x0,0x0,0x0
	.DB  0x0,0x0,0x0,0x0,0x0,0x0,0x0,0x0
	.DB  0x0,0x6,0x6,0x0,0x4,0x4,0x4,0x4
	.DB  0x4,0x4,0x4,0x4,0x4,0x4,0x4,0x4
	.DB  0x4,0x4,0x0,0x0,0x0,0x0,0x0,0x0
	.DB  0x0,0x0,0x0,0x0,0x0,0x0,0x0,0x0
	.DB  0x0,0x0,0x0,0x0,0x0,0x0,0x0,0x0
	.DB  0x0,0x0,0x0,0x0,0x0,0x0,0x0,0x0
	.DB  0x0,0x0,0x0,0x0,0x0,0x0,0x0,0x0
	.DB  0x0,0x0,0x0,0x0,0x0,0x0,0x0,0x0
	.DB  0x0,0x0,0x0,0x0,0x0,0x0,0x0,0x0
	.DB  0x0,0x0,0x0,0x0,0x0,0x0,0x0,0x0
	.DB  0x0,0x0,0x0,0x0,0x0,0x0,0x0,0x0
	.DB  0x0,0x0,0x0,0x0,0x0,0x0,0x0,0x0
	.DB  0x0,0x0,0x0,0x0,0x0,0x0,0x0,0x0
	.DB  0x0,0x0,0x0,0x0,0x0,0x0,0x0,0x0
_tbl10_G100:
	.DB  0x10,0x27,0xE8,0x3,0x64,0x0,0xA,0x0
	.DB  0x1,0x0
_tbl16_G100:
	.DB  0x0,0x10,0x0,0x1,0x10,0x0,0x1,0x0

_0x3:
	.DB  0xC1
_0xCE:
	.DB  0x53,0x49,0x54,0x55
_0xCF:
	.DB  0x31,0x36,0x39,0x37
_0x1A6:
	.DB  0x20,0x0,0x0,0x20,0x0,0x0,0x0,0x0
	.DB  0x0,0x0
_0x0:
	.DB  0x41,0x54,0x24,0x54,0x54,0x44,0x45,0x56
	.DB  0x49,0x44,0x3F,0xA,0xD,0x0,0x41,0x54
	.DB  0x2B,0x43,0x53,0x51,0xA,0xD,0x0,0x41
	.DB  0x54,0x24,0x54,0x54,0x4E,0x45,0x54,0x49
	.DB  0x50,0x3F,0xA,0xD,0x0,0x41,0x54,0x24
	.DB  0x54,0x54,0x47,0x50,0x53,0x51,0x52,0x59
	.DB  0x3D,0x31,0x30,0x2C,0x30,0xA,0xD,0x0
	.DB  0x20,0x20,0x20,0x20,0x20,0x20,0x0,0x52
	.DB  0x55,0x54,0x41,0x3A,0x0,0x41,0x54,0x24
	.DB  0x4D,0x53,0x47,0x53,0x4E,0x44,0x3D,0x34
	.DB  0x2C,0x22,0x24,0x24,0x42,0x4C,0x25,0x73
	.DB  0x2C,0x25,0x64,0x25,0x64,0x25,0x64,0x25
	.DB  0x64,0x32,0x30,0x25,0x64,0x25,0x64,0x2C
	.DB  0x25,0x64,0x25,0x64,0x25,0x64,0x25,0x64
	.DB  0x25,0x64,0x25,0x64,0x2C,0x52,0x32,0x2C
	.DB  0x25,0x64,0x2C,0x25,0x64,0x3A,0x58,0x58
	.DB  0x23,0x23,0x22,0xD,0xA,0x0,0x25,0x63
	.DB  0x0,0x42,0x55,0x53,0x0,0x25,0x64,0x25
	.DB  0x64,0x3A,0x25,0x64,0x25,0x64,0x3A,0x25
	.DB  0x64,0x25,0x64,0x0,0x50,0x75,0x6E,0x74
	.DB  0x6F,0x20,0x64,0x65,0x20,0x63,0x6F,0x6E
	.DB  0x74,0x72,0x6F,0x6C,0x0,0x32,0x30,0x25
	.DB  0x64,0x25,0x64,0x2D,0x25,0x64,0x25,0x64
	.DB  0x2D,0x25,0x64,0x25,0x64,0x0,0x50,0x61
	.DB  0x6E,0x74,0x61,0x6C,0x6C,0x61,0x0,0x4E
	.DB  0x6F,0x20,0x41,0x75,0x74,0x6F,0x72,0x69
	.DB  0x7A,0x61,0x64,0x61,0x0
_0x202005F:
	.DB  0x1
_0x2020000:
	.DB  0x2D,0x4E,0x41,0x4E,0x0

__GLOBAL_INI_TBL:
	.DW  0x01
	.DW  _prevLet_G000
	.DW  _0x3*2

	.DW  0x04
	.DW  _NOMBRE_DISP
	.DW  _0xCE*2

	.DW  0x04
	.DW  _NUM_DISP
	.DW  _0xCF*2

	.DW  0x07
	.DW  _0xF8
	.DW  _0x0*2+56

	.DW  0x06
	.DW  _0xF8+7
	.DW  _0x0*2+63

	.DW  0x04
	.DW  _0x183
	.DW  _0x0*2+137

	.DW  0x11
	.DW  _0x183+4
	.DW  _0x0*2+156

	.DW  0x09
	.DW  _0x183+21
	.DW  _0x0*2+190

	.DW  0x0E
	.DW  _0x183+30
	.DW  _0x0*2+199

	.DW  0x0A
	.DW  0x05
	.DW  _0x1A6*2

	.DW  0x01
	.DW  __seed_G101
	.DW  _0x202005F*2

_0xFFFFFFFF:
	.DW  0

__RESET:
	CLI
	CLR  R30
	OUT  EECR,R30

;INTERRUPT VECTORS ARE PLACED
;AT THE START OF FLASH
	LDI  R31,1
	OUT  MCUCR,R31
	OUT  MCUCR,R30

;DISABLE WATCHDOG
	LDI  R31,0x18
	WDR
	IN   R26,MCUSR
	CBR  R26,8
	OUT  MCUSR,R26
	STS  WDTCSR,R31
	STS  WDTCSR,R30

;CLEAR R2-R14
	LDI  R24,(14-2)+1
	LDI  R26,2
	CLR  R27
__CLEAR_REG:
	ST   X+,R30
	DEC  R24
	BRNE __CLEAR_REG

;CLEAR SRAM
	LDI  R24,LOW(0x800)
	LDI  R25,HIGH(0x800)
	LDI  R26,LOW(0x100)
	LDI  R27,HIGH(0x100)
__CLEAR_SRAM:
	ST   X+,R30
	SBIW R24,1
	BRNE __CLEAR_SRAM

;GLOBAL VARIABLES INITIALIZATION
	LDI  R30,LOW(__GLOBAL_INI_TBL*2)
	LDI  R31,HIGH(__GLOBAL_INI_TBL*2)
__GLOBAL_INI_NEXT:
	LPM  R24,Z+
	LPM  R25,Z+
	SBIW R24,0
	BREQ __GLOBAL_INI_END
	LPM  R26,Z+
	LPM  R27,Z+
	LPM  R0,Z+
	LPM  R1,Z+
	MOVW R22,R30
	MOVW R30,R0
__GLOBAL_INI_LOOP:
	LPM  R0,Z+
	ST   X+,R0
	SBIW R24,1
	BRNE __GLOBAL_INI_LOOP
	MOVW R30,R22
	RJMP __GLOBAL_INI_NEXT
__GLOBAL_INI_END:

;GPIOR0 INITIALIZATION
	LDI  R30,0x00
	OUT  GPIOR0,R30

;STACK POINTER INITIALIZATION
	LDI  R30,LOW(0x8FF)
	OUT  SPL,R30
	LDI  R30,HIGH(0x8FF)
	OUT  SPH,R30

;DATA STACK POINTER INITIALIZATION
	LDI  R28,LOW(0x300)
	LDI  R29,HIGH(0x300)

	JMP  _main

	.ESEG
	.ORG 0

	.DSEG
	.ORG 0x300

	.CSEG
;/**********************************************\
; *       Kradac Robotics & Electronics        *
; *                                            *
; *  Proyecto:       GLCD BUS LOJA             *
; *  Programadores:  Vicente Q &&              *
; *                  Ernesto P &&              *
; *                  David Novillo             *
; *  version:        0.8.3                     *
; *  Fecha:          11/08/2014                *
; *                                            *
; **********************************************
; *
; *
; *  uC:             ATmega324PA
; *  Compilador:     CodeVision 2.x
; *  Cryst:          11.092 MHz
; *
; *
; */
;
;//SE AGREGAN LAS LIBRERIAS QUE SE VAN A UTILIZAR
;#include <mega324.h>
	#ifndef __SLEEP_DEFINED__
	#define __SLEEP_DEFINED__
	.EQU __se_bit=0x01
	.EQU __sm_mask=0x0E
	.EQU __sm_powerdown=0x04
	.EQU __sm_powersave=0x06
	.EQU __sm_standby=0x0C
	.EQU __sm_ext_standby=0x0E
	.EQU __sm_adc_noise_red=0x02
	.SET power_ctrl_reg=smcr
	#endif
;#include <delay.h>
;#include <stdio.h>
;#include <stdlib.h>
;#include "Includes/GLCD.h"

	.DSEG

	.CSEG
_trigger:
	SBI  0xB,7
	__DELAY_USB 55
	CBI  0xB,7
	__DELAY_USB 55
	RET
_glcd_on:
	SBI  0x2,6
	SBI  0x2,7
	CBI  0xB,6
	CBI  0xB,5
	LDI  R30,LOW(63)
	OUT  0x8,R30
	RCALL _trigger
	RET
;	line -> Y+0
_goto_col:
	ST   -Y,R17
;	x -> Y+1
;	pattern -> R17
	CBI  0xB,6
	CBI  0xB,5
	LDD  R26,Y+1
	LDD  R27,Y+1+1
	CPI  R26,LOW(0x40)
	LDI  R30,HIGH(0x40)
	CPC  R27,R30
	BRSH _0x24
	SBI  0x2,6
	CBI  0x2,7
	LDD  R17,Y+1
	RJMP _0x29
_0x24:
	SBI  0x2,7
	CBI  0x2,6
	LDD  R30,Y+1
	LDD  R31,Y+1+1
	SUBI R30,LOW(64)
	SBCI R31,HIGH(64)
	MOV  R17,R30
_0x29:
	MOV  R30,R17
	ORI  R30,0x40
	ANDI R30,0x7F
	MOV  R17,R30
	OUT  0x8,R17
	RCALL _trigger
	LDD  R17,Y+0
	RJMP _0x20A0004
_goto_row:
	ST   -Y,R17
;	y -> Y+1
;	pattern -> R17
	CBI  0xB,6
	CBI  0xB,5
	LDD  R30,Y+1
	ORI  R30,LOW(0xB8)
	ANDI R30,0xBF
	MOV  R17,R30
	OUT  0x8,R17
	RCALL _trigger
	LDD  R17,Y+0
	RJMP _0x20A0004
_goto_xy:
;	x -> Y+2
;	y -> Y+0
	LDD  R30,Y+2
	LDD  R31,Y+2+1
	CALL SUBOPT_0x0
	LD   R30,Y
	LDD  R31,Y+1
	CALL SUBOPT_0x1
	ADIW R28,4
	RET
_glcd_write:
;	b -> Y+0
	SBI  0xB,6
	CBI  0xB,5
	LD   R30,Y
	OUT  0x8,R30
	__DELAY_USW 221
	RCALL _trigger
	ADIW R28,1
	RET
_glcd_clrln:
	ST   -Y,R17
	ST   -Y,R16
;	ln -> Y+2
;	i -> R16,R17
	CALL SUBOPT_0x2
	CALL SUBOPT_0x3
	LDI  R30,LOW(64)
	LDI  R31,HIGH(64)
	ST   -Y,R31
	ST   -Y,R30
	CALL SUBOPT_0x3
	SBI  0x2,6
	__GETWRN 16,17,0
_0x39:
	__CPWRN 16,17,65
	BRGE _0x3A
	LDI  R30,LOW(0)
	ST   -Y,R30
	RCALL _glcd_write
	__ADDWRN 16,17,1
	RJMP _0x39
_0x3A:
	LDD  R17,Y+1
	LDD  R16,Y+0
_0x20A0004:
	ADIW R28,3
	RET
_glcd_clear:
	ST   -Y,R17
	ST   -Y,R16
;	i -> R16,R17
	__GETWRN 16,17,0
_0x3C:
	__CPWRN 16,17,8
	BRGE _0x3D
	ST   -Y,R16
	RCALL _glcd_clrln
	__ADDWRN 16,17,1
	RJMP _0x3C
_0x3D:
	LD   R16,Y+
	LD   R17,Y+
	RET
;	status -> R17
;	column -> Y+1
;	read_data -> R17
;	x -> Y+4
;	y -> Y+2
;	color -> Y+1
;	pattern -> R17
;	x -> Y+7
;	y -> Y+5
;	l -> Y+4
;	s -> Y+3
;	c -> Y+2
;	i -> R16,R17
;	x -> Y+8
;	y -> Y+6
;	l -> Y+4
;	s -> Y+3
;	c -> Y+2
;	i -> R16,R17
;	x1 -> Y+22
;	y1 -> Y+20
;	x2 -> Y+18
;	y2 -> Y+16
;	s -> Y+15
;	c -> Y+14
;	i -> R17
;	y01 -> R16
;	temp -> R19
;	a -> Y+10
;	b -> Y+6
;	y00 -> R18
;	y010 -> R21
;	x1 -> Y+8
;	y1 -> Y+6
;	x2 -> Y+4
;	y2 -> Y+2
;	s -> Y+1
;	c -> Y+0
;	x11 -> Y+16
;	y11 -> Y+14
;	x12 -> Y+12
;	y12 -> Y+10
;	x21 -> Y+8
;	y21 -> Y+6
;	x22 -> Y+4
;	y22 -> Y+2
;	s -> Y+1
;	c -> Y+0
;	x1 -> Y+9
;	y1 -> Y+7
;	x2 -> Y+5
;	y2 -> Y+3
;	l -> Y+2
;	s -> Y+1
;	c -> Y+0
;	x1 -> Y+9
;	y1 -> Y+7
;	x2 -> Y+5
;	y2 -> Y+3
;	l -> Y+2
;	s -> Y+1
;	c -> Y+0
;	x11 -> Y+18
;	y11 -> Y+16
;	x12 -> Y+14
;	y12 -> Y+12
;	l1 -> Y+11
;	x21 -> Y+9
;	y21 -> Y+7
;	x22 -> Y+5
;	y22 -> Y+3
;	l2 -> Y+2
;	s -> Y+1
;	c -> Y+0
;	x11 -> Y+18
;	y11 -> Y+16
;	x12 -> Y+14
;	y12 -> Y+12
;	l1 -> Y+11
;	x21 -> Y+9
;	y21 -> Y+7
;	x22 -> Y+5
;	y22 -> Y+3
;	l2 -> Y+2
;	s -> Y+1
;	c -> Y+0
;	x0 -> Y+10
;	y0 -> Y+8
;	r -> Y+6
;	s -> Y+5
;	c -> Y+4
;	i -> R17
;	y -> R16
;	y00 -> R19
_putIt:
	ST   -Y,R17
;	c -> Y+5
;	x -> Y+3
;	y -> Y+1
;	i -> R17
	LDD  R30,Y+3
	LDD  R31,Y+3+1
	CALL SUBOPT_0x0
	LDD  R30,Y+1
	LDD  R31,Y+1+1
	CALL SUBOPT_0x1
	LDI  R17,LOW(0)
_0x7B:
	CPI  R17,8
	BRSH _0x7C
	LDD  R30,Y+5
	LDD  R31,Y+5+1
	CALL __LSLW3
	MOVW R26,R30
	CALL SUBOPT_0x4
	ADD  R30,R26
	ADC  R31,R27
	SUBI R30,LOW(-_font*2)
	SBCI R31,HIGH(-_font*2)
	LPM  R30,Z
	ST   -Y,R30
	RCALL _glcd_write
	SUBI R17,-1
	RJMP _0x7B
_0x7C:
	LDD  R17,Y+0
	RJMP _0x20A0003
_enlarge:
	CALL __SAVELOCR4
;	*large -> Y+6
;	c -> Y+5
;	size -> Y+4
;	i -> R17
;	j -> R16
;	temp -> R19
;	k -> R18
	LDI  R18,0
	LDI  R17,LOW(0)
_0x7E:
	LDD  R30,Y+4
	CP   R17,R30
	BRSH _0x7F
	LDI  R16,LOW(0)
_0x81:
	CPI  R16,8
	BRSH _0x82
	CALL SUBOPT_0x5
	LDI  R31,0
	ASR  R31
	ROR  R30
	ST   X,R30
	LDD  R30,Y+5
	ANDI R30,LOW(0x1)
	MOV  R19,R30
	CPI  R19,0
	BREQ _0x83
	CALL SUBOPT_0x5
	ORI  R30,0x80
	ST   X,R30
_0x83:
	SUBI R18,-LOW(1)
	LDD  R30,Y+4
	CP   R30,R18
	BRNE _0x84
	LDD  R30,Y+5
	LDI  R31,0
	ASR  R31
	ROR  R30
	STD  Y+5,R30
	LDI  R18,LOW(0)
_0x84:
	SUBI R16,-1
	RJMP _0x81
_0x82:
	SUBI R17,-1
	RJMP _0x7E
_0x7F:
	CALL __LOADLOCR4
	ADIW R28,8
	RET
_putItSz:
	SBIW R28,63
	SBIW R28,1
	CALL __SAVELOCR4
;	c -> Y+73
;	x -> Y+71
;	y -> Y+69
;	sz -> Y+68
;	i -> R17
;	j -> R16
;	k -> R19
;	large -> Y+4
	CALL SUBOPT_0x6
	CALL SUBOPT_0x0
	__GETW1SX 69
	CALL SUBOPT_0x1
	LDI  R17,LOW(0)
_0x86:
	CPI  R17,8
	BRSH _0x87
	CALL SUBOPT_0x4
	MOVW R22,R30
	CALL __LSLW3
	MOVW R26,R28
	ADIW R26,4
	ADD  R30,R26
	ADC  R31,R27
	ST   -Y,R31
	ST   -Y,R30
	__GETW1SX 75
	CALL __LSLW3
	ADD  R30,R22
	ADC  R31,R23
	SUBI R30,LOW(-_font*2)
	SBCI R31,HIGH(-_font*2)
	LPM  R30,Z
	ST   -Y,R30
	__GETB1SX 71
	ST   -Y,R30
	RCALL _enlarge
	SUBI R17,-1
	RJMP _0x86
_0x87:
	LDI  R16,LOW(0)
_0x89:
	__GETB1SX 68
	CP   R16,R30
	BRLO PC+3
	JMP _0x8A
	LDI  R17,LOW(0)
_0x8C:
	CPI  R17,8
	BRLO PC+3
	JMP _0x8D
	LDI  R19,LOW(0)
_0x8F:
	__GETB1SX 68
	CP   R19,R30
	BRSH _0x90
	MOV  R30,R19
	LDI  R31,0
	__GETW2SX 71
	ADD  R30,R26
	ADC  R31,R27
	MOVW R22,R30
	__GETB2SX 68
	CLR  R27
	CALL SUBOPT_0x4
	CALL __MULW12
	MOVW R26,R22
	ADD  R26,R30
	ADC  R27,R31
	CPI  R26,LOW(0x40)
	LDI  R30,HIGH(0x40)
	CPC  R27,R30
	BRNE _0x91
	LDI  R30,LOW(64)
	LDI  R31,HIGH(64)
	ST   -Y,R31
	ST   -Y,R30
	CALL SUBOPT_0x6
	ST   -Y,R31
	ST   -Y,R30
	RCALL _goto_xy
_0x91:
	CALL SUBOPT_0x4
	CALL __LSLW3
	MOVW R26,R28
	ADIW R26,4
	ADD  R26,R30
	ADC  R27,R31
	CLR  R30
	ADD  R26,R16
	ADC  R27,R30
	LD   R30,X
	ST   -Y,R30
	RCALL _glcd_write
	SUBI R19,-1
	RJMP _0x8F
_0x90:
	SUBI R17,-1
	RJMP _0x8C
_0x8D:
	CALL SUBOPT_0x6
	ST   -Y,R31
	ST   -Y,R30
	MOVW R26,R28
	SUBI R26,LOW(-(71))
	SBCI R27,HIGH(-(71))
	CALL SUBOPT_0x7
	ST   -Y,R31
	ST   -Y,R30
	RCALL _goto_xy
	SUBI R16,-1
	RJMP _0x89
_0x8A:
	CALL __LOADLOCR4
	ADIW R28,63
	ADIW R28,12
	RET
_glcd_putchar:
;	c -> Y+6
;	x -> Y+4
;	y -> Y+2
;	l -> Y+1
;	sz -> Y+0
	LDD  R26,Y+1
	CPI  R26,LOW(0x1)
	BREQ PC+3
	JMP _0x92
	CALL SUBOPT_0x8
	CPI  R30,LOW(0x81)
	LDI  R26,HIGH(0x81)
	CPC  R31,R26
	BRNE _0x96
	LDI  R30,LOW(250)
	RJMP _0x19E
_0x96:
	CPI  R30,LOW(0x90)
	LDI  R26,HIGH(0x90)
	CPC  R31,R26
	BRNE _0x97
	LDI  R30,LOW(251)
	RJMP _0x19E
_0x97:
	CPI  R30,LOW(0x98)
	LDI  R26,HIGH(0x98)
	CPC  R31,R26
	BRNE _0x98
	LDI  R30,LOW(252)
	RJMP _0x19E
_0x98:
	CPI  R30,LOW(0x8E)
	LDI  R26,HIGH(0x8E)
	CPC  R31,R26
	BRNE _0x99
	LDI  R30,LOW(253)
	RJMP _0x19E
_0x99:
	CPI  R30,LOW(0x8D)
	LDI  R26,HIGH(0x8D)
	CPC  R31,R26
	BRNE _0x95
	LDI  R30,LOW(254)
_0x19E:
	STD  Y+6,R30
_0x95:
	LDD  R26,Y+6
	CPI  R26,LOW(0xC1)
	BRLO _0x9C
	LDS  R26,_prevLet_G000
	LDS  R27,_prevLet_G000+1
	CPI  R26,LOW(0xC1)
	LDI  R30,HIGH(0xC1)
	CPC  R27,R30
	BRLT _0x9C
	CALL SUBOPT_0x9
	ADIW R30,5
	LPM  R30,Z
	CPI  R30,0
	BREQ _0x9C
	CALL SUBOPT_0x8
	CALL SUBOPT_0xA
	ADIW R30,4
	LPM  R30,Z
	CPI  R30,0
	BRNE _0x9D
_0x9C:
	RJMP _0x9B
_0x9D:
	CALL SUBOPT_0x9
	MOVW R26,R30
	LDS  R30,_stat_G000
	LDI  R31,0
	ADIW R30,1
	ADD  R30,R26
	ADC  R31,R27
	LPM  R30,Z
	CALL SUBOPT_0xB
	LDS  R30,_prevX_G000
	CALL SUBOPT_0xB
	LDS  R30,_prevY_G000
	CALL SUBOPT_0xB
	RCALL _putIt
	LDI  R30,LOW(2)
	RJMP _0x19F
_0x9B:
	LDI  R30,LOW(0)
_0x19F:
	STS  _stat_G000,R30
	LDD  R26,Y+6
	CPI  R26,LOW(0xC1)
	BRLO _0x9F
	CALL SUBOPT_0x8
	CALL SUBOPT_0xA
	MOVW R26,R30
	LDS  R30,_stat_G000
	LDI  R31,0
	ADD  R30,R26
	ADC  R31,R27
	LPM  R30,Z
	RJMP _0x1A0
_0x9F:
	LDD  R30,Y+6
_0x1A0:
	LDI  R31,0
	CALL SUBOPT_0xC
	CALL SUBOPT_0xC
	CALL SUBOPT_0xD
	CALL SUBOPT_0x8
	STS  _prevLet_G000,R30
	STS  _prevLet_G000+1,R31
	LDD  R30,Y+4
	STS  _prevX_G000,R30
	LDD  R30,Y+2
	STS  _prevY_G000,R30
	RJMP _0xA1
_0x92:
	CALL SUBOPT_0x8
	CALL SUBOPT_0xC
	CALL SUBOPT_0xC
	CALL SUBOPT_0xD
_0xA1:
_0x20A0003:
	ADIW R28,7
	RET
_glcd_puts:
	ST   -Y,R17
	ST   -Y,R16
;	*c -> Y+9
;	x -> Y+7
;	y -> Y+5
;	l -> Y+4
;	sz -> Y+3
;	space -> Y+2
;	i -> R17
;	special -> R16
	LDI  R17,0
	LDI  R16,0
_0xA2:
	CALL SUBOPT_0xE
	BRSH _0xA5
	LDD  R26,Y+4
	CPI  R26,LOW(0x0)
	BREQ _0xA6
_0xA5:
	RJMP _0xA4
_0xA6:
	CALL SUBOPT_0x4
	CALL SUBOPT_0xF
	LD   R30,X
	ST   -Y,R30
	CALL SUBOPT_0x10
	CALL SUBOPT_0x10
	LDI  R30,LOW(0)
	CALL SUBOPT_0x11
	CALL SUBOPT_0x12
	LDD  R26,Y+7
	LDD  R27,Y+7+1
	ADD  R30,R26
	ADC  R31,R27
	STD  Y+7,R30
	STD  Y+7+1,R31
	CALL SUBOPT_0x13
	LDI  R26,LOW(128)
	LDI  R27,HIGH(128)
	CALL __SWAPW12
	SUB  R30,R26
	SBC  R31,R27
	LDD  R26,Y+7
	LDD  R27,Y+7+1
	CP   R30,R26
	CPC  R31,R27
	BRGE _0xA7
	LDI  R30,LOW(0)
	STD  Y+7,R30
	STD  Y+7+1,R30
	CALL SUBOPT_0x14
_0xA7:
	SUBI R17,-1
	RJMP _0xA2
_0xA4:
_0xA8:
	CALL SUBOPT_0xE
	BRSH _0xAB
	LDD  R26,Y+4
	CPI  R26,LOW(0x1)
	BREQ _0xAC
_0xAB:
	RJMP _0xAA
_0xAC:
	CALL SUBOPT_0x4
	CALL SUBOPT_0xF
	LD   R26,X
	CPI  R26,LOW(0xE1)
	BRNE _0xAE
	CALL SUBOPT_0x15
	CPI  R26,LOW(0xC7)
	BREQ _0xAF
_0xAE:
	RJMP _0xAD
_0xAF:
	LDI  R16,LOW(249)
	RJMP _0xB0
_0xAD:
	CALL SUBOPT_0x4
	CALL SUBOPT_0xF
	LD   R26,X
	CPI  R26,LOW(0xE1)
	BRNE _0xB2
	CALL SUBOPT_0x15
	CPI  R26,LOW(0xC3)
	BREQ _0xB3
_0xB2:
	RJMP _0xB1
_0xB3:
	LDI  R16,LOW(231)
	RJMP _0xB4
_0xB1:
	CALL SUBOPT_0x4
	CALL SUBOPT_0xF
	LD   R26,X
	CPI  R26,LOW(0xE1)
	BRNE _0xB6
	CALL SUBOPT_0x15
	CPI  R26,LOW(0xC2)
	BREQ _0xB7
_0xB6:
	RJMP _0xB5
_0xB7:
	LDI  R16,LOW(232)
	RJMP _0xB8
_0xB5:
	CALL SUBOPT_0x4
	CALL SUBOPT_0xF
	LD   R26,X
	CPI  R26,LOW(0xE1)
	BRNE _0xBA
	CALL SUBOPT_0x15
	CPI  R26,LOW(0xC5)
	BREQ _0xBB
_0xBA:
	RJMP _0xB9
_0xBB:
	LDI  R16,LOW(233)
_0xB9:
_0xB8:
_0xB4:
_0xB0:
	CPI  R16,0
	BREQ _0xBC
	ST   -Y,R16
	CALL SUBOPT_0x16
	LDI  R30,LOW(1)
	CALL SUBOPT_0x11
	SUBI R17,-LOW(2)
	CALL SUBOPT_0x13
	LDD  R26,Y+7
	LDD  R27,Y+7+1
	CALL SUBOPT_0x17
	LDI  R16,LOW(0)
	RJMP _0xBD
_0xBC:
	CALL SUBOPT_0x4
	CALL SUBOPT_0xF
	LD   R30,X
	ST   -Y,R30
	CALL SUBOPT_0x16
	LDD  R30,Y+9
	CALL SUBOPT_0x11
	CALL SUBOPT_0x4
	CALL SUBOPT_0xF
	LD   R26,X
	CPI  R26,LOW(0x20)
	BRNE _0xBE
	CALL SUBOPT_0x12
	RJMP _0x1A1
_0xBE:
	CALL SUBOPT_0x13
_0x1A1:
	LDD  R26,Y+7
	LDD  R27,Y+7+1
	CALL SUBOPT_0x17
	SUBI R17,-1
_0xBD:
	CALL SUBOPT_0x13
	ADIW R30,1
	LDD  R26,Y+7
	LDD  R27,Y+7+1
	CP   R26,R30
	CPC  R27,R31
	BRGE _0xC0
	CALL SUBOPT_0x13
	LDI  R26,LOW(128)
	LDI  R27,HIGH(128)
	CALL SUBOPT_0x17
	CALL SUBOPT_0x14
_0xC0:
	RJMP _0xA8
_0xAA:
	LDI  R30,LOW(193)
	LDI  R31,HIGH(193)
	STS  _prevLet_G000,R30
	STS  _prevLet_G000+1,R31
	LDD  R17,Y+1
	LDD  R16,Y+0
	ADIW R28,11
	RET
_bmp_disp:
	CALL __SAVELOCR4
;	*bmp -> Y+12
;	x1 -> Y+10
;	y1 -> Y+8
;	x2 -> Y+6
;	y2 -> Y+4
;	i -> R16,R17
;	j -> R18,R19
	__GETWRS 16,17,8
_0xC2:
	LDD  R30,Y+4
	LDD  R31,Y+4+1
	CP   R30,R16
	CPC  R31,R17
	BRLO _0xC3
	__GETWRS 18,19,10
_0xC5:
	LDD  R30,Y+6
	LDD  R31,Y+6+1
	CP   R30,R18
	CPC  R31,R19
	BRLO _0xC6
	ST   -Y,R19
	ST   -Y,R18
	ST   -Y,R17
	ST   -Y,R16
	RCALL _goto_xy
	__MULBNWRU 16,17,128
	ADD  R30,R18
	ADC  R31,R19
	LDD  R26,Y+12
	LDD  R27,Y+12+1
	ADD  R30,R26
	ADC  R31,R27
	LPM  R30,Z
	ST   -Y,R30
	RCALL _glcd_write
	__ADDWRN 18,19,1
	RJMP _0xC5
_0xC6:
	__ADDWRN 16,17,1
	RJMP _0xC2
_0xC3:
	CALL __LOADLOCR4
	ADIW R28,14
	RET
;#include "Includes/bus.h"
;
;
;//////////////////////////////// INTERRUPCION SERIAL /////////////////////////////////
;#ifndef RXB8
;#define RXB8 1
;#endif
;#ifndef TXB8
;#define TXB8 0
;#endif
;#ifndef UPE
;#define UPE 2
;#endif
;#ifndef DOR
;#define DOR 3
;#endif
;#ifndef FE
;#define FE 4
;#endif
;#ifndef UDRE
;#define UDRE 5
;#endif
;#ifndef RXC
;#define RXC 7
;#endif
;
;#define FRAMING_ERROR (1<<FE)
;#define PARITY_ERROR (1<<UPE)
;#define DATA_OVERRUN (1<<DOR)
;#define DATA_REGISTER_EMPTY (1<<UDRE)
;#define RX_COMPLETE (1<<RXC)
;
;
;typedef char int8;    //sirve para definir enteros consigno de 8
;
;#define NOMBRE_PANTALLA  "SITU"
;#define NUMERO_PANTALLA  "1697"
;#define DELAY_BUZZER_MS     100
;#define DELAY_BOTONES_MS    200
;#define INIT_DELAY_GLCD_MS   10
;#define DELAY_PANTALLA_INI 2000
;#define TOTAL_RUTAS          10  //Nmero total de rutas
;
;#define RX_BUFFER_SIZE0 200             //BUFFER DE 200 CARACTERES
;char rx_b0 [RX_BUFFER_SIZE0];           //nombre del buffer
;
;#if RX_BUFFER_SIZE0 <= 256
;unsigned char rx_wr_index0,rx_rd_index0,rx_counter0;
;#else
;unsigned int rx_wr_index0,rx_rd_index0,rx_counter0;
;#endif
;
;// This flag is set on USART0 Receiver buffer overflow
;bit rx_buffer_overflow0;
;bit BIT_UART;
;
;
;/** \brief USART0 Receiver interrupt service routine
; *
; * Captura datos desde el puerto serial UART0
; */
;interrupt [USART0_RXC] void usart0_rx_isr(void)
; 0000 0059 {
_usart0_rx_isr:
	ST   -Y,R30
	ST   -Y,R31
	IN   R30,SREG
	ST   -Y,R30
; 0000 005A    char status,data;
; 0000 005B    status = UCSR0A;
	ST   -Y,R17
	ST   -Y,R16
;	status -> R17
;	data -> R16
	LDS  R17,192
; 0000 005C    data   = UDR0;
	LDS  R16,198
; 0000 005D    BIT_UART = UCSR0A & 0b10000000;
	LDS  R30,192
	ANDI R30,LOW(0x80)
	BRNE _0xC7
	CBI  0x1E,1
	RJMP _0xC8
_0xC7:
	SBI  0x1E,1
_0xC8:
; 0000 005E 
; 0000 005F    if ((status & (FRAMING_ERROR | PARITY_ERROR | DATA_OVERRUN)) == 0)
	MOV  R30,R17
	ANDI R30,LOW(0x1C)
	BRNE _0xC9
; 0000 0060    {
; 0000 0061       rx_b0 [rx_wr_index0++] = data;
	MOV  R30,R4
	INC  R4
	LDI  R31,0
	SUBI R30,LOW(-_rx_b0)
	SBCI R31,HIGH(-_rx_b0)
	ST   Z,R16
; 0000 0062       #if RX_BUFFER_SIZE0 == 256
; 0000 0063          // special case for receiver buffer size=256
; 0000 0064          if (++rx_counter0 == 0) rx_buffer_overflow0=1;
; 0000 0065 
; 0000 0066       #else
; 0000 0067          if (rx_wr_index0 == RX_BUFFER_SIZE0) rx_wr_index0=0;
	LDI  R30,LOW(200)
	CP   R30,R4
	BRNE _0xCA
	CLR  R4
; 0000 0068          if (++rx_counter0 == RX_BUFFER_SIZE0)
_0xCA:
	INC  R6
	LDI  R30,LOW(200)
	CP   R30,R6
	BRNE _0xCB
; 0000 0069          {
; 0000 006A             rx_counter0=0;
	CLR  R6
; 0000 006B             rx_buffer_overflow0=1;
	SBI  0x1E,0
; 0000 006C          }
; 0000 006D       #endif
; 0000 006E    }
_0xCB:
; 0000 006F }
_0xC9:
	LD   R16,Y+
	LD   R17,Y+
	LD   R30,Y+
	OUT  SREG,R30
	LD   R31,Y+
	LD   R30,Y+
	RETI
;//-----------------------------  FIN INTERRUPCION SERIAL  -----------------------------//
;
;
;
;////////////////////  DEFINIR PUERTOS BOTONES - BUZZER  //////////////////
;#define BT5 PINA.0
;#define BT4 PINA.1
;#define BT3 PINA.2
;#define BT2 PINA.3
;#define BT1 PINA.4
;#define buzzer PORTD.4
;//---------------------------------------------------------------------//
;
;
;///////////////////////////////////////////////////////////////////////// VARIABLES ///////////////////////////////////////////////////////////////
;char NOMBRE_DISP[] = NOMBRE_PANTALLA;                 // variable

	.DSEG
;char NUM_DISP[] = NUMERO_PANTALLA;                    // variable
;char ruta_aux = ' ';                                  // variable auxiliar para almacenar la ruta a seleccionar
;char ruta= ' ';                                       // variable donde se almacena la ruta que se enviar al servidor
;char bandera1 = 0;                                       // variable auxiliar para evitar el rebote al oprimir el botn 1
;char bandera2 = 0;                                       // variable auxiliar para evitar el rebote al oprimir el botn 2
;char bandera3 = 0;                                       // variable auxiliar para evitar el rebote al oprimir el botn 3
;char bandera4 = 0;                                       // variable auxiliar para evitar el rebote al oprimir el botn 4
;char aceptar  = 0;                                        // variable que permite enviar ruta de trabajo al servidor
;
;unsigned int btn1=0, btn2=0, btn3=0, btn4=0, btn5=0;  // variables botones
;char aux;
;char punto[4], pt=0;                                  // variables para reconocer geocercas
;//--------------------------------------------------------------------------------------------------------------------------------------------//
;
;static unsigned int time_count;   // Contador del timer para los segundos
;static unsigned int act;          // Variable que guarda si la pantalla es autorizada
;
;eeprom int seg   @0x10;
;eeprom int seg1  @0x12;    // segundos en unidades y decenas
;eeprom int minu  @0x14;
;eeprom int min1  @0x16;    // minutos en unidades y decenas
;eeprom int hora  @0x18;
;eeprom int hora1 @0x1A;   // hora en unidades y decenas
;eeprom int dia   @0x1C;
;eeprom int dia1  @0x1E;    // dias en unidades y decenas
;eeprom int mes   @0x20;
;eeprom int mes1  @0x22;    // mes en unidades y decenas
;eeprom int an    @0x24;
;eeprom int an1   @0x26;     // anos en unidades y decenas
;
;eeprom int8 num_ruta @0x28;        // Transforma la letra de la ruta a un nmero
;
;
;int gsm, gps, ind_sen; //indicadores de seal
;char reloj[8], fecha[8];  //vectores para imprmir GLCD
;
;
;
;
;/////////////////////////////////////////////// INTERRUPCION DEL TIMER0 (CUENTA CADA SEGUNDO) /////////////////////////////////////////////////
;interrupt [TIM0_OVF] void timer0_ovf_isr(void)
; 0000 00A9 {

	.CSEG
_timer0_ovf_isr:
	ST   -Y,R0
	ST   -Y,R1
	ST   -Y,R15
	ST   -Y,R22
	ST   -Y,R23
	ST   -Y,R24
	ST   -Y,R25
	ST   -Y,R26
	ST   -Y,R27
	ST   -Y,R30
	ST   -Y,R31
	IN   R30,SREG
	ST   -Y,R30
; 0000 00AA    TCNT0 = 6;
	LDI  R30,LOW(6)
	OUT  0x26,R30
; 0000 00AB    ++time_count;
	LDI  R26,LOW(_time_count_G000)
	LDI  R27,HIGH(_time_count_G000)
	CALL SUBOPT_0x7
; 0000 00AC 
; 0000 00AD    if ( time_count == 43 )
	LDS  R26,_time_count_G000
	LDS  R27,_time_count_G000+1
	SBIW R26,43
	BREQ PC+3
	JMP _0xD0
; 0000 00AE    {
; 0000 00AF       seg++;
	CALL SUBOPT_0x18
	CALL SUBOPT_0x19
; 0000 00B0       time_count = 0;  //reiniciar contador
	LDI  R30,LOW(0)
	STS  _time_count_G000,R30
	STS  _time_count_G000+1,R30
; 0000 00B1 
; 0000 00B2       //Envia las tramas para validar el nombre y la seal del equipo - cada segundo
; 0000 00B3          if(seg==4) printf("AT$TTDEVID?\n\r");  // Pregunta el ID del equipo
	CALL SUBOPT_0x18
	CPI  R30,LOW(0x4)
	LDI  R26,HIGH(0x4)
	CPC  R31,R26
	BRNE _0xD1
	CALL SUBOPT_0x1A
; 0000 00B4          if(seg==9) printf("AT+CSQ\n\r");      // Pregunta la intensidad de senal
_0xD1:
	CALL SUBOPT_0x18
	CPI  R30,LOW(0x9)
	LDI  R26,HIGH(0x9)
	CPC  R31,R26
	BRNE _0xD2
	__POINTW1FN _0x0,14
	ST   -Y,R31
	ST   -Y,R30
	LDI  R24,0
	CALL _printf
	ADIW R28,2
; 0000 00B5 
; 0000 00B6       if (seg>9)
_0xD2:
	CALL SUBOPT_0x18
	SBIW R30,10
	BRGE PC+3
	JMP _0xD3
; 0000 00B7       {
; 0000 00B8          seg=0; seg1++;
	CALL SUBOPT_0x1B
	CALL SUBOPT_0x1C
	CALL SUBOPT_0x19
; 0000 00B9 
; 0000 00BA          //Envo pra ver antenas, igualar hora y fecha...
; 0000 00BB          // Envio cada 20 segundos
; 0000 00BC          if (seg1%2==0)
	CALL SUBOPT_0x1C
	MOVW R26,R30
	LDI  R30,LOW(2)
	LDI  R31,HIGH(2)
	CALL __MODW21
	SBIW R30,0
	BRNE _0xD4
; 0000 00BD          {
; 0000 00BE             printf("AT$TTNETIP?\n\r");
	__POINTW1FN _0x0,23
	RJMP _0x1A2
; 0000 00BF          }else{
_0xD4:
; 0000 00C0             printf("AT$TTGPSQRY=10,0\n\r");   // Igualar la hora
	__POINTW1FN _0x0,37
_0x1A2:
	ST   -Y,R31
	ST   -Y,R30
	LDI  R24,0
	CALL _printf
	ADIW R28,2
; 0000 00C1          }  //
; 0000 00C2 
; 0000 00C3          if(seg1>5)  // Cambio de minuto
	CALL SUBOPT_0x1C
	SBIW R30,6
	BRGE PC+3
	JMP _0xD6
; 0000 00C4          {
; 0000 00C5             seg1=0; minu++;
	CALL SUBOPT_0x1D
	CALL SUBOPT_0x1E
	CALL SUBOPT_0x19
; 0000 00C6             if(minu>9)
	CALL SUBOPT_0x1E
	SBIW R30,10
	BRGE PC+3
	JMP _0xD7
; 0000 00C7             {
; 0000 00C8                minu=0; min1++;
	CALL SUBOPT_0x1F
	CALL SUBOPT_0x20
	CALL SUBOPT_0x19
; 0000 00C9                if(min1>5)
	CALL SUBOPT_0x20
	SBIW R30,6
	BRGE PC+3
	JMP _0xD8
; 0000 00CA                {
; 0000 00CB                   min1=0; hora++;
	CALL SUBOPT_0x21
	CALL SUBOPT_0x22
	CALL SUBOPT_0x19
; 0000 00CC                   if(hora>9)
	CALL SUBOPT_0x22
	SBIW R30,10
	BRLT _0xD9
; 0000 00CD                   {
; 0000 00CE                      hora=0; hora1++;
	CALL SUBOPT_0x23
	CALL SUBOPT_0x24
	CALL SUBOPT_0x19
; 0000 00CF                      if((hora1==2 && hora==3)&&(min1==5 && minu==9)&&(seg1==5 && seg==9))
	CALL SUBOPT_0x24
	SBIW R30,2
	BRNE _0xDB
	CALL SUBOPT_0x22
	CPI  R30,LOW(0x3)
	LDI  R26,HIGH(0x3)
	CPC  R31,R26
	BREQ _0xDC
_0xDB:
	RJMP _0xDD
_0xDC:
	CALL SUBOPT_0x20
	SBIW R30,5
	BRNE _0xDE
	CALL SUBOPT_0x1E
	CPI  R30,LOW(0x9)
	LDI  R26,HIGH(0x9)
	CPC  R31,R26
	BREQ _0xDF
_0xDE:
	RJMP _0xDD
_0xDF:
	CALL SUBOPT_0x1C
	SBIW R30,5
	BRNE _0xE0
	CALL SUBOPT_0x18
	CPI  R30,LOW(0x9)
	LDI  R26,HIGH(0x9)
	CPC  R31,R26
	BREQ _0xE1
_0xE0:
	RJMP _0xDD
_0xE1:
	RJMP _0xE2
_0xDD:
	RJMP _0xDA
_0xE2:
; 0000 00D0                      {
; 0000 00D1                         hora1=0; hora=0; min1=0; minu=0;seg1=0;seg=0;
	CALL SUBOPT_0x25
	CALL SUBOPT_0x23
	CALL SUBOPT_0x21
	CALL SUBOPT_0x1F
	CALL SUBOPT_0x1D
	CALL SUBOPT_0x1B
; 0000 00D2                      }
; 0000 00D3                   }
_0xDA:
; 0000 00D4                }
_0xD9:
; 0000 00D5             }
_0xD8:
; 0000 00D6          }
_0xD7:
; 0000 00D7       }
_0xD6:
; 0000 00D8    }
_0xD3:
; 0000 00D9 }
_0xD0:
	LD   R30,Y+
	OUT  SREG,R30
	LD   R31,Y+
	LD   R30,Y+
	LD   R27,Y+
	LD   R26,Y+
	LD   R25,Y+
	LD   R24,Y+
	LD   R23,Y+
	LD   R22,Y+
	LD   R15,Y+
	LD   R1,Y+
	LD   R0,Y+
	RETI
;//-------------------------------------------------------------------------------------------------------------------------------------------//
;
;
;\
;//***********************************************************************************************************************************//
;//////////////////////////////////////////////////////////// FUNCIONES ////////////////////////////////////////////////////////////////
;//***********************************************************************************************************************************//
;
;
;
;////////////////// FUNCIN PARA EL SONIDO DEL BUZZER //////////////////
;/** \brief Genera el sonido del buffer
; *
; * El tiempo que suena depende del Macro: DELAY BUZZER
; */
;void buzz()
; 0000 00EA {       //Sonido de Buzzer
_buzz:
; 0000 00EB    buzzer=1; delay_ms( DELAY_BUZZER_MS );
	SBI  0xB,4
	CALL SUBOPT_0x26
; 0000 00EC    buzzer=0; delay_ms( DELAY_BUZZER_MS );
	CBI  0xB,4
	CALL SUBOPT_0x26
; 0000 00ED }
	RET
;//------------------------------------------------------------------------------------------------------------------------//
;
;
;////////////////// FUNCIN PARA CALCULAR NUMERO DE RUTA //////////////////
;/** \brief Transforma el caracter de ruta a un nmero
; *
; * Cambia de A -> 1; B->2 ...  etc, en caso de que el caracter pasado no
; * Corresponda a una letra devolvera -1
; *
; * Solo soporta un carcater, mximo se puede tener 35 rutas.
; */
;int8 calcuar_ruta( char ruta )
; 0000 00FA {
_calcuar_ruta:
; 0000 00FB    int8 num_ruta = ruta - 0x40;
; 0000 00FC 
; 0000 00FD    // Verificar que la letra corresponde a un nmero de ruta
; 0000 00FE    // se puede crecer hasta 5 rutas mas de las definidas
; 0000 00FF    if ( num_ruta > 0 && num_ruta <= TOTAL_RUTAS + 5 )
	ST   -Y,R17
;	ruta -> Y+1
;	num_ruta -> R17
	LDD  R30,Y+1
	LDI  R31,0
	SUBI R30,LOW(64)
	SBCI R31,HIGH(64)
	MOV  R17,R30
	CPI  R17,1
	BRLO _0xE8
	CPI  R17,16
	BRLO _0xE9
_0xE8:
	RJMP _0xE7
_0xE9:
; 0000 0100       return num_ruta;
	MOV  R30,R17
	RJMP _0x20A0002
; 0000 0101    else
_0xE7:
; 0000 0102       return 0; // El caracter no corresponde a una ruta.
	LDI  R30,LOW(0)
; 0000 0103 
; 0000 0104 }
_0x20A0002:
	LDD  R17,Y+0
	ADIW R28,2
	RET
;
;
;///////////////////// FUNCION DEL BOTON 1 (INICIO/FIN DE JORNADA) //////////////////////////
;void boton1()
; 0000 0109 {
_boton1:
; 0000 010A    if( BT1 == 0 && bandera1==0)
	LDI  R26,0
	SBIC 0x0,4
	LDI  R26,1
	CPI  R26,LOW(0x0)
	BRNE _0xEC
	LDI  R30,LOW(0)
	CP   R30,R7
	BREQ _0xED
_0xEC:
	RJMP _0xEB
_0xED:
; 0000 010B    {
; 0000 010C       btn1++;
	LDI  R30,LOW(1)
	LDI  R31,HIGH(1)
	__ADDWRR 13,14,30,31
; 0000 010D       bandera1=1;
	MOV  R7,R30
; 0000 010E       buzz();
	RCALL _buzz
; 0000 010F       aux = 1;
	LDI  R30,LOW(1)
	STS  _aux,R30
; 0000 0110       delay_ms( DELAY_BOTONES_MS );
	CALL SUBOPT_0x27
; 0000 0111       if(btn1 > 1)  // No pasa al caso 2
	CALL SUBOPT_0x28
	BRSH _0xEE
; 0000 0112          btn1 = 0;
	CLR  R13
	CLR  R14
; 0000 0113 
; 0000 0114    }
_0xEE:
; 0000 0115    else if(BT1==1 && bandera1==1){
	RJMP _0xEF
_0xEB:
	SBIS 0x0,4
	RJMP _0xF1
	LDI  R30,LOW(1)
	CP   R30,R7
	BREQ _0xF2
_0xF1:
	RJMP _0xF0
_0xF2:
; 0000 0116       bandera1=0;
	CLR  R7
; 0000 0117    }
; 0000 0118 
; 0000 0119    switch (btn1) {
_0xF0:
_0xEF:
	__GETW1R 13,14
; 0000 011A       case 0:
	SBIW R30,0
	BRNE _0xF6
; 0000 011B          if(aux==1)
	LDS  R26,_aux
	CPI  R26,LOW(0x1)
	BRNE _0xF7
; 0000 011C          {
; 0000 011D             bmp_disp( vacio, 0, 5, 25, 7);
	CALL SUBOPT_0x29
	CALL SUBOPT_0x2A
	CALL SUBOPT_0x2B
; 0000 011E             btn2=0;
	LDI  R30,LOW(0)
	STS  _btn2,R30
	STS  _btn2+1,R30
; 0000 011F             aux=0;
	STS  _aux,R30
; 0000 0120 
; 0000 0121             // Borra un caracter
; 0000 0122             glcd_putchar(' ',76,7,0,1);
	LDI  R30,LOW(32)
	ST   -Y,R30
	LDI  R30,LOW(76)
	LDI  R31,HIGH(76)
	CALL SUBOPT_0x2C
	RCALL _glcd_putchar
; 0000 0123             // Borra una trama de caracteres
; 0000 0124             glcd_puts("      ",44,7,0,1,-1);
	__POINTW1MN _0xF8,0
	CALL SUBOPT_0x2D
	CALL SUBOPT_0x2E
; 0000 0125          }
; 0000 0126          break;
_0xF7:
	RJMP _0xF5
; 0000 0127 
; 0000 0128       case 1:
_0xF6:
	CPI  R30,LOW(0x1)
	LDI  R26,HIGH(0x1)
	CPC  R31,R26
	BRNE _0xF9
; 0000 0129          if(aux==1)
	LDS  R26,_aux
	CPI  R26,LOW(0x1)
	BRNE _0xFA
; 0000 012A          {
; 0000 012B             aux=0;
	LDI  R30,LOW(0)
	STS  _aux,R30
; 0000 012C 
; 0000 012D             // Muestra la RUTA A: primero y por defecto
; 0000 012E             btn2 = 1;
	CALL SUBOPT_0x2F
; 0000 012F 
; 0000 0130             //Muestra el chofer
; 0000 0131             bmp_disp(chofer,0,5,35,7);
	LDI  R30,LOW(_chofer*2)
	LDI  R31,HIGH(_chofer*2)
	CALL SUBOPT_0x30
	CALL SUBOPT_0x2A
	LDI  R30,LOW(35)
	LDI  R31,HIGH(35)
	CALL SUBOPT_0x31
; 0000 0132 
; 0000 0133             // Muestra la ruta
; 0000 0134             glcd_puts("RUTA:",44,7,0,1,-1);
	__POINTW1MN _0xF8,7
	CALL SUBOPT_0x2D
	CALL SUBOPT_0x2E
; 0000 0135          }
; 0000 0136          break;
_0xFA:
; 0000 0137 
; 0000 0138       case 2:
_0xF9:
; 0000 0139       break;
; 0000 013A    };
_0xF5:
; 0000 013B }
	RET

	.DSEG
_0xF8:
	.BYTE 0xD
;//------------------------------------------------------------------------------------------//
;
;
;
;///////////////////////// FUNCION DEL BOTON 2 (ESCOGER RUTA AUMENTAR LETRA) /////////////////////////////////
;
;
;
;void boton2(){
; 0000 0144 void boton2(){

	.CSEG
_boton2:
; 0000 0145 
; 0000 0146    // Si se presiona el boton dos, luego de haber presionado el boton
; 0000 0147    // uno, una vez. Y an no se ha aceptado carrera
; 0000 0148    if(BT2==0 && btn1==1 && bandera2==0 && aceptar == 0)
	LDI  R26,0
	SBIC 0x0,3
	LDI  R26,1
	CPI  R26,LOW(0x0)
	BRNE _0xFD
	CALL SUBOPT_0x28
	BRNE _0xFD
	LDI  R30,LOW(0)
	CP   R30,R10
	BRNE _0xFD
	CP   R30,R11
	BREQ _0xFE
_0xFD:
	RJMP _0xFC
_0xFE:
; 0000 0149    {
; 0000 014A       btn2++;
	LDI  R26,LOW(_btn2)
	LDI  R27,HIGH(_btn2)
	CALL SUBOPT_0x7
	SBIW R30,1
; 0000 014B       buzz();
	RCALL _buzz
; 0000 014C       bandera2 = 1;
	LDI  R30,LOW(1)
	MOV  R10,R30
; 0000 014D       if( btn2 > 12 && btn2 != 15)
	CALL SUBOPT_0x32
	SBIW R26,13
	BRLO _0x100
	CALL SUBOPT_0x32
	SBIW R26,15
	BRNE _0x101
_0x100:
	RJMP _0xFF
_0x101:
; 0000 014E          btn2 = 1;
	CALL SUBOPT_0x2F
; 0000 014F       delay_ms(DELAY_BOTONES_MS);
_0xFF:
	CALL SUBOPT_0x27
; 0000 0150 
; 0000 0151    }
; 0000 0152 
; 0000 0153    // Luego de presionar el boton, puede volver a presionarlo.
; 0000 0154    else if(BT2==1 && bandera2==1)
	RJMP _0x102
_0xFC:
	SBIS 0x0,3
	RJMP _0x104
	LDI  R30,LOW(1)
	CP   R30,R10
	BREQ _0x105
_0x104:
	RJMP _0x103
_0x105:
; 0000 0155    {
; 0000 0156       bandera2=0;
	CLR  R10
; 0000 0157    }
; 0000 0158 
; 0000 0159 
; 0000 015A    // El switch lo hace constantemente, ya que esta en el main y
; 0000 015B    // no depende de ningun IF
; 0000 015C 
; 0000 015D    switch (btn2){
_0x103:
_0x102:
	LDS  R30,_btn2
	LDS  R31,_btn2+1
; 0000 015E       case 1:
	CPI  R30,LOW(0x1)
	LDI  R26,HIGH(0x1)
	CPC  R31,R26
	BRNE _0x109
; 0000 015F         ruta_aux='A';
	LDI  R30,LOW(65)
	RJMP _0x1A3
; 0000 0160 
; 0000 0161         break;
; 0000 0162       case 2:
_0x109:
	CPI  R30,LOW(0x2)
	LDI  R26,HIGH(0x2)
	CPC  R31,R26
	BRNE _0x10A
; 0000 0163         ruta_aux='B';
	LDI  R30,LOW(66)
	RJMP _0x1A3
; 0000 0164 
; 0000 0165       break;
; 0000 0166       case 3:
_0x10A:
	CPI  R30,LOW(0x3)
	LDI  R26,HIGH(0x3)
	CPC  R31,R26
	BRNE _0x10B
; 0000 0167         ruta_aux='C';
	LDI  R30,LOW(67)
	RJMP _0x1A3
; 0000 0168 
; 0000 0169       break;
; 0000 016A       case 4:
_0x10B:
	CPI  R30,LOW(0x4)
	LDI  R26,HIGH(0x4)
	CPC  R31,R26
	BRNE _0x10C
; 0000 016B         ruta_aux='D';
	LDI  R30,LOW(68)
	RJMP _0x1A3
; 0000 016C 
; 0000 016D       break;
; 0000 016E       case 5:
_0x10C:
	CPI  R30,LOW(0x5)
	LDI  R26,HIGH(0x5)
	CPC  R31,R26
	BRNE _0x10D
; 0000 016F         ruta_aux='E';
	LDI  R30,LOW(69)
	RJMP _0x1A3
; 0000 0170 
; 0000 0171       break;
; 0000 0172       case 6:
_0x10D:
	CPI  R30,LOW(0x6)
	LDI  R26,HIGH(0x6)
	CPC  R31,R26
	BRNE _0x10E
; 0000 0173         ruta_aux='F';
	LDI  R30,LOW(70)
	RJMP _0x1A3
; 0000 0174 
; 0000 0175       break;
; 0000 0176       case 7:
_0x10E:
	CPI  R30,LOW(0x7)
	LDI  R26,HIGH(0x7)
	CPC  R31,R26
	BRNE _0x10F
; 0000 0177         ruta_aux='G';
	LDI  R30,LOW(71)
	RJMP _0x1A3
; 0000 0178 
; 0000 0179       break;
; 0000 017A       case 8:
_0x10F:
	CPI  R30,LOW(0x8)
	LDI  R26,HIGH(0x8)
	CPC  R31,R26
	BRNE _0x110
; 0000 017B         ruta_aux='H';
	LDI  R30,LOW(72)
	RJMP _0x1A3
; 0000 017C 
; 0000 017D       break;
; 0000 017E       case 9:
_0x110:
	CPI  R30,LOW(0x9)
	LDI  R26,HIGH(0x9)
	CPC  R31,R26
	BRNE _0x111
; 0000 017F         ruta_aux='I';
	LDI  R30,LOW(73)
	RJMP _0x1A3
; 0000 0180 
; 0000 0181       break;
; 0000 0182       case 10:
_0x111:
	CPI  R30,LOW(0xA)
	LDI  R26,HIGH(0xA)
	CPC  R31,R26
	BRNE _0x112
; 0000 0183         ruta_aux='J';
	LDI  R30,LOW(74)
	RJMP _0x1A3
; 0000 0184 
; 0000 0185       break;
; 0000 0186       case 11:
_0x112:
	CPI  R30,LOW(0xB)
	LDI  R26,HIGH(0xB)
	CPC  R31,R26
	BRNE _0x113
; 0000 0187         ruta_aux='K';
	LDI  R30,LOW(75)
	RJMP _0x1A3
; 0000 0188 
; 0000 0189       break;
; 0000 018A       case 12:
_0x113:
	CPI  R30,LOW(0xC)
	LDI  R26,HIGH(0xC)
	CPC  R31,R26
	BRNE _0x114
; 0000 018B         ruta_aux='L';
	LDI  R30,LOW(76)
	RJMP _0x1A3
; 0000 018C 
; 0000 018D       break;
; 0000 018E       case 15:
_0x114:
	CPI  R30,LOW(0xF)
	LDI  R26,HIGH(0xF)
	CPC  R31,R26
	BRNE _0x108
; 0000 018F         ruta_aux=' ';
	LDI  R30,LOW(32)
_0x1A3:
	MOV  R5,R30
; 0000 0190       break;
; 0000 0191    };
_0x108:
; 0000 0192 
; 0000 0193      //printf("AT$TTDEVID?\n\r")
; 0000 0194 }
	RET
;//----------------------------------------------------------------------------------------//
;
;
;
;/////////////////////// FUNCION DEL BOTON 3 (ESCOGER RUTA DECREMENTAR LETRA) /////////////////////////////////
;void boton3()
; 0000 019B {     //Boton 3
_boton3:
; 0000 019C    if(BT3 == 0 && btn1==1 && bandera3==0 && aceptar==0)
	LDI  R26,0
	SBIC 0x0,2
	LDI  R26,1
	CPI  R26,LOW(0x0)
	BRNE _0x117
	CALL SUBOPT_0x28
	BRNE _0x117
	LDI  R30,LOW(0)
	CP   R30,R9
	BRNE _0x117
	CP   R30,R11
	BREQ _0x118
_0x117:
	RJMP _0x116
_0x118:
; 0000 019D    {
; 0000 019E       btn2--;
	LDI  R26,LOW(_btn2)
	LDI  R27,HIGH(_btn2)
	LD   R30,X+
	LD   R31,X+
	SBIW R30,1
	ST   -X,R31
	ST   -X,R30
	ADIW R30,1
; 0000 019F       buzz();
	RCALL _buzz
; 0000 01A0       bandera3=1;
	LDI  R30,LOW(1)
	MOV  R9,R30
; 0000 01A1       if(btn2<=0 && btn2!=15)
	CALL SUBOPT_0x32
	SBIW R26,0
	BRNE _0x11A
	CALL SUBOPT_0x32
	SBIW R26,15
	BRNE _0x11B
_0x11A:
	RJMP _0x119
_0x11B:
; 0000 01A2          btn2=12;
	LDI  R30,LOW(12)
	LDI  R31,HIGH(12)
	STS  _btn2,R30
	STS  _btn2+1,R31
; 0000 01A3       delay_ms(200);
_0x119:
	CALL SUBOPT_0x27
; 0000 01A4    }
; 0000 01A5    else if(BT3==1 && bandera3==1){
	RJMP _0x11C
_0x116:
	SBIS 0x0,2
	RJMP _0x11E
	LDI  R30,LOW(1)
	CP   R30,R9
	BREQ _0x11F
_0x11E:
	RJMP _0x11D
_0x11F:
; 0000 01A6       bandera3=0;
	CLR  R9
; 0000 01A7    }
; 0000 01A8 }
_0x11D:
_0x11C:
	RET
;//------------------------------------------------------------------------------------------------------//
;
;
;
;//////////////////////// FUNCION DEL BOTON 4 (INICIO/FIN DE RUTA) /////////////////////////////////
;void boton4()
; 0000 01AF {     //Boton 4
_boton4:
; 0000 01B0 
; 0000 01B1 
; 0000 01B2    // Primera presinn del boton 4. Acepta la carrera.
; 0000 01B3    if ( BT4 == 0 && bandera4 == 0 && aceptar==0  )
	LDI  R26,0
	SBIC 0x0,1
	LDI  R26,1
	CPI  R26,LOW(0x0)
	BRNE _0x121
	LDI  R30,LOW(0)
	CP   R30,R12
	BRNE _0x121
	CP   R30,R11
	BREQ _0x122
_0x121:
	RJMP _0x120
_0x122:
; 0000 01B4    {
; 0000 01B5       bandera4++;
	INC  R12
; 0000 01B6       ruta = ruta_aux;
	MOV  R8,R5
; 0000 01B7       aceptar = 1;
	LDI  R30,LOW(1)
	MOV  R11,R30
; 0000 01B8       buzz();
	RCALL _buzz
; 0000 01B9       delay_ms(200);
	CALL SUBOPT_0x27
; 0000 01BA 
; 0000 01BB       // AQUI SE DEBE ENVIAR LA TRAMA CON LA RUTA
; 0000 01BC       // NO SE PUEDE ENVIAR SI NO SE HA ESCOGIDO UNA RUTA
; 0000 01BD       num_ruta = calcuar_ruta( ruta );
	CALL SUBOPT_0x33
; 0000 01BE 
; 0000 01BF       printf("AT$MSGSND=4,\"$$BL%s,%d%d%d%d20%d%d,%d%d%d%d%d%d,R2,%d,%d:XX##\"\r\n",
; 0000 01C0                                  NUM_DISP,
; 0000 01C1                                       dia1,dia,
; 0000 01C2                                       mes1,mes,
; 0000 01C3                                       an1,an,
; 0000 01C4                                           hora1,hora,
; 0000 01C5                                           min1,min,
; 0000 01C6                                           seg1,seg,
; 0000 01C7                                              num_ruta,aceptar  );
	CALL SUBOPT_0x34
	CALL SUBOPT_0x22
	CALL SUBOPT_0x34
	CALL SUBOPT_0x20
	CALL SUBOPT_0x34
	CALL SUBOPT_0x35
	CALL SUBOPT_0x34
	CALL SUBOPT_0x18
	CALL SUBOPT_0x34
	CALL SUBOPT_0x36
; 0000 01C8 
; 0000 01C9 
; 0000 01CA    }
; 0000 01CB 
; 0000 01CC 
; 0000 01CD    //  ?? Porq
; 0000 01CE    // si esque ya se ha presionado el BOTON 3 y se levanta el BOTON 4
; 0000 01CF    else if(BT4 == 1 && bandera3==1)
	RJMP _0x123
_0x120:
	SBIS 0x0,1
	RJMP _0x125
	LDI  R30,LOW(1)
	CP   R30,R9
	BREQ _0x126
_0x125:
	RJMP _0x124
_0x126:
; 0000 01D0    {
; 0000 01D1       bandera4++;
	INC  R12
; 0000 01D2    }
; 0000 01D3 
; 0000 01D4    // La segunda vez que se presiona el boton dos
; 0000 01D5    if ( BT4==0 && aceptar == 1)
_0x124:
_0x123:
	LDI  R26,0
	SBIC 0x0,1
	LDI  R26,1
	CPI  R26,LOW(0x0)
	BRNE _0x128
	LDI  R30,LOW(1)
	CP   R30,R11
	BREQ _0x129
_0x128:
	RJMP _0x127
_0x129:
; 0000 01D6    {
; 0000 01D7       btn2=15;
	LDI  R30,LOW(15)
	LDI  R31,HIGH(15)
	STS  _btn2,R30
	STS  _btn2+1,R31
; 0000 01D8       bandera4++;
	INC  R12
; 0000 01D9       ruta=' ';
	LDI  R30,LOW(32)
	MOV  R8,R30
; 0000 01DA       aceptar=0;
	CLR  R11
; 0000 01DB       buzz();
	RCALL _buzz
; 0000 01DC       delay_ms( DELAY_BOTONES_MS );
	CALL SUBOPT_0x27
; 0000 01DD 
; 0000 01DE       // AQU SE DEBE ENVIAR LA TRAMA CON LA RUTA VACIA (FIN DE RUTA)
; 0000 01DF       num_ruta = calcuar_ruta( ruta );
	CALL SUBOPT_0x33
; 0000 01E0 
; 0000 01E1       printf("AT$MSGSND=4,\"$$BL%s,%d%d%d%d20%d%d,%d%d%d%d%d%d,R2,%d,%d:XX##\"\r\n",
; 0000 01E2                               NUM_DISP,
; 0000 01E3                                    dia1,dia,
; 0000 01E4                                    mes1,mes,
; 0000 01E5                                    an1,an,
; 0000 01E6                                        hora1,hora,
; 0000 01E7                                        min1,min,
; 0000 01E8                                        seg1,seg,
; 0000 01E9                                           num_ruta,aceptar  );
	CALL SUBOPT_0x34
	CALL SUBOPT_0x22
	CALL SUBOPT_0x34
	CALL SUBOPT_0x20
	CALL SUBOPT_0x34
	CALL SUBOPT_0x35
	CALL SUBOPT_0x34
	CALL SUBOPT_0x18
	CALL SUBOPT_0x34
	CALL SUBOPT_0x36
; 0000 01EA 
; 0000 01EB    }
; 0000 01EC 
; 0000 01ED    // si se ha presionado el boton cuatro por tercera vez
; 0000 01EE    else if(BT4==1 && bandera4==1)
	RJMP _0x12A
_0x127:
	SBIS 0x0,1
	RJMP _0x12C
	LDI  R30,LOW(1)
	CP   R30,R12
	BREQ _0x12D
_0x12C:
	RJMP _0x12B
_0x12D:
; 0000 01EF    {
; 0000 01F0       bandera4=0;
	CLR  R12
; 0000 01F1    }
; 0000 01F2 }
_0x12B:
_0x12A:
	RET
;//----------------------------------------------------------------------------------------//
;
;
;
;////////////////////// FUNCION DEL BOTON 5 (ESTADO MECNICO) //////////////////////////////
;void boton5(){     //Boton 5
; 0000 01F8 void boton5(){
; 0000 01F9   btn5++;
; 0000 01FA }
;//----------------------------------------------------------------------------------------//
;
;
;
;////////////////////////////////// DIBUJAR BARRAS DE SEAL GPRS //////////////////////////////////////
;void dibujar_senal(void)
; 0000 0201 {
_dibujar_senal:
; 0000 0202     switch (ind_sen){
	LDS  R30,_ind_sen
	LDS  R31,_ind_sen+1
; 0000 0203     case 1:
	CPI  R30,LOW(0x1)
	LDI  R26,HIGH(0x1)
	CPC  R31,R26
	BRNE _0x131
; 0000 0204     bmp_disp(GSM3,0,0,20,1);
	LDI  R30,LOW(_GSM3*2)
	LDI  R31,HIGH(_GSM3*2)
	RJMP _0x1A4
; 0000 0205     break;
; 0000 0206     case 2:
_0x131:
	CPI  R30,LOW(0x2)
	LDI  R26,HIGH(0x2)
	CPC  R31,R26
	BRNE _0x132
; 0000 0207     bmp_disp(GSM2,0,0,20,1);
	LDI  R30,LOW(_GSM2*2)
	LDI  R31,HIGH(_GSM2*2)
	RJMP _0x1A4
; 0000 0208     break;
; 0000 0209     case 3:
_0x132:
	CPI  R30,LOW(0x3)
	LDI  R26,HIGH(0x3)
	CPC  R31,R26
	BRNE _0x133
; 0000 020A     bmp_disp(GSM1,0,0,20,1);
	LDI  R30,LOW(_GSM1*2)
	LDI  R31,HIGH(_GSM1*2)
	RJMP _0x1A4
; 0000 020B     break;
; 0000 020C     case 4:
_0x133:
	CPI  R30,LOW(0x4)
	LDI  R26,HIGH(0x4)
	CPC  R31,R26
	BRNE _0x130
; 0000 020D     bmp_disp(GSM4,0,0,20,1);
	LDI  R30,LOW(_GSM4*2)
	LDI  R31,HIGH(_GSM4*2)
_0x1A4:
	ST   -Y,R31
	ST   -Y,R30
	CALL SUBOPT_0x2
	CALL SUBOPT_0x2
	LDI  R30,LOW(20)
	LDI  R31,HIGH(20)
	CALL SUBOPT_0x37
; 0000 020E     break;
; 0000 020F     };
_0x130:
; 0000 0210 
; 0000 0211 }
	RET
;//------------------------------------------------------------------------------------------------//
;
;
;
;/////////////////////////////////// FUNCIN PARA OBTENER LA TRAMA DEL GPS SKYPATROLL+ //////////////////////////////////
;void obt(void)
; 0000 0218 {
_obt:
; 0000 0219 
; 0000 021A    int i,j,n=0,n1,n2,n3,n4,ini,coma=0,pos1=0,pos2=0,pos3=0,barras;
; 0000 021B 
; 0000 021C    for (i=0; i<RX_BUFFER_SIZE0 ;i++)
	SBIW R28,20
	LDI  R30,LOW(0)
	STD  Y+2,R30
	STD  Y+3,R30
	STD  Y+4,R30
	STD  Y+5,R30
	STD  Y+6,R30
	STD  Y+7,R30
	STD  Y+8,R30
	STD  Y+9,R30
	CALL __SAVELOCR6
;	i -> R16,R17
;	j -> R18,R19
;	n -> R20,R21
;	n1 -> Y+24
;	n2 -> Y+22
;	n3 -> Y+20
;	n4 -> Y+18
;	ini -> Y+16
;	coma -> Y+14
;	pos1 -> Y+12
;	pos2 -> Y+10
;	pos3 -> Y+8
;	barras -> Y+6
	__GETWRN 20,21,0
	__GETWRN 16,17,0
_0x136:
	__CPWRN 16,17,200
	BRLT PC+3
	JMP _0x137
; 0000 021D    {
; 0000 021E 
; 0000 021F       //+CSQ:
; 0000 0220       if ( rx_b0[i+0]== '+' &&    //43d
; 0000 0221             rx_b0[i+1]== 'C' &&     //67d
; 0000 0222              rx_b0[i+2]== 'S' &&    //83d
; 0000 0223               rx_b0[i+3]== 'Q' &&   //81d
; 0000 0224                rx_b0[i+4]== ':')    //58d
	CALL SUBOPT_0x38
	CPI  R26,LOW(0x2B)
	BRNE _0x139
	CALL SUBOPT_0x39
	CPI  R26,LOW(0x43)
	BRNE _0x139
	MOVW R30,R16
	__ADDW1MN _rx_b0,2
	LD   R26,Z
	CPI  R26,LOW(0x53)
	BRNE _0x139
	CALL SUBOPT_0x3A
	CPI  R26,LOW(0x51)
	BRNE _0x139
	CALL SUBOPT_0x3B
	CPI  R26,LOW(0x3A)
	BREQ _0x13A
_0x139:
	RJMP _0x138
_0x13A:
; 0000 0225       {
; 0000 0226         // Valor decimal de la intensidad de la seal
; 0000 0227         barras = ((rx_b0[i+6]-48)*10)+(rx_b0[i+7]-48);
	MOVW R30,R16
	CALL SUBOPT_0x3C
	LDI  R26,LOW(10)
	LDI  R27,HIGH(10)
	CALL __MULW12
	MOVW R26,R30
	MOVW R30,R16
	CALL SUBOPT_0x3D
	ADD  R30,R26
	ADC  R31,R27
	STD  Y+6,R30
	STD  Y+6+1,R31
; 0000 0228 
; 0000 0229         // Dibuja las barras en la panalla de acuerdo a la intensidad
; 0000 022A         // de la seal
; 0000 022B         if( barras > 10 && barras < 15 ){
	LDD  R26,Y+6
	LDD  R27,Y+6+1
	SBIW R26,11
	BRLT _0x13C
	LDD  R26,Y+6
	LDD  R27,Y+6+1
	SBIW R26,15
	BRLT _0x13D
_0x13C:
	RJMP _0x13B
_0x13D:
; 0000 022C         ind_sen=1;
	LDI  R30,LOW(1)
	LDI  R31,HIGH(1)
	CALL SUBOPT_0x3E
; 0000 022D         }
; 0000 022E 
; 0000 022F         else if( barras >= 15 && barras < 18){
	RJMP _0x13E
_0x13B:
	LDD  R26,Y+6
	LDD  R27,Y+6+1
	SBIW R26,15
	BRLT _0x140
	LDD  R26,Y+6
	LDD  R27,Y+6+1
	SBIW R26,18
	BRLT _0x141
_0x140:
	RJMP _0x13F
_0x141:
; 0000 0230         ind_sen=2;
	LDI  R30,LOW(2)
	LDI  R31,HIGH(2)
	CALL SUBOPT_0x3E
; 0000 0231         }
; 0000 0232 
; 0000 0233         else if( barras >= 18 && barras < 31){
	RJMP _0x142
_0x13F:
	LDD  R26,Y+6
	LDD  R27,Y+6+1
	SBIW R26,18
	BRLT _0x144
	LDD  R26,Y+6
	LDD  R27,Y+6+1
	SBIW R26,31
	BRLT _0x145
_0x144:
	RJMP _0x143
_0x145:
; 0000 0234         ind_sen=3;
	LDI  R30,LOW(3)
	LDI  R31,HIGH(3)
	CALL SUBOPT_0x3E
; 0000 0235         }
; 0000 0236 
; 0000 0237         else if( barras > 31 && barras < 50){
	RJMP _0x146
_0x143:
	LDD  R26,Y+6
	LDD  R27,Y+6+1
	SBIW R26,32
	BRLT _0x148
	LDD  R26,Y+6
	LDD  R27,Y+6+1
	SBIW R26,50
	BRLT _0x149
_0x148:
	RJMP _0x147
_0x149:
; 0000 0238         ind_sen=4;
	LDI  R30,LOW(4)
	LDI  R31,HIGH(4)
	CALL SUBOPT_0x3E
; 0000 0239         }
; 0000 023A 
; 0000 023B         // En caso de que el valor en barras
; 0000 023C         // no sea ninguno de los anteriores, es posible
; 0000 023D         // que la trama recibida no sea valida.
; 0000 023E         else{   }
_0x147:
_0x146:
_0x142:
_0x13E:
; 0000 023F 
; 0000 0240       }
; 0000 0241 
; 0000 0242 
; 0000 0243           //________________________
; 0000 0244      //PARA PUNTO DE CONTROL:
; 0000 0245       //por ahora detecto el encabezado "BUS" para tener de referencia en las posiciones del vector
; 0000 0246       if ( rx_b0[i+0]== 'B' &&
_0x138:
; 0000 0247             rx_b0[i+1]== 'U' &&
; 0000 0248              rx_b0[i+2]== 'S')
	CALL SUBOPT_0x38
	CPI  R26,LOW(0x42)
	BRNE _0x14C
	CALL SUBOPT_0x39
	CPI  R26,LOW(0x55)
	BRNE _0x14C
	CALL SUBOPT_0x3F
	CPI  R26,LOW(0x53)
	BREQ _0x14D
_0x14C:
	RJMP _0x14B
_0x14D:
; 0000 0249       {
; 0000 024A         // Datos de punto de control, en cada posicin del vector guardo una letra, luego hay que procesar para obtener el numero correcto.
; 0000 024B         punto[3] = rx_b0[i+19];
	MOVW R30,R16
	__ADDW1MN _rx_b0,19
	LD   R30,Z
	__PUTB1MN _punto,3
; 0000 024C         punto[2] = rx_b0[i+18];
	MOVW R30,R16
	__ADDW1MN _rx_b0,18
	LD   R30,Z
	__PUTB1MN _punto,2
; 0000 024D         punto[1] = rx_b0[i+17];
	MOVW R30,R16
	__ADDW1MN _rx_b0,17
	LD   R30,Z
	__PUTB1MN _punto,1
; 0000 024E         punto[0] = rx_b0[i+16];
	MOVW R30,R16
	__ADDW1MN _rx_b0,16
	LD   R30,Z
	STS  _punto,R30
; 0000 024F 
; 0000 0250       //El 18 es el numero de evento, lo identifico para determinar si es geocerca, si esta bien se pone en 1 la variable "pt"
; 0000 0251         if( rx_b0[i+22]=='1' &&  rx_b0[i+23]=='8'){
	MOVW R30,R16
	__ADDW1MN _rx_b0,22
	LD   R26,Z
	CPI  R26,LOW(0x31)
	BRNE _0x14F
	MOVW R30,R16
	__ADDW1MN _rx_b0,23
	LD   R26,Z
	CPI  R26,LOW(0x38)
	BREQ _0x150
_0x14F:
	RJMP _0x14E
_0x150:
; 0000 0252         pt = 1;
	LDI  R30,LOW(1)
	STS  _pt,R30
; 0000 0253          }
; 0000 0254      }
_0x14E:
; 0000 0255 
; 0000 0256 
; 0000 0257       //NETIP
; 0000 0258       if ( rx_b0[i+0]== 'N' &&
_0x14B:
; 0000 0259             rx_b0[i+1]== 'E' &&
; 0000 025A              rx_b0[i+2]== 'T' &&
; 0000 025B               rx_b0[i+3]== 'I' &&
; 0000 025C                rx_b0[i+4]== 'P')
	CALL SUBOPT_0x38
	CPI  R26,LOW(0x4E)
	BRNE _0x152
	CALL SUBOPT_0x39
	CPI  R26,LOW(0x45)
	BRNE _0x152
	CALL SUBOPT_0x3F
	CPI  R26,LOW(0x54)
	BRNE _0x152
	CALL SUBOPT_0x3A
	CPI  R26,LOW(0x49)
	BRNE _0x152
	CALL SUBOPT_0x3B
	CPI  R26,LOW(0x50)
	BREQ _0x153
_0x152:
	RJMP _0x151
_0x153:
; 0000 025D       {
; 0000 025E          ini = i + 4;
	CALL SUBOPT_0x40
; 0000 025F 
; 0000 0260          for (n=0; n<201; n++)
	__GETWRN 20,21,0
_0x155:
	__CPWRN 20,21,201
	BRGE _0x156
; 0000 0261          {
; 0000 0262             // Busca el caracter ':'
; 0000 0263             if(rx_b0[ ini + n + 1 ] == ':' )
	CALL SUBOPT_0x41
	BRNE _0x157
; 0000 0264             {
; 0000 0265                coma++;
	CALL SUBOPT_0x42
; 0000 0266                if(coma == 1) pos1 = n + ini + 1; // Guarda la posicion de la primera trama
	BRNE _0x158
	CALL SUBOPT_0x43
; 0000 0267             }
_0x158:
; 0000 0268          }
_0x157:
	__ADDWRN 20,21,1
	RJMP _0x155
_0x156:
; 0000 0269 
; 0000 026A          // Verifica si despues del primer ':' Hay comillas
; 0000 026B          if( rx_b0[ pos1 + 2] == 34 )
	LDD  R30,Y+12
	LDD  R31,Y+12+1
	__ADDW1MN _rx_b0,2
	LD   R26,Z
	CPI  R26,LOW(0x22)
	BRNE _0x159
; 0000 026C          {
; 0000 026D             if( (rx_b0[pos1+3] - 48) == 0 &&
; 0000 026E                 (rx_b0[pos1+4] - 48) == 0 &&
; 0000 026F                 (rx_b0[pos1+5] - 48) == 0 &&
; 0000 0270                 (rx_b0[pos1+7] - 48) == 0 &&
; 0000 0271                 (rx_b0[pos1+8] - 48) == 0 &&
; 0000 0272                 (rx_b0[pos1+9] - 48) == 0)
	CALL SUBOPT_0x44
	CALL SUBOPT_0x45
	BRNE _0x15B
	CALL SUBOPT_0x46
	CALL SUBOPT_0x45
	BRNE _0x15B
	CALL SUBOPT_0x47
	CALL SUBOPT_0x45
	BRNE _0x15B
	LDD  R30,Y+12
	LDD  R31,Y+12+1
	CALL SUBOPT_0x3D
	BRNE _0x15B
	LDD  R30,Y+12
	LDD  R31,Y+12+1
	__ADDW1MN _rx_b0,8
	CALL SUBOPT_0x45
	BRNE _0x15B
	LDD  R30,Y+12
	LDD  R31,Y+12+1
	__ADDW1MN _rx_b0,9
	CALL SUBOPT_0x45
	BREQ _0x15C
_0x15B:
	RJMP _0x15A
_0x15C:
; 0000 0273             {
; 0000 0274                gsm=0;   // Sin seal GSM
	LDI  R30,LOW(0)
	STS  _gsm,R30
	STS  _gsm+1,R30
; 0000 0275 
; 0000 0276             }else
	RJMP _0x15D
_0x15A:
; 0000 0277                gsm=1;
	LDI  R30,LOW(1)
	LDI  R31,HIGH(1)
	STS  _gsm,R30
	STS  _gsm+1,R31
; 0000 0278          }
_0x15D:
; 0000 0279       }
_0x159:
; 0000 027A 
; 0000 027B       //DEVID
; 0000 027C       if ( rx_b0[i+0] == 'D' &&
_0x151:
; 0000 027D             rx_b0[i+1] == 'E' &&
; 0000 027E              rx_b0[i+2] == 'V' &&
; 0000 027F               rx_b0[i+3] == 'I' &&
; 0000 0280                rx_b0[i+4] == 'D')
	CALL SUBOPT_0x38
	CPI  R26,LOW(0x44)
	BRNE _0x15F
	CALL SUBOPT_0x39
	CPI  R26,LOW(0x45)
	BRNE _0x15F
	CALL SUBOPT_0x3F
	CPI  R26,LOW(0x56)
	BRNE _0x15F
	CALL SUBOPT_0x3A
	CPI  R26,LOW(0x49)
	BRNE _0x15F
	CALL SUBOPT_0x3B
	CPI  R26,LOW(0x44)
	BREQ _0x160
_0x15F:
	RJMP _0x15E
_0x160:
; 0000 0281       {
; 0000 0282          ini = i+4;
	CALL SUBOPT_0x40
; 0000 0283 
; 0000 0284          // Limpia las lineas 2,3,4,5
; 0000 0285          glcd_clrln(2);
	CALL SUBOPT_0x48
; 0000 0286          glcd_clrln(3);
; 0000 0287          glcd_clrln(4);
; 0000 0288          glcd_clrln(5);
; 0000 0289 
; 0000 028A          for (n=0;n<201;n++)
	__GETWRN 20,21,0
_0x162:
	__CPWRN 20,21,201
	BRGE _0x163
; 0000 028B          {
; 0000 028C             if( rx_b0[ini+n+1] == ':')
	CALL SUBOPT_0x41
	BRNE _0x164
; 0000 028D             {
; 0000 028E                coma++;
	CALL SUBOPT_0x42
; 0000 028F                if(coma==1) pos1 = n+ini+1;
	BRNE _0x165
	CALL SUBOPT_0x43
; 0000 0290             }
_0x165:
; 0000 0291          }
_0x164:
	__ADDWRN 20,21,1
	RJMP _0x162
_0x163:
; 0000 0292 
; 0000 0293          //Comprobar nombre
; 0000 0294          if(rx_b0[pos1+1]==34)
	CALL SUBOPT_0x49
	LD   R26,Z
	CPI  R26,LOW(0x22)
	BRNE _0x166
; 0000 0295          {
; 0000 0296             if( rx_b0[pos1+2] == NUM_DISP[0] &&
; 0000 0297                 rx_b0[pos1+3] == NUM_DISP[1] &&
; 0000 0298                 rx_b0[pos1+4] == NUM_DISP[2] &&
; 0000 0299                 rx_b0[pos1+5] == NUM_DISP[3] )
	LDD  R30,Y+12
	LDD  R31,Y+12+1
	__ADDW1MN _rx_b0,2
	LD   R26,Z
	LDS  R30,_NUM_DISP
	CP   R30,R26
	BRNE _0x168
	CALL SUBOPT_0x44
	LD   R26,Z
	__GETB1MN _NUM_DISP,1
	CP   R30,R26
	BRNE _0x168
	CALL SUBOPT_0x46
	LD   R26,Z
	__GETB1MN _NUM_DISP,2
	CP   R30,R26
	BRNE _0x168
	CALL SUBOPT_0x47
	LD   R26,Z
	__GETB1MN _NUM_DISP,3
	CP   R30,R26
	BREQ _0x169
_0x168:
	RJMP _0x167
_0x169:
; 0000 029A             {
; 0000 029B 
; 0000 029C                act=1;  // PANTALLA Y EQUIPO CORRECTA !!!
	CALL SUBOPT_0x4A
; 0000 029D             }else{
	RJMP _0x16A
_0x167:
; 0000 029E 
; 0000 029F                //  ?? Porq volver a limpiar
; 0000 02A0                glcd_clrln(2);
	CALL SUBOPT_0x48
; 0000 02A1                glcd_clrln(3);
; 0000 02A2                glcd_clrln(4);
; 0000 02A3                glcd_clrln(5);
; 0000 02A4 
; 0000 02A5                act=0;  // PANTALLA INCORRECTA !!!
	LDI  R30,LOW(0)
	STS  _act_G000,R30
	STS  _act_G000+1,R30
; 0000 02A6             }
_0x16A:
; 0000 02A7 
; 0000 02A8          }
; 0000 02A9       }
_0x166:
; 0000 02AA 
; 0000 02AB       //Encabezado: GPRMC para igualar el reloj desde trama GPS
; 0000 02AC       if ( rx_b0[i+0] == 'G' &&
_0x15E:
; 0000 02AD             rx_b0[i+1] == 'P' &&
; 0000 02AE              rx_b0[i+2] == 'R' &&
; 0000 02AF               rx_b0[i+3] == 'M' &&
; 0000 02B0                rx_b0[i+4] == 'C')
	CALL SUBOPT_0x38
	CPI  R26,LOW(0x47)
	BRNE _0x16C
	CALL SUBOPT_0x39
	CPI  R26,LOW(0x50)
	BRNE _0x16C
	CALL SUBOPT_0x3F
	CPI  R26,LOW(0x52)
	BRNE _0x16C
	CALL SUBOPT_0x3A
	CPI  R26,LOW(0x4D)
	BRNE _0x16C
	CALL SUBOPT_0x3B
	CPI  R26,LOW(0x43)
	BREQ _0x16D
_0x16C:
	RJMP _0x16B
_0x16D:
; 0000 02B1       {
; 0000 02B2 
; 0000 02B3          ini=i+4;
	CALL SUBOPT_0x40
; 0000 02B4          for (n=0;n<201;n++)
	__GETWRN 20,21,0
_0x16F:
	__CPWRN 20,21,201
	BRGE _0x170
; 0000 02B5          {
; 0000 02B6             if(rx_b0[ini+n+1]==44)
	MOVW R30,R20
	LDD  R26,Y+16
	LDD  R27,Y+16+1
	ADD  R30,R26
	ADC  R31,R27
	__ADDW1MN _rx_b0,1
	LD   R26,Z
	CPI  R26,LOW(0x2C)
	BRNE _0x171
; 0000 02B7             {
; 0000 02B8                coma++;
	CALL SUBOPT_0x42
; 0000 02B9                if(coma==1) pos1=n+ini+1;
	BRNE _0x172
	CALL SUBOPT_0x43
; 0000 02BA                if(coma==2) pos2=n+ini+1;
_0x172:
	LDD  R26,Y+14
	LDD  R27,Y+14+1
	SBIW R26,2
	BRNE _0x173
	LDD  R30,Y+16
	LDD  R31,Y+16+1
	ADD  R30,R20
	ADC  R31,R21
	ADIW R30,1
	STD  Y+10,R30
	STD  Y+10+1,R31
; 0000 02BB                if(coma==9) pos3=n+ini+1;
_0x173:
	LDD  R26,Y+14
	LDD  R27,Y+14+1
	SBIW R26,9
	BRNE _0x174
	LDD  R30,Y+16
	LDD  R31,Y+16+1
	ADD  R30,R20
	ADC  R31,R21
	ADIW R30,1
	STD  Y+8,R30
	STD  Y+8+1,R31
; 0000 02BC             }
_0x174:
; 0000 02BD          }
_0x171:
	__ADDWRN 20,21,1
	RJMP _0x16F
_0x170:
; 0000 02BE 
; 0000 02BF          glcd_clrln(3);
	LDI  R30,LOW(3)
	ST   -Y,R30
	RCALL _glcd_clrln
; 0000 02C0          glcd_clrln(4);
	LDI  R30,LOW(4)
	ST   -Y,R30
	RCALL _glcd_clrln
; 0000 02C1          glcd_clrln(5);
	LDI  R30,LOW(5)
	ST   -Y,R30
	RCALL _glcd_clrln
; 0000 02C2 
; 0000 02C3 
; 0000 02C4          // Comprueba que las comas no esten seguidas
; 0000 02C5          // en caso de no haber seal gps.
; 0000 02C6          if( (rx_b0[ pos1+1 ]-48)>= 0 &&
; 0000 02C7              (rx_b0[ pos1+1 ]-48)< 10 &&
; 0000 02C8               pos2 != (pos1 +1)
; 0000 02C9            )
	CALL SUBOPT_0x49
	CALL SUBOPT_0x45
	TST  R31
	BRMI _0x176
	SBIW R30,10
	BRGE _0x176
	LDD  R30,Y+12
	LDD  R31,Y+12+1
	ADIW R30,1
	LDD  R26,Y+10
	LDD  R27,Y+10+1
	CP   R30,R26
	CPC  R31,R27
	BRNE _0x177
_0x176:
	RJMP _0x175
_0x177:
; 0000 02CA          {
; 0000 02CB 
; 0000 02CC             seg  =rx_b0[pos1 + 6 ]-48;
	LDD  R30,Y+12
	LDD  R31,Y+12+1
	CALL SUBOPT_0x3C
	LDI  R26,LOW(_seg)
	LDI  R27,HIGH(_seg)
	CALL __EEPROMWRW
; 0000 02CD             seg1 =rx_b0[pos1 + 5 ]-48;
	CALL SUBOPT_0x47
	CALL SUBOPT_0x45
	LDI  R26,LOW(_seg1)
	LDI  R27,HIGH(_seg1)
	CALL __EEPROMWRW
; 0000 02CE             minu =rx_b0[pos1 + 4 ]-48;
	CALL SUBOPT_0x46
	CALL SUBOPT_0x45
	LDI  R26,LOW(_minu)
	LDI  R27,HIGH(_minu)
	CALL __EEPROMWRW
; 0000 02CF             min1 =rx_b0[pos1 + 3 ]-48;
	CALL SUBOPT_0x44
	CALL SUBOPT_0x45
	LDI  R26,LOW(_min1)
	LDI  R27,HIGH(_min1)
	CALL __EEPROMWRW
; 0000 02D0             n2   =rx_b0[pos1 + 2 ]-48;
	LDD  R30,Y+12
	LDD  R31,Y+12+1
	__ADDW1MN _rx_b0,2
	CALL SUBOPT_0x45
	STD  Y+22,R30
	STD  Y+22+1,R31
; 0000 02D1             n1   =rx_b0[pos1 + 1 ]-48;
	CALL SUBOPT_0x49
	CALL SUBOPT_0x45
	STD  Y+24,R30
	STD  Y+24+1,R31
; 0000 02D2 
; 0000 02D3             n3 = ( n1*10 ) + n2;   // Hora total suma unidades y decenas
	LDI  R26,LOW(10)
	LDI  R27,HIGH(10)
	CALL __MULW12
	LDD  R26,Y+22
	LDD  R27,Y+22+1
	ADD  R30,R26
	ADC  R31,R27
	STD  Y+20,R30
	STD  Y+20+1,R31
; 0000 02D4             n4 = n3 - 5;  // Zona horaria
	SBIW R30,5
	STD  Y+18,R30
	STD  Y+18+1,R31
; 0000 02D5 
; 0000 02D6             if( n4 < 0 )
	LDD  R26,Y+19
	TST  R26
	BRPL _0x178
; 0000 02D7             {
; 0000 02D8                n4    = n4 + 24;
	ADIW R30,24
	STD  Y+18,R30
	STD  Y+18+1,R31
; 0000 02D9                hora  = n4 % 10;
	CALL SUBOPT_0x4B
	CALL SUBOPT_0x4C
; 0000 02DA                hora1 = n4 / 10;
	CALL SUBOPT_0x4D
; 0000 02DB             }
; 0000 02DC 
; 0000 02DD             hora = n4 % 10;
_0x178:
	CALL SUBOPT_0x4B
	CALL SUBOPT_0x4C
; 0000 02DE             hora1= n4 / 10;
	CALL SUBOPT_0x4D
; 0000 02DF 
; 0000 02E0          }
; 0000 02E1 
; 0000 02E2          gps = rx_b0 [ pos2 + 1 ];
_0x175:
	LDD  R30,Y+10
	LDD  R31,Y+10+1
	__ADDW1MN _rx_b0,1
	LD   R30,Z
	LDI  R31,0
	STS  _gps,R30
	STS  _gps+1,R31
; 0000 02E3          printf( "%c", gps);
	__POINTW1FN _0x0,134
	ST   -Y,R31
	ST   -Y,R30
	LDS  R30,_gps
	LDS  R31,_gps+1
	CALL SUBOPT_0x34
	LDI  R24,4
	CALL _printf
	ADIW R28,6
; 0000 02E4 
; 0000 02E5          //Obtener Hora y da
; 0000 02E6          if( (rx_b0[pos3+1]-48) >= 0 &&
; 0000 02E7              (rx_b0[pos3+1]-48) < 10 )
	CALL SUBOPT_0x4E
	TST  R31
	BRMI _0x17A
	SBIW R30,10
	BRLT _0x17B
_0x17A:
	RJMP _0x179
_0x17B:
; 0000 02E8          {
; 0000 02E9 
; 0000 02EA             dia1 = rx_b0[pos3+1]-48;
	CALL SUBOPT_0x4E
	LDI  R26,LOW(_dia1)
	LDI  R27,HIGH(_dia1)
	CALL SUBOPT_0x4F
; 0000 02EB             dia  = rx_b0[pos3+2]-48;
	__ADDW1MN _rx_b0,2
	CALL SUBOPT_0x45
	LDI  R26,LOW(_dia)
	LDI  R27,HIGH(_dia)
	CALL SUBOPT_0x4F
; 0000 02EC             mes1 = rx_b0[pos3+3]-48;
	__ADDW1MN _rx_b0,3
	CALL SUBOPT_0x45
	LDI  R26,LOW(_mes1)
	LDI  R27,HIGH(_mes1)
	CALL SUBOPT_0x4F
; 0000 02ED             mes  = rx_b0[pos3+4]-48;
	__ADDW1MN _rx_b0,4
	CALL SUBOPT_0x45
	LDI  R26,LOW(_mes)
	LDI  R27,HIGH(_mes)
	CALL SUBOPT_0x4F
; 0000 02EE             an1  = rx_b0[pos3+5]-48;
	__ADDW1MN _rx_b0,5
	CALL SUBOPT_0x45
	LDI  R26,LOW(_an1)
	LDI  R27,HIGH(_an1)
	CALL SUBOPT_0x4F
; 0000 02EF             an   = rx_b0[pos3+6]-48;
	CALL SUBOPT_0x3C
	LDI  R26,LOW(_an)
	LDI  R27,HIGH(_an)
	CALL __EEPROMWRW
; 0000 02F0 
; 0000 02F1             if( n4 > 18)
	LDD  R26,Y+18
	LDD  R27,Y+18+1
	SBIW R26,19
	BRLT _0x17C
; 0000 02F2                dia = dia-1;  // Por la zona horaria de EC-5GTM
	CALL SUBOPT_0x50
	SBIW R30,1
	LDI  R26,LOW(_dia)
	LDI  R27,HIGH(_dia)
	CALL __EEPROMWRW
; 0000 02F3 
; 0000 02F4          }else{
_0x17C:
	RJMP _0x17D
_0x179:
; 0000 02F5 
; 0000 02F6             // ??
; 0000 02F7             an1  = an1;
	CALL SUBOPT_0x51
	LDI  R26,LOW(_an1)
	LDI  R27,HIGH(_an1)
	CALL __EEPROMWRW
; 0000 02F8             an   = an;
	CALL SUBOPT_0x52
	LDI  R26,LOW(_an)
	LDI  R27,HIGH(_an)
	CALL __EEPROMWRW
; 0000 02F9             mes1 = mes1;
	CALL SUBOPT_0x53
	LDI  R26,LOW(_mes1)
	LDI  R27,HIGH(_mes1)
	CALL __EEPROMWRW
; 0000 02FA             mes  = mes;
	CALL SUBOPT_0x54
	LDI  R26,LOW(_mes)
	LDI  R27,HIGH(_mes)
	CALL __EEPROMWRW
; 0000 02FB             dia1 = dia1;
	CALL SUBOPT_0x55
	LDI  R26,LOW(_dia1)
	LDI  R27,HIGH(_dia1)
	CALL __EEPROMWRW
; 0000 02FC             dia  = dia;
	CALL SUBOPT_0x50
	LDI  R26,LOW(_dia)
	LDI  R27,HIGH(_dia)
	CALL __EEPROMWRW
; 0000 02FD          }
_0x17D:
; 0000 02FE       }
; 0000 02FF    }
_0x16B:
	__ADDWRN 16,17,1
	RJMP _0x136
_0x137:
; 0000 0300 
; 0000 0301    rx_counter0  = 0;
	CLR  R6
; 0000 0302    rx_wr_index0 = 0;
	CLR  R4
; 0000 0303 
; 0000 0304    BIT_UART=1;
	SBI  0x1E,1
; 0000 0305 
; 0000 0306    for (j=0;j<201;j++)
	__GETWRN 18,19,0
_0x181:
	__CPWRN 18,19,201
	BRGE _0x182
; 0000 0307    {
; 0000 0308       rx_b0[j]=0;
	LDI  R26,LOW(_rx_b0)
	LDI  R27,HIGH(_rx_b0)
	ADD  R26,R18
	ADC  R27,R19
	LDI  R30,LOW(0)
	ST   X,R30
; 0000 0309    };
	__ADDWRN 18,19,1
	RJMP _0x181
_0x182:
; 0000 030A }
	CALL __LOADLOCR6
	ADIW R28,26
	RET
;
;//-------------------------------------------------------------------------------------------------------------------//
;
;
;
;
;/////////////////////////////////////////////////////////////////////////////////////////////////////////////////////
;//******************************************** PROGRAMA PRINCIPAL *************************************************//
;/////////////////////////////////////////////////////////////////////////////////////////////////////////////////////
;void main(void)
; 0000 0315 {
_main:
; 0000 0316    #pragma optsize-
; 0000 0317    CLKPR=0x80;
	LDI  R30,LOW(128)
	STS  97,R30
; 0000 0318    CLKPR=0x00;
	LDI  R30,LOW(0)
	STS  97,R30
; 0000 0319    #ifdef _OPTIMIZE_SIZE_
; 0000 031A       #pragma optsize+
; 0000 031B    #endif
; 0000 031C 
; 0000 031D    DATADDR = 0xff;
	LDI  R30,LOW(255)
	OUT  0x7,R30
; 0000 031E 
; 0000 031F    PORTA=0xFF;
	OUT  0x2,R30
; 0000 0320    DDRA=0xF0;
	LDI  R30,LOW(240)
	OUT  0x1,R30
; 0000 0321 
; 0000 0322    PORTB=0x00;
	LDI  R30,LOW(0)
	OUT  0x5,R30
; 0000 0323    DDRB=0xFF;
	LDI  R30,LOW(255)
	OUT  0x4,R30
; 0000 0324 
; 0000 0325    PORTD=0x00;
	LDI  R30,LOW(0)
	OUT  0xB,R30
; 0000 0326    DDRD=0b11110000;
	LDI  R30,LOW(240)
	OUT  0xA,R30
; 0000 0327 
; 0000 0328    // USART0 initialization
; 0000 0329    // Communication Parameters: 8 Data, 1 Stop, No Parity
; 0000 032A    // USART0 Receiver: On
; 0000 032B    // USART0 Transmitter: On
; 0000 032C    // USART0 Mode: Asynchronous
; 0000 032D    //// USART0 Baud Rate: 9600 11.0592 MHz
; 0000 032E    //UCSR0A=0x00;
; 0000 032F    //UCSR0B=0x98;
; 0000 0330    //UCSR0C=0x06;
; 0000 0331    //UBRR0H=0x00;
; 0000 0332    //UBRR0L=0x47;
; 0000 0333 
; 0000 0334    // USART0 Baud Rate: 115200
; 0000 0335    UCSR0A=0x00;
	LDI  R30,LOW(0)
	STS  192,R30
; 0000 0336    UCSR0B=0x98;
	LDI  R30,LOW(152)
	STS  193,R30
; 0000 0337    UCSR0C=0x06;
	LDI  R30,LOW(6)
	STS  194,R30
; 0000 0338    UBRR0H=0x00;
	LDI  R30,LOW(0)
	STS  197,R30
; 0000 0339    UBRR0L=0x05;
	LDI  R30,LOW(5)
	STS  196,R30
; 0000 033A 
; 0000 033B    //USART0 Baud Rate: 9600 8 MHz
; 0000 033C    //UCSR0A=0x00;
; 0000 033D    //UCSR0B=0x18;
; 0000 033E    //UCSR0C=0x06;
; 0000 033F    //UBRR0H=0x00;
; 0000 0340    //UBRR0L=0x33;
; 0000 0341 
; 0000 0342    // Timer/Counter 0 initialization
; 0000 0343    // Clock source: System Clock
; 0000 0344    // Clock value: 10,800 kHz
; 0000 0345    // Mode: Normal top=0xFF
; 0000 0346    // OC0A output: Disconnected
; 0000 0347    // OC0B output: Disconnected
; 0000 0348    TCCR0A=0x00;
	LDI  R30,LOW(0)
	OUT  0x24,R30
; 0000 0349    TCCR0B=0x05;
	LDI  R30,LOW(5)
	OUT  0x25,R30
; 0000 034A    TCNT0=0x00;
	LDI  R30,LOW(0)
	OUT  0x26,R30
; 0000 034B    OCR0A=0x00;
	OUT  0x27,R30
; 0000 034C    OCR0B=0x00;
	OUT  0x28,R30
; 0000 034D 
; 0000 034E    // Timer/Counter 0 Interrupt(s) initialization
; 0000 034F    TIMSK0=0x01;
	LDI  R30,LOW(1)
	STS  110,R30
; 0000 0350 
; 0000 0351    // Inicilizar GLCD
; 0000 0352    glcd_on();
	CALL _glcd_on
; 0000 0353    delay_ms(INIT_DELAY_GLCD_MS);
	LDI  R30,LOW(10)
	LDI  R31,HIGH(10)
	CALL SUBOPT_0x56
; 0000 0354    glcd_clear();
; 0000 0355 
; 0000 0356    buzz();
	RCALL _buzz
; 0000 0357    buzz();
	RCALL _buzz
; 0000 0358 
; 0000 0359    // Dibuja KRADAC
; 0000 035A    bmp_disp(arr,0,0,127,7);
	LDI  R30,LOW(_arr*2)
	LDI  R31,HIGH(_arr*2)
	CALL SUBOPT_0x30
	CALL SUBOPT_0x2
	LDI  R30,LOW(127)
	LDI  R31,HIGH(127)
	CALL SUBOPT_0x31
; 0000 035B    delay_ms( DELAY_PANTALLA_INI );
	LDI  R30,LOW(2000)
	LDI  R31,HIGH(2000)
	CALL SUBOPT_0x56
; 0000 035C    glcd_clear();
; 0000 035D 
; 0000 035E    // Dibuja BUS
; 0000 035F    bmp_disp(bus,0,0,45,7);
	LDI  R30,LOW(_bus*2)
	LDI  R31,HIGH(_bus*2)
	CALL SUBOPT_0x30
	CALL SUBOPT_0x2
	LDI  R30,LOW(45)
	LDI  R31,HIGH(45)
	CALL SUBOPT_0x31
; 0000 0360 
; 0000 0361    // Escribe NOMBRE_PANTALLA "SITU"
; 0000 0362    glcd_puts(NOMBRE_DISP,55,2,0,2,-1);
	LDI  R30,LOW(_NOMBRE_DISP)
	LDI  R31,HIGH(_NOMBRE_DISP)
	ST   -Y,R31
	ST   -Y,R30
	LDI  R30,LOW(55)
	LDI  R31,HIGH(55)
	CALL SUBOPT_0x57
; 0000 0363 
; 0000 0364    // Escribe NUMERO_PANTALLA "BUS####"
; 0000 0365    glcd_puts("BUS",59,5,0,1,-1);
	__POINTW1MN _0x183,0
	ST   -Y,R31
	ST   -Y,R30
	LDI  R30,LOW(59)
	LDI  R31,HIGH(59)
	CALL SUBOPT_0x58
	CALL SUBOPT_0x59
; 0000 0366    glcd_puts(NUM_DISP,82,5,0,1,-1);
	LDI  R30,LOW(_NUM_DISP)
	LDI  R31,HIGH(_NUM_DISP)
	ST   -Y,R31
	ST   -Y,R30
	LDI  R30,LOW(82)
	LDI  R31,HIGH(82)
	CALL SUBOPT_0x58
	CALL SUBOPT_0x59
; 0000 0367 
; 0000 0368    //Tiempo q muestra la pantalla de inicio
; 0000 0369    delay_ms( DELAY_PANTALLA_INI );
	LDI  R30,LOW(2000)
	LDI  R31,HIGH(2000)
	CALL SUBOPT_0x56
; 0000 036A    glcd_clear();
; 0000 036B 
; 0000 036C 
; 0000 036D    ////////////  VALORES INICIALES PARA VARIABLES DE LA EEPROM ///////////
; 0000 036E 
; 0000 036F    // En caso de que no haya recibido tramas del sky
; 0000 0370    // previene que muestre valores de -1 en la hora y fecha
; 0000 0371    if (hora1 < 0 )
	LDI  R26,LOW(_hora1+1)
	LDI  R27,HIGH(_hora1+1)
	CALL __EEPROMRDB
	TST  R30
	BRPL _0x184
; 0000 0372    {
; 0000 0373       hora1 = 0; min1 = 0; seg1 = 0;
	CALL SUBOPT_0x25
	CALL SUBOPT_0x21
	CALL SUBOPT_0x1D
; 0000 0374         hora = 0; minu = 0;  seg = 0;
	CALL SUBOPT_0x23
	CALL SUBOPT_0x1F
	CALL SUBOPT_0x1B
; 0000 0375    }
; 0000 0376 
; 0000 0377    // En caso de que no haya fecha
; 0000 0378    if (mes < 0 )
_0x184:
	LDI  R26,LOW(_mes+1)
	LDI  R27,HIGH(_mes+1)
	CALL __EEPROMRDB
	TST  R30
	BRPL _0x185
; 0000 0379    {
; 0000 037A       dia = 0; dia1 = 0;
	LDI  R26,LOW(_dia)
	LDI  R27,HIGH(_dia)
	CALL SUBOPT_0x5A
	LDI  R26,LOW(_dia1)
	LDI  R27,HIGH(_dia1)
	CALL SUBOPT_0x5A
; 0000 037B        mes = 0; mes1 = 0;
	LDI  R26,LOW(_mes)
	LDI  R27,HIGH(_mes)
	CALL SUBOPT_0x5A
	LDI  R26,LOW(_mes1)
	LDI  R27,HIGH(_mes1)
	CALL SUBOPT_0x5A
; 0000 037C         an = 0;  an1 = 0;
	LDI  R26,LOW(_an)
	LDI  R27,HIGH(_an)
	CALL SUBOPT_0x5A
	LDI  R26,LOW(_an1)
	LDI  R27,HIGH(_an1)
	CALL SUBOPT_0x5A
; 0000 037D    }
; 0000 037E 
; 0000 037F    if (num_ruta < 0) num_ruta = 0;
_0x185:
	LDI  R26,LOW(_num_ruta)
	LDI  R27,HIGH(_num_ruta)
	CALL __EEPROMRDB
	MOV  R26,R30
; 0000 0380 
; 0000 0381 
; 0000 0382    // Encender interrupciones
; 0000 0383    #asm("sei")
	sei
; 0000 0384 
; 0000 0385    // Muestra vacio
; 0000 0386    bmp_disp(vacio,0,5,25,7);
	CALL SUBOPT_0x29
	CALL SUBOPT_0x2A
	CALL SUBOPT_0x2B
; 0000 0387 
; 0000 0388    // Pide el ID del Skypatrol para verificar la pantalla
; 0000 0389    printf("AT$TTDEVID?\n\r");
	CALL SUBOPT_0x1A
; 0000 038A    delay_us( 500 );
	__DELAY_USW 1382
; 0000 038B    obt();
	RCALL _obt
; 0000 038C 
; 0000 038D    act =1;
	CALL SUBOPT_0x4A
; 0000 038E    bandera1 = 0;
	CLR  R7
; 0000 038F    bandera2 = 0;
	CLR  R10
; 0000 0390    bandera3 = 0;
	CLR  R9
; 0000 0391 
; 0000 0392    while (1)
_0x187:
; 0000 0393    {
; 0000 0394 
; 0000 0395       // Verifica la bandera de interrupcion serial
; 0000 0396       if( BIT_UART == 0 )
	SBIC 0x1E,1
	RJMP _0x18A
; 0000 0397       {
; 0000 0398          obt();
	RCALL _obt
; 0000 0399          BIT_UART=1;
	SBI  0x1E,1
; 0000 039A       }
; 0000 039B 
; 0000 039C       // Verifica el estado de los botones
; 0000 039D       glcd_putchar(ruta_aux,79,7,0,1);
_0x18A:
	ST   -Y,R5
	LDI  R30,LOW(79)
	LDI  R31,HIGH(79)
	CALL SUBOPT_0x2C
	RCALL _glcd_putchar
; 0000 039E 
; 0000 039F 
; 0000 03A0 
; 0000 03A1       boton1();
	RCALL _boton1
; 0000 03A2 
; 0000 03A3       boton2();
	RCALL _boton2
; 0000 03A4 
; 0000 03A5       boton3();
	RCALL _boton3
; 0000 03A6 
; 0000 03A7       boton4();
	RCALL _boton4
; 0000 03A8 
; 0000 03A9       dibujar_senal();
	RCALL _dibujar_senal
; 0000 03AA 
; 0000 03AB       // act = autoirzado
; 0000 03AC       if(act==1)
	LDS  R26,_act_G000
	LDS  R27,_act_G000+1
	SBIW R26,1
	BREQ PC+3
	JMP _0x18D
; 0000 03AD       {
; 0000 03AE          if( gsm == 1)
	LDS  R26,_gsm
	LDS  R27,_gsm+1
	SBIW R26,1
	BRNE _0x18E
; 0000 03AF          {
; 0000 03B0             glcd_putchar('E',19,0,1,1);
	LDI  R30,LOW(69)
	RJMP _0x1A5
; 0000 03B1          }else{
_0x18E:
; 0000 03B2             glcd_putchar(' ',19,0,1,1);
	LDI  R30,LOW(32)
_0x1A5:
	ST   -Y,R30
	LDI  R30,LOW(19)
	LDI  R31,HIGH(19)
	CALL SUBOPT_0x30
	LDI  R30,LOW(1)
	ST   -Y,R30
	ST   -Y,R30
	CALL _glcd_putchar
; 0000 03B3          }
; 0000 03B4 
; 0000 03B5 
; 0000 03B6          // Para mostrar el  Reloj
; 0000 03B7          if(pt==0)
	LDS  R30,_pt
	CPI  R30,0
	BRNE _0x190
; 0000 03B8          {
; 0000 03B9 
; 0000 03BA             sprintf(reloj,"%d%d:%d%d:%d%d",hora1, hora, min1, minu, seg1, seg);
	LDI  R30,LOW(_reloj)
	LDI  R31,HIGH(_reloj)
	ST   -Y,R31
	ST   -Y,R30
	__POINTW1FN _0x0,141
	ST   -Y,R31
	ST   -Y,R30
	CALL SUBOPT_0x24
	CALL SUBOPT_0x34
	CALL SUBOPT_0x22
	CALL SUBOPT_0x34
	CALL SUBOPT_0x20
	CALL SUBOPT_0x34
	CALL SUBOPT_0x1E
	CALL SUBOPT_0x34
	CALL SUBOPT_0x1C
	CALL SUBOPT_0x34
	CALL SUBOPT_0x18
	CALL SUBOPT_0x34
	CALL SUBOPT_0x5B
; 0000 03BB             glcd_puts(reloj,7,2,0,2,-1);
	LDI  R30,LOW(_reloj)
	LDI  R31,HIGH(_reloj)
	ST   -Y,R31
	ST   -Y,R30
	LDI  R30,LOW(7)
	LDI  R31,HIGH(7)
	CALL SUBOPT_0x57
; 0000 03BC          }
; 0000 03BD 
; 0000 03BE          else
	RJMP _0x191
_0x190:
; 0000 03BF          {     //Entra a esta funcion cuando llega un punto de control, verificando por el evento 18  pt=1
; 0000 03C0                glcd_clrln(2);
	CALL SUBOPT_0x48
; 0000 03C1                glcd_clrln(3);
; 0000 03C2                glcd_clrln(4);
; 0000 03C3                glcd_clrln(5);
; 0000 03C4                delay_ms(1);
	LDI  R30,LOW(1)
	LDI  R31,HIGH(1)
	ST   -Y,R31
	ST   -Y,R30
	CALL _delay_ms
; 0000 03C5                glcd_puts("Punto de control",5,2,0,1,-1);
	__POINTW1MN _0x183,4
	CALL SUBOPT_0x58
	CALL SUBOPT_0x5C
; 0000 03C6                glcd_puts(punto,34,4,0,1,-1);
	LDI  R30,LOW(_punto)
	LDI  R31,HIGH(_punto)
	CALL SUBOPT_0x5D
	CALL SUBOPT_0x5E
; 0000 03C7                buzz();
	RCALL _buzz
; 0000 03C8                buzz();
	RCALL _buzz
; 0000 03C9                delay_ms(2000);
	LDI  R30,LOW(2000)
	LDI  R31,HIGH(2000)
	ST   -Y,R31
	ST   -Y,R30
	CALL _delay_ms
; 0000 03CA                pt=0;   //esta variable se pone en 0 para que se vuelva a mostrar el reloj
	LDI  R30,LOW(0)
	STS  _pt,R30
; 0000 03CB                glcd_clrln(2);
	CALL SUBOPT_0x48
; 0000 03CC                glcd_clrln(3);
; 0000 03CD                glcd_clrln(4);
; 0000 03CE                glcd_clrln(5);
; 0000 03CF           }
_0x191:
; 0000 03D0 
; 0000 03D1 
; 0000 03D2          // Con seal GPS
; 0000 03D3          if( gps == 'A' )
	CALL SUBOPT_0x5F
	CPI  R26,LOW(0x41)
	LDI  R30,HIGH(0x41)
	CPC  R27,R30
	BRNE _0x192
; 0000 03D4          {
; 0000 03D5             bmp_disp(GPS1,95,0,127,1);
	LDI  R30,LOW(_GPS1*2)
	LDI  R31,HIGH(_GPS1*2)
	CALL SUBOPT_0x60
	CALL SUBOPT_0x61
; 0000 03D6 
; 0000 03D7             // En caso de que no haya recibido tramas del sky
; 0000 03D8             if (hora1 == 0xff )
	CALL SUBOPT_0x24
	CPI  R30,LOW(0xFF)
	LDI  R26,HIGH(0xFF)
	CPC  R31,R26
	BRNE _0x193
; 0000 03D9             {
; 0000 03DA                hora1 = 0; min1 = 0; seg1 = 0;
	CALL SUBOPT_0x25
	CALL SUBOPT_0x21
	CALL SUBOPT_0x1D
; 0000 03DB                  hora = 0; minu = 0;  seg = 0;
	CALL SUBOPT_0x23
	CALL SUBOPT_0x1F
	CALL SUBOPT_0x1B
; 0000 03DC             }
; 0000 03DD             sprintf(fecha,"20%d%d-%d%d-%d%d",an1, an, mes1, mes, dia1, dia);
_0x193:
	CALL SUBOPT_0x62
	CALL SUBOPT_0x34
	CALL SUBOPT_0x52
	CALL SUBOPT_0x34
	CALL SUBOPT_0x53
	CALL SUBOPT_0x34
	CALL SUBOPT_0x54
	CALL SUBOPT_0x34
	CALL SUBOPT_0x55
	CALL SUBOPT_0x34
	CALL SUBOPT_0x50
	CALL SUBOPT_0x34
	CALL SUBOPT_0x5B
; 0000 03DE             glcd_puts(fecha,34,5,0,1,-1);
	LDI  R30,LOW(_fecha)
	LDI  R31,HIGH(_fecha)
	CALL SUBOPT_0x5D
	CALL SUBOPT_0x58
	CALL SUBOPT_0x59
; 0000 03DF 
; 0000 03E0          }
; 0000 03E1          // Sin seal GPS
; 0000 03E2          else if (gps == 'V' || gps == '9' )
	RJMP _0x194
_0x192:
	CALL SUBOPT_0x5F
	CPI  R26,LOW(0x56)
	LDI  R30,HIGH(0x56)
	CPC  R27,R30
	BREQ _0x196
	CALL SUBOPT_0x5F
	SBIW R26,57
	BRNE _0x195
_0x196:
; 0000 03E3          {
; 0000 03E4             bmp_disp(GPS2,95,0,127,1);
	LDI  R30,LOW(_GPS2*2)
	LDI  R31,HIGH(_GPS2*2)
	CALL SUBOPT_0x60
	CALL SUBOPT_0x61
; 0000 03E5 
; 0000 03E6             // En caso de que no haya recibido tramas del sky
; 0000 03E7             if (hora1 == 0xff )
	CALL SUBOPT_0x24
	CPI  R30,LOW(0xFF)
	LDI  R26,HIGH(0xFF)
	CPC  R31,R26
	BRNE _0x198
; 0000 03E8             {
; 0000 03E9                hora1 = 0; min1 = 0; seg1 = 0;
	CALL SUBOPT_0x25
	CALL SUBOPT_0x21
	CALL SUBOPT_0x1D
; 0000 03EA                  hora = 0; minu = 0;  seg = 0;
	CALL SUBOPT_0x23
	CALL SUBOPT_0x1F
	CALL SUBOPT_0x1B
; 0000 03EB             }
; 0000 03EC             sprintf(fecha,"20%d%d-%d%d-%d%d",an1, an, mes1, mes, dia1, dia);
_0x198:
	CALL SUBOPT_0x62
	CALL SUBOPT_0x34
	CALL SUBOPT_0x52
	CALL SUBOPT_0x34
	CALL SUBOPT_0x53
	CALL SUBOPT_0x34
	CALL SUBOPT_0x54
	CALL SUBOPT_0x34
	CALL SUBOPT_0x55
	CALL SUBOPT_0x34
	CALL SUBOPT_0x50
	CALL SUBOPT_0x34
	CALL SUBOPT_0x5B
; 0000 03ED             glcd_puts(fecha,34,5,0,1,-1);
	LDI  R30,LOW(_fecha)
	LDI  R31,HIGH(_fecha)
	CALL SUBOPT_0x5D
	CALL SUBOPT_0x58
	CALL SUBOPT_0x59
; 0000 03EE          }
; 0000 03EF          else
	RJMP _0x199
_0x195:
; 0000 03F0          {
; 0000 03F1             bmp_disp(GPS2,95,0,127,1);
	LDI  R30,LOW(_GPS2*2)
	LDI  R31,HIGH(_GPS2*2)
	CALL SUBOPT_0x60
	CALL SUBOPT_0x61
; 0000 03F2          }
_0x199:
_0x194:
; 0000 03F3       }
; 0000 03F4 
; 0000 03F5       else
	RJMP _0x19A
_0x18D:
; 0000 03F6       {
; 0000 03F7          glcd_puts("Pantalla",30,2,0,1,-1);
	__POINTW1MN _0x183,21
	ST   -Y,R31
	ST   -Y,R30
	LDI  R30,LOW(30)
	LDI  R31,HIGH(30)
	ST   -Y,R31
	ST   -Y,R30
	CALL SUBOPT_0x5C
; 0000 03F8          glcd_puts("No Autorizada",15,4,0,1,-1);
	__POINTW1MN _0x183,30
	ST   -Y,R31
	ST   -Y,R30
	LDI  R30,LOW(15)
	LDI  R31,HIGH(15)
	CALL SUBOPT_0x5E
; 0000 03F9       }
_0x19A:
; 0000 03FA 
; 0000 03FB          bmp_disp(frente,105,5,127,7);
	LDI  R30,LOW(_frente*2)
	LDI  R31,HIGH(_frente*2)
	ST   -Y,R31
	ST   -Y,R30
	LDI  R30,LOW(105)
	LDI  R31,HIGH(105)
	CALL SUBOPT_0x58
	LDI  R30,LOW(127)
	LDI  R31,HIGH(127)
	CALL SUBOPT_0x31
; 0000 03FC    } // Fin del While
	RJMP _0x187
; 0000 03FD }
_0x19B:
	RJMP _0x19B

	.DSEG
_0x183:
	.BYTE 0x2C
;//---------------------------------------- FIN DEL PROGRAMA PRINCIPAL ---------------------------------------------//
	#ifndef __SLEEP_DEFINED__
	#define __SLEEP_DEFINED__
	.EQU __se_bit=0x01
	.EQU __sm_mask=0x0E
	.EQU __sm_powerdown=0x04
	.EQU __sm_powersave=0x06
	.EQU __sm_standby=0x0C
	.EQU __sm_ext_standby=0x0E
	.EQU __sm_adc_noise_red=0x02
	.SET power_ctrl_reg=smcr
	#endif

	.CSEG
_putchar:
_0x2000006:
	LDS  R30,192
	ANDI R30,LOW(0x20)
	BREQ _0x2000006
	LD   R30,Y
	STS  198,R30
	ADIW R28,1
	RET
_put_usart_G100:
	LDD  R30,Y+2
	ST   -Y,R30
	RCALL _putchar
	LD   R26,Y
	LDD  R27,Y+1
	CALL SUBOPT_0x7
	ADIW R28,3
	RET
_put_buff_G100:
	ST   -Y,R17
	ST   -Y,R16
	LDD  R26,Y+2
	LDD  R27,Y+2+1
	ADIW R26,2
	CALL __GETW1P
	SBIW R30,0
	BREQ _0x2000016
	LDD  R26,Y+2
	LDD  R27,Y+2+1
	ADIW R26,4
	CALL __GETW1P
	MOVW R16,R30
	SBIW R30,0
	BREQ _0x2000018
	__CPWRN 16,17,2
	BRLO _0x2000019
	MOVW R30,R16
	SBIW R30,1
	MOVW R16,R30
	__PUTW1SNS 2,4
_0x2000018:
	LDD  R26,Y+2
	LDD  R27,Y+2+1
	ADIW R26,2
	CALL SUBOPT_0x7
	SBIW R30,1
	LDD  R26,Y+4
	STD  Z+0,R26
	LDD  R26,Y+2
	LDD  R27,Y+2+1
	CALL __GETW1P
	TST  R31
	BRMI _0x200001A
	CALL SUBOPT_0x7
_0x200001A:
_0x2000019:
	RJMP _0x200001B
_0x2000016:
	LDD  R26,Y+2
	LDD  R27,Y+2+1
	LDI  R30,LOW(65535)
	LDI  R31,HIGH(65535)
	ST   X+,R30
	ST   X,R31
_0x200001B:
	LDD  R17,Y+1
	LDD  R16,Y+0
	ADIW R28,5
	RET
__print_G100:
	SBIW R28,6
	CALL __SAVELOCR6
	LDI  R17,0
	LDD  R26,Y+12
	LDD  R27,Y+12+1
	LDI  R30,LOW(0)
	LDI  R31,HIGH(0)
	ST   X+,R30
	ST   X,R31
_0x200001C:
	LDD  R30,Y+18
	LDD  R31,Y+18+1
	ADIW R30,1
	STD  Y+18,R30
	STD  Y+18+1,R31
	SBIW R30,1
	LPM  R30,Z
	MOV  R18,R30
	CPI  R30,0
	BRNE PC+3
	JMP _0x200001E
	MOV  R30,R17
	CPI  R30,0
	BRNE _0x2000022
	CPI  R18,37
	BRNE _0x2000023
	LDI  R17,LOW(1)
	RJMP _0x2000024
_0x2000023:
	CALL SUBOPT_0x63
_0x2000024:
	RJMP _0x2000021
_0x2000022:
	CPI  R30,LOW(0x1)
	BRNE _0x2000025
	CPI  R18,37
	BRNE _0x2000026
	CALL SUBOPT_0x63
	RJMP _0x20000CF
_0x2000026:
	LDI  R17,LOW(2)
	LDI  R20,LOW(0)
	LDI  R16,LOW(0)
	CPI  R18,45
	BRNE _0x2000027
	LDI  R16,LOW(1)
	RJMP _0x2000021
_0x2000027:
	CPI  R18,43
	BRNE _0x2000028
	LDI  R20,LOW(43)
	RJMP _0x2000021
_0x2000028:
	CPI  R18,32
	BRNE _0x2000029
	LDI  R20,LOW(32)
	RJMP _0x2000021
_0x2000029:
	RJMP _0x200002A
_0x2000025:
	CPI  R30,LOW(0x2)
	BRNE _0x200002B
_0x200002A:
	LDI  R21,LOW(0)
	LDI  R17,LOW(3)
	CPI  R18,48
	BRNE _0x200002C
	ORI  R16,LOW(128)
	RJMP _0x2000021
_0x200002C:
	RJMP _0x200002D
_0x200002B:
	CPI  R30,LOW(0x3)
	BREQ PC+3
	JMP _0x2000021
_0x200002D:
	CPI  R18,48
	BRLO _0x2000030
	CPI  R18,58
	BRLO _0x2000031
_0x2000030:
	RJMP _0x200002F
_0x2000031:
	LDI  R26,LOW(10)
	MUL  R21,R26
	MOV  R21,R0
	MOV  R30,R18
	SUBI R30,LOW(48)
	ADD  R21,R30
	RJMP _0x2000021
_0x200002F:
	MOV  R30,R18
	CPI  R30,LOW(0x63)
	BRNE _0x2000035
	CALL SUBOPT_0x64
	LDD  R30,Y+16
	LDD  R31,Y+16+1
	LDD  R26,Z+4
	ST   -Y,R26
	CALL SUBOPT_0x65
	RJMP _0x2000036
_0x2000035:
	CPI  R30,LOW(0x73)
	BRNE _0x2000038
	CALL SUBOPT_0x64
	CALL SUBOPT_0x66
	CALL _strlen
	MOV  R17,R30
	RJMP _0x2000039
_0x2000038:
	CPI  R30,LOW(0x70)
	BRNE _0x200003B
	CALL SUBOPT_0x64
	CALL SUBOPT_0x66
	CALL _strlenf
	MOV  R17,R30
	ORI  R16,LOW(8)
_0x2000039:
	ORI  R16,LOW(2)
	ANDI R16,LOW(127)
	LDI  R19,LOW(0)
	RJMP _0x200003C
_0x200003B:
	CPI  R30,LOW(0x64)
	BREQ _0x200003F
	CPI  R30,LOW(0x69)
	BRNE _0x2000040
_0x200003F:
	ORI  R16,LOW(4)
	RJMP _0x2000041
_0x2000040:
	CPI  R30,LOW(0x75)
	BRNE _0x2000042
_0x2000041:
	LDI  R30,LOW(_tbl10_G100*2)
	LDI  R31,HIGH(_tbl10_G100*2)
	STD  Y+6,R30
	STD  Y+6+1,R31
	LDI  R17,LOW(5)
	RJMP _0x2000043
_0x2000042:
	CPI  R30,LOW(0x58)
	BRNE _0x2000045
	ORI  R16,LOW(8)
	RJMP _0x2000046
_0x2000045:
	CPI  R30,LOW(0x78)
	BREQ PC+3
	JMP _0x2000077
_0x2000046:
	LDI  R30,LOW(_tbl16_G100*2)
	LDI  R31,HIGH(_tbl16_G100*2)
	STD  Y+6,R30
	STD  Y+6+1,R31
	LDI  R17,LOW(4)
_0x2000043:
	SBRS R16,2
	RJMP _0x2000048
	CALL SUBOPT_0x64
	CALL SUBOPT_0x67
	LDD  R26,Y+11
	TST  R26
	BRPL _0x2000049
	LDD  R30,Y+10
	LDD  R31,Y+10+1
	CALL __ANEGW1
	STD  Y+10,R30
	STD  Y+10+1,R31
	LDI  R20,LOW(45)
_0x2000049:
	CPI  R20,0
	BREQ _0x200004A
	SUBI R17,-LOW(1)
	RJMP _0x200004B
_0x200004A:
	ANDI R16,LOW(251)
_0x200004B:
	RJMP _0x200004C
_0x2000048:
	CALL SUBOPT_0x64
	CALL SUBOPT_0x67
_0x200004C:
_0x200003C:
	SBRC R16,0
	RJMP _0x200004D
_0x200004E:
	CP   R17,R21
	BRSH _0x2000050
	SBRS R16,7
	RJMP _0x2000051
	SBRS R16,2
	RJMP _0x2000052
	ANDI R16,LOW(251)
	MOV  R18,R20
	SUBI R17,LOW(1)
	RJMP _0x2000053
_0x2000052:
	LDI  R18,LOW(48)
_0x2000053:
	RJMP _0x2000054
_0x2000051:
	LDI  R18,LOW(32)
_0x2000054:
	CALL SUBOPT_0x63
	SUBI R21,LOW(1)
	RJMP _0x200004E
_0x2000050:
_0x200004D:
	MOV  R19,R17
	SBRS R16,1
	RJMP _0x2000055
_0x2000056:
	CPI  R19,0
	BREQ _0x2000058
	SBRS R16,3
	RJMP _0x2000059
	LDD  R30,Y+6
	LDD  R31,Y+6+1
	LPM  R18,Z+
	STD  Y+6,R30
	STD  Y+6+1,R31
	RJMP _0x200005A
_0x2000059:
	LDD  R26,Y+6
	LDD  R27,Y+6+1
	LD   R18,X+
	STD  Y+6,R26
	STD  Y+6+1,R27
_0x200005A:
	CALL SUBOPT_0x63
	CPI  R21,0
	BREQ _0x200005B
	SUBI R21,LOW(1)
_0x200005B:
	SUBI R19,LOW(1)
	RJMP _0x2000056
_0x2000058:
	RJMP _0x200005C
_0x2000055:
_0x200005E:
	LDI  R18,LOW(48)
	LDD  R30,Y+6
	LDD  R31,Y+6+1
	CALL __GETW1PF
	STD  Y+8,R30
	STD  Y+8+1,R31
	LDD  R30,Y+6
	LDD  R31,Y+6+1
	ADIW R30,2
	STD  Y+6,R30
	STD  Y+6+1,R31
_0x2000060:
	LDD  R30,Y+8
	LDD  R31,Y+8+1
	LDD  R26,Y+10
	LDD  R27,Y+10+1
	CP   R26,R30
	CPC  R27,R31
	BRLO _0x2000062
	SUBI R18,-LOW(1)
	LDD  R26,Y+8
	LDD  R27,Y+8+1
	LDD  R30,Y+10
	LDD  R31,Y+10+1
	SUB  R30,R26
	SBC  R31,R27
	STD  Y+10,R30
	STD  Y+10+1,R31
	RJMP _0x2000060
_0x2000062:
	CPI  R18,58
	BRLO _0x2000063
	SBRS R16,3
	RJMP _0x2000064
	SUBI R18,-LOW(7)
	RJMP _0x2000065
_0x2000064:
	SUBI R18,-LOW(39)
_0x2000065:
_0x2000063:
	SBRC R16,4
	RJMP _0x2000067
	CPI  R18,49
	BRSH _0x2000069
	LDD  R26,Y+8
	LDD  R27,Y+8+1
	SBIW R26,1
	BRNE _0x2000068
_0x2000069:
	RJMP _0x20000D0
_0x2000068:
	CP   R21,R19
	BRLO _0x200006D
	SBRS R16,0
	RJMP _0x200006E
_0x200006D:
	RJMP _0x200006C
_0x200006E:
	LDI  R18,LOW(32)
	SBRS R16,7
	RJMP _0x200006F
	LDI  R18,LOW(48)
_0x20000D0:
	ORI  R16,LOW(16)
	SBRS R16,2
	RJMP _0x2000070
	ANDI R16,LOW(251)
	ST   -Y,R20
	CALL SUBOPT_0x65
	CPI  R21,0
	BREQ _0x2000071
	SUBI R21,LOW(1)
_0x2000071:
_0x2000070:
_0x200006F:
_0x2000067:
	CALL SUBOPT_0x63
	CPI  R21,0
	BREQ _0x2000072
	SUBI R21,LOW(1)
_0x2000072:
_0x200006C:
	SUBI R19,LOW(1)
	LDD  R26,Y+8
	LDD  R27,Y+8+1
	SBIW R26,2
	BRLO _0x200005F
	RJMP _0x200005E
_0x200005F:
_0x200005C:
	SBRS R16,0
	RJMP _0x2000073
_0x2000074:
	CPI  R21,0
	BREQ _0x2000076
	SUBI R21,LOW(1)
	LDI  R30,LOW(32)
	ST   -Y,R30
	CALL SUBOPT_0x65
	RJMP _0x2000074
_0x2000076:
_0x2000073:
_0x2000077:
_0x2000036:
_0x20000CF:
	LDI  R17,LOW(0)
_0x2000021:
	RJMP _0x200001C
_0x200001E:
	LDD  R26,Y+12
	LDD  R27,Y+12+1
	CALL __GETW1P
	CALL __LOADLOCR6
	ADIW R28,20
	RET
_sprintf:
	PUSH R15
	MOV  R15,R24
	SBIW R28,6
	CALL __SAVELOCR4
	CALL SUBOPT_0x68
	SBIW R30,0
	BRNE _0x2000078
	LDI  R30,LOW(65535)
	LDI  R31,HIGH(65535)
	RJMP _0x20A0001
_0x2000078:
	MOVW R26,R28
	ADIW R26,6
	CALL __ADDW2R15
	MOVW R16,R26
	CALL SUBOPT_0x68
	STD  Y+6,R30
	STD  Y+6+1,R31
	LDI  R30,LOW(0)
	STD  Y+8,R30
	STD  Y+8+1,R30
	MOVW R26,R28
	ADIW R26,10
	CALL SUBOPT_0x69
	LDI  R30,LOW(_put_buff_G100)
	LDI  R31,HIGH(_put_buff_G100)
	ST   -Y,R31
	ST   -Y,R30
	MOVW R30,R28
	ADIW R30,10
	ST   -Y,R31
	ST   -Y,R30
	RCALL __print_G100
	MOVW R18,R30
	LDD  R26,Y+6
	LDD  R27,Y+6+1
	LDI  R30,LOW(0)
	ST   X,R30
	MOVW R30,R18
_0x20A0001:
	CALL __LOADLOCR4
	ADIW R28,10
	POP  R15
	RET
_printf:
	PUSH R15
	MOV  R15,R24
	SBIW R28,6
	ST   -Y,R17
	ST   -Y,R16
	MOVW R26,R28
	ADIW R26,4
	CALL __ADDW2R15
	MOVW R16,R26
	LDI  R30,LOW(0)
	STD  Y+4,R30
	STD  Y+4+1,R30
	STD  Y+6,R30
	STD  Y+6+1,R30
	MOVW R26,R28
	ADIW R26,8
	CALL SUBOPT_0x69
	LDI  R30,LOW(_put_usart_G100)
	LDI  R31,HIGH(_put_usart_G100)
	ST   -Y,R31
	ST   -Y,R30
	MOVW R30,R28
	ADIW R30,8
	ST   -Y,R31
	ST   -Y,R30
	RCALL __print_G100
	LDD  R17,Y+1
	LDD  R16,Y+0
	ADIW R28,8
	POP  R15
	RET

	.CSEG

	.DSEG

	.CSEG

	.CSEG
_min:
    ld   r26,y+
    ld   r27,y+
    ld   r30,y+
    ld   r31,y+
    cp   r30,r26
    cpc  r31,r27
    brlt __min0
    movw r30,r26
__min0:
    ret

	.CSEG
_strlen:
    ld   r26,y+
    ld   r27,y+
    clr  r30
    clr  r31
strlen0:
    ld   r22,x+
    tst  r22
    breq strlen1
    adiw r30,1
    rjmp strlen0
strlen1:
    ret
_strlenf:
    clr  r26
    clr  r27
    ld   r30,y+
    ld   r31,y+
strlenf0:
	lpm  r0,z+
    tst  r0
    breq strlenf1
    adiw r26,1
    rjmp strlenf0
strlenf1:
    movw r30,r26
    ret

	.CSEG

	.DSEG
_prevLet_G000:
	.BYTE 0x2
_stat_G000:
	.BYTE 0x1
_prevX_G000:
	.BYTE 0x1
_prevY_G000:
	.BYTE 0x1
_rx_b0:
	.BYTE 0xC8
_NOMBRE_DISP:
	.BYTE 0x5
_NUM_DISP:
	.BYTE 0x5
_btn2:
	.BYTE 0x2
_btn5:
	.BYTE 0x2
_aux:
	.BYTE 0x1
_punto:
	.BYTE 0x4
_pt:
	.BYTE 0x1
_time_count_G000:
	.BYTE 0x2
_act_G000:
	.BYTE 0x2

	.ESEG

	.ORG 0x10
_seg:
	.BYTE 0x2

	.ORG 0x0

	.ORG 0x12
_seg1:
	.BYTE 0x2

	.ORG 0x0

	.ORG 0x14
_minu:
	.BYTE 0x2

	.ORG 0x0

	.ORG 0x16
_min1:
	.BYTE 0x2

	.ORG 0x0

	.ORG 0x18
_hora:
	.BYTE 0x2

	.ORG 0x0

	.ORG 0x1A
_hora1:
	.BYTE 0x2

	.ORG 0x0

	.ORG 0x1C
_dia:
	.BYTE 0x2

	.ORG 0x0

	.ORG 0x1E
_dia1:
	.BYTE 0x2

	.ORG 0x0

	.ORG 0x20
_mes:
	.BYTE 0x2

	.ORG 0x0

	.ORG 0x22
_mes1:
	.BYTE 0x2

	.ORG 0x0

	.ORG 0x24
_an:
	.BYTE 0x2

	.ORG 0x0

	.ORG 0x26
_an1:
	.BYTE 0x2

	.ORG 0x0

	.ORG 0x28
_num_ruta:
	.BYTE 0x1

	.ORG 0x0

	.DSEG
_gsm:
	.BYTE 0x2
_gps:
	.BYTE 0x2
_ind_sen:
	.BYTE 0x2
_reloj:
	.BYTE 0x8
_fecha:
	.BYTE 0x8
__seed_G101:
	.BYTE 0x4

	.CSEG
;OPTIMIZER ADDED SUBROUTINE, CALLED 3 TIMES, CODE SIZE REDUCTION:1 WORDS
SUBOPT_0x0:
	ST   -Y,R31
	ST   -Y,R30
	JMP  _goto_col

;OPTIMIZER ADDED SUBROUTINE, CALLED 3 TIMES, CODE SIZE REDUCTION:1 WORDS
SUBOPT_0x1:
	ST   -Y,R31
	ST   -Y,R30
	JMP  _goto_row

;OPTIMIZER ADDED SUBROUTINE, CALLED 14 TIMES, CODE SIZE REDUCTION:23 WORDS
SUBOPT_0x2:
	LDI  R30,LOW(0)
	LDI  R31,HIGH(0)
	ST   -Y,R31
	ST   -Y,R30
	RET

;OPTIMIZER ADDED SUBROUTINE, CALLED 2 TIMES, CODE SIZE REDUCTION:3 WORDS
SUBOPT_0x3:
	LDD  R30,Y+4
	LDI  R31,0
	ST   -Y,R31
	ST   -Y,R30
	JMP  _goto_xy

;OPTIMIZER ADDED SUBROUTINE, CALLED 11 TIMES, CODE SIZE REDUCTION:17 WORDS
SUBOPT_0x4:
	MOV  R30,R17
	LDI  R31,0
	RET

;OPTIMIZER ADDED SUBROUTINE, CALLED 2 TIMES, CODE SIZE REDUCTION:1 WORDS
SUBOPT_0x5:
	LDD  R26,Y+6
	LDD  R27,Y+6+1
	CLR  R30
	ADD  R26,R17
	ADC  R27,R30
	LD   R30,X
	RET

;OPTIMIZER ADDED SUBROUTINE, CALLED 3 TIMES, CODE SIZE REDUCTION:5 WORDS
SUBOPT_0x6:
	__GETW1SX 71
	RET

;OPTIMIZER ADDED SUBROUTINE, CALLED 6 TIMES, CODE SIZE REDUCTION:12 WORDS
SUBOPT_0x7:
	LD   R30,X+
	LD   R31,X+
	ADIW R30,1
	ST   -X,R31
	ST   -X,R30
	RET

;OPTIMIZER ADDED SUBROUTINE, CALLED 5 TIMES, CODE SIZE REDUCTION:5 WORDS
SUBOPT_0x8:
	LDD  R30,Y+6
	LDI  R31,0
	RET

;OPTIMIZER ADDED SUBROUTINE, CALLED 2 TIMES, CODE SIZE REDUCTION:7 WORDS
SUBOPT_0x9:
	LDS  R30,_prevLet_G000
	LDS  R31,_prevLet_G000+1
	SUBI R30,LOW(193)
	SBCI R31,HIGH(193)
	LDI  R26,LOW(6)
	LDI  R27,HIGH(6)
	CALL __MULW12U
	SUBI R30,LOW(-_map*2)
	SBCI R31,HIGH(-_map*2)
	RET

;OPTIMIZER ADDED SUBROUTINE, CALLED 2 TIMES, CODE SIZE REDUCTION:3 WORDS
SUBOPT_0xA:
	SUBI R30,LOW(193)
	SBCI R31,HIGH(193)
	LDI  R26,LOW(6)
	LDI  R27,HIGH(6)
	CALL __MULW12U
	SUBI R30,LOW(-_map*2)
	SBCI R31,HIGH(-_map*2)
	RET

;OPTIMIZER ADDED SUBROUTINE, CALLED 3 TIMES, CODE SIZE REDUCTION:3 WORDS
SUBOPT_0xB:
	LDI  R31,0
	ST   -Y,R31
	ST   -Y,R30
	RET

;OPTIMIZER ADDED SUBROUTINE, CALLED 4 TIMES, CODE SIZE REDUCTION:3 WORDS
SUBOPT_0xC:
	ST   -Y,R31
	ST   -Y,R30
	LDD  R30,Y+6
	LDD  R31,Y+6+1
	RET

;OPTIMIZER ADDED SUBROUTINE, CALLED 2 TIMES, CODE SIZE REDUCTION:1 WORDS
SUBOPT_0xD:
	ST   -Y,R31
	ST   -Y,R30
	LDD  R30,Y+6
	ST   -Y,R30
	JMP  _putItSz

;OPTIMIZER ADDED SUBROUTINE, CALLED 2 TIMES, CODE SIZE REDUCTION:7 WORDS
SUBOPT_0xE:
	LDD  R30,Y+9
	LDD  R31,Y+9+1
	ST   -Y,R31
	ST   -Y,R30
	CALL _strlen
	MOV  R26,R17
	LDI  R27,0
	CP   R26,R30
	CPC  R27,R31
	RET

;OPTIMIZER ADDED SUBROUTINE, CALLED 7 TIMES, CODE SIZE REDUCTION:9 WORDS
SUBOPT_0xF:
	LDD  R26,Y+9
	LDD  R27,Y+9+1
	ADD  R26,R30
	ADC  R27,R31
	RET

;OPTIMIZER ADDED SUBROUTINE, CALLED 4 TIMES, CODE SIZE REDUCTION:3 WORDS
SUBOPT_0x10:
	LDD  R30,Y+8
	LDD  R31,Y+8+1
	ST   -Y,R31
	ST   -Y,R30
	RET

;OPTIMIZER ADDED SUBROUTINE, CALLED 3 TIMES, CODE SIZE REDUCTION:3 WORDS
SUBOPT_0x11:
	ST   -Y,R30
	LDD  R30,Y+9
	ST   -Y,R30
	JMP  _glcd_putchar

;OPTIMIZER ADDED SUBROUTINE, CALLED 2 TIMES, CODE SIZE REDUCTION:7 WORDS
SUBOPT_0x12:
	LDD  R30,Y+2
	LDI  R31,0
	SBRC R30,7
	SER  R31
	ADIW R30,8
	MOVW R26,R30
	LDD  R30,Y+3
	LDI  R31,0
	CALL __MULW12
	RET

;OPTIMIZER ADDED SUBROUTINE, CALLED 5 TIMES, CODE SIZE REDUCTION:5 WORDS
SUBOPT_0x13:
	LDD  R30,Y+3
	LDI  R26,LOW(8)
	MULS R30,R26
	MOVW R30,R0
	RET

;OPTIMIZER ADDED SUBROUTINE, CALLED 2 TIMES, CODE SIZE REDUCTION:5 WORDS
SUBOPT_0x14:
	LDD  R30,Y+3
	LDI  R31,0
	LDD  R26,Y+5
	LDD  R27,Y+5+1
	ADD  R30,R26
	ADC  R31,R27
	STD  Y+5,R30
	STD  Y+5+1,R31
	RET

;OPTIMIZER ADDED SUBROUTINE, CALLED 4 TIMES, CODE SIZE REDUCTION:6 WORDS
SUBOPT_0x15:
	LDD  R26,Y+9
	LDD  R27,Y+9+1
	ADD  R30,R26
	ADC  R31,R27
	LDD  R26,Z+1
	RET

;OPTIMIZER ADDED SUBROUTINE, CALLED 2 TIMES, CODE SIZE REDUCTION:7 WORDS
SUBOPT_0x16:
	LDD  R30,Y+4
	LDI  R26,LOW(8)
	MULS R30,R26
	MOVW R30,R0
	LDD  R26,Y+8
	LDD  R27,Y+8+1
	SUB  R26,R30
	SBC  R27,R31
	ST   -Y,R27
	ST   -Y,R26
	RJMP SUBOPT_0x10

;OPTIMIZER ADDED SUBROUTINE, CALLED 3 TIMES, CODE SIZE REDUCTION:1 WORDS
SUBOPT_0x17:
	SUB  R26,R30
	SBC  R27,R31
	STD  Y+7,R26
	STD  Y+7+1,R27
	RET

;OPTIMIZER ADDED SUBROUTINE, CALLED 8 TIMES, CODE SIZE REDUCTION:11 WORDS
SUBOPT_0x18:
	LDI  R26,LOW(_seg)
	LDI  R27,HIGH(_seg)
	CALL __EEPROMRDW
	RET

;OPTIMIZER ADDED SUBROUTINE, CALLED 6 TIMES, CODE SIZE REDUCTION:7 WORDS
SUBOPT_0x19:
	ADIW R30,1
	CALL __EEPROMWRW
	SBIW R30,1
	RET

;OPTIMIZER ADDED SUBROUTINE, CALLED 2 TIMES, CODE SIZE REDUCTION:3 WORDS
SUBOPT_0x1A:
	__POINTW1FN _0x0,0
	ST   -Y,R31
	ST   -Y,R30
	LDI  R24,0
	CALL _printf
	ADIW R28,2
	RET

;OPTIMIZER ADDED SUBROUTINE, CALLED 5 TIMES, CODE SIZE REDUCTION:13 WORDS
SUBOPT_0x1B:
	LDI  R26,LOW(_seg)
	LDI  R27,HIGH(_seg)
	LDI  R30,LOW(0)
	LDI  R31,HIGH(0)
	CALL __EEPROMWRW
	RET

;OPTIMIZER ADDED SUBROUTINE, CALLED 7 TIMES, CODE SIZE REDUCTION:9 WORDS
SUBOPT_0x1C:
	LDI  R26,LOW(_seg1)
	LDI  R27,HIGH(_seg1)
	CALL __EEPROMRDW
	RET

;OPTIMIZER ADDED SUBROUTINE, CALLED 5 TIMES, CODE SIZE REDUCTION:13 WORDS
SUBOPT_0x1D:
	LDI  R26,LOW(_seg1)
	LDI  R27,HIGH(_seg1)
	LDI  R30,LOW(0)
	LDI  R31,HIGH(0)
	CALL __EEPROMWRW
	RET

;OPTIMIZER ADDED SUBROUTINE, CALLED 4 TIMES, CODE SIZE REDUCTION:3 WORDS
SUBOPT_0x1E:
	LDI  R26,LOW(_minu)
	LDI  R27,HIGH(_minu)
	CALL __EEPROMRDW
	RET

;OPTIMIZER ADDED SUBROUTINE, CALLED 5 TIMES, CODE SIZE REDUCTION:13 WORDS
SUBOPT_0x1F:
	LDI  R26,LOW(_minu)
	LDI  R27,HIGH(_minu)
	LDI  R30,LOW(0)
	LDI  R31,HIGH(0)
	CALL __EEPROMWRW
	RET

;OPTIMIZER ADDED SUBROUTINE, CALLED 6 TIMES, CODE SIZE REDUCTION:7 WORDS
SUBOPT_0x20:
	LDI  R26,LOW(_min1)
	LDI  R27,HIGH(_min1)
	CALL __EEPROMRDW
	RET

;OPTIMIZER ADDED SUBROUTINE, CALLED 5 TIMES, CODE SIZE REDUCTION:13 WORDS
SUBOPT_0x21:
	LDI  R26,LOW(_min1)
	LDI  R27,HIGH(_min1)
	LDI  R30,LOW(0)
	LDI  R31,HIGH(0)
	CALL __EEPROMWRW
	RET

;OPTIMIZER ADDED SUBROUTINE, CALLED 6 TIMES, CODE SIZE REDUCTION:7 WORDS
SUBOPT_0x22:
	LDI  R26,LOW(_hora)
	LDI  R27,HIGH(_hora)
	CALL __EEPROMRDW
	RET

;OPTIMIZER ADDED SUBROUTINE, CALLED 5 TIMES, CODE SIZE REDUCTION:13 WORDS
SUBOPT_0x23:
	LDI  R26,LOW(_hora)
	LDI  R27,HIGH(_hora)
	LDI  R30,LOW(0)
	LDI  R31,HIGH(0)
	CALL __EEPROMWRW
	RET

;OPTIMIZER ADDED SUBROUTINE, CALLED 7 TIMES, CODE SIZE REDUCTION:9 WORDS
SUBOPT_0x24:
	LDI  R26,LOW(_hora1)
	LDI  R27,HIGH(_hora1)
	CALL __EEPROMRDW
	RET

;OPTIMIZER ADDED SUBROUTINE, CALLED 4 TIMES, CODE SIZE REDUCTION:9 WORDS
SUBOPT_0x25:
	LDI  R26,LOW(_hora1)
	LDI  R27,HIGH(_hora1)
	LDI  R30,LOW(0)
	LDI  R31,HIGH(0)
	CALL __EEPROMWRW
	RET

;OPTIMIZER ADDED SUBROUTINE, CALLED 2 TIMES, CODE SIZE REDUCTION:1 WORDS
SUBOPT_0x26:
	LDI  R30,LOW(100)
	LDI  R31,HIGH(100)
	ST   -Y,R31
	ST   -Y,R30
	JMP  _delay_ms

;OPTIMIZER ADDED SUBROUTINE, CALLED 5 TIMES, CODE SIZE REDUCTION:13 WORDS
SUBOPT_0x27:
	LDI  R30,LOW(200)
	LDI  R31,HIGH(200)
	ST   -Y,R31
	ST   -Y,R30
	JMP  _delay_ms

;OPTIMIZER ADDED SUBROUTINE, CALLED 3 TIMES, CODE SIZE REDUCTION:1 WORDS
SUBOPT_0x28:
	LDI  R30,LOW(1)
	LDI  R31,HIGH(1)
	CP   R30,R13
	CPC  R31,R14
	RET

;OPTIMIZER ADDED SUBROUTINE, CALLED 2 TIMES, CODE SIZE REDUCTION:1 WORDS
SUBOPT_0x29:
	LDI  R30,LOW(_vacio*2)
	LDI  R31,HIGH(_vacio*2)
	ST   -Y,R31
	ST   -Y,R30
	RJMP SUBOPT_0x2

;OPTIMIZER ADDED SUBROUTINE, CALLED 9 TIMES, CODE SIZE REDUCTION:13 WORDS
SUBOPT_0x2A:
	LDI  R30,LOW(5)
	LDI  R31,HIGH(5)
	ST   -Y,R31
	ST   -Y,R30
	RET

;OPTIMIZER ADDED SUBROUTINE, CALLED 2 TIMES, CODE SIZE REDUCTION:5 WORDS
SUBOPT_0x2B:
	LDI  R30,LOW(25)
	LDI  R31,HIGH(25)
	ST   -Y,R31
	ST   -Y,R30
	LDI  R30,LOW(7)
	LDI  R31,HIGH(7)
	ST   -Y,R31
	ST   -Y,R30
	JMP  _bmp_disp

;OPTIMIZER ADDED SUBROUTINE, CALLED 4 TIMES, CODE SIZE REDUCTION:21 WORDS
SUBOPT_0x2C:
	ST   -Y,R31
	ST   -Y,R30
	LDI  R30,LOW(7)
	LDI  R31,HIGH(7)
	ST   -Y,R31
	ST   -Y,R30
	LDI  R30,LOW(0)
	ST   -Y,R30
	LDI  R30,LOW(1)
	ST   -Y,R30
	RET

;OPTIMIZER ADDED SUBROUTINE, CALLED 2 TIMES, CODE SIZE REDUCTION:1 WORDS
SUBOPT_0x2D:
	ST   -Y,R31
	ST   -Y,R30
	LDI  R30,LOW(44)
	LDI  R31,HIGH(44)
	RJMP SUBOPT_0x2C

;OPTIMIZER ADDED SUBROUTINE, CALLED 12 TIMES, CODE SIZE REDUCTION:19 WORDS
SUBOPT_0x2E:
	LDI  R30,LOW(255)
	ST   -Y,R30
	JMP  _glcd_puts

;OPTIMIZER ADDED SUBROUTINE, CALLED 2 TIMES, CODE SIZE REDUCTION:1 WORDS
SUBOPT_0x2F:
	LDI  R30,LOW(1)
	LDI  R31,HIGH(1)
	STS  _btn2,R30
	STS  _btn2+1,R31
	RET

;OPTIMIZER ADDED SUBROUTINE, CALLED 7 TIMES, CODE SIZE REDUCTION:9 WORDS
SUBOPT_0x30:
	ST   -Y,R31
	ST   -Y,R30
	RJMP SUBOPT_0x2

;OPTIMIZER ADDED SUBROUTINE, CALLED 4 TIMES, CODE SIZE REDUCTION:15 WORDS
SUBOPT_0x31:
	ST   -Y,R31
	ST   -Y,R30
	LDI  R30,LOW(7)
	LDI  R31,HIGH(7)
	ST   -Y,R31
	ST   -Y,R30
	JMP  _bmp_disp

;OPTIMIZER ADDED SUBROUTINE, CALLED 4 TIMES, CODE SIZE REDUCTION:3 WORDS
SUBOPT_0x32:
	LDS  R26,_btn2
	LDS  R27,_btn2+1
	RET

;OPTIMIZER ADDED SUBROUTINE, CALLED 2 TIMES, CODE SIZE REDUCTION:62 WORDS
SUBOPT_0x33:
	ST   -Y,R8
	CALL _calcuar_ruta
	LDI  R26,LOW(_num_ruta)
	LDI  R27,HIGH(_num_ruta)
	CALL __EEPROMWRB
	__POINTW1FN _0x0,69
	ST   -Y,R31
	ST   -Y,R30
	LDI  R30,LOW(_NUM_DISP)
	LDI  R31,HIGH(_NUM_DISP)
	CLR  R22
	CLR  R23
	CALL __PUTPARD1
	LDI  R26,LOW(_dia1)
	LDI  R27,HIGH(_dia1)
	CALL __EEPROMRDW
	CALL __CWD1
	CALL __PUTPARD1
	LDI  R26,LOW(_dia)
	LDI  R27,HIGH(_dia)
	CALL __EEPROMRDW
	CALL __CWD1
	CALL __PUTPARD1
	LDI  R26,LOW(_mes1)
	LDI  R27,HIGH(_mes1)
	CALL __EEPROMRDW
	CALL __CWD1
	CALL __PUTPARD1
	LDI  R26,LOW(_mes)
	LDI  R27,HIGH(_mes)
	CALL __EEPROMRDW
	CALL __CWD1
	CALL __PUTPARD1
	LDI  R26,LOW(_an1)
	LDI  R27,HIGH(_an1)
	CALL __EEPROMRDW
	CALL __CWD1
	CALL __PUTPARD1
	LDI  R26,LOW(_an)
	LDI  R27,HIGH(_an)
	CALL __EEPROMRDW
	CALL __CWD1
	CALL __PUTPARD1
	RJMP SUBOPT_0x24

;OPTIMIZER ADDED SUBROUTINE, CALLED 29 TIMES, CODE SIZE REDUCTION:53 WORDS
SUBOPT_0x34:
	CALL __CWD1
	CALL __PUTPARD1
	RET

;OPTIMIZER ADDED SUBROUTINE, CALLED 2 TIMES, CODE SIZE REDUCTION:3 WORDS
SUBOPT_0x35:
	LDI  R30,LOW(_min)
	LDI  R31,HIGH(_min)
	CLR  R22
	CLR  R23
	CALL __PUTPARD1
	RJMP SUBOPT_0x1C

;OPTIMIZER ADDED SUBROUTINE, CALLED 2 TIMES, CODE SIZE REDUCTION:14 WORDS
SUBOPT_0x36:
	LDI  R26,LOW(_num_ruta)
	LDI  R27,HIGH(_num_ruta)
	CALL __EEPROMRDB
	CLR  R31
	CLR  R22
	CLR  R23
	CALL __PUTPARD1
	MOV  R30,R11
	CLR  R31
	CLR  R22
	CLR  R23
	CALL __PUTPARD1
	LDI  R24,60
	CALL _printf
	ADIW R28,62
	RET

;OPTIMIZER ADDED SUBROUTINE, CALLED 4 TIMES, CODE SIZE REDUCTION:15 WORDS
SUBOPT_0x37:
	ST   -Y,R31
	ST   -Y,R30
	LDI  R30,LOW(1)
	LDI  R31,HIGH(1)
	ST   -Y,R31
	ST   -Y,R30
	JMP  _bmp_disp

;OPTIMIZER ADDED SUBROUTINE, CALLED 5 TIMES, CODE SIZE REDUCTION:5 WORDS
SUBOPT_0x38:
	MOVW R30,R16
	__ADDW1MN _rx_b0,0
	LD   R26,Z
	RET

;OPTIMIZER ADDED SUBROUTINE, CALLED 5 TIMES, CODE SIZE REDUCTION:5 WORDS
SUBOPT_0x39:
	MOVW R30,R16
	__ADDW1MN _rx_b0,1
	LD   R26,Z
	RET

;OPTIMIZER ADDED SUBROUTINE, CALLED 4 TIMES, CODE SIZE REDUCTION:3 WORDS
SUBOPT_0x3A:
	MOVW R30,R16
	__ADDW1MN _rx_b0,3
	LD   R26,Z
	RET

;OPTIMIZER ADDED SUBROUTINE, CALLED 4 TIMES, CODE SIZE REDUCTION:3 WORDS
SUBOPT_0x3B:
	MOVW R30,R16
	__ADDW1MN _rx_b0,4
	LD   R26,Z
	RET

;OPTIMIZER ADDED SUBROUTINE, CALLED 3 TIMES, CODE SIZE REDUCTION:7 WORDS
SUBOPT_0x3C:
	__ADDW1MN _rx_b0,6
	LD   R30,Z
	LDI  R31,0
	SBIW R30,48
	RET

;OPTIMIZER ADDED SUBROUTINE, CALLED 2 TIMES, CODE SIZE REDUCTION:2 WORDS
SUBOPT_0x3D:
	__ADDW1MN _rx_b0,7
	LD   R30,Z
	LDI  R31,0
	SBIW R30,48
	RET

;OPTIMIZER ADDED SUBROUTINE, CALLED 4 TIMES, CODE SIZE REDUCTION:3 WORDS
SUBOPT_0x3E:
	STS  _ind_sen,R30
	STS  _ind_sen+1,R31
	RET

;OPTIMIZER ADDED SUBROUTINE, CALLED 4 TIMES, CODE SIZE REDUCTION:3 WORDS
SUBOPT_0x3F:
	MOVW R30,R16
	__ADDW1MN _rx_b0,2
	LD   R26,Z
	RET

;OPTIMIZER ADDED SUBROUTINE, CALLED 3 TIMES, CODE SIZE REDUCTION:1 WORDS
SUBOPT_0x40:
	MOVW R30,R16
	ADIW R30,4
	STD  Y+16,R30
	STD  Y+16+1,R31
	RET

;OPTIMIZER ADDED SUBROUTINE, CALLED 2 TIMES, CODE SIZE REDUCTION:4 WORDS
SUBOPT_0x41:
	MOVW R30,R20
	LDD  R26,Y+16
	LDD  R27,Y+16+1
	ADD  R30,R26
	ADC  R31,R27
	__ADDW1MN _rx_b0,1
	LD   R26,Z
	CPI  R26,LOW(0x3A)
	RET

;OPTIMIZER ADDED SUBROUTINE, CALLED 3 TIMES, CODE SIZE REDUCTION:9 WORDS
SUBOPT_0x42:
	LDD  R30,Y+14
	LDD  R31,Y+14+1
	ADIW R30,1
	STD  Y+14,R30
	STD  Y+14+1,R31
	LDD  R26,Y+14
	LDD  R27,Y+14+1
	SBIW R26,1
	RET

;OPTIMIZER ADDED SUBROUTINE, CALLED 3 TIMES, CODE SIZE REDUCTION:7 WORDS
SUBOPT_0x43:
	LDD  R30,Y+16
	LDD  R31,Y+16+1
	ADD  R30,R20
	ADC  R31,R21
	ADIW R30,1
	STD  Y+12,R30
	STD  Y+12+1,R31
	RET

;OPTIMIZER ADDED SUBROUTINE, CALLED 3 TIMES, CODE SIZE REDUCTION:1 WORDS
SUBOPT_0x44:
	LDD  R30,Y+12
	LDD  R31,Y+12+1
	__ADDW1MN _rx_b0,3
	RET

;OPTIMIZER ADDED SUBROUTINE, CALLED 17 TIMES, CODE SIZE REDUCTION:45 WORDS
SUBOPT_0x45:
	LD   R30,Z
	LDI  R31,0
	SBIW R30,48
	RET

;OPTIMIZER ADDED SUBROUTINE, CALLED 3 TIMES, CODE SIZE REDUCTION:1 WORDS
SUBOPT_0x46:
	LDD  R30,Y+12
	LDD  R31,Y+12+1
	__ADDW1MN _rx_b0,4
	RET

;OPTIMIZER ADDED SUBROUTINE, CALLED 3 TIMES, CODE SIZE REDUCTION:1 WORDS
SUBOPT_0x47:
	LDD  R30,Y+12
	LDD  R31,Y+12+1
	__ADDW1MN _rx_b0,5
	RET

;OPTIMIZER ADDED SUBROUTINE, CALLED 4 TIMES, CODE SIZE REDUCTION:39 WORDS
SUBOPT_0x48:
	LDI  R30,LOW(2)
	ST   -Y,R30
	CALL _glcd_clrln
	LDI  R30,LOW(3)
	ST   -Y,R30
	CALL _glcd_clrln
	LDI  R30,LOW(4)
	ST   -Y,R30
	CALL _glcd_clrln
	LDI  R30,LOW(5)
	ST   -Y,R30
	JMP  _glcd_clrln

;OPTIMIZER ADDED SUBROUTINE, CALLED 3 TIMES, CODE SIZE REDUCTION:1 WORDS
SUBOPT_0x49:
	LDD  R30,Y+12
	LDD  R31,Y+12+1
	__ADDW1MN _rx_b0,1
	RET

;OPTIMIZER ADDED SUBROUTINE, CALLED 2 TIMES, CODE SIZE REDUCTION:1 WORDS
SUBOPT_0x4A:
	LDI  R30,LOW(1)
	LDI  R31,HIGH(1)
	STS  _act_G000,R30
	STS  _act_G000+1,R31
	RET

;OPTIMIZER ADDED SUBROUTINE, CALLED 4 TIMES, CODE SIZE REDUCTION:3 WORDS
SUBOPT_0x4B:
	LDD  R26,Y+18
	LDD  R27,Y+18+1
	LDI  R30,LOW(10)
	LDI  R31,HIGH(10)
	RET

;OPTIMIZER ADDED SUBROUTINE, CALLED 2 TIMES, CODE SIZE REDUCTION:3 WORDS
SUBOPT_0x4C:
	CALL __MODW21
	LDI  R26,LOW(_hora)
	LDI  R27,HIGH(_hora)
	CALL __EEPROMWRW
	RJMP SUBOPT_0x4B

;OPTIMIZER ADDED SUBROUTINE, CALLED 2 TIMES, CODE SIZE REDUCTION:1 WORDS
SUBOPT_0x4D:
	CALL __DIVW21
	LDI  R26,LOW(_hora1)
	LDI  R27,HIGH(_hora1)
	CALL __EEPROMWRW
	RET

;OPTIMIZER ADDED SUBROUTINE, CALLED 2 TIMES, CODE SIZE REDUCTION:1 WORDS
SUBOPT_0x4E:
	LDD  R30,Y+8
	LDD  R31,Y+8+1
	__ADDW1MN _rx_b0,1
	RJMP SUBOPT_0x45

;OPTIMIZER ADDED SUBROUTINE, CALLED 5 TIMES, CODE SIZE REDUCTION:5 WORDS
SUBOPT_0x4F:
	CALL __EEPROMWRW
	LDD  R30,Y+8
	LDD  R31,Y+8+1
	RET

;OPTIMIZER ADDED SUBROUTINE, CALLED 4 TIMES, CODE SIZE REDUCTION:3 WORDS
SUBOPT_0x50:
	LDI  R26,LOW(_dia)
	LDI  R27,HIGH(_dia)
	CALL __EEPROMRDW
	RET

;OPTIMIZER ADDED SUBROUTINE, CALLED 3 TIMES, CODE SIZE REDUCTION:1 WORDS
SUBOPT_0x51:
	LDI  R26,LOW(_an1)
	LDI  R27,HIGH(_an1)
	CALL __EEPROMRDW
	RET

;OPTIMIZER ADDED SUBROUTINE, CALLED 3 TIMES, CODE SIZE REDUCTION:1 WORDS
SUBOPT_0x52:
	LDI  R26,LOW(_an)
	LDI  R27,HIGH(_an)
	CALL __EEPROMRDW
	RET

;OPTIMIZER ADDED SUBROUTINE, CALLED 3 TIMES, CODE SIZE REDUCTION:1 WORDS
SUBOPT_0x53:
	LDI  R26,LOW(_mes1)
	LDI  R27,HIGH(_mes1)
	CALL __EEPROMRDW
	RET

;OPTIMIZER ADDED SUBROUTINE, CALLED 3 TIMES, CODE SIZE REDUCTION:1 WORDS
SUBOPT_0x54:
	LDI  R26,LOW(_mes)
	LDI  R27,HIGH(_mes)
	CALL __EEPROMRDW
	RET

;OPTIMIZER ADDED SUBROUTINE, CALLED 3 TIMES, CODE SIZE REDUCTION:1 WORDS
SUBOPT_0x55:
	LDI  R26,LOW(_dia1)
	LDI  R27,HIGH(_dia1)
	CALL __EEPROMRDW
	RET

;OPTIMIZER ADDED SUBROUTINE, CALLED 3 TIMES, CODE SIZE REDUCTION:5 WORDS
SUBOPT_0x56:
	ST   -Y,R31
	ST   -Y,R30
	CALL _delay_ms
	JMP  _glcd_clear

;OPTIMIZER ADDED SUBROUTINE, CALLED 2 TIMES, CODE SIZE REDUCTION:7 WORDS
SUBOPT_0x57:
	ST   -Y,R31
	ST   -Y,R30
	LDI  R30,LOW(2)
	LDI  R31,HIGH(2)
	ST   -Y,R31
	ST   -Y,R30
	LDI  R30,LOW(0)
	ST   -Y,R30
	LDI  R30,LOW(2)
	ST   -Y,R30
	RJMP SUBOPT_0x2E

;OPTIMIZER ADDED SUBROUTINE, CALLED 6 TIMES, CODE SIZE REDUCTION:7 WORDS
SUBOPT_0x58:
	ST   -Y,R31
	ST   -Y,R30
	RJMP SUBOPT_0x2A

;OPTIMIZER ADDED SUBROUTINE, CALLED 8 TIMES, CODE SIZE REDUCTION:25 WORDS
SUBOPT_0x59:
	LDI  R30,LOW(0)
	ST   -Y,R30
	LDI  R30,LOW(1)
	ST   -Y,R30
	RJMP SUBOPT_0x2E

;OPTIMIZER ADDED SUBROUTINE, CALLED 6 TIMES, CODE SIZE REDUCTION:7 WORDS
SUBOPT_0x5A:
	LDI  R30,LOW(0)
	LDI  R31,HIGH(0)
	CALL __EEPROMWRW
	RET

;OPTIMIZER ADDED SUBROUTINE, CALLED 3 TIMES, CODE SIZE REDUCTION:1 WORDS
SUBOPT_0x5B:
	LDI  R24,24
	CALL _sprintf
	ADIW R28,28
	RET

;OPTIMIZER ADDED SUBROUTINE, CALLED 2 TIMES, CODE SIZE REDUCTION:1 WORDS
SUBOPT_0x5C:
	LDI  R30,LOW(2)
	LDI  R31,HIGH(2)
	ST   -Y,R31
	ST   -Y,R30
	RJMP SUBOPT_0x59

;OPTIMIZER ADDED SUBROUTINE, CALLED 3 TIMES, CODE SIZE REDUCTION:1 WORDS
SUBOPT_0x5D:
	ST   -Y,R31
	ST   -Y,R30
	LDI  R30,LOW(34)
	LDI  R31,HIGH(34)
	RET

;OPTIMIZER ADDED SUBROUTINE, CALLED 2 TIMES, CODE SIZE REDUCTION:3 WORDS
SUBOPT_0x5E:
	ST   -Y,R31
	ST   -Y,R30
	LDI  R30,LOW(4)
	LDI  R31,HIGH(4)
	ST   -Y,R31
	ST   -Y,R30
	RJMP SUBOPT_0x59

;OPTIMIZER ADDED SUBROUTINE, CALLED 3 TIMES, CODE SIZE REDUCTION:1 WORDS
SUBOPT_0x5F:
	LDS  R26,_gps
	LDS  R27,_gps+1
	RET

;OPTIMIZER ADDED SUBROUTINE, CALLED 3 TIMES, CODE SIZE REDUCTION:5 WORDS
SUBOPT_0x60:
	ST   -Y,R31
	ST   -Y,R30
	LDI  R30,LOW(95)
	LDI  R31,HIGH(95)
	RJMP SUBOPT_0x30

;OPTIMIZER ADDED SUBROUTINE, CALLED 3 TIMES, CODE SIZE REDUCTION:1 WORDS
SUBOPT_0x61:
	LDI  R30,LOW(127)
	LDI  R31,HIGH(127)
	RJMP SUBOPT_0x37

;OPTIMIZER ADDED SUBROUTINE, CALLED 2 TIMES, CODE SIZE REDUCTION:5 WORDS
SUBOPT_0x62:
	LDI  R30,LOW(_fecha)
	LDI  R31,HIGH(_fecha)
	ST   -Y,R31
	ST   -Y,R30
	__POINTW1FN _0x0,173
	ST   -Y,R31
	ST   -Y,R30
	RJMP SUBOPT_0x51

;OPTIMIZER ADDED SUBROUTINE, CALLED 5 TIMES, CODE SIZE REDUCTION:21 WORDS
SUBOPT_0x63:
	ST   -Y,R18
	LDD  R30,Y+13
	LDD  R31,Y+13+1
	ST   -Y,R31
	ST   -Y,R30
	LDD  R30,Y+17
	LDD  R31,Y+17+1
	ICALL
	RET

;OPTIMIZER ADDED SUBROUTINE, CALLED 5 TIMES, CODE SIZE REDUCTION:9 WORDS
SUBOPT_0x64:
	LDD  R30,Y+16
	LDD  R31,Y+16+1
	SBIW R30,4
	STD  Y+16,R30
	STD  Y+16+1,R31
	RET

;OPTIMIZER ADDED SUBROUTINE, CALLED 3 TIMES, CODE SIZE REDUCTION:7 WORDS
SUBOPT_0x65:
	LDD  R30,Y+13
	LDD  R31,Y+13+1
	ST   -Y,R31
	ST   -Y,R30
	LDD  R30,Y+17
	LDD  R31,Y+17+1
	ICALL
	RET

;OPTIMIZER ADDED SUBROUTINE, CALLED 2 TIMES, CODE SIZE REDUCTION:6 WORDS
SUBOPT_0x66:
	LDD  R26,Y+16
	LDD  R27,Y+16+1
	ADIW R26,4
	CALL __GETW1P
	STD  Y+6,R30
	STD  Y+6+1,R31
	ST   -Y,R31
	ST   -Y,R30
	RET

;OPTIMIZER ADDED SUBROUTINE, CALLED 2 TIMES, CODE SIZE REDUCTION:2 WORDS
SUBOPT_0x67:
	LDD  R26,Y+16
	LDD  R27,Y+16+1
	ADIW R26,4
	CALL __GETW1P
	STD  Y+10,R30
	STD  Y+10+1,R31
	RET

;OPTIMIZER ADDED SUBROUTINE, CALLED 2 TIMES, CODE SIZE REDUCTION:1 WORDS
SUBOPT_0x68:
	MOVW R26,R28
	ADIW R26,12
	CALL __ADDW2R15
	CALL __GETW1P
	RET

;OPTIMIZER ADDED SUBROUTINE, CALLED 2 TIMES, CODE SIZE REDUCTION:3 WORDS
SUBOPT_0x69:
	CALL __ADDW2R15
	CALL __GETW1P
	ST   -Y,R31
	ST   -Y,R30
	ST   -Y,R17
	ST   -Y,R16
	RET


	.CSEG
_delay_ms:
	ld   r30,y+
	ld   r31,y+
	adiw r30,0
	breq __delay_ms1
__delay_ms0:
	__DELAY_USW 0xACD
	wdr
	sbiw r30,1
	brne __delay_ms0
__delay_ms1:
	ret

__ADDW2R15:
	CLR  R0
	ADD  R26,R15
	ADC  R27,R0
	RET

__ANEGW1:
	NEG  R31
	NEG  R30
	SBCI R31,0
	RET

__LSLW3:
	LSL  R30
	ROL  R31
__LSLW2:
	LSL  R30
	ROL  R31
	LSL  R30
	ROL  R31
	RET

__CWD1:
	MOV  R22,R31
	ADD  R22,R22
	SBC  R22,R22
	MOV  R23,R22
	RET

__MULW12U:
	MUL  R31,R26
	MOV  R31,R0
	MUL  R30,R27
	ADD  R31,R0
	MUL  R30,R26
	MOV  R30,R0
	ADD  R31,R1
	RET

__MULW12:
	RCALL __CHKSIGNW
	RCALL __MULW12U
	BRTC __MULW121
	RCALL __ANEGW1
__MULW121:
	RET

__DIVW21U:
	CLR  R0
	CLR  R1
	LDI  R25,16
__DIVW21U1:
	LSL  R26
	ROL  R27
	ROL  R0
	ROL  R1
	SUB  R0,R30
	SBC  R1,R31
	BRCC __DIVW21U2
	ADD  R0,R30
	ADC  R1,R31
	RJMP __DIVW21U3
__DIVW21U2:
	SBR  R26,1
__DIVW21U3:
	DEC  R25
	BRNE __DIVW21U1
	MOVW R30,R26
	MOVW R26,R0
	RET

__DIVW21:
	RCALL __CHKSIGNW
	RCALL __DIVW21U
	BRTC __DIVW211
	RCALL __ANEGW1
__DIVW211:
	RET

__MODW21:
	CLT
	SBRS R27,7
	RJMP __MODW211
	COM  R26
	COM  R27
	ADIW R26,1
	SET
__MODW211:
	SBRC R31,7
	RCALL __ANEGW1
	RCALL __DIVW21U
	MOVW R30,R26
	BRTC __MODW212
	RCALL __ANEGW1
__MODW212:
	RET

__CHKSIGNW:
	CLT
	SBRS R31,7
	RJMP __CHKSW1
	RCALL __ANEGW1
	SET
__CHKSW1:
	SBRS R27,7
	RJMP __CHKSW2
	COM  R26
	COM  R27
	ADIW R26,1
	BLD  R0,0
	INC  R0
	BST  R0,0
__CHKSW2:
	RET

__GETW1P:
	LD   R30,X+
	LD   R31,X
	SBIW R26,1
	RET

__GETW1PF:
	LPM  R0,Z+
	LPM  R31,Z
	MOV  R30,R0
	RET

__PUTPARD1:
	ST   -Y,R23
	ST   -Y,R22
	ST   -Y,R31
	ST   -Y,R30
	RET

__SWAPW12:
	MOV  R1,R27
	MOV  R27,R31
	MOV  R31,R1

__SWAPB12:
	MOV  R1,R26
	MOV  R26,R30
	MOV  R30,R1
	RET

__EEPROMRDW:
	ADIW R26,1
	RCALL __EEPROMRDB
	MOV  R31,R30
	SBIW R26,1

__EEPROMRDB:
	SBIC EECR,EEWE
	RJMP __EEPROMRDB
	PUSH R31
	IN   R31,SREG
	CLI
	OUT  EEARL,R26
	OUT  EEARH,R27
	SBI  EECR,EERE
	IN   R30,EEDR
	OUT  SREG,R31
	POP  R31
	RET

__EEPROMWRW:
	RCALL __EEPROMWRB
	ADIW R26,1
	PUSH R30
	MOV  R30,R31
	RCALL __EEPROMWRB
	POP  R30
	SBIW R26,1
	RET

__EEPROMWRB:
	SBIS EECR,EEWE
	RJMP __EEPROMWRB1
	WDR
	RJMP __EEPROMWRB
__EEPROMWRB1:
	IN   R25,SREG
	CLI
	OUT  EEARL,R26
	OUT  EEARH,R27
	SBI  EECR,EERE
	IN   R24,EEDR
	CP   R30,R24
	BREQ __EEPROMWRB0
	OUT  EEDR,R30
	SBI  EECR,EEMWE
	SBI  EECR,EEWE
__EEPROMWRB0:
	OUT  SREG,R25
	RET

__SAVELOCR6:
	ST   -Y,R21
__SAVELOCR5:
	ST   -Y,R20
__SAVELOCR4:
	ST   -Y,R19
__SAVELOCR3:
	ST   -Y,R18
__SAVELOCR2:
	ST   -Y,R17
	ST   -Y,R16
	RET

__LOADLOCR6:
	LDD  R21,Y+5
__LOADLOCR5:
	LDD  R20,Y+4
__LOADLOCR4:
	LDD  R19,Y+3
__LOADLOCR3:
	LDD  R18,Y+2
__LOADLOCR2:
	LDD  R17,Y+1
	LD   R16,Y
	RET

;END OF CODE MARKER
__END_OF_CODE:
