
;CodeVisionAVR C Compiler V2.04.4a Advanced
;(C) Copyright 1998-2009 Pavel Haiduc, HP InfoTech s.r.l.
;http://www.hpinfotech.com

;Chip type                : ATmega324P
;Program type             : Application
;Clock frequency          : 11,059200 MHz
;Memory model             : Small
;Optimize for             : Size
;(s)printf features       : int, width
;(s)scanf features        : int, width
;External RAM size        : 0
;Data Stack size          : 512 byte(s)
;Heap size                : 0 byte(s)
;Promote 'char' to 'int'  : Yes
;'char' is unsigned       : Yes
;8 bit enums              : Yes
;global 'const' stored in FLASH: No
;Enhanced core instructions    : On
;Smart register allocation     : On
;Automatic register allocation : On

	#pragma AVRPART ADMIN PART_NAME ATmega324P
	#pragma AVRPART MEMORY PROG_FLASH 32768
	#pragma AVRPART MEMORY EEPROM 1024
	#pragma AVRPART MEMORY INT_SRAM SIZE 2048
	#pragma AVRPART MEMORY INT_SRAM START_ADDR 0x100

	.LISTMAC
	.EQU EERE=0x0
	.EQU EEWE=0x1
	.EQU EEMWE=0x2
	.EQU UDRE=0x5
	.EQU RXC=0x7
	.EQU EECR=0x1F
	.EQU EEDR=0x20
	.EQU EEARL=0x21
	.EQU EEARH=0x22
	.EQU SPSR0=0x2D
	.EQU SPDR0=0x2E
	.EQU SMCR=0x33
	.EQU MCUSR=0x34
	.EQU MCUCR=0x35
	.EQU WDTCSR=0x60
	.EQU UCSR0A=0xC0
	.EQU UDR0=0xC6
	.EQU SPL=0x3D
	.EQU SPH=0x3E
	.EQU SREG=0x3F
	.EQU GPIOR0=0x1E

	.DEF R0X0=R0
	.DEF R0X1=R1
	.DEF R0X2=R2
	.DEF R0X3=R3
	.DEF R0X4=R4
	.DEF R0X5=R5
	.DEF R0X6=R6
	.DEF R0X7=R7
	.DEF R0X8=R8
	.DEF R0X9=R9
	.DEF R0XA=R10
	.DEF R0XB=R11
	.DEF R0XC=R12
	.DEF R0XD=R13
	.DEF R0XE=R14
	.DEF R0XF=R15
	.DEF R0X10=R16
	.DEF R0X11=R17
	.DEF R0X12=R18
	.DEF R0X13=R19
	.DEF R0X14=R20
	.DEF R0X15=R21
	.DEF R0X16=R22
	.DEF R0X17=R23
	.DEF R0X18=R24
	.DEF R0X19=R25
	.DEF R0X1A=R26
	.DEF R0X1B=R27
	.DEF R0X1C=R28
	.DEF R0X1D=R29
	.DEF R0X1E=R30
	.DEF R0X1F=R31

	.MACRO __CPD1N
	CPI  R30,LOW(@0)
	LDI  R26,HIGH(@0)
	CPC  R31,R26
	LDI  R26,BYTE3(@0)
	CPC  R22,R26
	LDI  R26,BYTE4(@0)
	CPC  R23,R26
	.ENDM

	.MACRO __CPD2N
	CPI  R26,LOW(@0)
	LDI  R30,HIGH(@0)
	CPC  R27,R30
	LDI  R30,BYTE3(@0)
	CPC  R24,R30
	LDI  R30,BYTE4(@0)
	CPC  R25,R30
	.ENDM

	.MACRO __CPWRR
	CP   R@0,R@2
	CPC  R@1,R@3
	.ENDM

	.MACRO __CPWRN
	CPI  R@0,LOW(@2)
	LDI  R30,HIGH(@2)
	CPC  R@1,R30
	.ENDM

	.MACRO __ADDB1MN
	SUBI R30,LOW(-@0-(@1))
	.ENDM

	.MACRO __ADDB2MN
	SUBI R26,LOW(-@0-(@1))
	.ENDM

	.MACRO __ADDW1MN
	SUBI R30,LOW(-@0-(@1))
	SBCI R31,HIGH(-@0-(@1))
	.ENDM

	.MACRO __ADDW2MN
	SUBI R26,LOW(-@0-(@1))
	SBCI R27,HIGH(-@0-(@1))
	.ENDM

	.MACRO __ADDW1FN
	SUBI R30,LOW(-2*@0-(@1))
	SBCI R31,HIGH(-2*@0-(@1))
	.ENDM

	.MACRO __ADDD1FN
	SUBI R30,LOW(-2*@0-(@1))
	SBCI R31,HIGH(-2*@0-(@1))
	SBCI R22,BYTE3(-2*@0-(@1))
	.ENDM

	.MACRO __ADDD1N
	SUBI R30,LOW(-@0)
	SBCI R31,HIGH(-@0)
	SBCI R22,BYTE3(-@0)
	SBCI R23,BYTE4(-@0)
	.ENDM

	.MACRO __ADDD2N
	SUBI R26,LOW(-@0)
	SBCI R27,HIGH(-@0)
	SBCI R24,BYTE3(-@0)
	SBCI R25,BYTE4(-@0)
	.ENDM

	.MACRO __SUBD1N
	SUBI R30,LOW(@0)
	SBCI R31,HIGH(@0)
	SBCI R22,BYTE3(@0)
	SBCI R23,BYTE4(@0)
	.ENDM

	.MACRO __SUBD2N
	SUBI R26,LOW(@0)
	SBCI R27,HIGH(@0)
	SBCI R24,BYTE3(@0)
	SBCI R25,BYTE4(@0)
	.ENDM

	.MACRO __ANDBMNN
	LDS  R30,@0+(@1)
	ANDI R30,LOW(@2)
	STS  @0+(@1),R30
	.ENDM

	.MACRO __ANDWMNN
	LDS  R30,@0+(@1)
	ANDI R30,LOW(@2)
	STS  @0+(@1),R30
	LDS  R30,@0+(@1)+1
	ANDI R30,HIGH(@2)
	STS  @0+(@1)+1,R30
	.ENDM

	.MACRO __ANDD1N
	ANDI R30,LOW(@0)
	ANDI R31,HIGH(@0)
	ANDI R22,BYTE3(@0)
	ANDI R23,BYTE4(@0)
	.ENDM

	.MACRO __ANDD2N
	ANDI R26,LOW(@0)
	ANDI R27,HIGH(@0)
	ANDI R24,BYTE3(@0)
	ANDI R25,BYTE4(@0)
	.ENDM

	.MACRO __ORBMNN
	LDS  R30,@0+(@1)
	ORI  R30,LOW(@2)
	STS  @0+(@1),R30
	.ENDM

	.MACRO __ORWMNN
	LDS  R30,@0+(@1)
	ORI  R30,LOW(@2)
	STS  @0+(@1),R30
	LDS  R30,@0+(@1)+1
	ORI  R30,HIGH(@2)
	STS  @0+(@1)+1,R30
	.ENDM

	.MACRO __ORD1N
	ORI  R30,LOW(@0)
	ORI  R31,HIGH(@0)
	ORI  R22,BYTE3(@0)
	ORI  R23,BYTE4(@0)
	.ENDM

	.MACRO __ORD2N
	ORI  R26,LOW(@0)
	ORI  R27,HIGH(@0)
	ORI  R24,BYTE3(@0)
	ORI  R25,BYTE4(@0)
	.ENDM

	.MACRO __DELAY_USB
	LDI  R24,LOW(@0)
__DELAY_USB_LOOP:
	DEC  R24
	BRNE __DELAY_USB_LOOP
	.ENDM

	.MACRO __DELAY_USW
	LDI  R24,LOW(@0)
	LDI  R25,HIGH(@0)
__DELAY_USW_LOOP:
	SBIW R24,1
	BRNE __DELAY_USW_LOOP
	.ENDM

	.MACRO __GETD1S
	LDD  R30,Y+@0
	LDD  R31,Y+@0+1
	LDD  R22,Y+@0+2
	LDD  R23,Y+@0+3
	.ENDM

	.MACRO __GETD2S
	LDD  R26,Y+@0
	LDD  R27,Y+@0+1
	LDD  R24,Y+@0+2
	LDD  R25,Y+@0+3
	.ENDM

	.MACRO __PUTD1S
	STD  Y+@0,R30
	STD  Y+@0+1,R31
	STD  Y+@0+2,R22
	STD  Y+@0+3,R23
	.ENDM

	.MACRO __PUTD2S
	STD  Y+@0,R26
	STD  Y+@0+1,R27
	STD  Y+@0+2,R24
	STD  Y+@0+3,R25
	.ENDM

	.MACRO __PUTDZ2
	STD  Z+@0,R26
	STD  Z+@0+1,R27
	STD  Z+@0+2,R24
	STD  Z+@0+3,R25
	.ENDM

	.MACRO __CLRD1S
	STD  Y+@0,R30
	STD  Y+@0+1,R30
	STD  Y+@0+2,R30
	STD  Y+@0+3,R30
	.ENDM

	.MACRO __POINTB1MN
	LDI  R30,LOW(@0+(@1))
	.ENDM

	.MACRO __POINTW1MN
	LDI  R30,LOW(@0+(@1))
	LDI  R31,HIGH(@0+(@1))
	.ENDM

	.MACRO __POINTD1M
	LDI  R30,LOW(@0)
	LDI  R31,HIGH(@0)
	LDI  R22,BYTE3(@0)
	LDI  R23,BYTE4(@0)
	.ENDM

	.MACRO __POINTW1FN
	LDI  R30,LOW(2*@0+(@1))
	LDI  R31,HIGH(2*@0+(@1))
	.ENDM

	.MACRO __POINTD1FN
	LDI  R30,LOW(2*@0+(@1))
	LDI  R31,HIGH(2*@0+(@1))
	LDI  R22,BYTE3(2*@0+(@1))
	LDI  R23,BYTE4(2*@0+(@1))
	.ENDM

	.MACRO __POINTB2MN
	LDI  R26,LOW(@0+(@1))
	.ENDM

	.MACRO __POINTW2MN
	LDI  R26,LOW(@0+(@1))
	LDI  R27,HIGH(@0+(@1))
	.ENDM

	.MACRO __POINTBRM
	LDI  R@0,LOW(@1)
	.ENDM

	.MACRO __POINTWRM
	LDI  R@0,LOW(@2)
	LDI  R@1,HIGH(@2)
	.ENDM

	.MACRO __POINTBRMN
	LDI  R@0,LOW(@1+(@2))
	.ENDM

	.MACRO __POINTWRMN
	LDI  R@0,LOW(@2+(@3))
	LDI  R@1,HIGH(@2+(@3))
	.ENDM

	.MACRO __POINTWRFN
	LDI  R@0,LOW(@2*2+(@3))
	LDI  R@1,HIGH(@2*2+(@3))
	.ENDM

	.MACRO __GETD1N
	LDI  R30,LOW(@0)
	LDI  R31,HIGH(@0)
	LDI  R22,BYTE3(@0)
	LDI  R23,BYTE4(@0)
	.ENDM

	.MACRO __GETD2N
	LDI  R26,LOW(@0)
	LDI  R27,HIGH(@0)
	LDI  R24,BYTE3(@0)
	LDI  R25,BYTE4(@0)
	.ENDM

	.MACRO __GETB1MN
	LDS  R30,@0+(@1)
	.ENDM

	.MACRO __GETB1HMN
	LDS  R31,@0+(@1)
	.ENDM

	.MACRO __GETW1MN
	LDS  R30,@0+(@1)
	LDS  R31,@0+(@1)+1
	.ENDM

	.MACRO __GETD1MN
	LDS  R30,@0+(@1)
	LDS  R31,@0+(@1)+1
	LDS  R22,@0+(@1)+2
	LDS  R23,@0+(@1)+3
	.ENDM

	.MACRO __GETBRMN
	LDS  R@0,@1+(@2)
	.ENDM

	.MACRO __GETWRMN
	LDS  R@0,@2+(@3)
	LDS  R@1,@2+(@3)+1
	.ENDM

	.MACRO __GETWRZ
	LDD  R@0,Z+@2
	LDD  R@1,Z+@2+1
	.ENDM

	.MACRO __GETD2Z
	LDD  R26,Z+@0
	LDD  R27,Z+@0+1
	LDD  R24,Z+@0+2
	LDD  R25,Z+@0+3
	.ENDM

	.MACRO __GETB2MN
	LDS  R26,@0+(@1)
	.ENDM

	.MACRO __GETW2MN
	LDS  R26,@0+(@1)
	LDS  R27,@0+(@1)+1
	.ENDM

	.MACRO __GETD2MN
	LDS  R26,@0+(@1)
	LDS  R27,@0+(@1)+1
	LDS  R24,@0+(@1)+2
	LDS  R25,@0+(@1)+3
	.ENDM

	.MACRO __PUTB1MN
	STS  @0+(@1),R30
	.ENDM

	.MACRO __PUTW1MN
	STS  @0+(@1),R30
	STS  @0+(@1)+1,R31
	.ENDM

	.MACRO __PUTD1MN
	STS  @0+(@1),R30
	STS  @0+(@1)+1,R31
	STS  @0+(@1)+2,R22
	STS  @0+(@1)+3,R23
	.ENDM

	.MACRO __PUTB1EN
	LDI  R26,LOW(@0+(@1))
	LDI  R27,HIGH(@0+(@1))
	CALL __EEPROMWRB
	.ENDM

	.MACRO __PUTW1EN
	LDI  R26,LOW(@0+(@1))
	LDI  R27,HIGH(@0+(@1))
	CALL __EEPROMWRW
	.ENDM

	.MACRO __PUTD1EN
	LDI  R26,LOW(@0+(@1))
	LDI  R27,HIGH(@0+(@1))
	CALL __EEPROMWRD
	.ENDM

	.MACRO __PUTBR0MN
	STS  @0+(@1),R0
	.ENDM

	.MACRO __PUTBMRN
	STS  @0+(@1),R@2
	.ENDM

	.MACRO __PUTWMRN
	STS  @0+(@1),R@2
	STS  @0+(@1)+1,R@3
	.ENDM

	.MACRO __PUTBZR
	STD  Z+@1,R@0
	.ENDM

	.MACRO __PUTWZR
	STD  Z+@2,R@0
	STD  Z+@2+1,R@1
	.ENDM

	.MACRO __GETW1R
	MOV  R30,R@0
	MOV  R31,R@1
	.ENDM

	.MACRO __GETW2R
	MOV  R26,R@0
	MOV  R27,R@1
	.ENDM

	.MACRO __GETWRN
	LDI  R@0,LOW(@2)
	LDI  R@1,HIGH(@2)
	.ENDM

	.MACRO __PUTW1R
	MOV  R@0,R30
	MOV  R@1,R31
	.ENDM

	.MACRO __PUTW2R
	MOV  R@0,R26
	MOV  R@1,R27
	.ENDM

	.MACRO __ADDWRN
	SUBI R@0,LOW(-@2)
	SBCI R@1,HIGH(-@2)
	.ENDM

	.MACRO __ADDWRR
	ADD  R@0,R@2
	ADC  R@1,R@3
	.ENDM

	.MACRO __SUBWRN
	SUBI R@0,LOW(@2)
	SBCI R@1,HIGH(@2)
	.ENDM

	.MACRO __SUBWRR
	SUB  R@0,R@2
	SBC  R@1,R@3
	.ENDM

	.MACRO __ANDWRN
	ANDI R@0,LOW(@2)
	ANDI R@1,HIGH(@2)
	.ENDM

	.MACRO __ANDWRR
	AND  R@0,R@2
	AND  R@1,R@3
	.ENDM

	.MACRO __ORWRN
	ORI  R@0,LOW(@2)
	ORI  R@1,HIGH(@2)
	.ENDM

	.MACRO __ORWRR
	OR   R@0,R@2
	OR   R@1,R@3
	.ENDM

	.MACRO __EORWRR
	EOR  R@0,R@2
	EOR  R@1,R@3
	.ENDM

	.MACRO __GETWRS
	LDD  R@0,Y+@2
	LDD  R@1,Y+@2+1
	.ENDM

	.MACRO __PUTBSR
	STD  Y+@1,R@0
	.ENDM

	.MACRO __PUTWSR
	STD  Y+@2,R@0
	STD  Y+@2+1,R@1
	.ENDM

	.MACRO __MOVEWRR
	MOV  R@0,R@2
	MOV  R@1,R@3
	.ENDM

	.MACRO __INWR
	IN   R@0,@2
	IN   R@1,@2+1
	.ENDM

	.MACRO __OUTWR
	OUT  @2+1,R@1
	OUT  @2,R@0
	.ENDM

	.MACRO __CALL1MN
	LDS  R30,@0+(@1)
	LDS  R31,@0+(@1)+1
	ICALL
	.ENDM

	.MACRO __CALL1FN
	LDI  R30,LOW(2*@0+(@1))
	LDI  R31,HIGH(2*@0+(@1))
	CALL __GETW1PF
	ICALL
	.ENDM

	.MACRO __CALL2EN
	LDI  R26,LOW(@0+(@1))
	LDI  R27,HIGH(@0+(@1))
	CALL __EEPROMRDW
	ICALL
	.ENDM

	.MACRO __GETW1STACK
	IN   R26,SPL
	IN   R27,SPH
	ADIW R26,@0+1
	LD   R30,X+
	LD   R31,X
	.ENDM

	.MACRO __GETD1STACK
	IN   R26,SPL
	IN   R27,SPH
	ADIW R26,@0+1
	LD   R30,X+
	LD   R31,X+
	LD   R22,X
	.ENDM

	.MACRO __NBST
	BST  R@0,@1
	IN   R30,SREG
	LDI  R31,0x40
	EOR  R30,R31
	OUT  SREG,R30
	.ENDM


	.MACRO __PUTB1SN
	LDD  R26,Y+@0
	LDD  R27,Y+@0+1
	SUBI R26,LOW(-@1)
	SBCI R27,HIGH(-@1)
	ST   X,R30
	.ENDM

	.MACRO __PUTW1SN
	LDD  R26,Y+@0
	LDD  R27,Y+@0+1
	SUBI R26,LOW(-@1)
	SBCI R27,HIGH(-@1)
	ST   X+,R30
	ST   X,R31
	.ENDM

	.MACRO __PUTD1SN
	LDD  R26,Y+@0
	LDD  R27,Y+@0+1
	SUBI R26,LOW(-@1)
	SBCI R27,HIGH(-@1)
	CALL __PUTDP1
	.ENDM

	.MACRO __PUTB1SNS
	LDD  R26,Y+@0
	LDD  R27,Y+@0+1
	ADIW R26,@1
	ST   X,R30
	.ENDM

	.MACRO __PUTW1SNS
	LDD  R26,Y+@0
	LDD  R27,Y+@0+1
	ADIW R26,@1
	ST   X+,R30
	ST   X,R31
	.ENDM

	.MACRO __PUTD1SNS
	LDD  R26,Y+@0
	LDD  R27,Y+@0+1
	ADIW R26,@1
	CALL __PUTDP1
	.ENDM

	.MACRO __PUTB1PMN
	LDS  R26,@0
	LDS  R27,@0+1
	SUBI R26,LOW(-@1)
	SBCI R27,HIGH(-@1)
	ST   X,R30
	.ENDM

	.MACRO __PUTW1PMN
	LDS  R26,@0
	LDS  R27,@0+1
	SUBI R26,LOW(-@1)
	SBCI R27,HIGH(-@1)
	ST   X+,R30
	ST   X,R31
	.ENDM

	.MACRO __PUTD1PMN
	LDS  R26,@0
	LDS  R27,@0+1
	SUBI R26,LOW(-@1)
	SBCI R27,HIGH(-@1)
	CALL __PUTDP1
	.ENDM

	.MACRO __PUTB1PMNS
	LDS  R26,@0
	LDS  R27,@0+1
	ADIW R26,@1
	ST   X,R30
	.ENDM

	.MACRO __PUTW1PMNS
	LDS  R26,@0
	LDS  R27,@0+1
	ADIW R26,@1
	ST   X+,R30
	ST   X,R31
	.ENDM

	.MACRO __PUTD1PMNS
	LDS  R26,@0
	LDS  R27,@0+1
	ADIW R26,@1
	CALL __PUTDP1
	.ENDM

	.MACRO __PUTB1RN
	MOVW R26,R@0
	SUBI R26,LOW(-@1)
	SBCI R27,HIGH(-@1)
	ST   X,R30
	.ENDM

	.MACRO __PUTW1RN
	MOVW R26,R@0
	SUBI R26,LOW(-@1)
	SBCI R27,HIGH(-@1)
	ST   X+,R30
	ST   X,R31
	.ENDM

	.MACRO __PUTD1RN
	MOVW R26,R@0
	SUBI R26,LOW(-@1)
	SBCI R27,HIGH(-@1)
	CALL __PUTDP1
	.ENDM

	.MACRO __PUTB1RNS
	MOVW R26,R@0
	ADIW R26,@1
	ST   X,R30
	.ENDM

	.MACRO __PUTW1RNS
	MOVW R26,R@0
	ADIW R26,@1
	ST   X+,R30
	ST   X,R31
	.ENDM

	.MACRO __PUTD1RNS
	MOVW R26,R@0
	ADIW R26,@1
	CALL __PUTDP1
	.ENDM

	.MACRO __PUTB1RON
	MOV  R26,R@0
	MOV  R27,R@1
	SUBI R26,LOW(-@2)
	SBCI R27,HIGH(-@2)
	ST   X,R30
	.ENDM

	.MACRO __PUTW1RON
	MOV  R26,R@0
	MOV  R27,R@1
	SUBI R26,LOW(-@2)
	SBCI R27,HIGH(-@2)
	ST   X+,R30
	ST   X,R31
	.ENDM

	.MACRO __PUTD1RON
	MOV  R26,R@0
	MOV  R27,R@1
	SUBI R26,LOW(-@2)
	SBCI R27,HIGH(-@2)
	CALL __PUTDP1
	.ENDM

	.MACRO __PUTB1RONS
	MOV  R26,R@0
	MOV  R27,R@1
	ADIW R26,@2
	ST   X,R30
	.ENDM

	.MACRO __PUTW1RONS
	MOV  R26,R@0
	MOV  R27,R@1
	ADIW R26,@2
	ST   X+,R30
	ST   X,R31
	.ENDM

	.MACRO __PUTD1RONS
	MOV  R26,R@0
	MOV  R27,R@1
	ADIW R26,@2
	CALL __PUTDP1
	.ENDM


	.MACRO __GETB1SX
	MOVW R30,R28
	SUBI R30,LOW(-@0)
	SBCI R31,HIGH(-@0)
	LD   R30,Z
	.ENDM

	.MACRO __GETB1HSX
	MOVW R30,R28
	SUBI R30,LOW(-@0)
	SBCI R31,HIGH(-@0)
	LD   R31,Z
	.ENDM

	.MACRO __GETW1SX
	MOVW R30,R28
	SUBI R30,LOW(-@0)
	SBCI R31,HIGH(-@0)
	LD   R0,Z+
	LD   R31,Z
	MOV  R30,R0
	.ENDM

	.MACRO __GETD1SX
	MOVW R30,R28
	SUBI R30,LOW(-@0)
	SBCI R31,HIGH(-@0)
	LD   R0,Z+
	LD   R1,Z+
	LD   R22,Z+
	LD   R23,Z
	MOVW R30,R0
	.ENDM

	.MACRO __GETB2SX
	MOVW R26,R28
	SUBI R26,LOW(-@0)
	SBCI R27,HIGH(-@0)
	LD   R26,X
	.ENDM

	.MACRO __GETW2SX
	MOVW R26,R28
	SUBI R26,LOW(-@0)
	SBCI R27,HIGH(-@0)
	LD   R0,X+
	LD   R27,X
	MOV  R26,R0
	.ENDM

	.MACRO __GETD2SX
	MOVW R26,R28
	SUBI R26,LOW(-@0)
	SBCI R27,HIGH(-@0)
	LD   R0,X+
	LD   R1,X+
	LD   R24,X+
	LD   R25,X
	MOVW R26,R0
	.ENDM

	.MACRO __GETBRSX
	MOVW R30,R28
	SUBI R30,LOW(-@1)
	SBCI R31,HIGH(-@1)
	LD   R@0,Z
	.ENDM

	.MACRO __GETWRSX
	MOVW R30,R28
	SUBI R30,LOW(-@2)
	SBCI R31,HIGH(-@2)
	LD   R@0,Z+
	LD   R@1,Z
	.ENDM

	.MACRO __GETBRSX2
	MOVW R26,R28
	SUBI R26,LOW(-@1)
	SBCI R27,HIGH(-@1)
	LD   R@0,X
	.ENDM

	.MACRO __GETWRSX2
	MOVW R26,R28
	SUBI R26,LOW(-@2)
	SBCI R27,HIGH(-@2)
	LD   R@0,X+
	LD   R@1,X
	.ENDM

	.MACRO __LSLW8SX
	MOVW R30,R28
	SUBI R30,LOW(-@0)
	SBCI R31,HIGH(-@0)
	LD   R31,Z
	CLR  R30
	.ENDM

	.MACRO __PUTB1SX
	MOVW R26,R28
	SUBI R26,LOW(-@0)
	SBCI R27,HIGH(-@0)
	ST   X,R30
	.ENDM

	.MACRO __PUTW1SX
	MOVW R26,R28
	SUBI R26,LOW(-@0)
	SBCI R27,HIGH(-@0)
	ST   X+,R30
	ST   X,R31
	.ENDM

	.MACRO __PUTD1SX
	MOVW R26,R28
	SUBI R26,LOW(-@0)
	SBCI R27,HIGH(-@0)
	ST   X+,R30
	ST   X+,R31
	ST   X+,R22
	ST   X,R23
	.ENDM

	.MACRO __CLRW1SX
	MOVW R26,R28
	SUBI R26,LOW(-@0)
	SBCI R27,HIGH(-@0)
	ST   X+,R30
	ST   X,R30
	.ENDM

	.MACRO __CLRD1SX
	MOVW R26,R28
	SUBI R26,LOW(-@0)
	SBCI R27,HIGH(-@0)
	ST   X+,R30
	ST   X+,R30
	ST   X+,R30
	ST   X,R30
	.ENDM

	.MACRO __PUTB2SX
	MOVW R30,R28
	SUBI R30,LOW(-@0)
	SBCI R31,HIGH(-@0)
	ST   Z,R26
	.ENDM

	.MACRO __PUTW2SX
	MOVW R30,R28
	SUBI R30,LOW(-@0)
	SBCI R31,HIGH(-@0)
	ST   Z+,R26
	ST   Z,R27
	.ENDM

	.MACRO __PUTD2SX
	MOVW R30,R28
	SUBI R30,LOW(-@0)
	SBCI R31,HIGH(-@0)
	ST   Z+,R26
	ST   Z+,R27
	ST   Z+,R24
	ST   Z,R25
	.ENDM

	.MACRO __PUTBSRX
	MOVW R30,R28
	SUBI R30,LOW(-@1)
	SBCI R31,HIGH(-@1)
	ST   Z,R@0
	.ENDM

	.MACRO __PUTWSRX
	MOVW R30,R28
	SUBI R30,LOW(-@2)
	SBCI R31,HIGH(-@2)
	ST   Z+,R@0
	ST   Z,R@1
	.ENDM

	.MACRO __PUTB1SNX
	MOVW R26,R28
	SUBI R26,LOW(-@0)
	SBCI R27,HIGH(-@0)
	LD   R0,X+
	LD   R27,X
	MOV  R26,R0
	SUBI R26,LOW(-@1)
	SBCI R27,HIGH(-@1)
	ST   X,R30
	.ENDM

	.MACRO __PUTW1SNX
	MOVW R26,R28
	SUBI R26,LOW(-@0)
	SBCI R27,HIGH(-@0)
	LD   R0,X+
	LD   R27,X
	MOV  R26,R0
	SUBI R26,LOW(-@1)
	SBCI R27,HIGH(-@1)
	ST   X+,R30
	ST   X,R31
	.ENDM

	.MACRO __PUTD1SNX
	MOVW R26,R28
	SUBI R26,LOW(-@0)
	SBCI R27,HIGH(-@0)
	LD   R0,X+
	LD   R27,X
	MOV  R26,R0
	SUBI R26,LOW(-@1)
	SBCI R27,HIGH(-@1)
	ST   X+,R30
	ST   X+,R31
	ST   X+,R22
	ST   X,R23
	.ENDM

	.MACRO __MULBRR
	MULS R@0,R@1
	MOVW R30,R0
	.ENDM

	.MACRO __MULBRRU
	MUL  R@0,R@1
	MOVW R30,R0
	.ENDM

	.MACRO __MULBRR0
	MULS R@0,R@1
	.ENDM

	.MACRO __MULBRRU0
	MUL  R@0,R@1
	.ENDM

	.MACRO __MULBNWRU
	LDI  R26,@2
	MUL  R26,R@0
	MOVW R30,R0
	MUL  R26,R@1
	ADD  R31,R0
	.ENDM

;NAME DEFINITIONS FOR GLOBAL VARIABLES ALLOCATED TO REGISTERS
	.DEF _rx_wr_index0=R4
	.DEF _rx_rd_index0=R3
	.DEF _rx_counter0=R6
	.DEF _ruta=R5
	.DEF _ruta_aux=R8
	.DEF _bandera1=R7
	.DEF _bandera2=R10
	.DEF _bandera3=R9
	.DEF _bandera4=R12
	.DEF _bandera5=R11
	.DEF _aceptar=R14
	.DEF _btn1=R13

	.CSEG
	.ORG 0x00

;INTERRUPT VECTORS
	JMP  __RESET
	JMP  0x00
	JMP  0x00
	JMP  0x00
	JMP  0x00
	JMP  0x00
	JMP  0x00
	JMP  0x00
	JMP  0x00
	JMP  0x00
	JMP  0x00
	JMP  0x00
	JMP  0x00
	JMP  0x00
	JMP  0x00
	JMP  0x00
	JMP  0x00
	JMP  0x00
	JMP  _timer0_ovf_isr
	JMP  0x00
	JMP  _usart0_rx_isr
	JMP  0x00
	JMP  0x00
	JMP  0x00
	JMP  0x00
	JMP  0x00
	JMP  0x00
	JMP  0x00
	JMP  0x00
	JMP  0x00
	JMP  0x00

_font:
	.DB  0x0,0x0,0x0,0x0,0x0,0x0,0x0,0x0
	.DB  0x0,0x0,0x0,0x0,0x0,0x0,0x0,0x0
	.DB  0x0,0x0,0x0,0x0,0x0,0x0,0x0,0x0
	.DB  0x0,0x0,0x0,0x0,0x0,0x0,0x0,0x0
	.DB  0x0,0x0,0x0,0x0,0x0,0x0,0x0,0x0
	.DB  0x0,0x0,0x0,0x0,0x0,0x0,0x0,0x0
	.DB  0x0,0x0,0x0,0x0,0x0,0x0,0x0,0x0
	.DB  0x0,0x0,0x0,0x0,0x0,0x0,0x0,0x0
	.DB  0x0,0x0,0x0,0x0,0x0,0x0,0x0,0x0
	.DB  0x0,0x0,0x0,0x0,0x0,0x0,0x0,0x0
	.DB  0x0,0x0,0x0,0x0,0x0,0x0,0x0,0x0
	.DB  0x0,0x0,0x0,0x0,0x0,0x0,0x0,0x0
	.DB  0x0,0x0,0x0,0x0,0x0,0x0,0x0,0x0
	.DB  0x0,0x0,0x0,0x0,0x0,0x0,0x0,0x0
	.DB  0x0,0x0,0x0,0x0,0x0,0x0,0x0,0x0
	.DB  0x0,0x0,0x0,0x0,0x0,0x0,0x0,0x0
	.DB  0x0,0x0,0x0,0x0,0x0,0x0,0x0,0x0
	.DB  0x0,0x0,0x0,0x0,0x0,0x0,0x0,0x0
	.DB  0x0,0x0,0x0,0x0,0x0,0x0,0x0,0x0
	.DB  0x0,0x0,0x0,0x0,0x0,0x0,0x0,0x0
	.DB  0x0,0x0,0x0,0x0,0x0,0x0,0x0,0x0
	.DB  0x0,0x0,0x0,0x0,0x0,0x0,0x0,0x0
	.DB  0x0,0x0,0x0,0x0,0x0,0x0,0x0,0x0
	.DB  0x0,0x0,0x0,0x0,0x0,0x0,0x0,0x0
	.DB  0x0,0x0,0x0,0x0,0x0,0x0,0x0,0x0
	.DB  0x0,0x0,0x0,0x0,0x0,0x0,0x0,0x0
	.DB  0x0,0x0,0x0,0x0,0x0,0x0,0x0,0x0
	.DB  0x0,0x0,0x0,0x0,0x0,0x0,0x0,0x0
	.DB  0x0,0x0,0x0,0x0,0x0,0x0,0x0,0x0
	.DB  0x0,0x0,0x0,0x0,0x0,0x0,0x0,0x0
	.DB  0x0,0x0,0x0,0x0,0x0,0x0,0x0,0x0
	.DB  0x0,0x0,0x0,0x0,0x0,0x0,0x0,0x0
	.DB  0x0,0x0,0x0,0x0,0x0,0x0,0x0,0x0
	.DB  0x0,0x0,0x4F,0x0,0x0,0x0,0x0,0x0
	.DB  0x0,0x7,0x0,0x7,0x0,0x0,0x0,0x0
	.DB  0x0,0x24,0xFF,0x24,0xFF,0x24,0x0,0x0
	.DB  0x0,0x44,0x4A,0xFF,0x4A,0x32,0x0,0x0
	.DB  0x40,0x23,0x13,0x8,0xC4,0xC2,0x0,0x0
	.DB  0x0,0x36,0x49,0x55,0x22,0x40,0x80,0x0
	.DB  0x0,0x0,0x5,0x3,0x0,0x0,0x0,0x0
	.DB  0x0,0x3C,0x42,0x81,0x0,0x0,0x0,0x0
	.DB  0x0,0x81,0x42,0x3C,0x0,0x0,0x0,0x0
	.DB  0x0,0x14,0x8,0x3E,0x8,0x14,0x0,0x0
	.DB  0x0,0x10,0x10,0x7C,0x10,0x10,0x0,0x0
	.DB  0x0,0x0,0x28,0x18,0x0,0x0,0x0,0x0
	.DB  0x0,0x8,0x8,0x8,0x8,0x8,0x8,0x0
	.DB  0x0,0x60,0x60,0x0,0x0,0x0,0x0,0x0
	.DB  0x40,0x20,0x10,0x8,0x4,0x2,0x0,0x0
	.DB  0x0,0x7E,0xFF,0x81,0x81,0xFF,0x7E,0x0
	.DB  0x0,0x80,0x82,0xFE,0xFF,0x80,0x80,0x0
	.DB  0x0,0xE2,0xF1,0x91,0x91,0x9F,0x8E,0x0
	.DB  0x0,0x62,0xC3,0xC9,0xC9,0xFF,0x76,0x0
	.DB  0x0,0x18,0x14,0x12,0xFF,0xFF,0x10,0x0
	.DB  0x0,0x6F,0x8F,0x89,0x89,0xF9,0x71,0x0
	.DB  0x0,0x7E,0xFF,0x89,0x89,0xF9,0x72,0x0
	.DB  0x0,0x1,0x1,0xF1,0xFD,0x7,0x3,0x0
	.DB  0x0,0x76,0xFF,0x89,0x89,0xFF,0x76,0x0
	.DB  0x0,0x46,0x8F,0x89,0x89,0xFF,0x7E,0x0
	.DB  0x0,0x0,0x66,0x66,0x0,0x0,0x0,0x0
	.DB  0x0,0x0,0x56,0x36,0x0,0x0,0x0,0x0
	.DB  0x0,0x8,0x14,0x22,0x41,0x0,0x0,0x0
	.DB  0x0,0x24,0x24,0x24,0x24,0x24,0x0,0x0
	.DB  0x0,0x0,0x41,0x22,0x14,0x8,0x0,0x0
	.DB  0x0,0x2,0x1,0xB1,0x9,0x6,0x0,0x0
	.DB  0x0,0x62,0x91,0xF1,0x81,0x7E,0x0,0x0
	.DB  0x0,0xFE,0x11,0x11,0x11,0xFE,0x0,0x0
	.DB  0x0,0xFF,0x89,0x89,0x89,0x76,0x0,0x0
	.DB  0x0,0x7E,0x81,0x81,0x81,0x42,0x0,0x0
	.DB  0x0,0xFF,0x81,0x81,0x42,0x3C,0x0,0x0
	.DB  0x0,0xFF,0x89,0x89,0x89,0x81,0x0,0x0
	.DB  0x0,0xFF,0x9,0x9,0x9,0x1,0x0,0x0
	.DB  0x0,0x7E,0x81,0x91,0x91,0x72,0x0,0x0
	.DB  0x0,0xFF,0x10,0x10,0x10,0xFF,0x0,0x0
	.DB  0x0,0x0,0x81,0xFF,0x81,0x0,0x0,0x0
	.DB  0x0,0x40,0x80,0x81,0x7F,0x1,0x0,0x0
	.DB  0x0,0xFF,0x18,0x24,0x42,0x81,0x0,0x0
	.DB  0x0,0xFF,0x80,0x80,0x80,0x80,0x0,0x0
	.DB  0x0,0xFF,0x2,0xC,0x2,0xFF,0x0,0x0
	.DB  0x0,0xFF,0x4,0x8,0x10,0xFF,0x0,0x0
	.DB  0x0,0x7E,0x81,0x81,0x81,0x7E,0x0,0x0
	.DB  0x0,0xFF,0x11,0x11,0x11,0xE,0x0,0x0
	.DB  0x7E,0x81,0xA1,0x41,0xBE,0x0,0x0,0x0
	.DB  0x0,0xFF,0x11,0x31,0x51,0x8E,0x0,0x0
	.DB  0x0,0x86,0x89,0x89,0x89,0x71,0x0,0x0
	.DB  0x0,0x1,0x1,0xFF,0x1,0x1,0x0,0x0
	.DB  0x0,0x7F,0x80,0x80,0x80,0x7F,0x0,0x0
	.DB  0x0,0x3F,0x40,0x80,0x40,0x3F,0x0,0x0
	.DB  0x0,0x3F,0xC0,0x60,0xC0,0x3F,0x0,0x0
	.DB  0x0,0xE3,0x14,0x8,0x14,0xE3,0x0,0x0
	.DB  0x0,0x7,0x8,0xF0,0x8,0x7,0x0,0x0
	.DB  0x0,0xC1,0xA1,0x91,0x89,0x87,0x0,0x0
	.DB  0x0,0xFF,0x81,0x81,0x0,0x0,0x0,0x0
	.DB  0x0,0x15,0x16,0x7C,0x16,0x15,0x0,0x0
	.DB  0x0,0x41,0x41,0x7F,0x0,0x0,0x0,0x0
	.DB  0x0,0x4,0x2,0x1,0x2,0x4,0x0,0x0
	.DB  0x0,0x40,0x40,0x40,0x40,0x40,0x0,0x0
	.DB  0x0,0x1,0x2,0x4,0x0,0x0,0x0,0x0
	.DB  0x0,0x60,0x94,0x94,0x94,0x78,0x0,0x0
	.DB  0x0,0xFF,0x88,0x88,0x88,0x70,0x0,0x0
	.DB  0x0,0x78,0x84,0x84,0x84,0x0,0x0,0x0
	.DB  0x0,0x78,0x84,0x84,0x88,0x7F,0x0,0x0
	.DB  0x0,0x78,0x94,0x94,0x94,0x58,0x0,0x0
	.DB  0x0,0x10,0xFE,0x11,0x1,0x2,0x0,0x0
	.DB  0x0,0xC,0x92,0x92,0x92,0x7E,0x0,0x0
	.DB  0x0,0xFF,0x10,0x8,0x8,0xF0,0x0,0x0
	.DB  0x0,0x0,0x84,0xFD,0x80,0x0,0x0,0x0
	.DB  0x0,0x60,0x80,0x80,0x7D,0x0,0x0,0x0
	.DB  0x0,0xFF,0x30,0x48,0x84,0x0,0x0,0x0
	.DB  0x0,0x0,0x81,0xFF,0x80,0x0,0x0,0x0
	.DB  0x0,0xFC,0x4,0x38,0x4,0xF8,0x0,0x0
	.DB  0x0,0xFC,0x8,0x4,0x4,0xF8,0x0,0x0
	.DB  0x0,0x78,0x84,0x84,0x84,0x78,0x0,0x0
	.DB  0x0,0xFC,0x14,0x14,0x14,0x8,0x0,0x0
	.DB  0x0,0x8,0x14,0x14,0x18,0xFC,0x0,0x0
	.DB  0x0,0xFC,0x8,0x4,0x4,0x8,0x0,0x0
	.DB  0x0,0x88,0x94,0x94,0x94,0x60,0x0,0x0
	.DB  0x0,0x4,0x7F,0x84,0x80,0x40,0x0,0x0
	.DB  0x0,0x7C,0x80,0x80,0x40,0xFC,0x0,0x0
	.DB  0x0,0x3C,0x40,0x80,0x40,0x3C,0x0,0x0
	.DB  0x0,0x3E,0xC0,0x60,0xC0,0x3E,0x0,0x0
	.DB  0x0,0x42,0x24,0x18,0x24,0x42,0x0,0x0
	.DB  0x0,0x6,0x88,0x88,0x88,0x7E,0x0,0x0
	.DB  0x0,0xC4,0xA4,0x94,0x8C,0x84,0x0,0x0
	.DB  0x0,0x8,0x76,0x81,0x0,0x0,0x0,0x0
	.DB  0x0,0x0,0x0,0xFF,0x0,0x0,0x0,0x0
	.DB  0x0,0x81,0x76,0x8,0x0,0x0,0x0,0x0
	.DB  0x0,0x8,0x8,0x2A,0x1C,0x8,0x0,0x0
	.DB  0x0,0x8,0x1C,0x2A,0x8,0x8,0x0,0x0
	.DB  0x0,0x7C,0x82,0x81,0x82,0x7C,0x0,0x0
	.DB  0x0,0x0,0x0,0x0,0x0,0x0,0x0,0x0
	.DB  0x0,0x0,0x0,0x0,0x0,0x0,0x0,0x0
	.DB  0x0,0x0,0x0,0x0,0x0,0x0,0x0,0x0
	.DB  0x0,0x0,0x0,0x0,0x0,0x0,0x0,0x0
	.DB  0x0,0x0,0x0,0x0,0x0,0x0,0x0,0x0
	.DB  0x0,0x0,0x0,0x0,0x0,0x0,0x0,0x0
	.DB  0x0,0x0,0x0,0x0,0x0,0x0,0x0,0x0
	.DB  0x0,0x0,0x0,0x0,0x0,0x0,0x0,0x0
	.DB  0x0,0x0,0x0,0x0,0x0,0x0,0x0,0x0
	.DB  0x0,0x0,0x0,0x0,0x0,0x0,0x0,0x0
	.DB  0x0,0x0,0x0,0x0,0x0,0x0,0x0,0x0
	.DB  0x0,0x0,0x0,0x0,0x0,0x0,0x0,0x0
	.DB  0x0,0x0,0x0,0x0,0x0,0x0,0x0,0x0
	.DB  0x0,0x0,0x0,0x0,0x0,0x0,0x0,0x0
	.DB  0x0,0x0,0x0,0x0,0x0,0x0,0x0,0x0
	.DB  0x0,0x0,0x0,0x0,0x0,0x0,0x0,0x0
	.DB  0x0,0x0,0x0,0x0,0x0,0x0,0x0,0x0
	.DB  0x0,0x0,0x0,0x0,0x0,0x0,0x0,0x0
	.DB  0x0,0x0,0x0,0x0,0x0,0x0,0x0,0x0
	.DB  0x0,0x0,0x0,0x0,0x0,0x0,0x0,0x0
	.DB  0x0,0x0,0x0,0x0,0x0,0x0,0x0,0x0
	.DB  0x0,0x0,0x0,0x0,0x0,0x0,0x0,0x0
	.DB  0x0,0x0,0x0,0x0,0x0,0x0,0x0,0x0
	.DB  0x0,0x0,0x0,0x0,0x0,0x0,0x0,0x0
	.DB  0x0,0x0,0x0,0x0,0x0,0x0,0x0,0x0
	.DB  0x0,0x0,0x0,0x0,0x0,0x0,0x0,0x0
	.DB  0x0,0x0,0x0,0x0,0x0,0x0,0x0,0x0
	.DB  0x0,0x0,0x0,0x0,0x0,0x0,0x0,0x0
	.DB  0x0,0x0,0x0,0x0,0x0,0x0,0x0,0x0
	.DB  0x0,0x0,0x0,0x0,0x0,0x0,0x0,0x0
	.DB  0x0,0x0,0x0,0x0,0x0,0x0,0x0,0x0
	.DB  0x0,0x0,0x0,0x0,0x0,0x0,0x0,0x0
	.DB  0x0,0x0,0x0,0x0,0x0,0x0,0x0,0x0
	.DB  0x0,0x0,0x0,0x0,0x0,0x0,0x0,0x0
	.DB  0x0,0x0,0x0,0x0,0x0,0x0,0x0,0x0
	.DB  0x0,0x0,0x0,0x0,0x0,0x0,0x0,0x0
	.DB  0x0,0x0,0x0,0x0,0x0,0x0,0x0,0x0
	.DB  0x0,0x0,0x0,0x0,0x0,0x0,0x0,0x0
	.DB  0x0,0x0,0x0,0x0,0x0,0x0,0x0,0x0
	.DB  0x0,0x0,0x0,0x0,0x0,0x0,0x0,0x0
	.DB  0x0,0x0,0x0,0x0,0x0,0x0,0x0,0x0
	.DB  0x0,0x0,0x0,0x0,0x0,0x0,0x0,0x0
	.DB  0x0,0x0,0x0,0x0,0x0,0x0,0x0,0x0
	.DB  0x0,0x0,0x0,0x0,0x0,0x0,0x0,0x0
	.DB  0x0,0x0,0x0,0x0,0x0,0x0,0x0,0x0
	.DB  0x0,0x0,0x0,0x0,0x0,0x0,0x0,0x0
	.DB  0x0,0x0,0x0,0x0,0x0,0x0,0x0,0x0
	.DB  0x0,0x0,0x0,0x0,0x0,0x0,0x0,0x0
	.DB  0x0,0x0,0x0,0x0,0x0,0x0,0x0,0x0
	.DB  0x0,0x0,0x0,0x0,0x0,0x0,0x0,0x0
	.DB  0x0,0x0,0x0,0x0,0x0,0x0,0x0,0x0
	.DB  0x0,0x0,0x0,0x0,0x0,0x0,0x0,0x0
	.DB  0x0,0x0,0x0,0x0,0x0,0x0,0x0,0x0
	.DB  0x0,0x0,0x0,0x0,0x0,0x0,0x0,0x0
	.DB  0x0,0x0,0x0,0x0,0x0,0x0,0x0,0x0
	.DB  0x0,0x0,0x0,0x0,0x0,0x0,0x0,0x0
	.DB  0x0,0x0,0x0,0x0,0x0,0x0,0x0,0x0
	.DB  0x0,0x0,0x0,0x0,0x0,0x0,0x0,0x0
	.DB  0x0,0x0,0x0,0x0,0x0,0x0,0x0,0x0
	.DB  0x0,0x0,0x0,0x0,0x0,0x0,0x0,0x0
	.DB  0x0,0x0,0x0,0x0,0x0,0x0,0x0,0x0
	.DB  0x0,0x0,0x0,0x0,0x0,0x0,0x0,0x0
	.DB  0x0,0x0,0x0,0x0,0x0,0x0,0x0,0x0
	.DB  0x0,0x0,0x0,0x0,0x0,0x0,0x0,0x0
	.DB  0x0,0x0,0x0,0x0,0x0,0x0,0x0,0x0
	.DB  0x0,0x0,0x0,0x0,0x0,0x0,0x0,0x0
	.DB  0x0,0x0,0x0,0x0,0x0,0x0,0x0,0x0
	.DB  0x0,0x0,0x0,0x0,0x0,0x0,0x0,0x0
	.DB  0x0,0x0,0x0,0x0,0x0,0x0,0x0,0x0
	.DB  0x0,0x0,0x0,0x0,0x0,0x0,0x0,0x0
	.DB  0x0,0x0,0x0,0x0,0x0,0x0,0x0,0x0
	.DB  0x0,0x0,0x0,0x0,0x0,0x0,0x0,0x0
	.DB  0x0,0x0,0x0,0x0,0x0,0x0,0x0,0x0
	.DB  0x0,0x0,0x0,0x0,0x0,0x0,0x0,0x0
	.DB  0x0,0x0,0x0,0x0,0x0,0x0,0x0,0x0
	.DB  0x0,0x0,0x0,0x0,0x0,0x0,0x0,0x0
	.DB  0x0,0x0,0x0,0x0,0x0,0x0,0x0,0x0
	.DB  0x0,0x0,0x0,0x0,0x0,0x0,0x0,0x0
	.DB  0x0,0x0,0x0,0x0,0x0,0x0,0x0,0x0
	.DB  0x0,0x0,0x0,0x0,0x0,0x0,0x0,0x0
	.DB  0x0,0x0,0x0,0x0,0x0,0x0,0x0,0x0
	.DB  0x0,0x0,0x0,0x0,0x0,0x0,0x0,0x0
	.DB  0x0,0x0,0x0,0x0,0x0,0x0,0x0,0x0
	.DB  0x0,0x0,0x0,0x0,0x0,0x0,0x0,0x0
	.DB  0x0,0x0,0x0,0x0,0x0,0x0,0x0,0x0
	.DB  0x0,0x0,0x0,0x0,0x0,0x0,0x0,0x0
	.DB  0x0,0x0,0x0,0x0,0x0,0x0,0x0,0x0
	.DB  0x0,0x0,0x0,0x0,0x0,0x0,0x0,0x0
	.DB  0x0,0x0,0x0,0x0,0x0,0x0,0x0,0x0
	.DB  0x0,0x0,0x0,0x0,0x0,0x0,0x0,0x0
	.DB  0x0,0x0,0x0,0x0,0x0,0x0,0x0,0x0
	.DB  0x0,0x0,0x0,0x0,0x0,0x0,0x0,0x0
	.DB  0x0,0x0,0x0,0x0,0x0,0x0,0x0,0x0
	.DB  0x0,0x0,0x0,0x0,0x0,0x0,0x0,0x0
	.DB  0x0,0x0,0x0,0x0,0x0,0x0,0x0,0x0
	.DB  0x0,0x0,0x0,0x0,0x0,0x0,0x0,0x0
	.DB  0x0,0x0,0x0,0x0,0x0,0x0,0x0,0x0
	.DB  0x0,0x0,0x0,0x0,0x0,0x0,0x0,0x0
	.DB  0x0,0x0,0x0,0x0,0x0,0x0,0x0,0x0
	.DB  0x0,0x0,0x0,0x0,0x0,0x0,0x0,0x0
	.DB  0x0,0x0,0x0,0x0,0x0,0x0,0x0,0x0
	.DB  0x0,0x0,0x0,0x0,0x0,0x0,0x0,0x0
	.DB  0x0,0x0,0x0,0x0,0x0,0x0,0x0,0x0
	.DB  0x0,0x0,0x0,0x0,0x0,0x0,0x0,0x0
	.DB  0x0,0x0,0x0,0x0,0x0,0x0,0x0,0x0
	.DB  0x0,0x0,0x0,0x0,0x0,0x0,0x0,0x0
	.DB  0x0,0x0,0x0,0x0,0x0,0x0,0x0,0x0
	.DB  0x0,0x0,0x0,0x0,0x0,0x0,0x0,0x0
	.DB  0x0,0x0,0x0,0x0,0x0,0x0,0x0,0x0
	.DB  0x0,0x0,0x0,0x0,0x0,0x0,0x0,0x0
	.DB  0x0,0x0,0x0,0x0,0x0,0x0,0x0,0x0
	.DB  0x0,0x0,0x0,0x0,0x0,0x0,0x0,0x0
	.DB  0x0,0x0,0x0,0x0,0x0,0x0,0x0,0x0
	.DB  0x0,0x0,0x0,0x0,0x0,0x0,0x0,0x0
	.DB  0x0,0x0,0x0,0x0,0x0,0x0,0x0,0x0
	.DB  0x0,0x0,0x0,0x0,0x0,0x0,0x0,0x0
	.DB  0x0,0x0,0x0,0x0,0x0,0x0,0x0,0x0
	.DB  0x0,0x0,0x0,0x0,0x0,0x0,0x0,0x0
	.DB  0x0,0x0,0x0,0x0,0x0,0x0,0x0,0x0
	.DB  0x0,0x0,0x0,0x0,0x0,0x0,0x0,0x0
	.DB  0x0,0x0,0x0,0x0,0x0,0x0,0x0,0x0
	.DB  0x0,0x0,0x0,0x0,0x0,0x0,0x0,0x0
	.DB  0x0,0x0,0x0,0x0,0x0,0x0,0x0,0x0
	.DB  0x0,0x0,0x0,0x0,0x0,0x0,0x0,0x0
	.DB  0x0,0x0,0x0,0x0,0x0,0x0,0x0,0x0
	.DB  0x0,0x0,0x0,0x0,0x0,0x0,0x0,0x0
	.DB  0x0,0x0,0x0,0x0,0x0,0x0,0x0,0x0
_map:
	.DB  0xC1,0xC1,0xC1,0xC1,0x0,0x0,0xC2,0xC2
	.DB  0xFE,0xFE,0x1,0x0,0xC3,0xC3,0x1F,0x1F
	.DB  0x1,0x0,0xC4,0xC4,0xFC,0xFC,0x1,0x0
	.DB  0xC5,0xC5,0xC5,0xC5,0x1,0x1,0xC6,0xBD
	.DB  0xBF,0xBE,0x1,0x1,0xC7,0xC7,0xC0,0xC0
	.DB  0x1,0x0,0xC8,0x82,0x84,0x83,0x1,0x1
	.DB  0xC9,0xC9,0xFD,0xFD,0x1,0x0,0xCA,0x85
	.DB  0x87,0x86,0x1,0x1,0xCB,0x88,0x8A,0x89
	.DB  0x1,0x1,0xCC,0x8B,0xCC,0x8B,0x1,0x1
	.DB  0xCD,0x8C,0xCD,0x8C,0x1,0x1,0xCE,0x11
	.DB  0xCE,0x11,0x1,0x1,0xCF,0xCF,0x13,0x13
	.DB  0x1,0x0,0xD0,0xD0,0x8F,0x8F,0x1,0x0
	.DB  0xD1,0xD1,0x1B,0x1B,0x1,0x0,0xD2,0xD2
	.DB  0x91,0x91,0x1,0x0,0xD3,0x92,0x94,0x93
	.DB  0x1,0x1,0xD4,0x95,0x97,0x96,0x1,0x1
	.DB  0xD5,0x17,0x9A,0x99,0x1,0x1,0xD6,0x9B
	.DB  0x9D,0x9C,0x1,0x1,0xD7,0xD7,0xD7,0xD7
	.DB  0x0,0x0,0xD8,0xD8,0x9E,0x9E,0x1,0x1
	.DB  0xD9,0xD9,0x9F,0x9F,0x1,0x1,0xDA,0xA0
	.DB  0xA2,0xA1,0x1,0x1,0xDB,0xA3,0xA5,0xA4
	.DB  0x1,0x1,0xDC,0xDC,0xDC,0xDC,0x0,0x0
	.DB  0xDD,0xA6,0xA8,0xA7,0x1,0x1,0xDE,0xA9
	.DB  0xAB,0xAA,0x1,0x1,0xDF,0xAC,0xAE,0xAD
	.DB  0x1,0x1,0xE0,0xE0,0xE0,0xE0,0x0,0x0
	.DB  0xE1,0xAF,0xB1,0xB0,0x1,0x1,0xE2,0xE2
	.DB  0xE2,0xE2,0x0,0x0,0xE3,0xB2,0xB4,0xB3
	.DB  0x1,0x1,0xE4,0xB5,0xB7,0xB6,0x1,0x1
	.DB  0xE5,0xB8,0xBA,0xB9,0x1,0x1,0xE6,0xE6
	.DB  0xBC,0xBC,0x1,0x0,0xE7,0xE7,0xE7,0xE7
	.DB  0x0,0x0,0xE8,0xE8,0xE8,0xE8,0x0,0x0
	.DB  0xE9,0xE9,0xE9,0xE9,0x0,0x0,0xEA,0xEA
	.DB  0xEA,0xEA,0x0,0x0,0xEB,0xEB,0xEB,0xEB
	.DB  0x0,0x0,0xEC,0xBD,0xBF,0xBE,0x1,0x1
	.DB  0xED,0xBD,0xBF,0xBE,0x1,0x1,0xEE,0xEE
	.DB  0xEE,0xEE,0x0,0x0,0xEF,0xEF,0xEF,0xEF
	.DB  0x0,0x0,0xF0,0xF0,0xF0,0xF0,0x0,0x0
	.DB  0xF1,0xF1,0xF1,0xF1,0x0,0x0,0xF2,0xF2
	.DB  0xF2,0xF2,0x0,0x0,0xF3,0xF3,0xF3,0xF3
	.DB  0x0,0x0,0xF5,0xF5,0xF5,0xF5,0x0,0x0
	.DB  0xF6,0xF6,0xF6,0xF6,0x0,0x0,0xF7,0xF7
	.DB  0xF7,0xF7,0x0,0x0,0xF8,0xF8,0xF8,0xF8
	.DB  0x0,0x0,0xFB,0xF9,0xFB,0xFA,0x1,0x1
	.DB  0xBB,0xBB,0xF4,0xF4,0x1,0x0,0x81,0x1C
	.DB  0x1E,0x1D,0x1,0x1,0x90,0x18,0x1A,0x19
	.DB  0x1,0x1,0x98,0x14,0x16,0x15,0x1,0x1
	.DB  0x8E,0x8E,0x12,0x12,0x1,0x0,0x8D,0x10
	.DB  0x8D,0x10,0x1,0x1
_arr:
	.DB  0x0,0xC0,0xF0,0x30,0x38,0x18,0x18,0x18
	.DB  0x18,0x98,0xB0,0xB0,0x30,0x30,0x30,0x60
	.DB  0x60,0x60,0x60,0x60,0x60,0xC0,0xC0,0xC0
	.DB  0xC0,0xC0,0xC0,0xC0,0x80,0x80,0x80,0x80
	.DB  0x80,0x0,0x0,0x0,0x0,0x0,0x0,0x0
	.DB  0x0,0x0,0x0,0x0,0x0,0x0,0x0,0x0
	.DB  0x0,0x0,0x0,0x0,0x0,0x0,0x0,0x0
	.DB  0x0,0x0,0x0,0x0,0x0,0x0,0x0,0x0
	.DB  0x0,0x0,0x0,0x0,0x0,0x0,0x0,0x0
	.DB  0x0,0x0,0x0,0x0,0x0,0x0,0x0,0x0
	.DB  0x0,0x0,0x0,0x0,0x0,0x0,0x0,0x0
	.DB  0x0,0x0,0x0,0x0,0x0,0x0,0x0,0x0
	.DB  0x0,0x0,0x0,0x0,0x0,0x0,0x0,0x0
	.DB  0x0,0x0,0x0,0x0,0x0,0x0,0x0,0x0
	.DB  0x0,0x0,0x0,0x0,0x0,0x0,0x0,0x0
	.DB  0x0,0x0,0x0,0x0,0x0,0x0,0x0,0x0
	.DB  0x0,0xFF,0xFF,0x0,0x0,0xC,0x18,0xF0
	.DB  0xE7,0xF,0xFD,0xF,0x7,0x0,0x0,0x0
	.DB  0x0,0x0,0x0,0x0,0x0,0x0,0x0,0x0
	.DB  0x0,0x0,0x0,0x0,0x1,0x1,0x1,0x81
	.DB  0x83,0x83,0x83,0xC3,0xE7,0x67,0xE6,0xC6
	.DB  0x6,0xE,0xC,0xC,0xC,0xC,0xC,0x18
	.DB  0x18,0x18,0x78,0x70,0xE0,0xC0,0x0,0x0
	.DB  0x0,0x0,0x0,0xE0,0xE0,0x0,0x0,0x0
	.DB  0x0,0x0,0x80,0xC0,0xE0,0x60,0x0,0xE0
	.DB  0xE0,0x60,0x60,0x60,0x60,0x60,0x60,0xE0
	.DB  0xC0,0x0,0x0,0x0,0x80,0xC0,0x60,0x60
	.DB  0xC0,0x80,0x0,0x0,0x0,0xE0,0xE0,0x60
	.DB  0x60,0x60,0x60,0x60,0x60,0xC0,0x80,0x0
	.DB  0x0,0x0,0x80,0xC0,0x60,0x60,0xC0,0x80
	.DB  0x0,0x0,0x0,0x0,0x80,0xC0,0x60,0x60
	.DB  0x60,0x60,0x60,0xC0,0x80,0x0,0x0,0x0
	.DB  0x0,0xFF,0xFF,0x0,0x0,0x0,0x0,0xFF
	.DB  0xFF,0x0,0xFF,0x0,0x0,0x0,0x0,0x0
	.DB  0x0,0x0,0x0,0x0,0x0,0x0,0x0,0x80
	.DB  0xC0,0x60,0x30,0x18,0x8C,0xC6,0x63,0x31
	.DB  0x18,0x8,0x8,0x9,0xB,0xB,0xB,0x9
	.DB  0x8,0x8,0x8,0x8,0x8,0x8,0x1C,0x3E
	.DB  0x36,0x3E,0x1C,0x0,0xFF,0xFF,0x0,0x0
	.DB  0x0,0x0,0x0,0xFF,0xFF,0x70,0xF8,0x8C
	.DB  0x8E,0x7,0x3,0x1,0x0,0x0,0x0,0xFF
	.DB  0xFF,0xE0,0xE0,0xE0,0x60,0x60,0x60,0x7F
	.DB  0x3F,0x0,0xFE,0xFF,0x61,0x60,0x60,0x60
	.DB  0x60,0x61,0xFF,0xFE,0x0,0xFF,0xFF,0x0
	.DB  0x0,0x0,0x0,0x0,0x0,0xFF,0xFF,0x0
	.DB  0xFE,0xFF,0x61,0x60,0x60,0x60,0x60,0x61
	.DB  0xFF,0xFE,0x0,0xFF,0xFF,0x0,0x0,0x0
	.DB  0x0,0x0,0x0,0x0,0x1,0x0,0x0,0x0
	.DB  0x0,0xFF,0xFF,0x0,0x0,0x0,0x0,0xFF
	.DB  0xFF,0x0,0x3F,0x30,0x30,0x30,0x30,0x30
	.DB  0x30,0x30,0x30,0x18,0xC,0xC6,0xE3,0x31
	.DB  0x18,0xC,0x6,0x3,0x1,0x0,0x0,0x0
	.DB  0x0,0x0,0x0,0x0,0x0,0x0,0x0,0x0
	.DB  0x0,0x0,0x0,0x0,0x0,0x0,0x0,0x0
	.DB  0x0,0x0,0x0,0x0,0xFF,0xFF,0x0,0x0
	.DB  0x0,0x0,0x0,0x3F,0x3F,0x0,0x0,0x1
	.DB  0x3,0x7,0xE,0x1C,0x38,0x30,0x0,0x3F
	.DB  0x3F,0x0,0x0,0x1,0x3,0x7,0xE,0x3C
	.DB  0x38,0x0,0x3F,0x3F,0x0,0x0,0x0,0x0
	.DB  0x0,0x0,0x3F,0x3F,0x0,0x3F,0x3F,0x30
	.DB  0x30,0x30,0x30,0x30,0x30,0x1F,0xF,0x0
	.DB  0x3F,0x3F,0x0,0x0,0x0,0x0,0x0,0x0
	.DB  0x3F,0x3F,0x0,0xF,0x1F,0x30,0x30,0x30
	.DB  0x30,0x30,0x30,0x38,0x18,0x0,0x0,0x0
	.DB  0x0,0xFF,0xFF,0x0,0x0,0x0,0x0,0xFF
	.DB  0xFF,0x0,0xFF,0x3,0x3,0x3,0x3,0x3
	.DB  0x3,0x3,0x3,0x6,0xC,0x19,0x33,0x66
	.DB  0xCC,0x98,0x30,0x60,0xC0,0x80,0x0,0x0
	.DB  0x0,0x0,0x0,0x0,0x0,0x0,0x0,0x0
	.DB  0x0,0x0,0x0,0x0,0x0,0x0,0x0,0x0
	.DB  0x0,0x0,0x0,0x0,0xFF,0xFF,0x0,0x0
	.DB  0x0,0x0,0x0,0x0,0x0,0x0,0x0,0x0
	.DB  0x0,0x0,0x0,0x0,0x0,0x0,0x0,0x0
	.DB  0x0,0x0,0x0,0x0,0x0,0x0,0x0,0x0
	.DB  0x0,0x0,0x0,0x0,0x0,0x0,0x0,0x0
	.DB  0x0,0x0,0x0,0x0,0x0,0x0,0x0,0x0
	.DB  0x0,0x0,0x0,0x0,0x0,0x0,0x0,0x0
	.DB  0x0,0x0,0x0,0x0,0x0,0x0,0x0,0x0
	.DB  0x0,0x0,0x0,0x0,0x0,0x0,0x0,0x0
	.DB  0x0,0x0,0x0,0x0,0x0,0x0,0x0,0x0
	.DB  0x0,0xFF,0xFF,0x0,0x0,0x0,0x0,0xFF
	.DB  0xFF,0x0,0xFF,0x0,0x0,0x0,0x0,0x0
	.DB  0x0,0x0,0x0,0x0,0x0,0x0,0x0,0x0
	.DB  0x0,0x1,0x3,0x6,0xC,0x19,0x33,0x66
	.DB  0x44,0x44,0x44,0xE4,0xF4,0xB4,0xF4,0xE4
	.DB  0x4,0x4,0x4,0x4,0x4,0x4,0xE,0x1F
	.DB  0x1B,0x1F,0xE,0x0,0xFF,0xFF,0x0,0x0
	.DB  0x0,0xFC,0x0,0x0,0x0,0x0,0x0,0xF8
	.DB  0x4,0x4,0x4,0xF8,0x0,0xC,0x4,0x4
	.DB  0x4,0xFC,0x0,0xF0,0x88,0x84,0x88,0xF0
	.DB  0x0,0x80,0x80,0x80,0x0,0xFC,0x84,0x84
	.DB  0x4,0x4,0x0,0xF8,0x4,0x4,0x4,0x8
	.DB  0x0,0xFC,0x0,0x0,0x0,0xFC,0x0,0xF0
	.DB  0x88,0x84,0x88,0xF0,0x0,0xFC,0x4,0x4
	.DB  0x4,0xF8,0x0,0xF8,0x4,0x4,0x4,0xF8
	.DB  0x0,0xFC,0x44,0xC4,0x44,0x38,0x0,0x0
	.DB  0x0,0xFF,0xFF,0x0,0x0,0x6,0x3,0x1
	.DB  0x1C,0x3E,0x37,0x3E,0x1C,0x0,0x0,0x0
	.DB  0x0,0x0,0x0,0x80,0x80,0x80,0x80,0xC0
	.DB  0xC0,0xC0,0xC0,0xC0,0xE0,0x60,0x60,0x60
	.DB  0x30,0x30,0x30,0x30,0x31,0x39,0x19,0x18
	.DB  0x18,0x1C,0xC,0xC,0xC,0xC,0xE,0x6
	.DB  0x6,0x6,0x7,0x3,0x1,0x0,0x0,0x0
	.DB  0x0,0xF,0x8,0x8,0x8,0x8,0x0,0x7
	.DB  0x8,0x8,0x8,0x7,0x0,0x6,0x8,0x8
	.DB  0x8,0x7,0x0,0xF,0x0,0x0,0x0,0xF
	.DB  0x0,0x0,0x0,0x0,0x0,0xF,0x8,0x8
	.DB  0x8,0x8,0x0,0x7,0x8,0x8,0x8,0x4
	.DB  0x0,0x7,0x8,0x8,0x8,0x7,0x0,0xF
	.DB  0x0,0x0,0x0,0xF,0x0,0xF,0x8,0x8
	.DB  0x8,0x7,0x0,0x7,0x8,0x8,0x8,0x7
	.DB  0x0,0xF,0x0,0x0,0x1,0xE,0x0,0x0
	.DB  0x0,0x1,0x7,0x6,0xE,0xC,0xC,0xC
	.DB  0xC,0xC,0x6,0x6,0x6,0x6,0x3,0x3
	.DB  0x3,0x3,0x3,0x1,0x1,0x1,0x1,0x1
	.DB  0x0,0x0,0x0,0x0,0x0,0x0,0x0,0x0
	.DB  0x0,0x0,0x0,0x0,0x0,0x0,0x0,0x0
	.DB  0x0,0x0,0x0,0x0,0x0,0x0,0x0,0x0
	.DB  0x0,0x0,0x0,0x0,0x0,0x0,0x0,0x0
	.DB  0x0,0x0,0x0,0x0,0x0,0x0,0x0,0x0
	.DB  0x0,0x0,0x0,0x0,0x0,0x0,0x0,0x0
	.DB  0x0,0x0,0x0,0x0,0x0,0x0,0x0,0x0
	.DB  0x0,0x0,0x0,0x0,0x0,0x0,0x0,0x0
	.DB  0x0,0x0,0x0,0x0,0x0,0x0,0x0,0x0
	.DB  0x0,0x0,0x0,0x0,0x0,0x0,0x0,0x0
	.DB  0x0,0x0,0x0,0x0,0x0,0x0,0x0,0x0
	.DB  0x0,0x0,0x0,0x0,0x0,0x0,0x0,0x0
	.DB  0x0,0x0,0x0,0x0,0x0,0x0,0x0,0x0
_bus:
	.DB  0x0,0x0,0x0,0x0,0x0,0x0,0x0,0x0
	.DB  0x0,0x0,0x0,0x0,0x0,0x0,0x0,0x0
	.DB  0x0,0x0,0x0,0x0,0x0,0x0,0x0,0x0
	.DB  0x0,0x0,0x0,0x0,0x0,0x0,0x0,0x0
	.DB  0x0,0x0,0x0,0x0,0x0,0x0,0x0,0x0
	.DB  0x0,0x0,0x0,0x0,0x0,0x0,0x0,0x0
	.DB  0x0,0x0,0x0,0x0,0x0,0x0,0x0,0x0
	.DB  0x0,0x0,0x0,0x0,0x0,0x0,0x0,0x0
	.DB  0x0,0x0,0x0,0x0,0x0,0x0,0x0,0x0
	.DB  0x0,0x0,0x0,0x0,0x0,0x0,0x0,0x0
	.DB  0x0,0x0,0x0,0x0,0x0,0x0,0x0,0x0
	.DB  0x0,0x0,0x0,0x0,0x0,0x0,0x0,0x0
	.DB  0x0,0x0,0x0,0x0,0x0,0x0,0x0,0x0
	.DB  0x0,0x0,0x0,0x0,0x0,0x0,0x0,0x0
	.DB  0x0,0x0,0x0,0x0,0x0,0x0,0x0,0x0
	.DB  0x0,0x0,0x0,0x0,0x0,0x0,0x0,0x0
	.DB  0x0,0x0,0x0,0x0,0x0,0xC0,0xE0,0xF0
	.DB  0xF0,0xF8,0xF8,0xF8,0xF8,0xF8,0xFC,0xFC
	.DB  0xFC,0xFC,0xFC,0xFC,0xFC,0xFC,0xFC,0xFC
	.DB  0xFC,0xFC,0xFC,0xFC,0xFC,0xFC,0xFC,0xFC
	.DB  0xFC,0xFC,0xF8,0xF8,0xF8,0xF8,0xF8,0xF0
	.DB  0xE0,0xE0,0xC0,0x0,0x0,0x0,0x0,0x0
	.DB  0x0,0x0,0x0,0x0,0x0,0x0,0x0,0x0
	.DB  0x0,0x0,0x0,0x0,0x0,0x0,0x0,0x0
	.DB  0x0,0x0,0x0,0x0,0x0,0x0,0x0,0x0
	.DB  0x0,0x0,0x0,0x0,0x0,0x0,0x0,0x0
	.DB  0x0,0x0,0x0,0x0,0x0,0x0,0x0,0x0
	.DB  0x0,0x0,0x0,0x0,0x0,0x0,0x0,0x0
	.DB  0x0,0x0,0x0,0x0,0x0,0x0,0x0,0x0
	.DB  0x0,0x0,0x0,0x0,0x0,0x0,0x0,0x0
	.DB  0x0,0x0,0x0,0x0,0x0,0x0,0x0,0x0
	.DB  0x0,0x0,0x0,0x0,0x0,0x0,0x0,0x0
	.DB  0x0,0x0,0x0,0x0,0xFE,0xFF,0xFF,0x3
	.DB  0x1,0x3,0x3,0x3,0x3,0x3,0x3,0x3
	.DB  0x3,0x3,0x3,0x3,0x3,0x3,0x3,0xFF
	.DB  0xFF,0x3,0x3,0x1,0x3,0x3,0x3,0x3
	.DB  0x3,0x3,0x3,0x3,0x3,0x3,0x3,0x3
	.DB  0x3,0x7,0xFF,0xFE,0x0,0x0,0x0,0x0
	.DB  0x0,0x0,0x0,0x0,0x0,0x0,0x0,0x0
	.DB  0x0,0x0,0x0,0x0,0x0,0x0,0x0,0x0
	.DB  0x0,0x0,0x0,0x0,0x0,0x0,0x0,0x0
	.DB  0x0,0x0,0x0,0x0,0x0,0x0,0x0,0x0
	.DB  0x0,0x0,0x0,0x0,0x0,0x0,0x0,0x0
	.DB  0x0,0x0,0x0,0x0,0x0,0x0,0x0,0x0
	.DB  0x0,0x0,0x0,0x0,0x0,0x0,0x0,0x0
	.DB  0x0,0x0,0x0,0x0,0x0,0x0,0x0,0x0
	.DB  0x0,0x0,0x0,0x0,0x0,0x0,0x0,0x0
	.DB  0x0,0x0,0x0,0x0,0x0,0x0,0x0,0x0
	.DB  0x0,0x0,0x0,0x0,0xFF,0xFF,0xFF,0xC0
	.DB  0xC0,0xC0,0xC0,0xC0,0xC0,0xC0,0xC0,0xC0
	.DB  0xC0,0xC0,0xC0,0xC0,0xC0,0xC0,0xE0,0xFF
	.DB  0xFF,0xE0,0xC0,0xC0,0xC0,0xE0,0xD0,0xC8
	.DB  0xC4,0xC4,0xC4,0xC4,0xC8,0xD0,0xE0,0xC0
	.DB  0xE0,0xF0,0xFF,0xFF,0x0,0x0,0x0,0x0
	.DB  0x0,0x0,0x0,0x0,0x0,0x0,0x0,0x0
	.DB  0x0,0x0,0x0,0x0,0x0,0x0,0x0,0x0
	.DB  0x0,0x0,0x0,0x0,0x0,0x0,0x0,0x0
	.DB  0x0,0x0,0x0,0x0,0x0,0x0,0x0,0x0
	.DB  0x0,0x0,0x0,0x0,0x0,0x0,0x0,0x0
	.DB  0x0,0x0,0x0,0x0,0x0,0x0,0x0,0x0
	.DB  0x0,0x0,0x0,0x0,0x0,0x0,0x0,0x0
	.DB  0x0,0x0,0x0,0x0,0x0,0x0,0x0,0x0
	.DB  0x0,0x0,0x0,0x0,0x0,0x0,0x0,0x0
	.DB  0x0,0x0,0x0,0x0,0x0,0x0,0x0,0x0
	.DB  0x0,0x0,0x0,0x0,0xFF,0xFF,0xFF,0xFF
	.DB  0xFF,0xFF,0xFF,0xFF,0xFF,0xFF,0xFF,0xFF
	.DB  0xFF,0xFF,0xFF,0xFF,0xFF,0xFF,0xFF,0xFF
	.DB  0xFF,0xFF,0xFF,0xFF,0xFF,0xFF,0xFF,0xFF
	.DB  0xFF,0xFF,0xFF,0xFF,0xFF,0xFF,0xFF,0xFF
	.DB  0xFF,0xFF,0xFF,0xFF,0x0,0x0,0x0,0x0
	.DB  0x0,0x0,0x0,0x0,0x0,0x0,0x0,0x0
	.DB  0x0,0x0,0x0,0x0,0x0,0x0,0x0,0x0
	.DB  0x0,0x0,0x0,0x0,0x0,0x0,0x0,0x0
	.DB  0x0,0x0,0x0,0x0,0x0,0x0,0x0,0x0
	.DB  0x0,0x0,0x0,0x0,0x0,0x0,0x0,0x0
	.DB  0x0,0x0,0x0,0x0,0x0,0x0,0x0,0x0
	.DB  0x0,0x0,0x0,0x0,0x0,0x0,0x0,0x0
	.DB  0x0,0x0,0x0,0x0,0x0,0x0,0x0,0x0
	.DB  0x0,0x0,0x0,0x0,0x0,0x0,0x0,0x0
	.DB  0x0,0x0,0x0,0x0,0x0,0x0,0x0,0x0
	.DB  0x0,0x0,0x0,0x0,0x3F,0xFF,0xFF,0xE1
	.DB  0xE1,0xE1,0xE1,0xFF,0xFF,0xFF,0xF9,0xD9
	.DB  0xD9,0xD9,0xD9,0xD9,0xD9,0xD9,0xD9,0xD9
	.DB  0xD9,0xD9,0xD9,0xD9,0xD9,0xD9,0xD9,0xD9
	.DB  0xC9,0xFB,0xFF,0xFF,0xFF,0xE1,0xE1,0xC1
	.DB  0xE1,0xF7,0xFF,0x3F,0x0,0x0,0x0,0x0
	.DB  0x0,0x0,0x0,0x0,0x0,0x0,0x0,0x0
	.DB  0x0,0x0,0x0,0x0,0x0,0x0,0x0,0x0
	.DB  0x0,0x0,0x0,0x0,0x0,0x0,0x0,0x0
	.DB  0x0,0x0,0x0,0x0,0x0,0x0,0x0,0x0
	.DB  0x0,0x0,0x0,0x0,0x0,0x0,0x0,0x0
	.DB  0x0,0x0,0x0,0x0,0x0,0x0,0x0,0x0
	.DB  0x0,0x0,0x0,0x0,0x0,0x0,0x0,0x0
	.DB  0x0,0x0,0x0,0x0,0x0,0x0,0x0,0x0
	.DB  0x0,0x0,0x0,0x0,0x0,0x0,0x0,0x0
	.DB  0x0,0x0,0x0,0x0,0x0,0x0,0x0,0x0
	.DB  0x0,0x0,0x0,0x0,0x0,0x0,0x1F,0x3F
	.DB  0x3F,0x3F,0x3F,0x3F,0x3F,0x0,0x0,0x0
	.DB  0x0,0x0,0x0,0x0,0x0,0x0,0x0,0x0
	.DB  0x0,0x0,0x0,0x0,0x0,0x0,0x0,0x0
	.DB  0x0,0x0,0x1F,0x3F,0x3F,0x3F,0x3F,0x3F
	.DB  0x3F,0x1F,0x0,0x0,0x0,0x0,0x0,0x0
	.DB  0x0,0x0,0x0,0x0,0x0,0x0,0x0,0x0
	.DB  0x0,0x0,0x0,0x0,0x0,0x0,0x0,0x0
	.DB  0x0,0x0,0x0,0x0,0x0,0x0,0x0,0x0
	.DB  0x0,0x0,0x0,0x0,0x0,0x0,0x0,0x0
	.DB  0x0,0x0,0x0,0x0,0x0,0x0,0x0,0x0
	.DB  0x0,0x0,0x0,0x0,0x0,0x0,0x0,0x0
	.DB  0x0,0x0,0x0,0x0,0x0,0x0,0x0,0x0
	.DB  0x0,0x0,0x0,0x0,0x0,0x0,0x0,0x0
	.DB  0x0,0x0,0x0,0x0,0x0,0x0,0x0,0x0
	.DB  0x0,0x0,0x0,0x0,0x0,0x0,0x0,0x0
	.DB  0x0,0x0,0x0,0x0,0x0,0x0,0x0,0x0
	.DB  0x0,0x0,0x0,0x0,0x0,0x0,0x0,0x0
	.DB  0x0,0x0,0x0,0x0,0x0,0x0,0x0,0x0
	.DB  0x0,0x0,0x0,0x0,0x0,0x0,0x0,0x0
	.DB  0x0,0x0,0x0,0x0,0x0,0x0,0x0,0x0
	.DB  0x0,0x0,0x0,0x0,0x0,0x0,0x0,0x0
	.DB  0x0,0x0,0x0,0x0,0x0,0x0,0x0,0x0
	.DB  0x0,0x0,0x0,0x0,0x0,0x0,0x0,0x0
	.DB  0x0,0x0,0x0,0x0,0x0,0x0,0x0,0x0
	.DB  0x0,0x0,0x0,0x0,0x0,0x0,0x0,0x0
	.DB  0x0,0x0,0x0,0x0,0x0,0x0,0x0,0x0
	.DB  0x0,0x0,0x0,0x0,0x0,0x0,0x0,0x0
	.DB  0x0,0x0,0x0,0x0,0x0,0x0,0x0,0x0
	.DB  0x0,0x0,0x0,0x0,0x0,0x0,0x0,0x0
	.DB  0x0,0x0,0x0,0x0,0x0,0x0,0x0,0x0
	.DB  0x0,0x0,0x0,0x0,0x0,0x0,0x0,0x0
_vacio:
	.DB  0x0,0x0,0x0,0x0,0x0,0x0,0x0,0x0
	.DB  0x0,0x0,0x0,0x0,0x0,0x0,0x0,0x0
	.DB  0x0,0x0,0x0,0x0,0x0,0x0,0x0,0x0
	.DB  0x0,0x0,0x0,0x0,0x0,0x0,0x0,0x0
	.DB  0x0,0x0,0x0,0x0,0x0,0x0,0x0,0x0
	.DB  0x0,0x0,0x0,0x0,0x0,0x0,0x0,0x0
	.DB  0x0,0x0,0x0,0x0,0x0,0x0,0x0,0x0
	.DB  0x0,0x0,0x0,0x0,0x0,0x0,0x0,0x0
	.DB  0x0,0x0,0x0,0x0,0x0,0x0,0x0,0x0
	.DB  0x0,0x0,0x0,0x0,0x0,0x0,0x0,0x0
	.DB  0x0,0x0,0x0,0x0,0x0,0x0,0x0,0x0
	.DB  0x0,0x0,0x0,0x0,0x0,0x0,0x0,0x0
	.DB  0x0,0x0,0x0,0x0,0x0,0x0,0x0,0x0
	.DB  0x0,0x0,0x0,0x0,0x0,0x0,0x0,0x0
	.DB  0x0,0x0,0x0,0x0,0x0,0x0,0x0,0x0
	.DB  0x0,0x0,0x0,0x0,0x0,0x0,0x0,0x0
	.DB  0x0,0x0,0x0,0x0,0x0,0x0,0x0,0x0
	.DB  0x0,0x0,0x0,0x0,0x0,0x0,0x0,0x0
	.DB  0x0,0x0,0x0,0x0,0x0,0x0,0x0,0x0
	.DB  0x0,0x0,0x0,0x0,0x0,0x0,0x0,0x0
	.DB  0x0,0x0,0x0,0x0,0x0,0x0,0x0,0x0
	.DB  0x0,0x0,0x0,0x0,0x0,0x0,0x0,0x0
	.DB  0x0,0x0,0x0,0x0,0x0,0x0,0x0,0x0
	.DB  0x0,0x0,0x0,0x0,0x0,0x0,0x0,0x0
	.DB  0x0,0x0,0x0,0x0,0x0,0x0,0x0,0x0
	.DB  0x0,0x0,0x0,0x0,0x0,0x0,0x0,0x0
	.DB  0x0,0x0,0x0,0x0,0x0,0x0,0x0,0x0
	.DB  0x0,0x0,0x0,0x0,0x0,0x0,0x0,0x0
	.DB  0x0,0x0,0x0,0x0,0x0,0x0,0x0,0x0
	.DB  0x0,0x0,0x0,0x0,0x0,0x0,0x0,0x0
	.DB  0x0,0x0,0x0,0x0,0x0,0x0,0x0,0x0
	.DB  0x0,0x0,0x0,0x0,0x0,0x0,0x0,0x0
	.DB  0x0,0x0,0x0,0x0,0x0,0x0,0x0,0x0
	.DB  0x0,0x0,0x0,0x0,0x0,0x0,0x0,0x0
	.DB  0x0,0x0,0x0,0x0,0x0,0x0,0x0,0x0
	.DB  0x0,0x0,0x0,0x0,0x0,0x0,0x0,0x0
	.DB  0x0,0x0,0x0,0x0,0x0,0x0,0x0,0x0
	.DB  0x0,0x0,0x0,0x0,0x0,0x0,0x0,0x0
	.DB  0x0,0x0,0x0,0x0,0x0,0x0,0x0,0x0
	.DB  0x0,0x0,0x0,0x0,0x0,0x0,0x0,0x0
	.DB  0x0,0x0,0x0,0x0,0x0,0x0,0x0,0x0
	.DB  0x0,0x0,0x0,0x0,0x0,0x0,0x0,0x0
	.DB  0x0,0x0,0x0,0x0,0x0,0x0,0x0,0x0
	.DB  0x0,0x0,0x0,0x0,0x0,0x0,0x0,0x0
	.DB  0x0,0x0,0x0,0x0,0x0,0x0,0x0,0x0
	.DB  0x0,0x0,0x0,0x0,0x0,0x0,0x0,0x0
	.DB  0x0,0x0,0x0,0x0,0x0,0x0,0x0,0x0
	.DB  0x0,0x0,0x0,0x0,0x0,0x0,0x0,0x0
	.DB  0x0,0x0,0x0,0x0,0x0,0x0,0x0,0x0
	.DB  0x0,0x0,0x0,0x0,0x0,0x0,0x0,0x0
	.DB  0x0,0x0,0x0,0x0,0x0,0x0,0x0,0x0
	.DB  0x0,0x0,0x0,0x0,0x0,0x0,0x0,0x0
	.DB  0x0,0x0,0x0,0x0,0x0,0x0,0x0,0x0
	.DB  0x0,0x0,0x0,0x0,0x0,0x0,0x0,0x0
	.DB  0x0,0x0,0x0,0x0,0x0,0x0,0x0,0x0
	.DB  0x0,0x0,0x0,0x0,0x0,0x0,0x0,0x0
	.DB  0x0,0x0,0x0,0x0,0x0,0x0,0x0,0x0
	.DB  0x0,0x0,0x0,0x0,0x0,0x0,0x0,0x0
	.DB  0x0,0x0,0x0,0x0,0x0,0x0,0x0,0x0
	.DB  0x0,0x0,0x0,0x0,0x0,0x0,0x0,0x0
	.DB  0x0,0x0,0x0,0x0,0x0,0x0,0x0,0x0
	.DB  0x0,0x0,0x0,0x0,0x0,0x0,0x0,0x0
	.DB  0x0,0x0,0x0,0x0,0x0,0x0,0x0,0x0
	.DB  0x0,0x0,0x0,0x0,0x0,0x0,0x0,0x0
	.DB  0x0,0x0,0x0,0x0,0x0,0x0,0x0,0x0
	.DB  0x0,0x0,0x0,0x0,0x0,0x0,0x0,0x0
	.DB  0x0,0x0,0x0,0x0,0x0,0x0,0x0,0x0
	.DB  0x0,0x0,0x0,0x0,0x0,0x0,0x0,0x0
	.DB  0x0,0x0,0x0,0x0,0x0,0x0,0x0,0x0
	.DB  0x0,0x0,0x0,0x0,0x0,0x0,0x0,0x0
	.DB  0x0,0x0,0x0,0x0,0x0,0x0,0x0,0x0
	.DB  0x0,0x0,0x0,0x0,0x0,0x0,0x0,0x0
	.DB  0x0,0x0,0x0,0x0,0x0,0x0,0x0,0x0
	.DB  0x0,0x0,0x0,0x0,0x0,0x0,0x0,0x0
	.DB  0x0,0x0,0x0,0x0,0x0,0x0,0x0,0x0
	.DB  0x0,0x0,0x0,0x0,0x0,0x0,0x0,0x0
	.DB  0x0,0x0,0x0,0x0,0x0,0x0,0x0,0x0
	.DB  0x0,0x0,0x0,0x0,0x0,0x0,0x0,0x0
	.DB  0x0,0x0,0x0,0x0,0x0,0x0,0x0,0x0
	.DB  0x0,0x0,0x0,0x0,0x0,0x0,0x0,0x0
	.DB  0x0,0x0,0x0,0x0,0x0,0x0,0x0,0x0
	.DB  0x0,0x0,0x0,0x0,0x0,0x0,0x0,0x0
	.DB  0x0,0x0,0x0,0x0,0x0,0x0,0x0,0x0
	.DB  0x0,0x0,0x0,0x0,0x0,0x0,0x0,0x0
	.DB  0x0,0x0,0x0,0x0,0x0,0x0,0x0,0x0
	.DB  0x0,0x0,0x0,0x0,0x0,0x0,0x0,0x0
	.DB  0x0,0x0,0x0,0x0,0x0,0x0,0x0,0x0
	.DB  0x0,0x0,0x0,0x0,0x0,0x0,0x0,0x0
	.DB  0x0,0x0,0x0,0x0,0x0,0x0,0x0,0x0
	.DB  0x0,0x0,0x0,0x0,0x0,0x0,0x0,0x0
	.DB  0x0,0x0,0x0,0x0,0x0,0x0,0x0,0x0
	.DB  0x0,0x0,0x0,0x0,0x0,0x0,0x0,0x0
	.DB  0x0,0x0,0x0,0x0,0x0,0x0,0x0,0x0
	.DB  0x0,0x0,0x0,0x0,0x0,0x0,0x0,0x0
	.DB  0x0,0x0,0x0,0x0,0x0,0x0,0x0,0x0
	.DB  0x0,0x0,0x0,0x0,0x0,0x0,0x0,0x0
	.DB  0x0,0x0,0x0,0x0,0x0,0xF8,0x84,0xC2
	.DB  0x2,0x2,0x2,0x2,0xFE,0x2,0x2,0x2
	.DB  0xC2,0xFE,0x2,0x2,0x2,0x2,0xC4,0xF8
	.DB  0x0,0x0,0x0,0x0,0x0,0x0,0x0,0x0
	.DB  0x0,0x0,0x0,0x0,0x0,0x0,0x0,0x0
	.DB  0x0,0x0,0x0,0x0,0x0,0x0,0x0,0x0
	.DB  0x0,0x0,0x0,0x0,0x0,0x0,0x0,0x0
	.DB  0x0,0x0,0x0,0x0,0x0,0x0,0x0,0x0
	.DB  0x0,0x0,0x0,0x0,0x0,0x0,0x0,0x0
	.DB  0x0,0x0,0x0,0x0,0x0,0x0,0x0,0x0
	.DB  0x0,0x0,0x0,0x0,0x0,0x0,0x0,0x0
	.DB  0x0,0x0,0x0,0x0,0x0,0x0,0x0,0x0
	.DB  0x0,0x0,0x0,0x0,0x0,0x0,0x0,0x0
	.DB  0x0,0x0,0x0,0x0,0x0,0x0,0x0,0x0
	.DB  0x0,0x0,0x0,0x0,0x0,0x0,0x0,0x0
	.DB  0x0,0x0,0x0,0x0,0x0,0x0,0x0,0x0
	.DB  0x0,0x0,0x0,0x1E,0x1F,0x7F,0xFF,0xFD
	.DB  0x7C,0x1C,0x1C,0x1C,0x1F,0x1C,0x1C,0x1C
	.DB  0x1F,0x1F,0x7C,0xFC,0xFC,0x7C,0x1F,0xF
	.DB  0x0,0x0,0x0,0x0,0x0,0x0,0x0,0x0
	.DB  0x0,0x0,0x0,0x0,0x0,0x0,0x0,0x0
	.DB  0x0,0x0,0x0,0x0,0x0,0x0,0x0,0x0
	.DB  0x0,0x0,0x0,0x0,0x0,0x0,0x0,0x0
	.DB  0x0,0x0,0x0,0x0,0x0,0x0,0x0,0x0
	.DB  0x0,0x0,0x0,0x0,0x0,0x0,0x0,0x0
	.DB  0x0,0x0,0x0,0x0,0x0,0x0,0x0,0x0
	.DB  0x0,0x0,0x0,0x0,0x0,0x0,0x0,0x0
	.DB  0x0,0x0,0x0,0x0,0x0,0x0,0x0,0x0
	.DB  0x0,0x0,0x0,0x0,0x0,0x0,0x0,0x0
	.DB  0x0,0x0,0x0,0x0,0x0,0x0,0x0,0x0
	.DB  0x0,0x0,0x0,0x0,0x0,0x0,0x0,0x0
	.DB  0x0,0x0,0x0,0x0,0x0,0x0,0x0,0x0
_frente:
	.DB  0x0,0x0,0x0,0x0,0x0,0x0,0x0,0x0
	.DB  0x0,0x0,0x0,0x0,0x0,0x0,0x0,0x0
	.DB  0x0,0x0,0x0,0x0,0x0,0x0,0x0,0x0
	.DB  0x0,0x0,0x0,0x0,0x0,0x0,0x0,0x0
	.DB  0x0,0x0,0x0,0x0,0x0,0x0,0x0,0x0
	.DB  0x0,0x0,0x0,0x0,0x0,0x0,0x0,0x0
	.DB  0x0,0x0,0x0,0x0,0x0,0x0,0x0,0x0
	.DB  0x0,0x0,0x0,0x0,0x0,0x0,0x0,0x0
	.DB  0x0,0x0,0x0,0x0,0x0,0x0,0x0,0x0
	.DB  0x0,0x0,0x0,0x0,0x0,0x0,0x0,0x0
	.DB  0x0,0x0,0x0,0x0,0x0,0x0,0x0,0x0
	.DB  0x0,0x0,0x0,0x0,0x0,0x0,0x0,0x0
	.DB  0x0,0x0,0x0,0x0,0x0,0x0,0x0,0x0
	.DB  0x0,0x0,0x0,0x0,0x0,0x0,0x0,0x0
	.DB  0x0,0x0,0x0,0x0,0x0,0x0,0x0,0x0
	.DB  0x0,0x0,0x0,0x0,0x0,0x0,0x0,0x0
	.DB  0x0,0x0,0x0,0x0,0x0,0x0,0x0,0x0
	.DB  0x0,0x0,0x0,0x0,0x0,0x0,0x0,0x0
	.DB  0x0,0x0,0x0,0x0,0x0,0x0,0x0,0x0
	.DB  0x0,0x0,0x0,0x0,0x0,0x0,0x0,0x0
	.DB  0x0,0x0,0x0,0x0,0x0,0x0,0x0,0x0
	.DB  0x0,0x0,0x0,0x0,0x0,0x0,0x0,0x0
	.DB  0x0,0x0,0x0,0x0,0x0,0x0,0x0,0x0
	.DB  0x0,0x0,0x0,0x0,0x0,0x0,0x0,0x0
	.DB  0x0,0x0,0x0,0x0,0x0,0x0,0x0,0x0
	.DB  0x0,0x0,0x0,0x0,0x0,0x0,0x0,0x0
	.DB  0x0,0x0,0x0,0x0,0x0,0x0,0x0,0x0
	.DB  0x0,0x0,0x0,0x0,0x0,0x0,0x0,0x0
	.DB  0x0,0x0,0x0,0x0,0x0,0x0,0x0,0x0
	.DB  0x0,0x0,0x0,0x0,0x0,0x0,0x0,0x0
	.DB  0x0,0x0,0x0,0x0,0x0,0x0,0x0,0x0
	.DB  0x0,0x0,0x0,0x0,0x0,0x0,0x0,0x0
	.DB  0x0,0x0,0x0,0x0,0x0,0x0,0x0,0x0
	.DB  0x0,0x0,0x0,0x0,0x0,0x0,0x0,0x0
	.DB  0x0,0x0,0x0,0x0,0x0,0x0,0x0,0x0
	.DB  0x0,0x0,0x0,0x0,0x0,0x0,0x0,0x0
	.DB  0x0,0x0,0x0,0x0,0x0,0x0,0x0,0x0
	.DB  0x0,0x0,0x0,0x0,0x0,0x0,0x0,0x0
	.DB  0x0,0x0,0x0,0x0,0x0,0x0,0x0,0x0
	.DB  0x0,0x0,0x0,0x0,0x0,0x0,0x0,0x0
	.DB  0x0,0x0,0x0,0x0,0x0,0x0,0x0,0x0
	.DB  0x0,0x0,0x0,0x0,0x0,0x0,0x0,0x0
	.DB  0x0,0x0,0x0,0x0,0x0,0x0,0x0,0x0
	.DB  0x0,0x0,0x0,0x0,0x0,0x0,0x0,0x0
	.DB  0x0,0x0,0x0,0x0,0x0,0x0,0x0,0x0
	.DB  0x0,0x0,0x0,0x0,0x0,0x0,0x0,0x0
	.DB  0x0,0x0,0x0,0x0,0x0,0x0,0x0,0x0
	.DB  0x0,0x0,0x0,0x0,0x0,0x0,0x0,0x0
	.DB  0x0,0x0,0x0,0x0,0x0,0x0,0x0,0x0
	.DB  0x0,0x0,0x0,0x0,0x0,0x0,0x0,0x0
	.DB  0x0,0x0,0x0,0x0,0x0,0x0,0x0,0x0
	.DB  0x0,0x0,0x0,0x0,0x0,0x0,0x0,0x0
	.DB  0x0,0x0,0x0,0x0,0x0,0x0,0x0,0x0
	.DB  0x0,0x0,0x0,0x0,0x0,0x0,0x0,0x0
	.DB  0x0,0x0,0x0,0x0,0x0,0x0,0x0,0x0
	.DB  0x0,0x0,0x0,0x0,0x0,0x0,0x0,0x0
	.DB  0x0,0x0,0x0,0x0,0x0,0x0,0x0,0x0
	.DB  0x0,0x0,0x0,0x0,0x0,0x0,0x0,0x0
	.DB  0x0,0x0,0x0,0x0,0x0,0x0,0x0,0x0
	.DB  0x0,0x0,0x0,0x0,0x0,0x0,0x0,0x0
	.DB  0x0,0x0,0x0,0x0,0x0,0x0,0x0,0x0
	.DB  0x0,0x0,0x0,0x0,0x0,0x0,0x0,0x0
	.DB  0x0,0x0,0x0,0x0,0x0,0x0,0x0,0x0
	.DB  0x0,0x0,0x0,0x0,0x0,0x0,0x0,0x0
	.DB  0x0,0x0,0x0,0x0,0x0,0x0,0x0,0x0
	.DB  0x0,0x0,0x0,0x0,0x0,0x0,0x0,0x0
	.DB  0x0,0x0,0x0,0x0,0x0,0x0,0x0,0x0
	.DB  0x0,0x0,0x0,0x0,0x0,0x0,0x0,0x0
	.DB  0x0,0x0,0x0,0x0,0x0,0x0,0x0,0x0
	.DB  0x0,0x0,0x0,0x0,0x0,0x0,0x0,0x0
	.DB  0x0,0x0,0x0,0x0,0x0,0x0,0x0,0x0
	.DB  0x0,0x0,0x0,0x0,0x0,0x0,0x0,0x0
	.DB  0x0,0x0,0x0,0x0,0x0,0x0,0x0,0x0
	.DB  0x0,0x0,0x0,0x0,0x0,0x0,0x0,0x0
	.DB  0x0,0x0,0x0,0x0,0x0,0x0,0x0,0x0
	.DB  0x0,0x0,0x0,0x0,0x0,0x0,0x0,0x0
	.DB  0x0,0x0,0x0,0x0,0x0,0x0,0x0,0x0
	.DB  0x0,0x0,0x0,0x0,0x0,0x0,0x0,0x0
	.DB  0x0,0x0,0x0,0x0,0x0,0x0,0x0,0x0
	.DB  0x0,0x0,0x0,0x0,0x0,0x0,0x0,0x0
	.DB  0x0,0x0,0x0,0x0,0x0,0x0,0x0,0x0
	.DB  0x0,0x0,0x0,0x0,0x0,0x0,0x0,0x0
	.DB  0x0,0x0,0x0,0x0,0x0,0x0,0x0,0x0
	.DB  0x0,0x0,0x0,0x0,0x0,0x0,0x0,0x0
	.DB  0x0,0x0,0x0,0x0,0x0,0x0,0x0,0x0
	.DB  0x0,0x0,0x0,0x0,0x0,0x0,0x0,0x0
	.DB  0x0,0x0,0x0,0x0,0x0,0x0,0x0,0x0
	.DB  0x0,0x0,0x0,0x0,0x0,0x0,0x0,0x0
	.DB  0x0,0x0,0x0,0x0,0x0,0x0,0x0,0x0
	.DB  0x0,0x0,0x0,0x0,0x0,0x0,0x0,0x0
	.DB  0x0,0x0,0x0,0x0,0x0,0x0,0x0,0x0
	.DB  0x0,0x0,0x0,0x0,0x0,0x0,0x0,0x0
	.DB  0x0,0x0,0x0,0x0,0x0,0x0,0x0,0x0
	.DB  0x0,0x0,0x0,0x0,0x0,0x0,0x0,0x0
	.DB  0x0,0x0,0x0,0x0,0x0,0x0,0x0,0x0
	.DB  0x0,0x0,0x0,0x0,0x0,0x0,0x0,0x0
	.DB  0x0,0x0,0x0,0x0,0x0,0x0,0x0,0x0
	.DB  0x0,0x0,0x0,0x0,0x0,0x0,0x0,0x0
	.DB  0x0,0x0,0x0,0x0,0x0,0x0,0x0,0x0
	.DB  0x0,0x0,0x0,0x0,0x0,0x0,0x0,0x0
	.DB  0x0,0x0,0x0,0x0,0x0,0x0,0x0,0x0
	.DB  0x0,0x0,0x0,0x0,0x0,0x0,0x0,0x0
	.DB  0x0,0x0,0x0,0x0,0x0,0x0,0x0,0x0
	.DB  0x0,0x0,0x0,0x0,0x0,0x0,0x0,0x0
	.DB  0x0,0x0,0x0,0x0,0x0,0x0,0x0,0x0
	.DB  0x0,0x0,0x0,0x0,0x0,0x0,0x0,0x0
	.DB  0x0,0x0,0x0,0x0,0x0,0x0,0x0,0x0
	.DB  0x0,0x0,0x0,0x0,0x0,0x0,0x0,0x0
	.DB  0x0,0x0,0x0,0x0,0x0,0x0,0x0,0x0
	.DB  0x0,0x0,0x0,0x0,0x0,0x38,0xFC,0x2
	.DB  0x2,0x2,0x2,0x2,0x6,0x6,0x6,0xBA
	.DB  0xFA,0xBA,0x2,0x2,0xFC,0x38,0x0,0x0
	.DB  0x0,0x0,0x0,0x0,0x0,0x0,0x0,0x0
	.DB  0x0,0x0,0x0,0x0,0x0,0x0,0x0,0x0
	.DB  0x0,0x0,0x0,0x0,0x0,0x0,0x0,0x0
	.DB  0x0,0x0,0x0,0x0,0x0,0x0,0x0,0x0
	.DB  0x0,0x0,0x0,0x0,0x0,0x0,0x0,0x0
	.DB  0x0,0x0,0x0,0x0,0x0,0x0,0x0,0x0
	.DB  0x0,0x0,0x0,0x0,0x0,0x0,0x0,0x0
	.DB  0x0,0x0,0x0,0x0,0x0,0x0,0x0,0x0
	.DB  0x0,0x0,0x0,0x0,0x0,0x0,0x0,0x0
	.DB  0x0,0x0,0x0,0x0,0x0,0x0,0x0,0x0
	.DB  0x0,0x0,0x0,0x0,0x0,0x0,0x0,0x0
	.DB  0x0,0x0,0x0,0x0,0x0,0x0,0x0,0x0
	.DB  0x0,0x0,0x0,0x0,0x0,0x0,0x0,0x0
	.DB  0x0,0x0,0x0,0x0,0x0,0x0,0x3F,0x3E
	.DB  0xFE,0xF2,0xF2,0x3E,0x3E,0x3E,0x3F,0x3F
	.DB  0xF3,0xF3,0xFF,0x3E,0x3F,0x0,0x0,0x0
_chofer:
	.DB  0x0,0x0,0x0,0x0,0x0,0x0,0x0,0x0
	.DB  0x0,0x0,0x0,0x0,0x0,0x0,0x0,0x0
	.DB  0x0,0x0,0x0,0x0,0x0,0x0,0x0,0x0
	.DB  0x0,0x0,0x0,0x0,0x0,0x0,0x0,0x0
	.DB  0x0,0x0,0x0,0x0,0x0,0x0,0x0,0x0
	.DB  0x0,0x0,0x0,0x0,0x0,0x0,0x0,0x0
	.DB  0x0,0x0,0x0,0x0,0x0,0x0,0x0,0x0
	.DB  0x0,0x0,0x0,0x0,0x0,0x0,0x0,0x0
	.DB  0x0,0x0,0x0,0x0,0x0,0x0,0x0,0x0
	.DB  0x0,0x0,0x0,0x0,0x0,0x0,0x0,0x0
	.DB  0x0,0x0,0x0,0x0,0x0,0x0,0x0,0x0
	.DB  0x0,0x0,0x0,0x0,0x0,0x0,0x0,0x0
	.DB  0x0,0x0,0x0,0x0,0x0,0x0,0x0,0x0
	.DB  0x0,0x0,0x0,0x0,0x0,0x0,0x0,0x0
	.DB  0x0,0x0,0x0,0x0,0x0,0x0,0x0,0x0
	.DB  0x0,0x0,0x0,0x0,0x0,0x0,0x0,0x0
	.DB  0x0,0x0,0x0,0x0,0x0,0x0,0x0,0x0
	.DB  0x0,0x0,0x0,0x0,0x0,0x0,0x0,0x0
	.DB  0x0,0x0,0x0,0x0,0x0,0x0,0x0,0x0
	.DB  0x0,0x0,0x0,0x0,0x0,0x0,0x0,0x0
	.DB  0x0,0x0,0x0,0x0,0x0,0x0,0x0,0x0
	.DB  0x0,0x0,0x0,0x0,0x0,0x0,0x0,0x0
	.DB  0x0,0x0,0x0,0x0,0x0,0x0,0x0,0x0
	.DB  0x0,0x0,0x0,0x0,0x0,0x0,0x0,0x0
	.DB  0x0,0x0,0x0,0x0,0x0,0x0,0x0,0x0
	.DB  0x0,0x0,0x0,0x0,0x0,0x0,0x0,0x0
	.DB  0x0,0x0,0x0,0x0,0x0,0x0,0x0,0x0
	.DB  0x0,0x0,0x0,0x0,0x0,0x0,0x0,0x0
	.DB  0x0,0x0,0x0,0x0,0x0,0x0,0x0,0x0
	.DB  0x0,0x0,0x0,0x0,0x0,0x0,0x0,0x0
	.DB  0x0,0x0,0x0,0x0,0x0,0x0,0x0,0x0
	.DB  0x0,0x0,0x0,0x0,0x0,0x0,0x0,0x0
	.DB  0x0,0x0,0x0,0x0,0x0,0x0,0x0,0x0
	.DB  0x0,0x0,0x0,0x0,0x0,0x0,0x0,0x0
	.DB  0x0,0x0,0x0,0x0,0x0,0x0,0x0,0x0
	.DB  0x0,0x0,0x0,0x0,0x0,0x0,0x0,0x0
	.DB  0x0,0x0,0x0,0x0,0x0,0x0,0x0,0x0
	.DB  0x0,0x0,0x0,0x0,0x0,0x0,0x0,0x0
	.DB  0x0,0x0,0x0,0x0,0x0,0x0,0x0,0x0
	.DB  0x0,0x0,0x0,0x0,0x0,0x0,0x0,0x0
	.DB  0x0,0x0,0x0,0x0,0x0,0x0,0x0,0x0
	.DB  0x0,0x0,0x0,0x0,0x0,0x0,0x0,0x0
	.DB  0x0,0x0,0x0,0x0,0x0,0x0,0x0,0x0
	.DB  0x0,0x0,0x0,0x0,0x0,0x0,0x0,0x0
	.DB  0x0,0x0,0x0,0x0,0x0,0x0,0x0,0x0
	.DB  0x0,0x0,0x0,0x0,0x0,0x0,0x0,0x0
	.DB  0x0,0x0,0x0,0x0,0x0,0x0,0x0,0x0
	.DB  0x0,0x0,0x0,0x0,0x0,0x0,0x0,0x0
	.DB  0x0,0x0,0x0,0x0,0x0,0x0,0x0,0x0
	.DB  0x0,0x0,0x0,0x0,0x0,0x0,0x0,0x0
	.DB  0x0,0x0,0x0,0x0,0x0,0x0,0x0,0x0
	.DB  0x0,0x0,0x0,0x0,0x0,0x0,0x0,0x0
	.DB  0x0,0x0,0x0,0x0,0x0,0x0,0x0,0x0
	.DB  0x0,0x0,0x0,0x0,0x0,0x0,0x0,0x0
	.DB  0x0,0x0,0x0,0x0,0x0,0x0,0x0,0x0
	.DB  0x0,0x0,0x0,0x0,0x0,0x0,0x0,0x0
	.DB  0x0,0x0,0x0,0x0,0x0,0x0,0x0,0x0
	.DB  0x0,0x0,0x0,0x0,0x0,0x0,0x0,0x0
	.DB  0x0,0x0,0x0,0x0,0x0,0x0,0x0,0x0
	.DB  0x0,0x0,0x0,0x0,0x0,0x0,0x0,0x0
	.DB  0x0,0x0,0x0,0x0,0x0,0x0,0x0,0x0
	.DB  0x0,0x0,0x0,0x0,0x0,0x0,0x0,0x0
	.DB  0x0,0x0,0x0,0x0,0x0,0x0,0x0,0x0
	.DB  0x0,0x0,0x0,0x0,0x0,0x0,0x0,0x0
	.DB  0x0,0x0,0x0,0x0,0x0,0x0,0x0,0x0
	.DB  0x0,0x0,0x0,0x0,0x0,0x0,0x0,0x0
	.DB  0x0,0x0,0x0,0x0,0x0,0x0,0x0,0x0
	.DB  0x0,0x0,0x0,0x0,0x0,0x0,0x0,0x0
	.DB  0x0,0x0,0x0,0x0,0x0,0x0,0x0,0x0
	.DB  0x0,0x0,0x0,0x0,0x0,0x0,0x0,0x0
	.DB  0x0,0x0,0x0,0x0,0x0,0x0,0x0,0x0
	.DB  0x0,0x0,0x0,0x0,0x0,0x0,0x0,0x0
	.DB  0x0,0x0,0x0,0x0,0x0,0x0,0x0,0x0
	.DB  0x0,0x0,0x0,0x0,0x0,0x0,0x0,0x0
	.DB  0x0,0x0,0x0,0x0,0x0,0x0,0x0,0x0
	.DB  0x0,0x0,0x0,0x0,0x0,0x0,0x0,0x0
	.DB  0x0,0x0,0x0,0x0,0x0,0x0,0x0,0x0
	.DB  0x0,0x0,0x0,0x0,0x0,0x0,0x0,0x0
	.DB  0x0,0x0,0x0,0x0,0x0,0x0,0x0,0x0
	.DB  0x0,0x0,0x0,0x0,0x0,0x0,0x0,0x0
	.DB  0x0,0x0,0x0,0x0,0x0,0x0,0x0,0x0
	.DB  0x0,0x0,0x0,0x0,0x0,0x0,0x0,0x0
	.DB  0x0,0x0,0x0,0x0,0x0,0x0,0x0,0x0
	.DB  0x0,0x0,0x0,0x0,0x0,0x0,0x0,0x0
	.DB  0x0,0x0,0x0,0x0,0x0,0x0,0x0,0x0
	.DB  0x0,0x0,0x0,0x0,0x0,0x0,0x0,0x0
	.DB  0x0,0x0,0x0,0x0,0x0,0x0,0x0,0x0
	.DB  0x0,0x0,0x0,0x0,0x0,0x0,0x0,0x0
	.DB  0x0,0x0,0x0,0x0,0x0,0x0,0x0,0x0
	.DB  0x0,0x0,0x0,0x0,0x0,0x0,0x0,0x0
	.DB  0x0,0x0,0x0,0x0,0x0,0x0,0x0,0x0
	.DB  0x0,0x0,0x0,0x0,0x0,0x0,0x0,0x0
	.DB  0x0,0x0,0x0,0x0,0x0,0x0,0x0,0x0
	.DB  0x0,0x0,0x0,0x0,0x0,0x0,0x0,0x0
	.DB  0x0,0x0,0x0,0x0,0x0,0x0,0x0,0x0
	.DB  0x0,0x0,0x0,0x0,0x0,0x0,0x0,0x0
	.DB  0x0,0x0,0x0,0x0,0x0,0xF8,0x84,0xC2
	.DB  0x82,0xDA,0xFA,0xE2,0xFE,0x2,0x2,0x2
	.DB  0xC2,0xFE,0x2,0x2,0x2,0x2,0xC4,0xF8
	.DB  0x0,0x0,0x0,0x0,0x0,0x0,0x0,0x0
	.DB  0x0,0x0,0x0,0x0,0x0,0x0,0x0,0x0
	.DB  0x0,0x0,0x0,0x0,0x0,0x0,0x0,0x0
	.DB  0x0,0x0,0x0,0x0,0x0,0x0,0x0,0x0
	.DB  0x0,0x0,0x0,0x0,0x0,0x0,0x0,0x0
	.DB  0x0,0x0,0x0,0x0,0x0,0x0,0x0,0x0
	.DB  0x0,0x0,0x0,0x0,0x0,0x0,0x0,0x0
	.DB  0x0,0x0,0x0,0x0,0x0,0x0,0x0,0x0
	.DB  0x0,0x0,0x0,0x0,0x0,0x0,0x0,0x0
	.DB  0x0,0x0,0x0,0x0,0x0,0x0,0x0,0x0
	.DB  0x0,0x0,0x0,0x0,0x0,0x0,0x0,0x0
	.DB  0x0,0x0,0x0,0x0,0x0,0x0,0x0,0x0
	.DB  0x0,0x0,0x0,0x0,0x0,0x0,0x0,0x0
	.DB  0x0,0x0,0x0,0x1E,0x1F,0x7F,0xFF,0xFD
	.DB  0x7C,0x1F,0x1F,0x1F,0x1F,0x1C,0x1C,0x1C
	.DB  0x1F,0x1F,0x7C,0xFC,0xFC,0x7C,0x1F,0xF
	.DB  0x0,0x0,0x0,0x0,0x0,0x0,0x0,0x0
	.DB  0x0,0x0,0x0,0x0,0x0,0x0,0x0,0x0
	.DB  0x0,0x0,0x0,0x0,0x0,0x0,0x0,0x0
	.DB  0x0,0x0,0x0,0x0,0x0,0x0,0x0,0x0
	.DB  0x0,0x0,0x0,0x0,0x0,0x0,0x0,0x0
	.DB  0x0,0x0,0x0,0x0,0x0,0x0,0x0,0x0
	.DB  0x0,0x0,0x0,0x0,0x0,0x0,0x0,0x0
	.DB  0x0,0x0,0x0,0x0,0x0,0x0,0x0,0x0
	.DB  0x0,0x0,0x0,0x0,0x0,0x0,0x0,0x0
	.DB  0x0,0x0,0x0,0x0,0x0,0x0,0x0,0x0
	.DB  0x0,0x0,0x0,0x0,0x0,0x0,0x0,0x0
	.DB  0x0,0x0,0x0,0x0,0x0,0x0,0x0,0x0
	.DB  0x0,0x0,0x0,0x0,0x0,0x0,0x0,0x0
_GPS1:
	.DB  0x0,0x0,0x0,0x0,0x0,0x0,0x0,0x0
	.DB  0x0,0x0,0x0,0x0,0x0,0x0,0x0,0x0
	.DB  0x0,0x0,0x0,0x0,0x0,0x0,0x0,0x0
	.DB  0x0,0x0,0x0,0x0,0x0,0x0,0x0,0x0
	.DB  0x0,0x0,0x0,0x0,0x0,0x0,0x0,0x0
	.DB  0x0,0x0,0x0,0x0,0x0,0x0,0x0,0x0
	.DB  0x0,0x0,0x0,0x0,0x0,0x0,0x0,0x0
	.DB  0x0,0x0,0x0,0x0,0x0,0x0,0x0,0x0
	.DB  0x0,0x0,0x0,0x0,0x0,0x0,0x0,0x0
	.DB  0x0,0x0,0x0,0x0,0x0,0x0,0x0,0x0
	.DB  0x0,0x0,0x0,0x0,0x0,0x0,0x0,0x0
	.DB  0x0,0x0,0x0,0x0,0x0,0x0,0x0,0x0
	.DB  0xE0,0x10,0x90,0x90,0x80,0x0,0xF0,0x90
	.DB  0x90,0x90,0x60,0x0,0x60,0x90,0x90,0x10
	.DB  0x0,0x0,0x0,0x0,0x20,0x70,0xF8,0x70
	.DB  0x20,0x0,0x80,0x78,0x0,0xFC,0x0,0x0
	.DB  0x0,0x0,0x0,0x0,0x0,0x0,0x0,0x0
	.DB  0x0,0x0,0x0,0x0,0x0,0x0,0x0,0x0
	.DB  0x0,0x0,0x0,0x0,0x0,0x0,0x0,0x0
	.DB  0x0,0x0,0x0,0x0,0x0,0x0,0x0,0x0
	.DB  0x0,0x0,0x0,0x0,0x0,0x0,0x0,0x0
	.DB  0x0,0x0,0x0,0x0,0x0,0x0,0x0,0x0
	.DB  0x0,0x0,0x0,0x0,0x0,0x0,0x0,0x0
	.DB  0x0,0x0,0x0,0x0,0x0,0x0,0x0,0x0
	.DB  0x0,0x0,0x0,0x0,0x0,0x0,0x0,0x0
	.DB  0x0,0x0,0x0,0x0,0x0,0x0,0x0,0x0
	.DB  0x0,0x0,0x0,0x0,0x0,0x0,0x0,0x0
	.DB  0x0,0x0,0x0,0x0,0x0,0x0,0x0,0x0
	.DB  0x3,0x4,0x4,0x4,0x3,0x0,0x7,0x0
	.DB  0x0,0x0,0x0,0x0,0x4,0x4,0x4,0x3
	.DB  0x0,0x0,0x0,0x10,0x14,0x14,0x14,0x14
	.DB  0x12,0x9,0x4,0xA,0x35,0x18,0x8,0x0
	.DB  0x0,0x0,0x0,0x0,0x0,0x0,0x0,0x0
	.DB  0x0,0x0,0x0,0x0,0x0,0x0,0x0,0x0
	.DB  0x0,0x0,0x0,0x0,0x0,0x0,0x0,0x0
	.DB  0x0,0x0,0x0,0x0,0x0,0x0,0x0,0x0
	.DB  0x0,0x0,0x0,0x0,0x0,0x0,0x0,0x0
	.DB  0x0,0x0,0x0,0x0,0x0,0x0,0x0,0x0
	.DB  0x0,0x0,0x0,0x0,0x0,0x0,0x0,0x0
	.DB  0x0,0x0,0x0,0x0,0x0,0x0,0x0,0x0
	.DB  0x0,0x0,0x0,0x0,0x0,0x0,0x0,0x0
	.DB  0x0,0x0,0x0,0x0,0x0,0x0,0x0,0x0
	.DB  0x0,0x0,0x0,0x0,0x0,0x0,0x0,0x0
	.DB  0x0,0x0,0x0,0x0,0x0,0x0,0x0,0x0
	.DB  0x0,0x0,0x0,0x0,0x0,0x0,0x0,0x0
	.DB  0x0,0x0,0x0,0x0,0x0,0x0,0x0,0x0
	.DB  0x0,0x0,0x0,0x0,0x0,0x0,0x0,0x0
	.DB  0x0,0x0,0x0,0x0,0x0,0x0,0x0,0x0
	.DB  0x0,0x0,0x0,0x0,0x0,0x0,0x0,0x0
	.DB  0x0,0x0,0x0,0x0,0x0,0x0,0x0,0x0
	.DB  0x0,0x0,0x0,0x0,0x0,0x0,0x0,0x0
	.DB  0x0,0x0,0x0,0x0,0x0,0x0,0x0,0x0
	.DB  0x0,0x0,0x0,0x0,0x0,0x0,0x0,0x0
	.DB  0x0,0x0,0x0,0x0,0x0,0x0,0x0,0x0
	.DB  0x0,0x0,0x0,0x0,0x0,0x0,0x0,0x0
	.DB  0x0,0x0,0x0,0x0,0x0,0x0,0x0,0x0
	.DB  0x0,0x0,0x0,0x0,0x0,0x0,0x0,0x0
	.DB  0x0,0x0,0x0,0x0,0x0,0x0,0x0,0x0
	.DB  0x0,0x0,0x0,0x0,0x0,0x0,0x0,0x0
	.DB  0x0,0x0,0x0,0x0,0x0,0x0,0x0,0x0
	.DB  0x0,0x0,0x0,0x0,0x0,0x0,0x0,0x0
	.DB  0x0,0x0,0x0,0x0,0x0,0x0,0x0,0x0
	.DB  0x0,0x0,0x0,0x0,0x0,0x0,0x0,0x0
	.DB  0x0,0x0,0x0,0x0,0x0,0x0,0x0,0x0
	.DB  0x0,0x0,0x0,0x0,0x0,0x0,0x0,0x0
	.DB  0x0,0x0,0x0,0x0,0x0,0x0,0x0,0x0
	.DB  0x0,0x0,0x0,0x0,0x0,0x0,0x0,0x0
	.DB  0x0,0x0,0x0,0x0,0x0,0x0,0x0,0x0
	.DB  0x0,0x0,0x0,0x0,0x0,0x0,0x0,0x0
	.DB  0x0,0x0,0x0,0x0,0x0,0x0,0x0,0x0
	.DB  0x0,0x0,0x0,0x0,0x0,0x0,0x0,0x0
	.DB  0x0,0x0,0x0,0x0,0x0,0x0,0x0,0x0
	.DB  0x0,0x0,0x0,0x0,0x0,0x0,0x0,0x0
	.DB  0x0,0x0,0x0,0x0,0x0,0x0,0x0,0x0
	.DB  0x0,0x0,0x0,0x0,0x0,0x0,0x0,0x0
	.DB  0x0,0x0,0x0,0x0,0x0,0x0,0x0,0x0
	.DB  0x0,0x0,0x0,0x0,0x0,0x0,0x0,0x0
	.DB  0x0,0x0,0x0,0x0,0x0,0x0,0x0,0x0
	.DB  0x0,0x0,0x0,0x0,0x0,0x0,0x0,0x0
	.DB  0x0,0x0,0x0,0x0,0x0,0x0,0x0,0x0
	.DB  0x0,0x0,0x0,0x0,0x0,0x0,0x0,0x0
	.DB  0x0,0x0,0x0,0x0,0x0,0x0,0x0,0x0
	.DB  0x0,0x0,0x0,0x0,0x0,0x0,0x0,0x0
	.DB  0x0,0x0,0x0,0x0,0x0,0x0,0x0,0x0
	.DB  0x0,0x0,0x0,0x0,0x0,0x0,0x0,0x0
	.DB  0x0,0x0,0x0,0x0,0x0,0x0,0x0,0x0
	.DB  0x0,0x0,0x0,0x0,0x0,0x0,0x0,0x0
	.DB  0x0,0x0,0x0,0x0,0x0,0x0,0x0,0x0
	.DB  0x0,0x0,0x0,0x0,0x0,0x0,0x0,0x0
	.DB  0x0,0x0,0x0,0x0,0x0,0x0,0x0,0x0
	.DB  0x0,0x0,0x0,0x0,0x0,0x0,0x0,0x0
	.DB  0x0,0x0,0x0,0x0,0x0,0x0,0x0,0x0
	.DB  0x0,0x0,0x0,0x0,0x0,0x0,0x0,0x0
	.DB  0x0,0x0,0x0,0x0,0x0,0x0,0x0,0x0
	.DB  0x0,0x0,0x0,0x0,0x0,0x0,0x0,0x0
	.DB  0x0,0x0,0x0,0x0,0x0,0x0,0x0,0x0
	.DB  0x0,0x0,0x0,0x0,0x0,0x0,0x0,0x0
	.DB  0x0,0x0,0x0,0x0,0x0,0x0,0x0,0x0
	.DB  0x0,0x0,0x0,0x0,0x0,0x0,0x0,0x0
	.DB  0x0,0x0,0x0,0x0,0x0,0x0,0x0,0x0
	.DB  0x0,0x0,0x0,0x0,0x0,0x0,0x0,0x0
	.DB  0x0,0x0,0x0,0x0,0x0,0x0,0x0,0x0
	.DB  0x0,0x0,0x0,0x0,0x0,0x0,0x0,0x0
	.DB  0x0,0x0,0x0,0x0,0x0,0x0,0x0,0x0
	.DB  0x0,0x0,0x0,0x0,0x0,0x0,0x0,0x0
	.DB  0x0,0x0,0x0,0x0,0x0,0x0,0x0,0x0
	.DB  0x0,0x0,0x0,0x0,0x0,0x0,0x0,0x0
	.DB  0x0,0x0,0x0,0x0,0x0,0x0,0x0,0x0
	.DB  0x0,0x0,0x0,0x0,0x0,0x0,0x0,0x0
	.DB  0x0,0x0,0x0,0x0,0x0,0x0,0x0,0x0
	.DB  0x0,0x0,0x0,0x0,0x0,0x0,0x0,0x0
	.DB  0x0,0x0,0x0,0x0,0x0,0x0,0x0,0x0
	.DB  0x0,0x0,0x0,0x0,0x0,0x0,0x0,0x0
	.DB  0x0,0x0,0x0,0x0,0x0,0x0,0x0,0x0
	.DB  0x0,0x0,0x0,0x0,0x0,0x0,0x0,0x0
	.DB  0x0,0x0,0x0,0x0,0x0,0x0,0x0,0x0
	.DB  0x0,0x0,0x0,0x0,0x0,0x0,0x0,0x0
	.DB  0x0,0x0,0x0,0x0,0x0,0x0,0x0,0x0
	.DB  0x0,0x0,0x0,0x0,0x0,0x0,0x0,0x0
	.DB  0x0,0x0,0x0,0x0,0x0,0x0,0x0,0x0
	.DB  0x0,0x0,0x0,0x0,0x0,0x0,0x0,0x0
	.DB  0x0,0x0,0x0,0x0,0x0,0x0,0x0,0x0
	.DB  0x0,0x0,0x0,0x0,0x0,0x0,0x0,0x0
	.DB  0x0,0x0,0x0,0x0,0x0,0x0,0x0,0x0
	.DB  0x0,0x0,0x0,0x0,0x0,0x0,0x0,0x0
	.DB  0x0,0x0,0x0,0x0,0x0,0x0,0x0,0x0
	.DB  0x0,0x0,0x0,0x0,0x0,0x0,0x0,0x0
	.DB  0x0,0x0,0x0,0x0,0x0,0x0,0x0,0x0
_GPS2:
	.DB  0x0,0x0,0x0,0x0,0x0,0x0,0x0,0x0
	.DB  0x0,0x0,0x0,0x0,0x0,0x0,0x0,0x0
	.DB  0x0,0x0,0x0,0x0,0x0,0x0,0x0,0x0
	.DB  0x0,0x0,0x0,0x0,0x0,0x0,0x0,0x0
	.DB  0x0,0x0,0x0,0x0,0x0,0x0,0x0,0x0
	.DB  0x0,0x0,0x0,0x0,0x0,0x0,0x0,0x0
	.DB  0x0,0x0,0x0,0x0,0x0,0x0,0x0,0x0
	.DB  0x0,0x0,0x0,0x0,0x0,0x0,0x0,0x0
	.DB  0x0,0x0,0x0,0x0,0x0,0x0,0x0,0x0
	.DB  0x0,0x0,0x0,0x0,0x0,0x0,0x0,0x0
	.DB  0x0,0x0,0x0,0x0,0x0,0x0,0x0,0x0
	.DB  0x0,0x0,0x0,0x0,0x0,0x0,0x0,0x0
	.DB  0xE0,0x10,0x90,0x90,0x80,0x0,0xF0,0x90
	.DB  0x90,0x90,0x60,0x0,0x60,0x90,0x90,0x10
	.DB  0x0,0x0,0x0,0x0,0x0,0x0,0x0,0x0
	.DB  0x0,0x0,0x80,0x78,0x0,0xFC,0x0,0x0
	.DB  0x0,0x0,0x0,0x0,0x0,0x0,0x0,0x0
	.DB  0x0,0x0,0x0,0x0,0x0,0x0,0x0,0x0
	.DB  0x0,0x0,0x0,0x0,0x0,0x0,0x0,0x0
	.DB  0x0,0x0,0x0,0x0,0x0,0x0,0x0,0x0
	.DB  0x0,0x0,0x0,0x0,0x0,0x0,0x0,0x0
	.DB  0x0,0x0,0x0,0x0,0x0,0x0,0x0,0x0
	.DB  0x0,0x0,0x0,0x0,0x0,0x0,0x0,0x0
	.DB  0x0,0x0,0x0,0x0,0x0,0x0,0x0,0x0
	.DB  0x0,0x0,0x0,0x0,0x0,0x0,0x0,0x0
	.DB  0x0,0x0,0x0,0x0,0x0,0x0,0x0,0x0
	.DB  0x0,0x0,0x0,0x0,0x0,0x0,0x0,0x0
	.DB  0x0,0x0,0x0,0x0,0x0,0x0,0x0,0x0
	.DB  0x3,0x4,0x4,0x4,0x3,0x0,0x7,0x0
	.DB  0x0,0x0,0x0,0x0,0x4,0x4,0x4,0x3
	.DB  0x0,0x0,0x0,0x10,0x14,0x14,0x14,0x14
	.DB  0x12,0x9,0x4,0xA,0x35,0x18,0x8,0x0
	.DB  0x0,0x0,0x0,0x0,0x0,0x0,0x0,0x0
	.DB  0x0,0x0,0x0,0x0,0x0,0x0,0x0,0x0
	.DB  0x0,0x0,0x0,0x0,0x0,0x0,0x0,0x0
	.DB  0x0,0x0,0x0,0x0,0x0,0x0,0x0,0x0
	.DB  0x0,0x0,0x0,0x0,0x0,0x0,0x0,0x0
	.DB  0x0,0x0,0x0,0x0,0x0,0x0,0x0,0x0
	.DB  0x0,0x0,0x0,0x0,0x0,0x0,0x0,0x0
	.DB  0x0,0x0,0x0,0x0,0x0,0x0,0x0,0x0
	.DB  0x0,0x0,0x0,0x0,0x0,0x0,0x0,0x0
	.DB  0x0,0x0,0x0,0x0,0x0,0x0,0x0,0x0
	.DB  0x0,0x0,0x0,0x0,0x0,0x0,0x0,0x0
	.DB  0x0,0x0,0x0,0x0,0x0,0x0,0x0,0x0
	.DB  0x0,0x0,0x0,0x0,0x0,0x0,0x0,0x0
	.DB  0x0,0x0,0x0,0x0,0x0,0x0,0x0,0x0
	.DB  0x0,0x0,0x0,0x0,0x0,0x0,0x0,0x0
	.DB  0x0,0x0,0x0,0x0,0x0,0x0,0x0,0x0
	.DB  0x0,0x0,0x0,0x0,0x0,0x0,0x0,0x0
	.DB  0x0,0x0,0x0,0x0,0x0,0x0,0x0,0x0
	.DB  0x0,0x0,0x0,0x0,0x0,0x0,0x0,0x0
	.DB  0x0,0x0,0x0,0x0,0x0,0x0,0x0,0x0
	.DB  0x0,0x0,0x0,0x0,0x0,0x0,0x0,0x0
	.DB  0x0,0x0,0x0,0x0,0x0,0x0,0x0,0x0
	.DB  0x0,0x0,0x0,0x0,0x0,0x0,0x0,0x0
	.DB  0x0,0x0,0x0,0x0,0x0,0x0,0x0,0x0
	.DB  0x0,0x0,0x0,0x0,0x0,0x0,0x0,0x0
	.DB  0x0,0x0,0x0,0x0,0x0,0x0,0x0,0x0
	.DB  0x0,0x0,0x0,0x0,0x0,0x0,0x0,0x0
	.DB  0x0,0x0,0x0,0x0,0x0,0x0,0x0,0x0
	.DB  0x0,0x0,0x0,0x0,0x0,0x0,0x0,0x0
	.DB  0x0,0x0,0x0,0x0,0x0,0x0,0x0,0x0
	.DB  0x0,0x0,0x0,0x0,0x0,0x0,0x0,0x0
	.DB  0x0,0x0,0x0,0x0,0x0,0x0,0x0,0x0
	.DB  0x0,0x0,0x0,0x0,0x0,0x0,0x0,0x0
	.DB  0x0,0x0,0x0,0x0,0x0,0x0,0x0,0x0
	.DB  0x0,0x0,0x0,0x0,0x0,0x0,0x0,0x0
	.DB  0x0,0x0,0x0,0x0,0x0,0x0,0x0,0x0
	.DB  0x0,0x0,0x0,0x0,0x0,0x0,0x0,0x0
	.DB  0x0,0x0,0x0,0x0,0x0,0x0,0x0,0x0
	.DB  0x0,0x0,0x0,0x0,0x0,0x0,0x0,0x0
	.DB  0x0,0x0,0x0,0x0,0x0,0x0,0x0,0x0
	.DB  0x0,0x0,0x0,0x0,0x0,0x0,0x0,0x0
	.DB  0x0,0x0,0x0,0x0,0x0,0x0,0x0,0x0
	.DB  0x0,0x0,0x0,0x0,0x0,0x0,0x0,0x0
	.DB  0x0,0x0,0x0,0x0,0x0,0x0,0x0,0x0
	.DB  0x0,0x0,0x0,0x0,0x0,0x0,0x0,0x0
	.DB  0x0,0x0,0x0,0x0,0x0,0x0,0x0,0x0
	.DB  0x0,0x0,0x0,0x0,0x0,0x0,0x0,0x0
	.DB  0x0,0x0,0x0,0x0,0x0,0x0,0x0,0x0
	.DB  0x0,0x0,0x0,0x0,0x0,0x0,0x0,0x0
	.DB  0x0,0x0,0x0,0x0,0x0,0x0,0x0,0x0
	.DB  0x0,0x0,0x0,0x0,0x0,0x0,0x0,0x0
	.DB  0x0,0x0,0x0,0x0,0x0,0x0,0x0,0x0
	.DB  0x0,0x0,0x0,0x0,0x0,0x0,0x0,0x0
	.DB  0x0,0x0,0x0,0x0,0x0,0x0,0x0,0x0
	.DB  0x0,0x0,0x0,0x0,0x0,0x0,0x0,0x0
	.DB  0x0,0x0,0x0,0x0,0x0,0x0,0x0,0x0
	.DB  0x0,0x0,0x0,0x0,0x0,0x0,0x0,0x0
	.DB  0x0,0x0,0x0,0x0,0x0,0x0,0x0,0x0
	.DB  0x0,0x0,0x0,0x0,0x0,0x0,0x0,0x0
	.DB  0x0,0x0,0x0,0x0,0x0,0x0,0x0,0x0
	.DB  0x0,0x0,0x0,0x0,0x0,0x0,0x0,0x0
	.DB  0x0,0x0,0x0,0x0,0x0,0x0,0x0,0x0
	.DB  0x0,0x0,0x0,0x0,0x0,0x0,0x0,0x0
	.DB  0x0,0x0,0x0,0x0,0x0,0x0,0x0,0x0
	.DB  0x0,0x0,0x0,0x0,0x0,0x0,0x0,0x0
	.DB  0x0,0x0,0x0,0x0,0x0,0x0,0x0,0x0
	.DB  0x0,0x0,0x0,0x0,0x0,0x0,0x0,0x0
	.DB  0x0,0x0,0x0,0x0,0x0,0x0,0x0,0x0
	.DB  0x0,0x0,0x0,0x0,0x0,0x0,0x0,0x0
	.DB  0x0,0x0,0x0,0x0,0x0,0x0,0x0,0x0
	.DB  0x0,0x0,0x0,0x0,0x0,0x0,0x0,0x0
	.DB  0x0,0x0,0x0,0x0,0x0,0x0,0x0,0x0
	.DB  0x0,0x0,0x0,0x0,0x0,0x0,0x0,0x0
	.DB  0x0,0x0,0x0,0x0,0x0,0x0,0x0,0x0
	.DB  0x0,0x0,0x0,0x0,0x0,0x0,0x0,0x0
	.DB  0x0,0x0,0x0,0x0,0x0,0x0,0x0,0x0
	.DB  0x0,0x0,0x0,0x0,0x0,0x0,0x0,0x0
	.DB  0x0,0x0,0x0,0x0,0x0,0x0,0x0,0x0
	.DB  0x0,0x0,0x0,0x0,0x0,0x0,0x0,0x0
	.DB  0x0,0x0,0x0,0x0,0x0,0x0,0x0,0x0
	.DB  0x0,0x0,0x0,0x0,0x0,0x0,0x0,0x0
	.DB  0x0,0x0,0x0,0x0,0x0,0x0,0x0,0x0
	.DB  0x0,0x0,0x0,0x0,0x0,0x0,0x0,0x0
	.DB  0x0,0x0,0x0,0x0,0x0,0x0,0x0,0x0
	.DB  0x0,0x0,0x0,0x0,0x0,0x0,0x0,0x0
	.DB  0x0,0x0,0x0,0x0,0x0,0x0,0x0,0x0
	.DB  0x0,0x0,0x0,0x0,0x0,0x0,0x0,0x0
	.DB  0x0,0x0,0x0,0x0,0x0,0x0,0x0,0x0
	.DB  0x0,0x0,0x0,0x0,0x0,0x0,0x0,0x0
	.DB  0x0,0x0,0x0,0x0,0x0,0x0,0x0,0x0
	.DB  0x0,0x0,0x0,0x0,0x0,0x0,0x0,0x0
	.DB  0x0,0x0,0x0,0x0,0x0,0x0,0x0,0x0
	.DB  0x0,0x0,0x0,0x0,0x0,0x0,0x0,0x0
	.DB  0x0,0x0,0x0,0x0,0x0,0x0,0x0,0x0
	.DB  0x0,0x0,0x0,0x0,0x0,0x0,0x0,0x0
	.DB  0x0,0x0,0x0,0x0,0x0,0x0,0x0,0x0
_GSM1:
	.DB  0x0,0x0,0x0,0x0,0x0,0x0,0x0,0x80
	.DB  0x80,0x0,0xE0,0xE0,0x0,0xF8,0xF8,0x0
	.DB  0xFE,0xFE,0x0,0x0,0x0,0x0,0x0,0x0
	.DB  0x0,0x0,0x0,0x0,0x0,0x0,0x0,0x0
	.DB  0x0,0x0,0x0,0x0,0x0,0x0,0x0,0x0
	.DB  0x0,0x0,0x0,0x0,0x0,0x0,0x0,0x0
	.DB  0x0,0x0,0x0,0x0,0x0,0x0,0x0,0x0
	.DB  0x0,0x0,0x0,0x0,0x0,0x0,0x0,0x0
	.DB  0x0,0x0,0x0,0x0,0x0,0x0,0x0,0x0
	.DB  0x0,0x0,0x0,0x0,0x0,0x0,0x0,0x0
	.DB  0x0,0x0,0x0,0x0,0x0,0x0,0x0,0x0
	.DB  0x0,0x0,0x0,0x0,0x0,0x0,0x0,0x0
	.DB  0x0,0x0,0x0,0x0,0x0,0x0,0x0,0x0
	.DB  0x0,0x0,0x0,0x0,0x0,0x0,0x0,0x0
	.DB  0x0,0x0,0x0,0x0,0x0,0x0,0x0,0x0
	.DB  0x0,0x0,0x0,0x0,0x0,0x0,0x0,0x0
	.DB  0x0,0x6,0x6,0x0,0x7,0x7,0x0,0x7
	.DB  0x7,0x0,0x7,0x7,0x0,0x7,0x7,0x0
	.DB  0x7,0x7,0x0,0x0,0x0,0x0,0x0,0x0
	.DB  0x0,0x0,0x0,0x0,0x0,0x0,0x0,0x0
	.DB  0x0,0x0,0x0,0x0,0x0,0x0,0x0,0x0
	.DB  0x0,0x0,0x0,0x0,0x0,0x0,0x0,0x0
	.DB  0x0,0x0,0x0,0x0,0x0,0x0,0x0,0x0
	.DB  0x0,0x0,0x0,0x0,0x0,0x0,0x0,0x0
	.DB  0x0,0x0,0x0,0x0,0x0,0x0,0x0,0x0
	.DB  0x0,0x0,0x0,0x0,0x0,0x0,0x0,0x0
	.DB  0x0,0x0,0x0,0x0,0x0,0x0,0x0,0x0
	.DB  0x0,0x0,0x0,0x0,0x0,0x0,0x0,0x0
	.DB  0x0,0x0,0x0,0x0,0x0,0x0,0x0,0x0
	.DB  0x0,0x0,0x0,0x0,0x0,0x0,0x0,0x0
	.DB  0x0,0x0,0x0,0x0,0x0,0x0,0x0,0x0
	.DB  0x0,0x0,0x0,0x0,0x0,0x0,0x0,0x0
	.DB  0x0,0x0,0x0,0x0,0x0,0x0,0x0,0x0
	.DB  0x0,0x0,0x0,0x0,0x0,0x0,0x0,0x0
	.DB  0x0,0x0,0x0,0x0,0x0,0x0,0x0,0x0
	.DB  0x0,0x0,0x0,0x0,0x0,0x0,0x0,0x0
	.DB  0x0,0x0,0x0,0x0,0x0,0x0,0x0,0x0
	.DB  0x0,0x0,0x0,0x0,0x0,0x0,0x0,0x0
	.DB  0x0,0x0,0x0,0x0,0x0,0x0,0x0,0x0
	.DB  0x0,0x0,0x0,0x0,0x0,0x0,0x0,0x0
	.DB  0x0,0x0,0x0,0x0,0x0,0x0,0x0,0x0
	.DB  0x0,0x0,0x0,0x0,0x0,0x0,0x0,0x0
	.DB  0x0,0x0,0x0,0x0,0x0,0x0,0x0,0x0
	.DB  0x0,0x0,0x0,0x0,0x0,0x0,0x0,0x0
	.DB  0x0,0x0,0x0,0x0,0x0,0x0,0x0,0x0
	.DB  0x0,0x0,0x0,0x0,0x0,0x0,0x0,0x0
	.DB  0x0,0x0,0x0,0x0,0x0,0x0,0x0,0x0
	.DB  0x0,0x0,0x0,0x0,0x0,0x0,0x0,0x0
	.DB  0x0,0x0,0x0,0x0,0x0,0x0,0x0,0x0
	.DB  0x0,0x0,0x0,0x0,0x0,0x0,0x0,0x0
	.DB  0x0,0x0,0x0,0x0,0x0,0x0,0x0,0x0
	.DB  0x0,0x0,0x0,0x0,0x0,0x0,0x0,0x0
	.DB  0x0,0x0,0x0,0x0,0x0,0x0,0x0,0x0
	.DB  0x0,0x0,0x0,0x0,0x0,0x0,0x0,0x0
	.DB  0x0,0x0,0x0,0x0,0x0,0x0,0x0,0x0
	.DB  0x0,0x0,0x0,0x0,0x0,0x0,0x0,0x0
	.DB  0x0,0x0,0x0,0x0,0x0,0x0,0x0,0x0
	.DB  0x0,0x0,0x0,0x0,0x0,0x0,0x0,0x0
	.DB  0x0,0x0,0x0,0x0,0x0,0x0,0x0,0x0
	.DB  0x0,0x0,0x0,0x0,0x0,0x0,0x0,0x0
	.DB  0x0,0x0,0x0,0x0,0x0,0x0,0x0,0x0
	.DB  0x0,0x0,0x0,0x0,0x0,0x0,0x0,0x0
	.DB  0x0,0x0,0x0,0x0,0x0,0x0,0x0,0x0
	.DB  0x0,0x0,0x0,0x0,0x0,0x0,0x0,0x0
	.DB  0x0,0x0,0x0,0x0,0x0,0x0,0x0,0x0
	.DB  0x0,0x0,0x0,0x0,0x0,0x0,0x0,0x0
	.DB  0x0,0x0,0x0,0x0,0x0,0x0,0x0,0x0
	.DB  0x0,0x0,0x0,0x0,0x0,0x0,0x0,0x0
	.DB  0x0,0x0,0x0,0x0,0x0,0x0,0x0,0x0
	.DB  0x0,0x0,0x0,0x0,0x0,0x0,0x0,0x0
	.DB  0x0,0x0,0x0,0x0,0x0,0x0,0x0,0x0
	.DB  0x0,0x0,0x0,0x0,0x0,0x0,0x0,0x0
	.DB  0x0,0x0,0x0,0x0,0x0,0x0,0x0,0x0
	.DB  0x0,0x0,0x0,0x0,0x0,0x0,0x0,0x0
	.DB  0x0,0x0,0x0,0x0,0x0,0x0,0x0,0x0
	.DB  0x0,0x0,0x0,0x0,0x0,0x0,0x0,0x0
	.DB  0x0,0x0,0x0,0x0,0x0,0x0,0x0,0x0
	.DB  0x0,0x0,0x0,0x0,0x0,0x0,0x0,0x0
	.DB  0x0,0x0,0x0,0x0,0x0,0x0,0x0,0x0
	.DB  0x0,0x0,0x0,0x0,0x0,0x0,0x0,0x0
	.DB  0x0,0x0,0x0,0x0,0x0,0x0,0x0,0x0
	.DB  0x0,0x0,0x0,0x0,0x0,0x0,0x0,0x0
	.DB  0x0,0x0,0x0,0x0,0x0,0x0,0x0,0x0
	.DB  0x0,0x0,0x0,0x0,0x0,0x0,0x0,0x0
	.DB  0x0,0x0,0x0,0x0,0x0,0x0,0x0,0x0
	.DB  0x0,0x0,0x0,0x0,0x0,0x0,0x0,0x0
	.DB  0x0,0x0,0x0,0x0,0x0,0x0,0x0,0x0
	.DB  0x0,0x0,0x0,0x0,0x0,0x0,0x0,0x0
	.DB  0x0,0x0,0x0,0x0,0x0,0x0,0x0,0x0
	.DB  0x0,0x0,0x0,0x0,0x0,0x0,0x0,0x0
	.DB  0x0,0x0,0x0,0x0,0x0,0x0,0x0,0x0
	.DB  0x0,0x0,0x0,0x0,0x0,0x0,0x0,0x0
	.DB  0x0,0x0,0x0,0x0,0x0,0x0,0x0,0x0
	.DB  0x0,0x0,0x0,0x0,0x0,0x0,0x0,0x0
	.DB  0x0,0x0,0x0,0x0,0x0,0x0,0x0,0x0
	.DB  0x0,0x0,0x0,0x0,0x0,0x0,0x0,0x0
	.DB  0x0,0x0,0x0,0x0,0x0,0x0,0x0,0x0
	.DB  0x0,0x0,0x0,0x0,0x0,0x0,0x0,0x0
	.DB  0x0,0x0,0x0,0x0,0x0,0x0,0x0,0x0
	.DB  0x0,0x0,0x0,0x0,0x0,0x0,0x0,0x0
	.DB  0x0,0x0,0x0,0x0,0x0,0x0,0x0,0x0
	.DB  0x0,0x0,0x0,0x0,0x0,0x0,0x0,0x0
	.DB  0x0,0x0,0x0,0x0,0x0,0x0,0x0,0x0
	.DB  0x0,0x0,0x0,0x0,0x0,0x0,0x0,0x0
	.DB  0x0,0x0,0x0,0x0,0x0,0x0,0x0,0x0
	.DB  0x0,0x0,0x0,0x0,0x0,0x0,0x0,0x0
	.DB  0x0,0x0,0x0,0x0,0x0,0x0,0x0,0x0
	.DB  0x0,0x0,0x0,0x0,0x0,0x0,0x0,0x0
	.DB  0x0,0x0,0x0,0x0,0x0,0x0,0x0,0x0
	.DB  0x0,0x0,0x0,0x0,0x0,0x0,0x0,0x0
	.DB  0x0,0x0,0x0,0x0,0x0,0x0,0x0,0x0
	.DB  0x0,0x0,0x0,0x0,0x0,0x0,0x0,0x0
	.DB  0x0,0x0,0x0,0x0,0x0,0x0,0x0,0x0
	.DB  0x0,0x0,0x0,0x0,0x0,0x0,0x0,0x0
	.DB  0x0,0x0,0x0,0x0,0x0,0x0,0x0,0x0
	.DB  0x0,0x0,0x0,0x0,0x0,0x0,0x0,0x0
	.DB  0x0,0x0,0x0,0x0,0x0,0x0,0x0,0x0
	.DB  0x0,0x0,0x0,0x0,0x0,0x0,0x0,0x0
	.DB  0x0,0x0,0x0,0x0,0x0,0x0,0x0,0x0
	.DB  0x0,0x0,0x0,0x0,0x0,0x0,0x0,0x0
	.DB  0x0,0x0,0x0,0x0,0x0,0x0,0x0,0x0
	.DB  0x0,0x0,0x0,0x0,0x0,0x0,0x0,0x0
	.DB  0x0,0x0,0x0,0x0,0x0,0x0,0x0,0x0
	.DB  0x0,0x0,0x0,0x0,0x0,0x0,0x0,0x0
	.DB  0x0,0x0,0x0,0x0,0x0,0x0,0x0,0x0
	.DB  0x0,0x0,0x0,0x0,0x0,0x0,0x0,0x0
	.DB  0x0,0x0,0x0,0x0,0x0,0x0,0x0,0x0
	.DB  0x0,0x0,0x0,0x0,0x0,0x0,0x0,0x0
_GSM2:
	.DB  0x0,0x0,0x0,0x0,0x0,0x0,0x0,0x80
	.DB  0x80,0x0,0xE0,0xE0,0x0,0x0,0x0,0x0
	.DB  0x0,0x0,0x0,0x0,0x0,0x0,0x0,0x0
	.DB  0x0,0x0,0x0,0x0,0x0,0x0,0x0,0x0
	.DB  0x0,0x0,0x0,0x0,0x0,0x0,0x0,0x0
	.DB  0x0,0x0,0x0,0x0,0x0,0x0,0x0,0x0
	.DB  0x0,0x0,0x0,0x0,0x0,0x0,0x0,0x0
	.DB  0x0,0x0,0x0,0x0,0x0,0x0,0x0,0x0
	.DB  0x0,0x0,0x0,0x0,0x0,0x0,0x0,0x0
	.DB  0x0,0x0,0x0,0x0,0x0,0x0,0x0,0x0
	.DB  0x0,0x0,0x0,0x0,0x0,0x0,0x0,0x0
	.DB  0x0,0x0,0x0,0x0,0x0,0x0,0x0,0x0
	.DB  0x0,0x0,0x0,0x0,0x0,0x0,0x0,0x0
	.DB  0x0,0x0,0x0,0x0,0x0,0x0,0x0,0x0
	.DB  0x0,0x0,0x0,0x0,0x0,0x0,0x0,0x0
	.DB  0x0,0x0,0x0,0x0,0x0,0x0,0x0,0x0
	.DB  0x0,0x6,0x6,0x0,0x7,0x7,0x0,0x7
	.DB  0x7,0x0,0x7,0x7,0x0,0x0,0x0,0x0
	.DB  0x0,0x0,0x0,0x0,0x0,0x0,0x0,0x0
	.DB  0x0,0x0,0x0,0x0,0x0,0x0,0x0,0x0
	.DB  0x0,0x0,0x0,0x0,0x0,0x0,0x0,0x0
	.DB  0x0,0x0,0x0,0x0,0x0,0x0,0x0,0x0
	.DB  0x0,0x0,0x0,0x0,0x0,0x0,0x0,0x0
	.DB  0x0,0x0,0x0,0x0,0x0,0x0,0x0,0x0
	.DB  0x0,0x0,0x0,0x0,0x0,0x0,0x0,0x0
	.DB  0x0,0x0,0x0,0x0,0x0,0x0,0x0,0x0
	.DB  0x0,0x0,0x0,0x0,0x0,0x0,0x0,0x0
	.DB  0x0,0x0,0x0,0x0,0x0,0x0,0x0,0x0
	.DB  0x0,0x0,0x0,0x0,0x0,0x0,0x0,0x0
	.DB  0x0,0x0,0x0,0x0,0x0,0x0,0x0,0x0
	.DB  0x0,0x0,0x0,0x0,0x0,0x0,0x0,0x0
	.DB  0x0,0x0,0x0,0x0,0x0,0x0,0x0,0x0
	.DB  0x0,0x0,0x0,0x0,0x0,0x0,0x0,0x0
	.DB  0x0,0x0,0x0,0x0,0x0,0x0,0x0,0x0
	.DB  0x0,0x0,0x0,0x0,0x0,0x0,0x0,0x0
	.DB  0x0,0x0,0x0,0x0,0x0,0x0,0x0,0x0
	.DB  0x0,0x0,0x0,0x0,0x0,0x0,0x0,0x0
	.DB  0x0,0x0,0x0,0x0,0x0,0x0,0x0,0x0
_GSM3:
	.DB  0x0,0x0,0x0,0x0,0x0,0x0,0x0,0x0
	.DB  0x0,0x0,0x0,0x0,0x0,0x0,0x0,0x0
	.DB  0x0,0x0,0x0,0x0,0x0,0x0,0x0,0x0
	.DB  0x0,0x0,0x0,0x0,0x0,0x0,0x0,0x0
	.DB  0x0,0x0,0x0,0x0,0x0,0x0,0x0,0x0
	.DB  0x0,0x0,0x0,0x0,0x0,0x0,0x0,0x0
	.DB  0x0,0x0,0x0,0x0,0x0,0x0,0x0,0x0
	.DB  0x0,0x0,0x0,0x0,0x0,0x0,0x0,0x0
	.DB  0x0,0x0,0x0,0x0,0x0,0x0,0x0,0x0
	.DB  0x0,0x0,0x0,0x0,0x0,0x0,0x0,0x0
	.DB  0x0,0x0,0x0,0x0,0x0,0x0,0x0,0x0
	.DB  0x0,0x0,0x0,0x0,0x0,0x0,0x0,0x0
	.DB  0x0,0x0,0x0,0x0,0x0,0x0,0x0,0x0
	.DB  0x0,0x0,0x0,0x0,0x0,0x0,0x0,0x0
	.DB  0x0,0x0,0x0,0x0,0x0,0x0,0x0,0x0
	.DB  0x0,0x0,0x0,0x0,0x0,0x0,0x0,0x0
	.DB  0x0,0x6,0x6,0x0,0x7,0x7,0x0,0x0
	.DB  0x0,0x0,0x0,0x0,0x0,0x0,0x0,0x0
	.DB  0x0,0x0,0x0,0x0,0x0,0x0,0x0,0x0
	.DB  0x0,0x0,0x0,0x0,0x0,0x0,0x0,0x0
	.DB  0x0,0x0,0x0,0x0,0x0,0x0,0x0,0x0
	.DB  0x0,0x0,0x0,0x0,0x0,0x0,0x0,0x0
	.DB  0x0,0x0,0x0,0x0,0x0,0x0,0x0,0x0
	.DB  0x0,0x0,0x0,0x0,0x0,0x0,0x0,0x0
	.DB  0x0,0x0,0x0,0x0,0x0,0x0,0x0,0x0
	.DB  0x0,0x0,0x0,0x0,0x0,0x0,0x0,0x0
	.DB  0x0,0x0,0x0,0x0,0x0,0x0,0x0,0x0
	.DB  0x0,0x0,0x0,0x0,0x0,0x0,0x0,0x0
	.DB  0x0,0x0,0x0,0x0,0x0,0x0,0x0,0x0
	.DB  0x0,0x0,0x0,0x0,0x0,0x0,0x0,0x0
	.DB  0x0,0x0,0x0,0x0,0x0,0x0,0x0,0x0
	.DB  0x0,0x0,0x0,0x0,0x0,0x0,0x0,0x0
	.DB  0x0,0x0,0x0,0x0,0x0,0x0,0x0,0x0
	.DB  0x0,0x0,0x0,0x0,0x0,0x0,0x0,0x0
	.DB  0x0,0x0,0x0,0x0,0x0,0x0,0x0,0x0
	.DB  0x0,0x0,0x0,0x0,0x0,0x0,0x0,0x0
	.DB  0x0,0x0,0x0,0x0,0x0,0x0,0x0,0x0
	.DB  0x0,0x0,0x0,0x0,0x0,0x0,0x0,0x0
_GSM4:
	.DB  0x0,0x0,0x0,0x0,0x0,0x0,0x0,0x0
	.DB  0x0,0x0,0x0,0x0,0x0,0x0,0x0,0x0
	.DB  0x0,0x0,0x0,0x0,0x0,0x0,0x0,0x0
	.DB  0x0,0x0,0x0,0x0,0x0,0x0,0x0,0x0
	.DB  0x0,0x0,0x0,0x0,0x0,0x0,0x0,0x0
	.DB  0x0,0x0,0x0,0x0,0x0,0x0,0x0,0x0
	.DB  0x0,0x0,0x0,0x0,0x0,0x0,0x0,0x0
	.DB  0x0,0x0,0x0,0x0,0x0,0x0,0x0,0x0
	.DB  0x0,0x0,0x0,0x0,0x0,0x0,0x0,0x0
	.DB  0x0,0x0,0x0,0x0,0x0,0x0,0x0,0x0
	.DB  0x0,0x0,0x0,0x0,0x0,0x0,0x0,0x0
	.DB  0x0,0x0,0x0,0x0,0x0,0x0,0x0,0x0
	.DB  0x0,0x0,0x0,0x0,0x0,0x0,0x0,0x0
	.DB  0x0,0x0,0x0,0x0,0x0,0x0,0x0,0x0
	.DB  0x0,0x0,0x0,0x0,0x0,0x0,0x0,0x0
	.DB  0x0,0x0,0x0,0x0,0x0,0x0,0x0,0x0
	.DB  0x0,0x6,0x6,0x0,0x4,0x4,0x4,0x4
	.DB  0x4,0x4,0x4,0x4,0x4,0x4,0x4,0x4
	.DB  0x4,0x4,0x0,0x0,0x0,0x0,0x0,0x0
	.DB  0x0,0x0,0x0,0x0,0x0,0x0,0x0,0x0
	.DB  0x0,0x0,0x0,0x0,0x0,0x0,0x0,0x0
	.DB  0x0,0x0,0x0,0x0,0x0,0x0,0x0,0x0
	.DB  0x0,0x0,0x0,0x0,0x0,0x0,0x0,0x0
	.DB  0x0,0x0,0x0,0x0,0x0,0x0,0x0,0x0
	.DB  0x0,0x0,0x0,0x0,0x0,0x0,0x0,0x0
	.DB  0x0,0x0,0x0,0x0,0x0,0x0,0x0,0x0
	.DB  0x0,0x0,0x0,0x0,0x0,0x0,0x0,0x0
	.DB  0x0,0x0,0x0,0x0,0x0,0x0,0x0,0x0
	.DB  0x0,0x0,0x0,0x0,0x0,0x0,0x0,0x0
	.DB  0x0,0x0,0x0,0x0,0x0,0x0,0x0,0x0
_tbl10_G100:
	.DB  0x10,0x27,0xE8,0x3,0x64,0x0,0xA,0x0
	.DB  0x1,0x0
_tbl16_G100:
	.DB  0x0,0x10,0x0,0x1,0x10,0x0,0x1,0x0

_0x3:
	.DB  0xC1
_0xC7:
	.DB  0x53,0x49,0x54,0x55
_0xC8:
	.DB  0x31,0x36,0x39,0x37
_0x1E0:
	.DB  0x20,0x0,0x0,0x20,0x0,0x0,0x0,0x0
	.DB  0x0,0x0
_0x0:
	.DB  0x41,0x54,0x24,0x54,0x54,0x44,0x45,0x56
	.DB  0x49,0x44,0x3F,0xA,0xD,0x0,0x41,0x54
	.DB  0x2B,0x43,0x53,0x51,0xA,0xD,0x0,0x41
	.DB  0x54,0x24,0x54,0x54,0x4E,0x45,0x54,0x49
	.DB  0x50,0x3F,0xA,0xD,0x0,0x41,0x54,0x24
	.DB  0x54,0x54,0x47,0x50,0x53,0x51,0x52,0x59
	.DB  0x3D,0x31,0x30,0x2C,0x30,0xA,0xD,0x0
	.DB  0x41,0x54,0x24,0x54,0x54,0x53,0x4E,0x44
	.DB  0x4D,0x47,0x3D,0x34,0x2C,0x22,0x24,0x24
	.DB  0x42,0x4C,0x25,0x73,0x2C,0x25,0x64,0x25
	.DB  0x64,0x25,0x64,0x25,0x64,0x32,0x30,0x25
	.DB  0x64,0x25,0x64,0x2C,0x25,0x64,0x25,0x64
	.DB  0x25,0x64,0x25,0x64,0x25,0x64,0x25,0x64
	.DB  0x2C,0x52,0x32,0x2C,0x25,0x64,0x2C,0x25
	.DB  0x64,0x3A,0x58,0x58,0x23,0x23,0x22,0xD
	.DB  0xA,0x0,0x41,0x54,0x24,0x54,0x54,0x53
	.DB  0x4E,0x44,0x4D,0x47,0x3D,0x34,0x2C,0x22
	.DB  0x24,0x24,0x42,0x4C,0x25,0x73,0x2C,0x25
	.DB  0x64,0x25,0x64,0x25,0x64,0x25,0x64,0x32
	.DB  0x30,0x25,0x64,0x25,0x64,0x2C,0x25,0x64
	.DB  0x25,0x64,0x25,0x64,0x25,0x64,0x25,0x64
	.DB  0x25,0x64,0x2C,0x53,0x32,0x2C,0x31,0x32
	.DB  0x33,0x34,0x2C,0x25,0x64,0x3A,0x58,0x58
	.DB  0x23,0x23,0x22,0xD,0xA,0x0,0x52,0x55
	.DB  0x54,0x41,0x3A,0x0,0x20,0x20,0x20,0x20
	.DB  0x20,0x20,0x0,0x50,0x25,0x64,0x0,0x25
	.DB  0x63,0x0,0x42,0x55,0x53,0x0,0x25,0x64
	.DB  0x25,0x64,0x3A,0x25,0x64,0x25,0x64,0x3A
	.DB  0x25,0x64,0x25,0x64,0x0,0x49,0x4E,0x49
	.DB  0x43,0x49,0x4F,0x20,0x44,0x45,0x20,0x53
	.DB  0x45,0x53,0x49,0x4F,0x4E,0x0,0x2A,0x0
	.DB  0x46,0x49,0x4E,0x20,0x52,0x55,0x54,0x41
	.DB  0x0,0x49,0x4E,0x49,0x43,0x49,0x4F,0x20
	.DB  0x52,0x55,0x54,0x41,0x0,0x20,0x48,0x41
	.DB  0x20,0x53,0x41,0x4C,0x49,0x44,0x4F,0x0
	.DB  0x44,0x45,0x4C,0x20,0x53,0x49,0x53,0x54
	.DB  0x45,0x4D,0x41,0x0,0x4E,0x45,0x43,0x45
	.DB  0x53,0x49,0x54,0x41,0x20,0x49,0x4E,0x49
	.DB  0x43,0x49,0x41,0x52,0x20,0x4A,0x4F,0x52
	.DB  0x4E,0x41,0x44,0x41,0x0,0x32,0x30,0x25
	.DB  0x64,0x25,0x64,0x2D,0x25,0x64,0x25,0x64
	.DB  0x2D,0x25,0x64,0x25,0x64,0x0,0x50,0x61
	.DB  0x6E,0x74,0x61,0x6C,0x6C,0x61,0x0,0x4E
	.DB  0x6F,0x20,0x41,0x75,0x74,0x6F,0x72,0x69
	.DB  0x7A,0x61,0x64,0x61,0x0
_0x202005F:
	.DB  0x1
_0x2020000:
	.DB  0x2D,0x4E,0x41,0x4E,0x0

__GLOBAL_INI_TBL:
	.DW  0x01
	.DW  _prevLet_G000
	.DW  _0x3*2

	.DW  0x04
	.DW  _NOMBRE_DISP
	.DW  _0xC7*2

	.DW  0x04
	.DW  _NUM_DISP
	.DW  _0xC8*2

	.DW  0x06
	.DW  _0xFA
	.DW  _0x0*2+190

	.DW  0x07
	.DW  _0xFA+6
	.DW  _0x0*2+196

	.DW  0x04
	.DW  _0x1A9
	.DW  _0x0*2+210

	.DW  0x11
	.DW  _0x1A9+4
	.DW  _0x0*2+229

	.DW  0x02
	.DW  _0x1A9+21
	.DW  _0x0*2+246

	.DW  0x02
	.DW  _0x1A9+23
	.DW  _0x0*2+246

	.DW  0x02
	.DW  _0x1A9+25
	.DW  _0x0*2+246

	.DW  0x02
	.DW  _0x1A9+27
	.DW  _0x0*2+246

	.DW  0x09
	.DW  _0x1A9+29
	.DW  _0x0*2+248

	.DW  0x0C
	.DW  _0x1A9+38
	.DW  _0x0*2+257

	.DW  0x0B
	.DW  _0x1A9+50
	.DW  _0x0*2+269

	.DW  0x0C
	.DW  _0x1A9+61
	.DW  _0x0*2+280

	.DW  0x19
	.DW  _0x1A9+73
	.DW  _0x0*2+292

	.DW  0x09
	.DW  _0x1A9+98
	.DW  _0x0*2+334

	.DW  0x0E
	.DW  _0x1A9+107
	.DW  _0x0*2+343

	.DW  0x0A
	.DW  0x05
	.DW  _0x1E0*2

	.DW  0x01
	.DW  __seed_G101
	.DW  _0x202005F*2

_0xFFFFFFFF:
	.DW  0

__RESET:
	CLI
	CLR  R30
	OUT  EECR,R30

;INTERRUPT VECTORS ARE PLACED
;AT THE START OF FLASH
	LDI  R31,1
	OUT  MCUCR,R31
	OUT  MCUCR,R30

;DISABLE WATCHDOG
	LDI  R31,0x18
	WDR
	IN   R26,MCUSR
	CBR  R26,8
	OUT  MCUSR,R26
	STS  WDTCSR,R31
	STS  WDTCSR,R30

;CLEAR R2-R14
	LDI  R24,(14-2)+1
	LDI  R26,2
	CLR  R27
__CLEAR_REG:
	ST   X+,R30
	DEC  R24
	BRNE __CLEAR_REG

;CLEAR SRAM
	LDI  R24,LOW(0x800)
	LDI  R25,HIGH(0x800)
	LDI  R26,LOW(0x100)
	LDI  R27,HIGH(0x100)
__CLEAR_SRAM:
	ST   X+,R30
	SBIW R24,1
	BRNE __CLEAR_SRAM

;GLOBAL VARIABLES INITIALIZATION
	LDI  R30,LOW(__GLOBAL_INI_TBL*2)
	LDI  R31,HIGH(__GLOBAL_INI_TBL*2)
__GLOBAL_INI_NEXT:
	LPM  R24,Z+
	LPM  R25,Z+
	SBIW R24,0
	BREQ __GLOBAL_INI_END
	LPM  R26,Z+
	LPM  R27,Z+
	LPM  R0,Z+
	LPM  R1,Z+
	MOVW R22,R30
	MOVW R30,R0
__GLOBAL_INI_LOOP:
	LPM  R0,Z+
	ST   X+,R0
	SBIW R24,1
	BRNE __GLOBAL_INI_LOOP
	MOVW R30,R22
	RJMP __GLOBAL_INI_NEXT
__GLOBAL_INI_END:

;GPIOR0 INITIALIZATION
	LDI  R30,0x00
	OUT  GPIOR0,R30

;STACK POINTER INITIALIZATION
	LDI  R30,LOW(0x8FF)
	OUT  SPL,R30
	LDI  R30,HIGH(0x8FF)
	OUT  SPH,R30

;DATA STACK POINTER INITIALIZATION
	LDI  R28,LOW(0x300)
	LDI  R29,HIGH(0x300)

	JMP  _main

	.ESEG
	.ORG 0

	.DSEG
	.ORG 0x300

	.CSEG
;/**********************************************\
; *       Kradac Robotics & Electronics        *
; *                                            *
; *  Proyecto:       GLCD BUS LOJA             *
; *  Programadores:  Vicente Q &&              *
; *                  Ernesto P &&              *
; *                  David Novillo             *
; *  version:        0.8.9.5                   *
; *  Fecha:          11/08/2014                *
; *                                            *
; **********************************************
; *
; *
; *  uC:             ATmega324PA
; *  Compilador:     CodeVision 2.x
; *  Cryst:          11.092 MHz
; *
; *
; */
;
;//////////////////  SE AGREGAN LAS LIBRERIAS QUE SE VAN A UTILIZAR ////////////////////
;#include <mega324.h>
	#ifndef __SLEEP_DEFINED__
	#define __SLEEP_DEFINED__
	.EQU __se_bit=0x01
	.EQU __sm_mask=0x0E
	.EQU __sm_powerdown=0x04
	.EQU __sm_powersave=0x06
	.EQU __sm_standby=0x0C
	.EQU __sm_ext_standby=0x0E
	.EQU __sm_adc_noise_red=0x02
	.SET power_ctrl_reg=smcr
	#endif
;#include <delay.h>
;#include <stdio.h>
;#include <stdlib.h>
;#include "Includes/GLCD.h"

	.DSEG

	.CSEG
_trigger:
	SBI  0xB,7
	__DELAY_USB 55
	CBI  0xB,7
	__DELAY_USB 55
	RET
_glcd_on:
	SBI  0x2,6
	SBI  0x2,7
	CBI  0xB,6
	CBI  0xB,5
	LDI  R30,LOW(63)
	OUT  0x8,R30
	RCALL _trigger
	RET
;	line -> Y+0
_goto_col:
	ST   -Y,R17
;	x -> Y+1
;	pattern -> R17
	CBI  0xB,6
	CBI  0xB,5
	LDD  R26,Y+1
	LDD  R27,Y+1+1
	CPI  R26,LOW(0x40)
	LDI  R30,HIGH(0x40)
	CPC  R27,R30
	BRSH _0x24
	SBI  0x2,6
	CBI  0x2,7
	LDD  R17,Y+1
	RJMP _0x29
_0x24:
	SBI  0x2,7
	CBI  0x2,6
	LDD  R30,Y+1
	LDD  R31,Y+1+1
	SUBI R30,LOW(64)
	SBCI R31,HIGH(64)
	MOV  R17,R30
_0x29:
	MOV  R30,R17
	ORI  R30,0x40
	ANDI R30,0x7F
	MOV  R17,R30
	OUT  0x8,R17
	RCALL _trigger
	LDD  R17,Y+0
	RJMP _0x20A0004
_goto_row:
	ST   -Y,R17
;	y -> Y+1
;	pattern -> R17
	CBI  0xB,6
	CBI  0xB,5
	LDD  R30,Y+1
	ORI  R30,LOW(0xB8)
	ANDI R30,0xBF
	MOV  R17,R30
	OUT  0x8,R17
	RCALL _trigger
	LDD  R17,Y+0
	RJMP _0x20A0004
_goto_xy:
;	x -> Y+2
;	y -> Y+0
	LDD  R30,Y+2
	LDD  R31,Y+2+1
	CALL SUBOPT_0x0
	LD   R30,Y
	LDD  R31,Y+1
	CALL SUBOPT_0x1
	ADIW R28,4
	RET
_glcd_write:
;	b -> Y+0
	SBI  0xB,6
	CBI  0xB,5
	LD   R30,Y
	OUT  0x8,R30
	__DELAY_USW 221
	RCALL _trigger
	ADIW R28,1
	RET
_glcd_clrln:
	ST   -Y,R17
	ST   -Y,R16
;	ln -> Y+2
;	i -> R16,R17
	CALL SUBOPT_0x2
	CALL SUBOPT_0x3
	LDI  R30,LOW(64)
	LDI  R31,HIGH(64)
	ST   -Y,R31
	ST   -Y,R30
	CALL SUBOPT_0x3
	SBI  0x2,6
	__GETWRN 16,17,0
_0x39:
	__CPWRN 16,17,65
	BRGE _0x3A
	LDI  R30,LOW(0)
	ST   -Y,R30
	RCALL _glcd_write
	__ADDWRN 16,17,1
	RJMP _0x39
_0x3A:
	LDD  R17,Y+1
	LDD  R16,Y+0
_0x20A0004:
	ADIW R28,3
	RET
_glcd_clear:
	ST   -Y,R17
	ST   -Y,R16
;	i -> R16,R17
	__GETWRN 16,17,0
_0x3C:
	__CPWRN 16,17,8
	BRGE _0x3D
	ST   -Y,R16
	RCALL _glcd_clrln
	__ADDWRN 16,17,1
	RJMP _0x3C
_0x3D:
	LD   R16,Y+
	LD   R17,Y+
	RET
;	status -> R17
;	column -> Y+1
;	read_data -> R17
;	x -> Y+4
;	y -> Y+2
;	color -> Y+1
;	pattern -> R17
;	x -> Y+7
;	y -> Y+5
;	l -> Y+4
;	s -> Y+3
;	c -> Y+2
;	i -> R16,R17
;	x -> Y+8
;	y -> Y+6
;	l -> Y+4
;	s -> Y+3
;	c -> Y+2
;	i -> R16,R17
;	x1 -> Y+22
;	y1 -> Y+20
;	x2 -> Y+18
;	y2 -> Y+16
;	s -> Y+15
;	c -> Y+14
;	i -> R17
;	y01 -> R16
;	temp -> R19
;	a -> Y+10
;	b -> Y+6
;	y00 -> R18
;	y010 -> R21
;	x1 -> Y+8
;	y1 -> Y+6
;	x2 -> Y+4
;	y2 -> Y+2
;	s -> Y+1
;	c -> Y+0
;	x11 -> Y+16
;	y11 -> Y+14
;	x12 -> Y+12
;	y12 -> Y+10
;	x21 -> Y+8
;	y21 -> Y+6
;	x22 -> Y+4
;	y22 -> Y+2
;	s -> Y+1
;	c -> Y+0
;	x1 -> Y+9
;	y1 -> Y+7
;	x2 -> Y+5
;	y2 -> Y+3
;	l -> Y+2
;	s -> Y+1
;	c -> Y+0
;	x1 -> Y+9
;	y1 -> Y+7
;	x2 -> Y+5
;	y2 -> Y+3
;	l -> Y+2
;	s -> Y+1
;	c -> Y+0
;	x11 -> Y+18
;	y11 -> Y+16
;	x12 -> Y+14
;	y12 -> Y+12
;	l1 -> Y+11
;	x21 -> Y+9
;	y21 -> Y+7
;	x22 -> Y+5
;	y22 -> Y+3
;	l2 -> Y+2
;	s -> Y+1
;	c -> Y+0
;	x11 -> Y+18
;	y11 -> Y+16
;	x12 -> Y+14
;	y12 -> Y+12
;	l1 -> Y+11
;	x21 -> Y+9
;	y21 -> Y+7
;	x22 -> Y+5
;	y22 -> Y+3
;	l2 -> Y+2
;	s -> Y+1
;	c -> Y+0
;	x0 -> Y+10
;	y0 -> Y+8
;	r -> Y+6
;	s -> Y+5
;	c -> Y+4
;	i -> R17
;	y -> R16
;	y00 -> R19
_putIt:
	ST   -Y,R17
;	c -> Y+5
;	x -> Y+3
;	y -> Y+1
;	i -> R17
	LDD  R30,Y+3
	LDD  R31,Y+3+1
	CALL SUBOPT_0x0
	LDD  R30,Y+1
	LDD  R31,Y+1+1
	CALL SUBOPT_0x1
	LDI  R17,LOW(0)
_0x7B:
	CPI  R17,8
	BRSH _0x7C
	LDD  R30,Y+5
	LDD  R31,Y+5+1
	CALL __LSLW3
	MOVW R26,R30
	CALL SUBOPT_0x4
	ADD  R30,R26
	ADC  R31,R27
	SUBI R30,LOW(-_font*2)
	SBCI R31,HIGH(-_font*2)
	LPM  R30,Z
	ST   -Y,R30
	RCALL _glcd_write
	SUBI R17,-1
	RJMP _0x7B
_0x7C:
	LDD  R17,Y+0
	RJMP _0x20A0003
_enlarge:
	CALL __SAVELOCR4
;	*large -> Y+6
;	c -> Y+5
;	size -> Y+4
;	i -> R17
;	j -> R16
;	temp -> R19
;	k -> R18
	LDI  R18,0
	LDI  R17,LOW(0)
_0x7E:
	LDD  R30,Y+4
	CP   R17,R30
	BRSH _0x7F
	LDI  R16,LOW(0)
_0x81:
	CPI  R16,8
	BRSH _0x82
	CALL SUBOPT_0x5
	LDI  R31,0
	ASR  R31
	ROR  R30
	ST   X,R30
	LDD  R30,Y+5
	ANDI R30,LOW(0x1)
	MOV  R19,R30
	CPI  R19,0
	BREQ _0x83
	CALL SUBOPT_0x5
	ORI  R30,0x80
	ST   X,R30
_0x83:
	SUBI R18,-LOW(1)
	LDD  R30,Y+4
	CP   R30,R18
	BRNE _0x84
	LDD  R30,Y+5
	LDI  R31,0
	ASR  R31
	ROR  R30
	STD  Y+5,R30
	LDI  R18,LOW(0)
_0x84:
	SUBI R16,-1
	RJMP _0x81
_0x82:
	SUBI R17,-1
	RJMP _0x7E
_0x7F:
	CALL __LOADLOCR4
	ADIW R28,8
	RET
_putItSz:
	SBIW R28,63
	SBIW R28,1
	CALL __SAVELOCR4
;	c -> Y+73
;	x -> Y+71
;	y -> Y+69
;	sz -> Y+68
;	i -> R17
;	j -> R16
;	k -> R19
;	large -> Y+4
	CALL SUBOPT_0x6
	CALL SUBOPT_0x0
	__GETW1SX 69
	CALL SUBOPT_0x1
	LDI  R17,LOW(0)
_0x86:
	CPI  R17,8
	BRSH _0x87
	CALL SUBOPT_0x4
	MOVW R22,R30
	CALL __LSLW3
	MOVW R26,R28
	ADIW R26,4
	ADD  R30,R26
	ADC  R31,R27
	ST   -Y,R31
	ST   -Y,R30
	__GETW1SX 75
	CALL __LSLW3
	ADD  R30,R22
	ADC  R31,R23
	SUBI R30,LOW(-_font*2)
	SBCI R31,HIGH(-_font*2)
	LPM  R30,Z
	ST   -Y,R30
	__GETB1SX 71
	ST   -Y,R30
	RCALL _enlarge
	SUBI R17,-1
	RJMP _0x86
_0x87:
	LDI  R16,LOW(0)
_0x89:
	__GETB1SX 68
	CP   R16,R30
	BRLO PC+3
	JMP _0x8A
	LDI  R17,LOW(0)
_0x8C:
	CPI  R17,8
	BRLO PC+3
	JMP _0x8D
	LDI  R19,LOW(0)
_0x8F:
	__GETB1SX 68
	CP   R19,R30
	BRSH _0x90
	MOV  R30,R19
	LDI  R31,0
	__GETW2SX 71
	ADD  R30,R26
	ADC  R31,R27
	MOVW R22,R30
	__GETB2SX 68
	CLR  R27
	CALL SUBOPT_0x4
	CALL __MULW12
	MOVW R26,R22
	ADD  R26,R30
	ADC  R27,R31
	CPI  R26,LOW(0x40)
	LDI  R30,HIGH(0x40)
	CPC  R27,R30
	BRNE _0x91
	LDI  R30,LOW(64)
	LDI  R31,HIGH(64)
	ST   -Y,R31
	ST   -Y,R30
	CALL SUBOPT_0x6
	ST   -Y,R31
	ST   -Y,R30
	RCALL _goto_xy
_0x91:
	CALL SUBOPT_0x4
	CALL __LSLW3
	MOVW R26,R28
	ADIW R26,4
	ADD  R26,R30
	ADC  R27,R31
	CLR  R30
	ADD  R26,R16
	ADC  R27,R30
	LD   R30,X
	ST   -Y,R30
	RCALL _glcd_write
	SUBI R19,-1
	RJMP _0x8F
_0x90:
	SUBI R17,-1
	RJMP _0x8C
_0x8D:
	CALL SUBOPT_0x6
	ST   -Y,R31
	ST   -Y,R30
	MOVW R26,R28
	SUBI R26,LOW(-(71))
	SBCI R27,HIGH(-(71))
	CALL SUBOPT_0x7
	ST   -Y,R31
	ST   -Y,R30
	RCALL _goto_xy
	SUBI R16,-1
	RJMP _0x89
_0x8A:
	CALL __LOADLOCR4
	ADIW R28,63
	ADIW R28,12
	RET
_glcd_putchar:
;	c -> Y+6
;	x -> Y+4
;	y -> Y+2
;	l -> Y+1
;	sz -> Y+0
	LDD  R26,Y+1
	CPI  R26,LOW(0x1)
	BREQ PC+3
	JMP _0x92
	CALL SUBOPT_0x8
	CPI  R30,LOW(0x81)
	LDI  R26,HIGH(0x81)
	CPC  R31,R26
	BRNE _0x96
	LDI  R30,LOW(250)
	RJMP _0x1D2
_0x96:
	CPI  R30,LOW(0x90)
	LDI  R26,HIGH(0x90)
	CPC  R31,R26
	BRNE _0x97
	LDI  R30,LOW(251)
	RJMP _0x1D2
_0x97:
	CPI  R30,LOW(0x98)
	LDI  R26,HIGH(0x98)
	CPC  R31,R26
	BRNE _0x98
	LDI  R30,LOW(252)
	RJMP _0x1D2
_0x98:
	CPI  R30,LOW(0x8E)
	LDI  R26,HIGH(0x8E)
	CPC  R31,R26
	BRNE _0x99
	LDI  R30,LOW(253)
	RJMP _0x1D2
_0x99:
	CPI  R30,LOW(0x8D)
	LDI  R26,HIGH(0x8D)
	CPC  R31,R26
	BRNE _0x95
	LDI  R30,LOW(254)
_0x1D2:
	STD  Y+6,R30
_0x95:
	LDD  R26,Y+6
	CPI  R26,LOW(0xC1)
	BRLO _0x9C
	LDS  R26,_prevLet_G000
	LDS  R27,_prevLet_G000+1
	CPI  R26,LOW(0xC1)
	LDI  R30,HIGH(0xC1)
	CPC  R27,R30
	BRLT _0x9C
	CALL SUBOPT_0x9
	ADIW R30,5
	LPM  R30,Z
	CPI  R30,0
	BREQ _0x9C
	CALL SUBOPT_0x8
	CALL SUBOPT_0xA
	ADIW R30,4
	LPM  R30,Z
	CPI  R30,0
	BRNE _0x9D
_0x9C:
	RJMP _0x9B
_0x9D:
	CALL SUBOPT_0x9
	MOVW R26,R30
	LDS  R30,_stat_G000
	LDI  R31,0
	ADIW R30,1
	ADD  R30,R26
	ADC  R31,R27
	LPM  R30,Z
	CALL SUBOPT_0xB
	LDS  R30,_prevX_G000
	CALL SUBOPT_0xB
	LDS  R30,_prevY_G000
	CALL SUBOPT_0xB
	RCALL _putIt
	LDI  R30,LOW(2)
	RJMP _0x1D3
_0x9B:
	LDI  R30,LOW(0)
_0x1D3:
	STS  _stat_G000,R30
	LDD  R26,Y+6
	CPI  R26,LOW(0xC1)
	BRLO _0x9F
	CALL SUBOPT_0x8
	CALL SUBOPT_0xA
	MOVW R26,R30
	LDS  R30,_stat_G000
	LDI  R31,0
	ADD  R30,R26
	ADC  R31,R27
	LPM  R30,Z
	RJMP _0x1D4
_0x9F:
	LDD  R30,Y+6
_0x1D4:
	LDI  R31,0
	CALL SUBOPT_0xC
	CALL SUBOPT_0xC
	CALL SUBOPT_0xD
	CALL SUBOPT_0x8
	STS  _prevLet_G000,R30
	STS  _prevLet_G000+1,R31
	LDD  R30,Y+4
	STS  _prevX_G000,R30
	LDD  R30,Y+2
	STS  _prevY_G000,R30
	RJMP _0xA1
_0x92:
	CALL SUBOPT_0x8
	CALL SUBOPT_0xC
	CALL SUBOPT_0xC
	CALL SUBOPT_0xD
_0xA1:
_0x20A0003:
	ADIW R28,7
	RET
_glcd_puts:
	ST   -Y,R17
	ST   -Y,R16
;	*c -> Y+9
;	x -> Y+7
;	y -> Y+5
;	l -> Y+4
;	sz -> Y+3
;	space -> Y+2
;	i -> R17
;	special -> R16
	LDI  R17,0
	LDI  R16,0
_0xA2:
	CALL SUBOPT_0xE
	BRSH _0xA5
	LDD  R26,Y+4
	CPI  R26,LOW(0x0)
	BREQ _0xA6
_0xA5:
	RJMP _0xA4
_0xA6:
	CALL SUBOPT_0x4
	CALL SUBOPT_0xF
	LD   R30,X
	ST   -Y,R30
	CALL SUBOPT_0x10
	CALL SUBOPT_0x10
	LDI  R30,LOW(0)
	CALL SUBOPT_0x11
	CALL SUBOPT_0x12
	LDD  R26,Y+7
	LDD  R27,Y+7+1
	ADD  R30,R26
	ADC  R31,R27
	STD  Y+7,R30
	STD  Y+7+1,R31
	CALL SUBOPT_0x13
	LDI  R26,LOW(128)
	LDI  R27,HIGH(128)
	CALL __SWAPW12
	SUB  R30,R26
	SBC  R31,R27
	LDD  R26,Y+7
	LDD  R27,Y+7+1
	CP   R30,R26
	CPC  R31,R27
	BRGE _0xA7
	LDI  R30,LOW(0)
	STD  Y+7,R30
	STD  Y+7+1,R30
	CALL SUBOPT_0x14
_0xA7:
	SUBI R17,-1
	RJMP _0xA2
_0xA4:
_0xA8:
	CALL SUBOPT_0xE
	BRSH _0xAB
	LDD  R26,Y+4
	CPI  R26,LOW(0x1)
	BREQ _0xAC
_0xAB:
	RJMP _0xAA
_0xAC:
	CALL SUBOPT_0x4
	CALL SUBOPT_0xF
	LD   R26,X
	CPI  R26,LOW(0xE1)
	BRNE _0xAE
	CALL SUBOPT_0x15
	CPI  R26,LOW(0xC7)
	BREQ _0xAF
_0xAE:
	RJMP _0xAD
_0xAF:
	LDI  R16,LOW(249)
	RJMP _0xB0
_0xAD:
	CALL SUBOPT_0x4
	CALL SUBOPT_0xF
	LD   R26,X
	CPI  R26,LOW(0xE1)
	BRNE _0xB2
	CALL SUBOPT_0x15
	CPI  R26,LOW(0xC3)
	BREQ _0xB3
_0xB2:
	RJMP _0xB1
_0xB3:
	LDI  R16,LOW(231)
	RJMP _0xB4
_0xB1:
	CALL SUBOPT_0x4
	CALL SUBOPT_0xF
	LD   R26,X
	CPI  R26,LOW(0xE1)
	BRNE _0xB6
	CALL SUBOPT_0x15
	CPI  R26,LOW(0xC2)
	BREQ _0xB7
_0xB6:
	RJMP _0xB5
_0xB7:
	LDI  R16,LOW(232)
	RJMP _0xB8
_0xB5:
	CALL SUBOPT_0x4
	CALL SUBOPT_0xF
	LD   R26,X
	CPI  R26,LOW(0xE1)
	BRNE _0xBA
	CALL SUBOPT_0x15
	CPI  R26,LOW(0xC5)
	BREQ _0xBB
_0xBA:
	RJMP _0xB9
_0xBB:
	LDI  R16,LOW(233)
_0xB9:
_0xB8:
_0xB4:
_0xB0:
	CPI  R16,0
	BREQ _0xBC
	ST   -Y,R16
	CALL SUBOPT_0x16
	LDI  R30,LOW(1)
	CALL SUBOPT_0x11
	SUBI R17,-LOW(2)
	CALL SUBOPT_0x13
	LDD  R26,Y+7
	LDD  R27,Y+7+1
	CALL SUBOPT_0x17
	LDI  R16,LOW(0)
	RJMP _0xBD
_0xBC:
	CALL SUBOPT_0x4
	CALL SUBOPT_0xF
	LD   R30,X
	ST   -Y,R30
	CALL SUBOPT_0x16
	LDD  R30,Y+9
	CALL SUBOPT_0x11
	CALL SUBOPT_0x4
	CALL SUBOPT_0xF
	LD   R26,X
	CPI  R26,LOW(0x20)
	BRNE _0xBE
	CALL SUBOPT_0x12
	RJMP _0x1D5
_0xBE:
	CALL SUBOPT_0x13
_0x1D5:
	LDD  R26,Y+7
	LDD  R27,Y+7+1
	CALL SUBOPT_0x17
	SUBI R17,-1
_0xBD:
	CALL SUBOPT_0x13
	ADIW R30,1
	LDD  R26,Y+7
	LDD  R27,Y+7+1
	CP   R26,R30
	CPC  R27,R31
	BRGE _0xC0
	CALL SUBOPT_0x13
	LDI  R26,LOW(128)
	LDI  R27,HIGH(128)
	CALL SUBOPT_0x17
	CALL SUBOPT_0x14
_0xC0:
	RJMP _0xA8
_0xAA:
	LDI  R30,LOW(193)
	LDI  R31,HIGH(193)
	STS  _prevLet_G000,R30
	STS  _prevLet_G000+1,R31
	LDD  R17,Y+1
	LDD  R16,Y+0
	ADIW R28,11
	RET
_bmp_disp:
	CALL __SAVELOCR4
;	*bmp -> Y+12
;	x1 -> Y+10
;	y1 -> Y+8
;	x2 -> Y+6
;	y2 -> Y+4
;	i -> R16,R17
;	j -> R18,R19
	__GETWRS 16,17,8
_0xC2:
	LDD  R30,Y+4
	LDD  R31,Y+4+1
	CP   R30,R16
	CPC  R31,R17
	BRLO _0xC3
	__GETWRS 18,19,10
_0xC5:
	LDD  R30,Y+6
	LDD  R31,Y+6+1
	CP   R30,R18
	CPC  R31,R19
	BRLO _0xC6
	ST   -Y,R19
	ST   -Y,R18
	ST   -Y,R17
	ST   -Y,R16
	RCALL _goto_xy
	__MULBNWRU 16,17,128
	ADD  R30,R18
	ADC  R31,R19
	LDD  R26,Y+12
	LDD  R27,Y+12+1
	ADD  R30,R26
	ADC  R31,R27
	LPM  R30,Z
	ST   -Y,R30
	RCALL _glcd_write
	__ADDWRN 18,19,1
	RJMP _0xC5
_0xC6:
	__ADDWRN 16,17,1
	RJMP _0xC2
_0xC3:
	CALL __LOADLOCR4
	ADIW R28,14
	RET
;#include "Includes/bus.h"
;
;
;//////////////////////////////// INTERRUPCION SERIAL //////////////////////////////////
;   #ifndef RXB8
;   #define RXB8 1
;   #endif
;   #ifndef TXB8
;   #define TXB8 0
;   #endif
;   #ifndef UPE
;   #define UPE 2
;   #endif
;   #ifndef DOR
;   #define DOR 3
;   #endif
;   #ifndef FE
;   #define FE 4
;   #endif
;   #ifndef UDRE
;   #define UDRE 5
;   #endif
;   #ifndef RXC
;   #define RXC 7
;   #endif
;
;   #define FRAMING_ERROR (1<<FE)
;   #define PARITY_ERROR (1<<UPE)
;   #define DATA_OVERRUN (1<<DOR)
;   #define DATA_REGISTER_EMPTY (1<<UDRE)
;   #define RX_COMPLETE (1<<RXC)
;//---------------------------------------------------------------------------------------
;
;/////////////////////////  CONFIGURACIONES GLOBALES DEL PROGRAMA //////////////////////
;
;   typedef char int8;    //sirve para definir enteros consigno de 8
;
;   #define NOMBRE_PANTALLA       "SITU"
;   #define NUMERO_PANTALLA       "1697"
;   #define DELAY_BUZZER_MS          100
;   #define DELAY_BOTONES_MS         200
;   #define INIT_DELAY_GLCD_MS        10
;   #define DELAY_PANTALLA_INI      2000
;   #define TOTAL_RUTAS              100  //Nmero total de rutas
;   #define MOSTRAR_NUM_RUTA_MS     2000  // Tiempo que se muestra el nombre de la Geocerca
;   #define MOSTRAR_MSN_ENV_MS      1000  // Tiempo que muestra MENSAJE ENVIADO
;
;   #define RX_BUFFER_SIZE0 200             //BUFFER DE 200 CARACTERES
;   char rx_b0 [RX_BUFFER_SIZE0];           //nombre del buffer
;
;////////////////////////////  DEFINIR PUERTOS BOTONES - BUZZER  //////////////////////////
;   #define BT5 PINA.0
;   #define BT4 PINA.1
;   #define BT3 PINA.2
;   #define BT2 PINA.3
;   #define BT1 PINA.4
;   #define buzzer PORTD.4
;//----------------------------------------------------------------------------------------
;
;/////////////////////////////// DEFINICIONES DE PUERTO SERIAL   //////////////////////////
;
;   #if RX_BUFFER_SIZE0 <= 256
;   unsigned char rx_wr_index0,rx_rd_index0,rx_counter0;
;   #else
;   unsigned int rx_wr_index0,rx_rd_index0,rx_counter0;
;   #endif
;
;   // This flag is set on USART0 Receiver buffer overflow
;   bit rx_buffer_overflow0;
;   bit BIT_UART;
;//----------------------------------------------------------------------------------------
;
;
;
;
;///////////////////////////////////////////////// VARIABLES  GLOBALES   /////////////////////////////////////////
;
;   char NOMBRE_DISP[] = NOMBRE_PANTALLA;       // variable

	.DSEG
;   char NUM_DISP[] = NUMERO_PANTALLA;          // variable
;   char ruta= ' ';                             // variable donde se almacena la ruta que se enviarA al servidor
;   char ruta_aux = ' ';                        // variable auxiliar para almacenar la ruta a seleccionar
;   char bandera1 = 0;                          // variable auxiliar para evitar el rebote al oprimir el boton 1
;   char bandera2 = 0;                          // variable auxiliar para evitar el rebote al oprimir el boton 2
;   char bandera3 = 0;                          // variable auxiliar para evitar el rebote al oprimir el boton 3
;   char bandera4 = 0;                          // variable auxiliar para evitar el rebote al oprimir el boton 4
;   char bandera5 = 0;                          // variable auxiliar para evitar el rebote al oprimir el boton 4
;   char aceptar  = 0;                          // variable que permite enviar ruta de trabajo al servidor
;
;   // Contadores de las presiones de botones
;   char btn1=0;          //  Cuenta entre 1 y 2 = 1 Inicia Sesion, 2 Cierra sesion
;   char btn2=0;         // Cuentra entre 1 y 12 =  Ruta seleccionada. Boton 2 aumenta el contador
;   char btn3=0;        // No se usa, Boton 3 disminuye el contador btn2
;   char btn4=0;       // Cuenta entre 1 y 2 = 1 Acepta Ruta, 2 Cancela Carrera
;   char btn5=0;      // Cuenta entre 1 y 5 = Cambia los estados mecanicos del bus.
;
;   int gsm, gps, ind_sen;     //indicadores de seal
;   char reloj[8], fecha[8];  //vectores para imprmir GLCD
;
;   char punto[4], pt=0, no_pt[4], nombre_pt[20];        // variables para reconocer geocercas
;   int unidades_ruta, decenas_ruta, centenas_ruta;
;
;
;//-----------------------------------------     VARIABLES EEPROM     --------------------------------------//
;
;   static unsigned int time_count;   // Contador del timer para los segundos
;   static unsigned int act;          // Variable que guarda si la pantalla es autorizada
;
;   eeprom int8 seg   @0x80;
;   eeprom int8 seg1  @0x82;         // segundos en unidades y decenas
;   eeprom int8 minu  @0x84;
;   eeprom int8 min1  @0x86;         // minutos en unidades y decenas
;   eeprom int8 hora  @0x88;
;   eeprom int8 hora1 @0x8A;         // hora en unidades y decenas
;   eeprom int8 dia   @0x8C;
;   eeprom int8 dia1  @0x8E;         // dias en unidades y decenas
;   eeprom int8 mes   @0x90;
;   eeprom int8 mes1  @0x92;         // mes en unidades y decenas
;   eeprom int8 an    @0x94;
;   eeprom int8 an1   @0x96;         // anos en unidades y decenas
;
;   eeprom int8 num_ruta   @0x28;      // Transforma la letra de la ruta a un nmero
;                                      // Si su valor es de CERO no tiene ruta asignada
;                                      // No este en recorrido
;
;   eeprom int8 laborando  @0x2A;      // Sabe si el chofer ha iniciado sesion o no.
;                                      // Para poder escoger la ruta debe iniciar sesion
;
;   //----------------------------------   VARIABLES EERPOM EN LA FLASH  ------------------------------------//
;
;   int8 _seg  = 0;
;   int8 _seg1 = 0;    // segundos en unidades y decenas
;   int8 _minu = 0;
;   int8 _min1 = 0;    // minutos en unidades y decenas
;   int8 _hora = 0;
;   int8 _hora1= 0;    // hora en unidades y decenas
;   int8 _dia  = 0;
;   int8 _dia1 = 0;    // dias en unidades y decenas
;   int8 _mes  = 0;
;   int8 _mes1 = 0;    // mes en unidades y decenas
;   int8 _an   = 0;
;   int8 _an1  = 0;    // anos en unidades y decenas
;
;   int8 _num_ruta  = 0;
;   int8 _laborando = 0;
;
;
;
;
;////////////////////////////  RUTINA DE INTERRUPCION SERIAL   ////////////////////////////
;/** \brief USART0 Receiver interrupt service routine
; *
; * Captura datos desde el puerto serial UART0
; */
;   interrupt [USART0_RXC] void usart0_rx_isr(void)
; 0000 00B5    {

	.CSEG
_usart0_rx_isr:
	ST   -Y,R30
	ST   -Y,R31
	IN   R30,SREG
	ST   -Y,R30
; 0000 00B6       char status,data;
; 0000 00B7       status = UCSR0A;
	ST   -Y,R17
	ST   -Y,R16
;	status -> R17
;	data -> R16
	LDS  R17,192
; 0000 00B8       data   = UDR0;
	LDS  R16,198
; 0000 00B9       BIT_UART = UCSR0A & 0b10000000;
	LDS  R30,192
	ANDI R30,LOW(0x80)
	BRNE _0xC9
	CBI  0x1E,1
	RJMP _0xCA
_0xC9:
	SBI  0x1E,1
_0xCA:
; 0000 00BA 
; 0000 00BB       if ((status & (FRAMING_ERROR | PARITY_ERROR | DATA_OVERRUN)) == 0)
	MOV  R30,R17
	ANDI R30,LOW(0x1C)
	BRNE _0xCB
; 0000 00BC       {
; 0000 00BD          rx_b0 [rx_wr_index0++] = data;
	MOV  R30,R4
	INC  R4
	LDI  R31,0
	SUBI R30,LOW(-_rx_b0)
	SBCI R31,HIGH(-_rx_b0)
	ST   Z,R16
; 0000 00BE          #if RX_BUFFER_SIZE0 == 256
; 0000 00BF             // special case for receiver buffer size=256
; 0000 00C0             if (++rx_counter0 == 0) rx_buffer_overflow0=1;
; 0000 00C1 
; 0000 00C2          #else
; 0000 00C3             if (rx_wr_index0 == RX_BUFFER_SIZE0) rx_wr_index0=0;
	LDI  R30,LOW(200)
	CP   R30,R4
	BRNE _0xCC
	CLR  R4
; 0000 00C4             if (++rx_counter0 == RX_BUFFER_SIZE0)
_0xCC:
	INC  R6
	LDI  R30,LOW(200)
	CP   R30,R6
	BRNE _0xCD
; 0000 00C5             {
; 0000 00C6                rx_counter0=0;
	CLR  R6
; 0000 00C7                rx_buffer_overflow0=1;
	SBI  0x1E,0
; 0000 00C8             }
; 0000 00C9          #endif
; 0000 00CA       }
_0xCD:
; 0000 00CB    }
_0xCB:
	LD   R16,Y+
	LD   R17,Y+
	LD   R30,Y+
	OUT  SREG,R30
	LD   R31,Y+
	LD   R30,Y+
	RETI
;//-----------------------------------------------------------------------------------------
;
;
;/////////////////////////////////////////////// INTERRUPCION DEL TIMER0 (CUENTA CADA SEGUNDO) /////////////////////////////////////////////////
;interrupt [TIM0_OVF] void timer0_ovf_isr(void)
; 0000 00D1 {
_timer0_ovf_isr:
	ST   -Y,R0
	ST   -Y,R1
	ST   -Y,R15
	ST   -Y,R22
	ST   -Y,R23
	ST   -Y,R24
	ST   -Y,R25
	ST   -Y,R26
	ST   -Y,R27
	ST   -Y,R30
	ST   -Y,R31
	IN   R30,SREG
	ST   -Y,R30
; 0000 00D2    TCNT0 = 6;
	LDI  R30,LOW(6)
	OUT  0x26,R30
; 0000 00D3    ++time_count;
	LDI  R26,LOW(_time_count_G000)
	LDI  R27,HIGH(_time_count_G000)
	CALL SUBOPT_0x7
; 0000 00D4 
; 0000 00D5    if ( time_count == 43 )
	LDS  R26,_time_count_G000
	LDS  R27,_time_count_G000+1
	SBIW R26,43
	BREQ PC+3
	JMP _0xD0
; 0000 00D6    {
; 0000 00D7       seg++;
	CALL SUBOPT_0x18
	CALL SUBOPT_0x19
; 0000 00D8       time_count = 0;  //reiniciar contador
	LDI  R30,LOW(0)
	STS  _time_count_G000,R30
	STS  _time_count_G000+1,R30
; 0000 00D9 
; 0000 00DA       //Envia las tramas para validar el nombre y la seal del equipo - cada segundo
; 0000 00DB          if(seg==1 && seg1==1) printf("AT$TTDEVID?\n\r");  // Pregunta el ID del equipo
	CALL SUBOPT_0x18
	CPI  R30,LOW(0x1)
	BRNE _0xD2
	CALL SUBOPT_0x1A
	CPI  R30,LOW(0x1)
	BREQ _0xD3
_0xD2:
	RJMP _0xD1
_0xD3:
	CALL SUBOPT_0x1B
; 0000 00DC          if(seg==1 && seg1==2) printf("AT+CSQ\n\r");      // Pregunta la intensidad de senal
_0xD1:
	CALL SUBOPT_0x18
	CPI  R30,LOW(0x1)
	BRNE _0xD5
	CALL SUBOPT_0x1A
	CPI  R30,LOW(0x2)
	BREQ _0xD6
_0xD5:
	RJMP _0xD4
_0xD6:
	__POINTW1FN _0x0,14
	CALL SUBOPT_0x1C
; 0000 00DD       //Envio pra ver antenas, igualar hora y fecha...
; 0000 00DE          // Envio cada 20 segundos
; 0000 00DF          if (seg==1 && seg1==3) printf("AT$TTNETIP?\n\r");
_0xD4:
	CALL SUBOPT_0x18
	CPI  R30,LOW(0x1)
	BRNE _0xD8
	CALL SUBOPT_0x1A
	CPI  R30,LOW(0x3)
	BREQ _0xD9
_0xD8:
	RJMP _0xD7
_0xD9:
	__POINTW1FN _0x0,23
	CALL SUBOPT_0x1C
; 0000 00E0          if (seg==1 && seg1==4) printf("AT$TTGPSQRY=10,0\n\r");   // Igualar la hora
_0xD7:
	CALL SUBOPT_0x18
	CPI  R30,LOW(0x1)
	BRNE _0xDB
	CALL SUBOPT_0x1A
	CPI  R30,LOW(0x4)
	BREQ _0xDC
_0xDB:
	RJMP _0xDA
_0xDC:
	__POINTW1FN _0x0,37
	CALL SUBOPT_0x1C
; 0000 00E1 
; 0000 00E2 
; 0000 00E3       if (seg>9)
_0xDA:
	CALL SUBOPT_0x18
	CPI  R30,LOW(0xA)
	BRSH PC+3
	JMP _0xDD
; 0000 00E4       {
; 0000 00E5          seg=0; seg1++;
	CALL SUBOPT_0x1D
	CALL SUBOPT_0x1A
	CALL SUBOPT_0x19
; 0000 00E6 
; 0000 00E7          if(seg1>5)  // Cambio de minuto
	CALL SUBOPT_0x1A
	CPI  R30,LOW(0x6)
	BRSH PC+3
	JMP _0xDE
; 0000 00E8          {
; 0000 00E9             seg1=0; minu++;
	CALL SUBOPT_0x1E
	CALL SUBOPT_0x1F
	CALL SUBOPT_0x19
; 0000 00EA             if(minu>9)
	CALL SUBOPT_0x1F
	CPI  R30,LOW(0xA)
	BRSH PC+3
	JMP _0xDF
; 0000 00EB             {
; 0000 00EC                minu=0; min1++;
	CALL SUBOPT_0x20
	CALL SUBOPT_0x21
	CALL SUBOPT_0x19
; 0000 00ED                if(min1>5)
	CALL SUBOPT_0x21
	CPI  R30,LOW(0x6)
	BRLO _0xE0
; 0000 00EE                {
; 0000 00EF                   min1=0; hora++;
	CALL SUBOPT_0x22
	CALL SUBOPT_0x23
	CALL SUBOPT_0x19
; 0000 00F0                   if(hora>9)
	CALL SUBOPT_0x23
	CPI  R30,LOW(0xA)
	BRLO _0xE1
; 0000 00F1                   {
; 0000 00F2                      hora=0; hora1++;
	CALL SUBOPT_0x24
	CALL SUBOPT_0x25
	CALL SUBOPT_0x19
; 0000 00F3                      if((hora1==2 && hora==3)&&(min1==5 && minu==9)&&(seg1==5 && seg==9))
	CALL SUBOPT_0x25
	CPI  R30,LOW(0x2)
	BRNE _0xE3
	CALL SUBOPT_0x23
	CPI  R30,LOW(0x3)
	BREQ _0xE4
_0xE3:
	RJMP _0xE5
_0xE4:
	CALL SUBOPT_0x21
	CPI  R30,LOW(0x5)
	BRNE _0xE6
	CALL SUBOPT_0x1F
	CPI  R30,LOW(0x9)
	BREQ _0xE7
_0xE6:
	RJMP _0xE5
_0xE7:
	CALL SUBOPT_0x1A
	CPI  R30,LOW(0x5)
	BRNE _0xE8
	CALL SUBOPT_0x18
	CPI  R30,LOW(0x9)
	BREQ _0xE9
_0xE8:
	RJMP _0xE5
_0xE9:
	RJMP _0xEA
_0xE5:
	RJMP _0xE2
_0xEA:
; 0000 00F4                      {
; 0000 00F5                         hora1=0; hora=0; min1=0; minu=0;seg1=0;seg=0;
	LDI  R26,LOW(_hora1)
	LDI  R27,HIGH(_hora1)
	LDI  R30,LOW(0)
	CALL __EEPROMWRB
	CALL SUBOPT_0x24
	CALL SUBOPT_0x22
	CALL SUBOPT_0x20
	CALL SUBOPT_0x1E
	CALL SUBOPT_0x1D
; 0000 00F6                      }
; 0000 00F7                   }
_0xE2:
; 0000 00F8                }
_0xE1:
; 0000 00F9             }
_0xE0:
; 0000 00FA          }
_0xDF:
; 0000 00FB       }
_0xDE:
; 0000 00FC    }
_0xDD:
; 0000 00FD }
_0xD0:
	LD   R30,Y+
	OUT  SREG,R30
	LD   R31,Y+
	LD   R30,Y+
	LD   R27,Y+
	LD   R26,Y+
	LD   R25,Y+
	LD   R24,Y+
	LD   R23,Y+
	LD   R22,Y+
	LD   R15,Y+
	LD   R1,Y+
	LD   R0,Y+
	RETI
;//-------------------------------------------------------------------------------------------------------------------------------------------//
;
;
;
;//***********************************************************************************************************************************//
;//////////////////////////////////////////////////////////// FUNCIONES ////////////////////////////////////////////////////////////////
;//***********************************************************************************************************************************//
;
;   ////////////////// FUNCIN PARA EL SONIDO DEL BUZZER /////////////////////
;      /** \brief Genera el sonido del buffer
;       *
;       * El tiempo que suena depende del Macro: DELAY BUZZER
;       */
;      void buzz()
; 0000 010C       {       //Sonido de Buzzer
_buzz:
; 0000 010D          buzzer=1; delay_ms( DELAY_BUZZER_MS );
	SBI  0xB,4
	CALL SUBOPT_0x26
; 0000 010E          buzzer=0; delay_ms( DELAY_BUZZER_MS );
	CBI  0xB,4
	CALL SUBOPT_0x26
; 0000 010F       }
	RET
;   //---------------------------------------------------------------------------//
;
;   ////////////////// FUNCIN PARA CALCULAR NUMERO DE RUTA //////////////////
;      /** \brief Transforma el caracter de ruta a un nmero
;       *
;       * Cambia de A -> 1; B->2 ...  etc, en caso de que el caracter pasado no
;       * Corresponda a una letra devolvera -1
;       *
;       * Solo soporta un carcater, mximo se puede tener 35 rutas.
;       */
;      int8 calcuar_ruta( char ruta )
; 0000 011B       {
_calcuar_ruta:
; 0000 011C          int8 numero_ruta = ruta - 0x40;
; 0000 011D 
; 0000 011E          // Verificar que la letra corresponde a un nmero de ruta
; 0000 011F          if ( numero_ruta > 0 && numero_ruta <= TOTAL_RUTAS )
	ST   -Y,R17
;	ruta -> Y+1
;	numero_ruta -> R17
	LDD  R30,Y+1
	LDI  R31,0
	SUBI R30,LOW(64)
	SBCI R31,HIGH(64)
	MOV  R17,R30
	CPI  R17,1
	BRLO _0xF0
	CPI  R17,101
	BRLO _0xF1
_0xF0:
	RJMP _0xEF
_0xF1:
; 0000 0120             return numero_ruta;
	MOV  R30,R17
	RJMP _0x20A0002
; 0000 0121          else
_0xEF:
; 0000 0122             return 0; // El caracter no corresponde a una ruta.
	LDI  R30,LOW(0)
; 0000 0123 
; 0000 0124       }
_0x20A0002:
	LDD  R17,Y+0
	ADIW R28,2
	RET
;   //---------------------------------------------------------------------------//
;
;   ////////////////// FUNCION PARA ENVIAR RUTA AL SERVIDOR //////////////////
;      /** \brief Envia inicio o fin de ruta para el calulo del recorrido
;       *
;       * Para el inicio de trama envia un numero que representa la ruta y luego
;       * envia el estado de esa ruta: ej R2,2,0. Fin de Ruta dos
;       *
;       */
;      void enviar_estado_ruta(){
; 0000 012E void enviar_estado_ruta(){
_enviar_estado_ruta:
; 0000 012F 
; 0000 0130          _num_ruta = calcuar_ruta( ruta );
	ST   -Y,R5
	RCALL _calcuar_ruta
	STS  __num_ruta,R30
; 0000 0131          printf("AT$TTSNDMG=4,\"$$BL%s,%d%d%d%d20%d%d,%d%d%d%d%d%d,R2,%d,%d:XX##\"\r\n",
; 0000 0132                                           NUM_DISP,
; 0000 0133                                                _dia1,_dia,
; 0000 0134                                                _mes1,_mes,
; 0000 0135                                                _an1,_an,
; 0000 0136                                                    _hora1,hora,
; 0000 0137                                                    _min1 ,minu,
; 0000 0138                                                    _seg1 ,seg,
; 0000 0139                                                       _num_ruta,aceptar  );
	__POINTW1FN _0x0,56
	CALL SUBOPT_0x27
	CALL SUBOPT_0x28
	LDS  R30,__min1
	CALL SUBOPT_0x28
	CALL SUBOPT_0x1F
	CALL SUBOPT_0x28
	LDS  R30,__seg1
	CALL SUBOPT_0x28
	CALL SUBOPT_0x18
	CALL SUBOPT_0x28
	LDS  R30,__num_ruta
	CALL SUBOPT_0x28
	MOV  R30,R14
	CALL SUBOPT_0x28
	LDI  R24,60
	CALL _printf
	ADIW R28,62
; 0000 013A       }
	RET
;   //---------------------------------------------------------------------------//
;
;
;   ////////////////// FUNCION PARA ENVIAR LOGIN AL SERVIDOR /////////////////
;      /** \brief Envia inicio o fin de LOGIN del chofer para el calulo del recorrido
;       *
;       * Para el inicio de trama envia un numero que representa el ID del chofer
;       * luego el estado. LOGIN/LOGOUT
;       *
;       */
;      void envia_estado_login(){
; 0000 0145 void envia_estado_login(){
_envia_estado_login:
; 0000 0146          printf("AT$TTSNDMG=4,\"$$BL%s,%d%d%d%d20%d%d,%d%d%d%d%d%d,S2,1234,%d:XX##\"\r\n",
; 0000 0147                                        NUM_DISP,
; 0000 0148                                             _dia1,_dia,
; 0000 0149                                             _mes1,_mes,
; 0000 014A                                             _an1,_an,
; 0000 014B                                                 _hora1,hora,
; 0000 014C                                                 _min1 ,minu,
; 0000 014D                                                 _seg1 ,seg,
; 0000 014E                                                   // id_conductor, 1234 temporalmente
; 0000 014F                                                      _laborando  );
	__POINTW1FN _0x0,122
	CALL SUBOPT_0x27
	CALL SUBOPT_0x28
	LDS  R30,__min1
	CALL SUBOPT_0x28
	CALL SUBOPT_0x1F
	CALL SUBOPT_0x28
	LDS  R30,__seg1
	CALL SUBOPT_0x28
	CALL SUBOPT_0x18
	CALL SUBOPT_0x28
	LDS  R30,__laborando
	CALL SUBOPT_0x28
	LDI  R24,56
	CALL _printf
	ADIW R28,58
; 0000 0150       }
	RET
;   //---------------------------------------------------------------------------//
;
;
;   ////////////////// FUNCION DEL BOTON 1 (INICIO/FIN DE JORNADA) ///////////
;      void boton1()
; 0000 0156       {
_boton1:
; 0000 0157          // Primera presion del botn
; 0000 0158          if( BT1 == 0 && bandera1==0)
	LDI  R26,0
	SBIC 0x0,4
	LDI  R26,1
	CPI  R26,LOW(0x0)
	BRNE _0xF4
	LDI  R30,LOW(0)
	CP   R30,R7
	BREQ _0xF5
_0xF4:
	RJMP _0xF3
_0xF5:
; 0000 0159          {
; 0000 015A             pt=2;                             // Para q muestre en la glcd MENSAJE ENVIADO
	LDI  R30,LOW(2)
	STS  _pt,R30
; 0000 015B             btn1++;                          // Aumenta el contador del boton
	INC  R13
; 0000 015C             bandera1=1;                     // Evita que vuelva a entrar al mismo boton
	LDI  R30,LOW(1)
	MOV  R7,R30
; 0000 015D 
; 0000 015E             buzz();
	CALL SUBOPT_0x29
; 0000 015F             delay_ms( DELAY_BOTONES_MS );
; 0000 0160 
; 0000 0161             switch (btn1)
	MOV  R30,R13
	CALL SUBOPT_0x2A
; 0000 0162             {
; 0000 0163                // PRIMERA PRESION DEL BOTON
; 0000 0164                case 1:
	BRNE _0xF9
; 0000 0165 
; 0000 0166                   // Envia Inicio de sesion al servidor
; 0000 0167                   _laborando = 1;                  // INICIA SESION  ***
	LDI  R30,LOW(1)
	STS  __laborando,R30
; 0000 0168                   envia_estado_login();
	RCALL _envia_estado_login
; 0000 0169                   // DEBE HABILITAR EL BOTON 4
; 0000 016A 
; 0000 016B                   // Muestra la RUTA A: primero y por defecto
; 0000 016C                   btn2 = 1;
	LDI  R30,LOW(1)
	STS  _btn2,R30
; 0000 016D 
; 0000 016E                   //Muestra el chofer
; 0000 016F                   bmp_disp(chofer,0,5,35,7);
	LDI  R30,LOW(_chofer*2)
	LDI  R31,HIGH(_chofer*2)
	CALL SUBOPT_0x2B
	CALL SUBOPT_0x2C
	LDI  R30,LOW(35)
	LDI  R31,HIGH(35)
	CALL SUBOPT_0x2D
	RCALL _bmp_disp
; 0000 0170 
; 0000 0171                   // Muestra la ruta
; 0000 0172                   glcd_puts("RUTA:",44,7,0,1,-1);
	__POINTW1MN _0xFA,0
	CALL SUBOPT_0x2E
	CALL SUBOPT_0x2F
	CALL SUBOPT_0x30
; 0000 0173 
; 0000 0174                break;
	RJMP _0xF8
; 0000 0175 
; 0000 0176                // SEGUNDA PRESION DEL BOTON
; 0000 0177                //solamente quita la ruta de la pantalla
; 0000 0178                //no cierra sesion de la ruta actual
; 0000 0179                case 2:
_0xF9:
	CPI  R30,LOW(0x2)
	LDI  R26,HIGH(0x2)
	CPC  R31,R26
	BRNE _0xF8
; 0000 017A                   bmp_disp( vacio, 0, 5, 25, 7);   // Borra el chofer
	LDI  R30,LOW(_vacio*2)
	LDI  R31,HIGH(_vacio*2)
	CALL SUBOPT_0x2B
	CALL SUBOPT_0x2C
	LDI  R30,LOW(25)
	LDI  R31,HIGH(25)
	CALL SUBOPT_0x2D
	RCALL _bmp_disp
; 0000 017B                   btn2 = 15;                       // Carrera Vacia
	LDI  R30,LOW(15)
	STS  _btn2,R30
; 0000 017C 
; 0000 017D                   _laborando = 0;     // No se encuentra en laborando.
	LDI  R30,LOW(0)
	STS  __laborando,R30
; 0000 017E                   pt=5;             // Muestra mensaje de FIN JORNADA  ***
	LDI  R30,LOW(5)
	STS  _pt,R30
; 0000 017F                   envia_estado_login();
	RCALL _envia_estado_login
; 0000 0180 
; 0000 0181                   btn2 = 15;         // Borra el caracter de ruta
	LDI  R30,LOW(15)
	STS  _btn2,R30
; 0000 0182                   aceptar = 0;      // Finalizar la Ruta
	CLR  R14
; 0000 0183 
; 0000 0184                   if( ruta != ' ' )
	LDI  R30,LOW(32)
	CP   R30,R5
	BREQ _0xFC
; 0000 0185                      enviar_estado_ruta();
	RCALL _enviar_estado_ruta
; 0000 0186                   ruta = ' ';      // Fin de la ruta
_0xFC:
	LDI  R30,LOW(32)
	MOV  R5,R30
; 0000 0187 
; 0000 0188                   // Borra el caracter de la carrera
; 0000 0189                   glcd_putchar(' ',79,7,0,1);
	ST   -Y,R30
	LDI  R30,LOW(79)
	LDI  R31,HIGH(79)
	CALL SUBOPT_0x2D
	CALL SUBOPT_0x2F
	RCALL _glcd_putchar
; 0000 018A                   // Borra una trama de caracteres RUTA:
; 0000 018B                   glcd_puts("      ",44,7,0,1,-1);
	__POINTW1MN _0xFA,6
	CALL SUBOPT_0x2E
	CALL SUBOPT_0x2F
	CALL SUBOPT_0x30
; 0000 018C 
; 0000 018D                   // Reiniciliza el contador, siguiente presion btn = 1;
; 0000 018E                   btn1 = 0;
	CLR  R13
; 0000 018F 
; 0000 0190                break;
; 0000 0191 
; 0000 0192             }
_0xF8:
; 0000 0193          }
; 0000 0194 
; 0000 0195          // Cuando se levanta el boton del dedo levant la bandera
; 0000 0196          else if( BT1 == 1 && bandera1 == 1 )
	RJMP _0xFD
_0xF3:
	SBIS 0x0,4
	RJMP _0xFF
	LDI  R30,LOW(1)
	CP   R30,R7
	BREQ _0x100
_0xFF:
	RJMP _0xFE
_0x100:
; 0000 0197          {
; 0000 0198             bandera1=0;
	CLR  R7
; 0000 0199          }
; 0000 019A       }
_0xFE:
_0xFD:
	RET

	.DSEG
_0xFA:
	.BYTE 0xD
;   //---------------------------------------------------------------------------//
;
;
;   ////////////////// FUNCION DEL BOTON 2 (ESCOGER RUTA AUMENTAR LETRA) /////
;      void boton2(){
; 0000 019F void boton2(){

	.CSEG
_boton2:
; 0000 01A0 
; 0000 01A1          // Si se presiona el boton dos, luego de haber presionado el boton
; 0000 01A2          // uno, una vez. Y an no se ha aceptado carrera
; 0000 01A3          if( BT2 == 0 && bandera2==0 && aceptar == 0 && _laborando == 1 )
	LDI  R26,0
	SBIC 0x0,3
	LDI  R26,1
	CPI  R26,LOW(0x0)
	BRNE _0x102
	LDI  R30,LOW(0)
	CP   R30,R10
	BRNE _0x102
	CP   R30,R14
	BRNE _0x102
	LDS  R26,__laborando
	CPI  R26,LOW(0x1)
	BREQ _0x103
_0x102:
	RJMP _0x101
_0x103:
; 0000 01A4          {
; 0000 01A5             btn2++;
	LDS  R30,_btn2
	SUBI R30,-LOW(1)
	STS  _btn2,R30
; 0000 01A6             buzz();
	RCALL _buzz
; 0000 01A7             bandera2 = 1;
	LDI  R30,LOW(1)
	MOV  R10,R30
; 0000 01A8 
; 0000 01A9             if( btn2 > 12 && btn2 != 15)
	LDS  R26,_btn2
	CPI  R26,LOW(0xD)
	BRLO _0x105
	CPI  R26,LOW(0xF)
	BRNE _0x106
_0x105:
	RJMP _0x104
_0x106:
; 0000 01AA                btn2 = 1;
	LDI  R30,LOW(1)
	STS  _btn2,R30
; 0000 01AB 
; 0000 01AC             delay_ms(DELAY_BOTONES_MS);
_0x104:
	CALL SUBOPT_0x31
; 0000 01AD          }
; 0000 01AE 
; 0000 01AF 
; 0000 01B0          // Luego de presionar el boton, puede volver a presionarlo.
; 0000 01B1          else if(BT2==1 && bandera2==1)
	RJMP _0x107
_0x101:
	SBIS 0x0,3
	RJMP _0x109
	LDI  R30,LOW(1)
	CP   R30,R10
	BREQ _0x10A
_0x109:
	RJMP _0x108
_0x10A:
; 0000 01B2          {
; 0000 01B3             bandera2=0;
	CLR  R10
; 0000 01B4          }
; 0000 01B5 
; 0000 01B6 
; 0000 01B7          // El switch lo hace constantemente, ya que esta en el main y
; 0000 01B8          // no depende de ningun IF
; 0000 01B9 
; 0000 01BA          switch (btn2){
_0x108:
_0x107:
	LDS  R30,_btn2
	CALL SUBOPT_0x2A
; 0000 01BB             case 1:
	BRNE _0x10E
; 0000 01BC               ruta_aux='A';
	LDI  R30,LOW(65)
	RJMP _0x1D6
; 0000 01BD 
; 0000 01BE               break;
; 0000 01BF             case 2:
_0x10E:
	CPI  R30,LOW(0x2)
	LDI  R26,HIGH(0x2)
	CPC  R31,R26
	BRNE _0x10F
; 0000 01C0               ruta_aux='B';
	LDI  R30,LOW(66)
	RJMP _0x1D6
; 0000 01C1 
; 0000 01C2             break;
; 0000 01C3             case 3:
_0x10F:
	CPI  R30,LOW(0x3)
	LDI  R26,HIGH(0x3)
	CPC  R31,R26
	BRNE _0x110
; 0000 01C4               ruta_aux='C';
	LDI  R30,LOW(67)
	RJMP _0x1D6
; 0000 01C5 
; 0000 01C6             break;
; 0000 01C7             case 4:
_0x110:
	CPI  R30,LOW(0x4)
	LDI  R26,HIGH(0x4)
	CPC  R31,R26
	BRNE _0x111
; 0000 01C8               ruta_aux='D';
	LDI  R30,LOW(68)
	RJMP _0x1D6
; 0000 01C9 
; 0000 01CA             break;
; 0000 01CB             case 5:
_0x111:
	CPI  R30,LOW(0x5)
	LDI  R26,HIGH(0x5)
	CPC  R31,R26
	BRNE _0x112
; 0000 01CC               ruta_aux='E';
	LDI  R30,LOW(69)
	RJMP _0x1D6
; 0000 01CD             break;
; 0000 01CE             case 6:
_0x112:
	CPI  R30,LOW(0x6)
	LDI  R26,HIGH(0x6)
	CPC  R31,R26
	BRNE _0x113
; 0000 01CF               ruta_aux='F';
	LDI  R30,LOW(70)
	RJMP _0x1D6
; 0000 01D0 
; 0000 01D1             break;
; 0000 01D2             case 7:
_0x113:
	CPI  R30,LOW(0x7)
	LDI  R26,HIGH(0x7)
	CPC  R31,R26
	BRNE _0x114
; 0000 01D3               ruta_aux='G';
	LDI  R30,LOW(71)
	RJMP _0x1D6
; 0000 01D4 
; 0000 01D5             break;
; 0000 01D6             case 8:
_0x114:
	CPI  R30,LOW(0x8)
	LDI  R26,HIGH(0x8)
	CPC  R31,R26
	BRNE _0x115
; 0000 01D7               ruta_aux='H';
	LDI  R30,LOW(72)
	RJMP _0x1D6
; 0000 01D8 
; 0000 01D9             break;
; 0000 01DA             case 9:
_0x115:
	CPI  R30,LOW(0x9)
	LDI  R26,HIGH(0x9)
	CPC  R31,R26
	BRNE _0x116
; 0000 01DB               ruta_aux='I';
	LDI  R30,LOW(73)
	RJMP _0x1D6
; 0000 01DC 
; 0000 01DD             break;
; 0000 01DE             case 10:
_0x116:
	CPI  R30,LOW(0xA)
	LDI  R26,HIGH(0xA)
	CPC  R31,R26
	BRNE _0x117
; 0000 01DF               ruta_aux='J';
	LDI  R30,LOW(74)
	RJMP _0x1D6
; 0000 01E0 
; 0000 01E1             break;
; 0000 01E2             case 11:
_0x117:
	CPI  R30,LOW(0xB)
	LDI  R26,HIGH(0xB)
	CPC  R31,R26
	BRNE _0x118
; 0000 01E3               ruta_aux='K';
	LDI  R30,LOW(75)
	RJMP _0x1D6
; 0000 01E4 
; 0000 01E5             break;
; 0000 01E6             case 12:
_0x118:
	CPI  R30,LOW(0xC)
	LDI  R26,HIGH(0xC)
	CPC  R31,R26
	BRNE _0x119
; 0000 01E7               ruta_aux='L';
	LDI  R30,LOW(76)
	RJMP _0x1D6
; 0000 01E8 
; 0000 01E9             break;
; 0000 01EA             case 15:
_0x119:
	CPI  R30,LOW(0xF)
	LDI  R26,HIGH(0xF)
	CPC  R31,R26
	BRNE _0x10D
; 0000 01EB               ruta_aux=' ';  // Carrera vacia
	LDI  R30,LOW(32)
_0x1D6:
	MOV  R8,R30
; 0000 01EC             break;
; 0000 01ED          }
_0x10D:
; 0000 01EE       }
	RET
;   //---------------------------------------------------------------------------//
;
;
;   ////////////////// FUNCION DEL BOTON 3 (ESCOGER RUTA DECREMENTAR LETRA) //
;      void boton3()
; 0000 01F4       {     //Boton 3
_boton3:
; 0000 01F5          if( BT3 == 0 && bandera3 == 0 && aceptar == 0 && _laborando == 1)
	LDI  R26,0
	SBIC 0x0,2
	LDI  R26,1
	CPI  R26,LOW(0x0)
	BRNE _0x11C
	LDI  R30,LOW(0)
	CP   R30,R9
	BRNE _0x11C
	CP   R30,R14
	BRNE _0x11C
	LDS  R26,__laborando
	CPI  R26,LOW(0x1)
	BREQ _0x11D
_0x11C:
	RJMP _0x11B
_0x11D:
; 0000 01F6          {
; 0000 01F7             btn2--;
	LDS  R30,_btn2
	SUBI R30,LOW(1)
	STS  _btn2,R30
; 0000 01F8             buzz();
	RCALL _buzz
; 0000 01F9             bandera3=1;
	LDI  R30,LOW(1)
	MOV  R9,R30
; 0000 01FA             if(btn2<=0 && btn2!=15)
	LDS  R26,_btn2
	CPI  R26,0
	BRNE _0x11F
	CPI  R26,LOW(0xF)
	BRNE _0x120
_0x11F:
	RJMP _0x11E
_0x120:
; 0000 01FB                btn2=12;
	LDI  R30,LOW(12)
	STS  _btn2,R30
; 0000 01FC             delay_ms(200);
_0x11E:
	CALL SUBOPT_0x31
; 0000 01FD          }
; 0000 01FE          else if(BT3==1 && bandera3==1){
	RJMP _0x121
_0x11B:
	SBIS 0x0,2
	RJMP _0x123
	LDI  R30,LOW(1)
	CP   R30,R9
	BREQ _0x124
_0x123:
	RJMP _0x122
_0x124:
; 0000 01FF             bandera3=0;
	CLR  R9
; 0000 0200          }
; 0000 0201       }
_0x122:
_0x121:
	RET
;   //---------------------------------------------------------------------------//
;
;
;   ////////////////// FUNCION DEL BOTON 4 (INICIO/FIN DE RUTA) //////////////
;      void boton4()
; 0000 0207       {     //Boton 4
_boton4:
; 0000 0208 
; 0000 0209          // Primera presinn del boton 4. Acepta la carrera.
; 0000 020A          if ( BT4 == 0 && bandera4 == 0 && _laborando == 1  )
	LDI  R26,0
	SBIC 0x0,1
	LDI  R26,1
	CPI  R26,LOW(0x0)
	BRNE _0x126
	LDI  R30,LOW(0)
	CP   R30,R12
	BRNE _0x126
	LDS  R26,__laborando
	CPI  R26,LOW(0x1)
	BREQ _0x127
_0x126:
	RJMP _0x125
_0x127:
; 0000 020B          {
; 0000 020C             bandera4++;           // Evita reentrada
	INC  R12
; 0000 020D             btn4++;              // Incrementa conteo de presiones del boton
	LDS  R30,_btn4
	SUBI R30,-LOW(1)
	STS  _btn4,R30
; 0000 020E             ruta = ruta_aux;    // Actualiza la ruta
	MOV  R5,R8
; 0000 020F 
; 0000 0210             buzz();
	CALL SUBOPT_0x29
; 0000 0211             delay_ms(200);
; 0000 0212 
; 0000 0213             switch(btn4){
	LDS  R30,_btn4
	CALL SUBOPT_0x2A
; 0000 0214 
; 0000 0215                case 1:
	BRNE _0x12B
; 0000 0216                   aceptar = 1;        //Ha aceptado la carrera
	LDI  R30,LOW(1)
	MOV  R14,R30
; 0000 0217                   pt=4;              // Muestra RUTA ACPETADA
	LDI  R30,LOW(4)
	STS  _pt,R30
; 0000 0218                   enviar_estado_ruta();
	RCALL _enviar_estado_ruta
; 0000 0219 
; 0000 021A                break;
	RJMP _0x12A
; 0000 021B 
; 0000 021C                case 2:
_0x12B:
	CPI  R30,LOW(0x2)
	LDI  R26,HIGH(0x2)
	CPC  R31,R26
	BRNE _0x12A
; 0000 021D                   btn2    = 15;     // Borra el caracter de ruta
	LDI  R30,LOW(15)
	STS  _btn2,R30
; 0000 021E                   aceptar = 0;     // Fin de la ruta
	CLR  R14
; 0000 021F                   pt=3;           // Muestra FIN RUTA
	LDI  R30,LOW(3)
	STS  _pt,R30
; 0000 0220                   enviar_estado_ruta();
	RCALL _enviar_estado_ruta
; 0000 0221                   ruta=' ';      // Cambia la ruta a Vacia
	LDI  R30,LOW(32)
	MOV  R5,R30
; 0000 0222 
; 0000 0223                   btn4 = 0;     // Reinicializa el cntador
	LDI  R30,LOW(0)
	STS  _btn4,R30
; 0000 0224                break;
; 0000 0225             }
_0x12A:
; 0000 0226          }
; 0000 0227 
; 0000 0228 
; 0000 0229          // si se ha presionado el boton cuatro por tercera vez
; 0000 022A          else if(BT4 == 1 && bandera4 == 1)
	RJMP _0x12D
_0x125:
	SBIS 0x0,1
	RJMP _0x12F
	LDI  R30,LOW(1)
	CP   R30,R12
	BREQ _0x130
_0x12F:
	RJMP _0x12E
_0x130:
; 0000 022B          {
; 0000 022C             bandera4 = 0;
	CLR  R12
; 0000 022D          }
; 0000 022E       }
_0x12E:
_0x12D:
	RET
;   //---------------------------------------------------------------------------//
;
;
;   ////////////////// FUNCION DEL BOTON 5 (ESTADO MECANICO) /////////////////
;      void boton5(){
; 0000 0233 void boton5(){
; 0000 0234 
; 0000 0235          btn5++;
; 0000 0236          bandera5++;
; 0000 0237 
; 0000 0238          buzz();
; 0000 0239          delay_ms( DELAY_BOTONES_MS );
; 0000 023A 
; 0000 023B          switch( btn5 ){
; 0000 023C 
; 0000 023D             case 1:
; 0000 023E                //envia estado mecanico 1:
; 0000 023F             break;
; 0000 0240 
; 0000 0241             case 2:
; 0000 0242                //envia estado mecanico 1:
; 0000 0243             break;
; 0000 0244 
; 0000 0245             case 3:
; 0000 0246                //envia estado mecanico 1:
; 0000 0247             break;
; 0000 0248 
; 0000 0249             case 4:
; 0000 024A                //envia estado mecanico 1:
; 0000 024B             break;
; 0000 024C 
; 0000 024D             case 5:
; 0000 024E                //envia estado mecanico 1:
; 0000 024F             break;
; 0000 0250 
; 0000 0251             case 6:
; 0000 0252                //envia estado mecanico 1:
; 0000 0253             break;
; 0000 0254 
; 0000 0255             case 7:
; 0000 0256                //envia estado mecanico 1:
; 0000 0257             break;
; 0000 0258 
; 0000 0259             case 8:
; 0000 025A                //envia estado mecanico 1:
; 0000 025B             break;
; 0000 025C 
; 0000 025D             case 9:
; 0000 025E                //envia estado mecanico 1:
; 0000 025F             break;
; 0000 0260 
; 0000 0261             case 10:
; 0000 0262                //envia estado mecanico 1:
; 0000 0263             break;
; 0000 0264 
; 0000 0265             case 11:
; 0000 0266                //envia estado mecanico 1:
; 0000 0267                btn5 = 0;
; 0000 0268             break;
; 0000 0269          }
; 0000 026A 
; 0000 026B       }
;   //---------------------------------------------------------------------------//
;
;
;   ////////////////// DIBUJAR BARRAS DE SENAL GPRS //////////////////////////
;      void dibujar_senal(void)
; 0000 0271       {
_dibujar_senal:
; 0000 0272           switch (ind_sen){
	LDS  R30,_ind_sen
	LDS  R31,_ind_sen+1
; 0000 0273           case 1:
	CPI  R30,LOW(0x1)
	LDI  R26,HIGH(0x1)
	CPC  R31,R26
	BRNE _0x142
; 0000 0274           bmp_disp(GSM3,0,0,20,1);
	LDI  R30,LOW(_GSM3*2)
	LDI  R31,HIGH(_GSM3*2)
	RJMP _0x1D7
; 0000 0275           break;
; 0000 0276           case 2:
_0x142:
	CPI  R30,LOW(0x2)
	LDI  R26,HIGH(0x2)
	CPC  R31,R26
	BRNE _0x143
; 0000 0277           bmp_disp(GSM2,0,0,20,1);
	LDI  R30,LOW(_GSM2*2)
	LDI  R31,HIGH(_GSM2*2)
	RJMP _0x1D7
; 0000 0278           break;
; 0000 0279           case 3:
_0x143:
	CPI  R30,LOW(0x3)
	LDI  R26,HIGH(0x3)
	CPC  R31,R26
	BRNE _0x144
; 0000 027A           bmp_disp(GSM1,0,0,20,1);
	LDI  R30,LOW(_GSM1*2)
	LDI  R31,HIGH(_GSM1*2)
	RJMP _0x1D7
; 0000 027B           break;
; 0000 027C           case 4:
_0x144:
	CPI  R30,LOW(0x4)
	LDI  R26,HIGH(0x4)
	CPC  R31,R26
	BRNE _0x141
; 0000 027D           bmp_disp(GSM4,0,0,20,1);
	LDI  R30,LOW(_GSM4*2)
	LDI  R31,HIGH(_GSM4*2)
_0x1D7:
	ST   -Y,R31
	ST   -Y,R30
	CALL SUBOPT_0x2
	CALL SUBOPT_0x2
	CALL SUBOPT_0x32
	CALL SUBOPT_0x33
	RCALL _bmp_disp
; 0000 027E           break;
; 0000 027F           };
_0x141:
; 0000 0280 
; 0000 0281       }
	RET
;   //---------------------------------------------------------------------------//
;
;
;   //////////////// FUNCION PARA OBTENER LA TRAMA DEL GPS SKYPATROL+ ///////////////////////////
;      void obt(void)
; 0000 0287       {
_obt:
; 0000 0288 
; 0000 0289          int i,j,n=0,ini,coma=0,pos1=0,pos2=0,pos3=0,barras;
; 0000 028A          int n1,n2,n3,n4; // Variables para Hora, sirven para -5 UTC de Ecuador
; 0000 028B 
; 0000 028C          char digito_hora_temp; //Variable temporal para la
; 0000 028D 
; 0000 028E          for (i=0; i<RX_BUFFER_SIZE0 ;i++)
	SBIW R28,21
	LDI  R30,LOW(0)
	STD  Y+11,R30
	STD  Y+12,R30
	STD  Y+13,R30
	STD  Y+14,R30
	STD  Y+15,R30
	STD  Y+16,R30
	STD  Y+17,R30
	STD  Y+18,R30
	CALL __SAVELOCR6
;	i -> R16,R17
;	j -> R18,R19
;	n -> R20,R21
;	ini -> Y+25
;	coma -> Y+23
;	pos1 -> Y+21
;	pos2 -> Y+19
;	pos3 -> Y+17
;	barras -> Y+15
;	n1 -> Y+13
;	n2 -> Y+11
;	n3 -> Y+9
;	n4 -> Y+7
;	digito_hora_temp -> Y+6
	__GETWRN 20,21,0
	__GETWRN 16,17,0
_0x147:
	__CPWRN 16,17,200
	BRLT PC+3
	JMP _0x148
; 0000 028F          {
; 0000 0290 
; 0000 0291             //+CSQ:
; 0000 0292             if ( rx_b0[i+0]== '+' &&    //43d
; 0000 0293                   rx_b0[i+1]== 'C' &&     //67d
; 0000 0294                    rx_b0[i+2]== 'S' &&    //83d
; 0000 0295                     rx_b0[i+3]== 'Q' &&   //81d
; 0000 0296                      rx_b0[i+4]== ':')    //58d
	CALL SUBOPT_0x34
	CPI  R26,LOW(0x2B)
	BRNE _0x14A
	CALL SUBOPT_0x35
	CPI  R26,LOW(0x43)
	BRNE _0x14A
	MOVW R30,R16
	__ADDW1MN _rx_b0,2
	LD   R26,Z
	CPI  R26,LOW(0x53)
	BRNE _0x14A
	CALL SUBOPT_0x36
	CPI  R26,LOW(0x51)
	BRNE _0x14A
	CALL SUBOPT_0x37
	CPI  R26,LOW(0x3A)
	BREQ _0x14B
_0x14A:
	RJMP _0x149
_0x14B:
; 0000 0297             {
; 0000 0298               // Valor decimal de la intensidad de la seal
; 0000 0299               barras = ((rx_b0[i+6]-48)*10)+(rx_b0[i+7]-48);
	MOVW R30,R16
	CALL SUBOPT_0x38
	LDI  R26,LOW(10)
	LDI  R27,HIGH(10)
	CALL __MULW12
	MOVW R26,R30
	MOVW R30,R16
	CALL SUBOPT_0x39
	ADD  R30,R26
	ADC  R31,R27
	STD  Y+15,R30
	STD  Y+15+1,R31
; 0000 029A 
; 0000 029B               // Dibuja las barras en la panalla de acuerdo a la intensidad
; 0000 029C               // de la seal
; 0000 029D               if( barras > 10 && barras < 15 ){
	LDD  R26,Y+15
	LDD  R27,Y+15+1
	SBIW R26,11
	BRLT _0x14D
	LDD  R26,Y+15
	LDD  R27,Y+15+1
	SBIW R26,15
	BRLT _0x14E
_0x14D:
	RJMP _0x14C
_0x14E:
; 0000 029E               ind_sen=1;
	LDI  R30,LOW(1)
	LDI  R31,HIGH(1)
	CALL SUBOPT_0x3A
; 0000 029F               }
; 0000 02A0 
; 0000 02A1               else if( barras >= 15 && barras < 18){
	RJMP _0x14F
_0x14C:
	LDD  R26,Y+15
	LDD  R27,Y+15+1
	SBIW R26,15
	BRLT _0x151
	LDD  R26,Y+15
	LDD  R27,Y+15+1
	SBIW R26,18
	BRLT _0x152
_0x151:
	RJMP _0x150
_0x152:
; 0000 02A2               ind_sen=2;
	LDI  R30,LOW(2)
	LDI  R31,HIGH(2)
	CALL SUBOPT_0x3A
; 0000 02A3               }
; 0000 02A4 
; 0000 02A5               else if( barras >= 18 && barras < 31){
	RJMP _0x153
_0x150:
	LDD  R26,Y+15
	LDD  R27,Y+15+1
	SBIW R26,18
	BRLT _0x155
	LDD  R26,Y+15
	LDD  R27,Y+15+1
	SBIW R26,31
	BRLT _0x156
_0x155:
	RJMP _0x154
_0x156:
; 0000 02A6               ind_sen=3;
	LDI  R30,LOW(3)
	LDI  R31,HIGH(3)
	CALL SUBOPT_0x3A
; 0000 02A7               }
; 0000 02A8 
; 0000 02A9               else if( barras > 31 && barras < 50){
	RJMP _0x157
_0x154:
	LDD  R26,Y+15
	LDD  R27,Y+15+1
	SBIW R26,32
	BRLT _0x159
	LDD  R26,Y+15
	LDD  R27,Y+15+1
	SBIW R26,50
	BRLT _0x15A
_0x159:
	RJMP _0x158
_0x15A:
; 0000 02AA               ind_sen=4;
	LDI  R30,LOW(4)
	LDI  R31,HIGH(4)
	CALL SUBOPT_0x3A
; 0000 02AB               }
; 0000 02AC 
; 0000 02AD               // En caso de que el valor en barras
; 0000 02AE               // no sea ninguno de los anteriores, es posible
; 0000 02AF               // que la trama recibida no sea valida.
; 0000 02B0               else{   }
_0x158:
_0x157:
_0x153:
_0x14F:
; 0000 02B1 
; 0000 02B2             }
; 0000 02B3 
; 0000 02B4 
; 0000 02B5                 //________________________
; 0000 02B6            //PARA PUNTO DE CONTROL:
; 0000 02B7             //por ahora detecto el encabezado "BUS" para tener de referencia en las posiciones del vector
; 0000 02B8             if ( rx_b0[i+0]== 'B' &&
_0x149:
; 0000 02B9                   rx_b0[i+1]== 'U' &&
; 0000 02BA                    rx_b0[i+2]== 'S')
	CALL SUBOPT_0x34
	CPI  R26,LOW(0x42)
	BRNE _0x15D
	CALL SUBOPT_0x35
	CPI  R26,LOW(0x55)
	BRNE _0x15D
	CALL SUBOPT_0x3B
	CPI  R26,LOW(0x53)
	BREQ _0x15E
_0x15D:
	RJMP _0x15C
_0x15E:
; 0000 02BB             {
; 0000 02BC               // Datos de punto de control, en cada posicin del vector guardo una letra, luego hay que procesar para obtener el numero correcto.
; 0000 02BD                                        //010A
; 0000 02BE                punto[0] = rx_b0[i+16]-48;  //   1
	MOVW R30,R16
	__ADDW1MN _rx_b0,16
	CALL SUBOPT_0x3C
	STS  _punto,R30
; 0000 02BF                punto[1] = rx_b0[i+17]-48;  //   F
	MOVW R30,R16
	__ADDW1MN _rx_b0,17
	CALL SUBOPT_0x3C
	__PUTB1MN _punto,1
; 0000 02C0                punto[2] = rx_b0[i+18]-48;  //   0
	MOVW R30,R16
	__ADDW1MN _rx_b0,18
	CALL SUBOPT_0x3C
	__PUTB1MN _punto,2
; 0000 02C1                punto[3] = rx_b0[i+19]-48;  //   A
	MOVW R30,R16
	__ADDW1MN _rx_b0,19
	CALL SUBOPT_0x3C
	__PUTB1MN _punto,3
; 0000 02C2 
; 0000 02C3                if(punto[3]==17){
	__GETB2MN _punto,3
	CPI  R26,LOW(0x11)
	BRNE _0x15F
; 0000 02C4                   punto[3]=10;
	LDI  R30,LOW(10)
	__PUTB1MN _punto,3
; 0000 02C5                }
; 0000 02C6 
; 0000 02C7                if(punto[0]>=17){
_0x15F:
	LDS  R26,_punto
	CPI  R26,LOW(0x11)
	BRLO _0x160
; 0000 02C8                   punto[0]=punto[0]-7;
	LDS  R30,_punto
	LDI  R31,0
	SBIW R30,7
	STS  _punto,R30
; 0000 02C9                }
; 0000 02CA 
; 0000 02CB                if(punto[1]>=17){
_0x160:
	__GETB2MN _punto,1
	CPI  R26,LOW(0x11)
	BRLO _0x161
; 0000 02CC                   punto[1]=punto[1]-7;
	__GETB1MN _punto,1
	LDI  R31,0
	SBIW R30,7
	__PUTB1MN _punto,1
; 0000 02CD                }
; 0000 02CE 
; 0000 02CF                //El 18 es el numero de evento, lo identifico para determinar si es geocerca, si esta bien se pone en 1 la variable "pt"
; 0000 02D0                if( rx_b0[i+22]=='1' &&  rx_b0[i+23]=='8'){
_0x161:
	MOVW R30,R16
	__ADDW1MN _rx_b0,22
	LD   R26,Z
	CPI  R26,LOW(0x31)
	BRNE _0x163
	MOVW R30,R16
	__ADDW1MN _rx_b0,23
	LD   R26,Z
	CPI  R26,LOW(0x38)
	BREQ _0x164
_0x163:
	RJMP _0x162
_0x164:
; 0000 02D1 
; 0000 02D2                   pt = 1;
	LDI  R30,LOW(1)
	STS  _pt,R30
; 0000 02D3 
; 0000 02D4                   unidades_ruta= (punto[2]*10) + punto[3];
	__GETB2MN _punto,2
	LDI  R30,LOW(10)
	MULS R30,R26
	MOVW R30,R0
	MOVW R26,R30
	__GETB1MN _punto,3
	LDI  R31,0
	ADD  R30,R26
	ADC  R31,R27
	STS  _unidades_ruta,R30
	STS  _unidades_ruta+1,R31
; 0000 02D5                   decenas_ruta = (((punto[0]*16)-1)+ punto[1])*10;
	LDS  R26,_punto
	LDI  R30,LOW(16)
	MULS R30,R26
	MOVW R30,R0
	SBIW R30,1
	MOVW R26,R30
	__GETB1MN _punto,1
	LDI  R31,0
	ADD  R26,R30
	ADC  R27,R31
	LDI  R30,LOW(10)
	LDI  R31,HIGH(10)
	CALL __MULW12
	STS  _decenas_ruta,R30
	STS  _decenas_ruta+1,R31
; 0000 02D6                   centenas_ruta=     unidades_ruta  +decenas_ruta;
	LDS  R26,_unidades_ruta
	LDS  R27,_unidades_ruta+1
	ADD  R30,R26
	ADC  R31,R27
	STS  _centenas_ruta,R30
	STS  _centenas_ruta+1,R31
; 0000 02D7 
; 0000 02D8                   sprintf(no_pt,"P%d", centenas_ruta);
	LDI  R30,LOW(_no_pt)
	LDI  R31,HIGH(_no_pt)
	ST   -Y,R31
	ST   -Y,R30
	__POINTW1FN _0x0,203
	ST   -Y,R31
	ST   -Y,R30
	LDS  R30,_centenas_ruta
	LDS  R31,_centenas_ruta+1
	CALL __CWD1
	CALL __PUTPARD1
	LDI  R24,4
	CALL _sprintf
	ADIW R28,8
; 0000 02D9                }
; 0000 02DA 
; 0000 02DB             }
_0x162:
; 0000 02DC 
; 0000 02DD 
; 0000 02DE             //NETIP
; 0000 02DF             if ( rx_b0[i+0]== 'N' &&
_0x15C:
; 0000 02E0                   rx_b0[i+1]== 'E' &&
; 0000 02E1                    rx_b0[i+2]== 'T' &&
; 0000 02E2                     rx_b0[i+3]== 'I' &&
; 0000 02E3                      rx_b0[i+4]== 'P')
	CALL SUBOPT_0x34
	CPI  R26,LOW(0x4E)
	BRNE _0x166
	CALL SUBOPT_0x35
	CPI  R26,LOW(0x45)
	BRNE _0x166
	CALL SUBOPT_0x3B
	CPI  R26,LOW(0x54)
	BRNE _0x166
	CALL SUBOPT_0x36
	CPI  R26,LOW(0x49)
	BRNE _0x166
	CALL SUBOPT_0x37
	CPI  R26,LOW(0x50)
	BREQ _0x167
_0x166:
	RJMP _0x165
_0x167:
; 0000 02E4             {
; 0000 02E5                ini = i + 4;
	CALL SUBOPT_0x3D
; 0000 02E6 
; 0000 02E7                for (n=0; n<201; n++)
	__GETWRN 20,21,0
_0x169:
	__CPWRN 20,21,201
	BRGE _0x16A
; 0000 02E8                {
; 0000 02E9                   // Busca el caracter ':'
; 0000 02EA                   if(rx_b0[ ini + n + 1 ] == ':' )
	CALL SUBOPT_0x3E
	BRNE _0x16B
; 0000 02EB                   {
; 0000 02EC                      coma++;
	CALL SUBOPT_0x3F
; 0000 02ED                      if(coma == 1) pos1 = n + ini + 1; // Guarda la posicion de la primera trama
	BRNE _0x16C
	CALL SUBOPT_0x40
; 0000 02EE                   }
_0x16C:
; 0000 02EF                }
_0x16B:
	__ADDWRN 20,21,1
	RJMP _0x169
_0x16A:
; 0000 02F0 
; 0000 02F1                // Verifica si despues del primer ':' Hay comillas
; 0000 02F2                if( rx_b0[ pos1 + 2] == 34 )
	LDD  R30,Y+21
	LDD  R31,Y+21+1
	__ADDW1MN _rx_b0,2
	LD   R26,Z
	CPI  R26,LOW(0x22)
	BRNE _0x16D
; 0000 02F3                {
; 0000 02F4                   if( (rx_b0[pos1+3] - 48) == 0 &&
; 0000 02F5                       (rx_b0[pos1+4] - 48) == 0 &&
; 0000 02F6                       (rx_b0[pos1+5] - 48) == 0 &&
; 0000 02F7                       (rx_b0[pos1+7] - 48) == 0 &&
; 0000 02F8                       (rx_b0[pos1+8] - 48) == 0 &&
; 0000 02F9                       (rx_b0[pos1+9] - 48) == 0)
	CALL SUBOPT_0x41
	CALL SUBOPT_0x3C
	BRNE _0x16F
	CALL SUBOPT_0x42
	CALL SUBOPT_0x3C
	BRNE _0x16F
	CALL SUBOPT_0x43
	CALL SUBOPT_0x3C
	BRNE _0x16F
	LDD  R30,Y+21
	LDD  R31,Y+21+1
	CALL SUBOPT_0x39
	BRNE _0x16F
	LDD  R30,Y+21
	LDD  R31,Y+21+1
	__ADDW1MN _rx_b0,8
	CALL SUBOPT_0x3C
	BRNE _0x16F
	LDD  R30,Y+21
	LDD  R31,Y+21+1
	__ADDW1MN _rx_b0,9
	CALL SUBOPT_0x3C
	BREQ _0x170
_0x16F:
	RJMP _0x16E
_0x170:
; 0000 02FA                   {
; 0000 02FB                      gsm=0;   // Sin seal GSM
	LDI  R30,LOW(0)
	STS  _gsm,R30
	STS  _gsm+1,R30
; 0000 02FC 
; 0000 02FD                   }else
	RJMP _0x171
_0x16E:
; 0000 02FE                      gsm=1;
	LDI  R30,LOW(1)
	LDI  R31,HIGH(1)
	STS  _gsm,R30
	STS  _gsm+1,R31
; 0000 02FF                }
_0x171:
; 0000 0300             }
_0x16D:
; 0000 0301 
; 0000 0302             //DEVID
; 0000 0303             if ( rx_b0[i+0] == 'D' &&
_0x165:
; 0000 0304                   rx_b0[i+1] == 'E' &&
; 0000 0305                    rx_b0[i+2] == 'V' &&
; 0000 0306                     rx_b0[i+3] == 'I' &&
; 0000 0307                      rx_b0[i+4] == 'D')
	CALL SUBOPT_0x34
	CPI  R26,LOW(0x44)
	BRNE _0x173
	CALL SUBOPT_0x35
	CPI  R26,LOW(0x45)
	BRNE _0x173
	CALL SUBOPT_0x3B
	CPI  R26,LOW(0x56)
	BRNE _0x173
	CALL SUBOPT_0x36
	CPI  R26,LOW(0x49)
	BRNE _0x173
	CALL SUBOPT_0x37
	CPI  R26,LOW(0x44)
	BREQ _0x174
_0x173:
	RJMP _0x172
_0x174:
; 0000 0308             {
; 0000 0309                ini = i+4;
	CALL SUBOPT_0x3D
; 0000 030A 
; 0000 030B                // Limpia las lineas 2,3,4,5
; 0000 030C                glcd_clrln(2);
	CALL SUBOPT_0x44
; 0000 030D                glcd_clrln(3);
; 0000 030E                glcd_clrln(4);
; 0000 030F                glcd_clrln(5);
; 0000 0310 
; 0000 0311                for (n=0;n<201;n++)
	__GETWRN 20,21,0
_0x176:
	__CPWRN 20,21,201
	BRGE _0x177
; 0000 0312                {
; 0000 0313                   if( rx_b0[ini+n+1] == ':')
	CALL SUBOPT_0x3E
	BRNE _0x178
; 0000 0314                   {
; 0000 0315                      coma++;
	CALL SUBOPT_0x3F
; 0000 0316                      if(coma==1) pos1 = n+ini+1;
	BRNE _0x179
	CALL SUBOPT_0x40
; 0000 0317                   }
_0x179:
; 0000 0318                }
_0x178:
	__ADDWRN 20,21,1
	RJMP _0x176
_0x177:
; 0000 0319 
; 0000 031A                //Comprobar nombre
; 0000 031B                if(rx_b0[pos1+1]==34)
	CALL SUBOPT_0x45
	LD   R26,Z
	CPI  R26,LOW(0x22)
	BRNE _0x17A
; 0000 031C                {
; 0000 031D                   if( rx_b0[pos1+2] == NUM_DISP[0] &&
; 0000 031E                       rx_b0[pos1+3] == NUM_DISP[1] &&
; 0000 031F                       rx_b0[pos1+4] == NUM_DISP[2] &&
; 0000 0320                       rx_b0[pos1+5] == NUM_DISP[3] )
	LDD  R30,Y+21
	LDD  R31,Y+21+1
	__ADDW1MN _rx_b0,2
	LD   R26,Z
	LDS  R30,_NUM_DISP
	CP   R30,R26
	BRNE _0x17C
	CALL SUBOPT_0x41
	LD   R26,Z
	__GETB1MN _NUM_DISP,1
	CP   R30,R26
	BRNE _0x17C
	CALL SUBOPT_0x42
	LD   R26,Z
	__GETB1MN _NUM_DISP,2
	CP   R30,R26
	BRNE _0x17C
	CALL SUBOPT_0x43
	LD   R26,Z
	__GETB1MN _NUM_DISP,3
	CP   R30,R26
	BREQ _0x17D
_0x17C:
	RJMP _0x17B
_0x17D:
; 0000 0321                   {
; 0000 0322 
; 0000 0323                   act=1;  // PANTALLA Y EQUIPO CORRECTA !!!
	CALL SUBOPT_0x46
; 0000 0324 
; 0000 0325                   }
; 0000 0326                   else {
	RJMP _0x17E
_0x17B:
; 0000 0327 
; 0000 0328                   act=0;  // PANTALLA INCORRECTA !!!
	LDI  R30,LOW(0)
	STS  _act_G000,R30
	STS  _act_G000+1,R30
; 0000 0329                   }
_0x17E:
; 0000 032A 
; 0000 032B                }
; 0000 032C             }
_0x17A:
; 0000 032D 
; 0000 032E             //Encabezado: GPRMC para igualar el reloj desde trama GPS
; 0000 032F             if ( rx_b0[i+0] == 'G' &&
_0x172:
; 0000 0330                   rx_b0[i+1] == 'P' &&
; 0000 0331                    rx_b0[i+2] == 'R' &&
; 0000 0332                     rx_b0[i+3] == 'M' &&
; 0000 0333                      rx_b0[i+4] == 'C')
	CALL SUBOPT_0x34
	CPI  R26,LOW(0x47)
	BRNE _0x180
	CALL SUBOPT_0x35
	CPI  R26,LOW(0x50)
	BRNE _0x180
	CALL SUBOPT_0x3B
	CPI  R26,LOW(0x52)
	BRNE _0x180
	CALL SUBOPT_0x36
	CPI  R26,LOW(0x4D)
	BRNE _0x180
	CALL SUBOPT_0x37
	CPI  R26,LOW(0x43)
	BREQ _0x181
_0x180:
	RJMP _0x17F
_0x181:
; 0000 0334             {
; 0000 0335 
; 0000 0336                ini=i+4;
	CALL SUBOPT_0x3D
; 0000 0337                for (n=0;n<201;n++)
	__GETWRN 20,21,0
_0x183:
	__CPWRN 20,21,201
	BRGE _0x184
; 0000 0338                {
; 0000 0339                   if(rx_b0[ini+n+1]==44)
	MOVW R30,R20
	LDD  R26,Y+25
	LDD  R27,Y+25+1
	ADD  R30,R26
	ADC  R31,R27
	__ADDW1MN _rx_b0,1
	LD   R26,Z
	CPI  R26,LOW(0x2C)
	BRNE _0x185
; 0000 033A                   {
; 0000 033B                      coma++;
	CALL SUBOPT_0x3F
; 0000 033C                      if(coma==1) pos1=n+ini+1;
	BRNE _0x186
	CALL SUBOPT_0x40
; 0000 033D                      if(coma==2) pos2=n+ini+1;
_0x186:
	LDD  R26,Y+23
	LDD  R27,Y+23+1
	SBIW R26,2
	BRNE _0x187
	LDD  R30,Y+25
	LDD  R31,Y+25+1
	ADD  R30,R20
	ADC  R31,R21
	ADIW R30,1
	STD  Y+19,R30
	STD  Y+19+1,R31
; 0000 033E                      if(coma==9) pos3=n+ini+1;
_0x187:
	LDD  R26,Y+23
	LDD  R27,Y+23+1
	SBIW R26,9
	BRNE _0x188
	LDD  R30,Y+25
	LDD  R31,Y+25+1
	ADD  R30,R20
	ADC  R31,R21
	ADIW R30,1
	STD  Y+17,R30
	STD  Y+17+1,R31
; 0000 033F                   }
_0x188:
; 0000 0340                }
_0x185:
	__ADDWRN 20,21,1
	RJMP _0x183
_0x184:
; 0000 0341 
; 0000 0342                glcd_clrln(3);
	LDI  R30,LOW(3)
	ST   -Y,R30
	RCALL _glcd_clrln
; 0000 0343                glcd_clrln(4);
	LDI  R30,LOW(4)
	ST   -Y,R30
	RCALL _glcd_clrln
; 0000 0344                glcd_clrln(5);
	LDI  R30,LOW(5)
	ST   -Y,R30
	RCALL _glcd_clrln
; 0000 0345 
; 0000 0346 
; 0000 0347                // Comprueba que las comas no esten seguidas
; 0000 0348                // en caso de no haber senial gps.
; 0000 0349                if( (rx_b0[ pos1+1 ]-48)>= 0 &&
; 0000 034A                    (rx_b0[ pos1+1 ]-48)< 10 &&
; 0000 034B                     pos2 != (pos1 +1)
; 0000 034C                  )
	CALL SUBOPT_0x45
	CALL SUBOPT_0x3C
	TST  R31
	BRMI _0x18A
	SBIW R30,10
	BRGE _0x18A
	LDD  R30,Y+21
	LDD  R31,Y+21+1
	ADIW R30,1
	LDD  R26,Y+19
	LDD  R27,Y+19+1
	CP   R30,R26
	CPC  R31,R27
	BRNE _0x18B
_0x18A:
	RJMP _0x189
_0x18B:
; 0000 034D                {
; 0000 034E 
; 0000 034F                   digito_hora_temp = rx_b0[pos1 + 6 ] - 48;
	LDD  R30,Y+21
	LDD  R31,Y+21+1
	CALL SUBOPT_0x38
	STD  Y+6,R30
; 0000 0350                   if ( digito_hora_temp >= 0 && digito_hora_temp <= 9)
	LDD  R26,Y+6
	CPI  R26,0
	BRLO _0x18D
	CPI  R26,LOW(0xA)
	BRLO _0x18E
_0x18D:
	RJMP _0x18C
_0x18E:
; 0000 0351                      seg = digito_hora_temp;
	LDD  R30,Y+6
	LDI  R26,LOW(_seg)
	LDI  R27,HIGH(_seg)
	CALL __EEPROMWRB
; 0000 0352 
; 0000 0353                   digito_hora_temp = rx_b0[pos1 + 5 ] - 48;
_0x18C:
	CALL SUBOPT_0x43
	CALL SUBOPT_0x3C
	STD  Y+6,R30
; 0000 0354                   if ( digito_hora_temp >= 0 && digito_hora_temp <= 9)
	LDD  R26,Y+6
	CPI  R26,0
	BRLO _0x190
	CPI  R26,LOW(0xA)
	BRLO _0x191
_0x190:
	RJMP _0x18F
_0x191:
; 0000 0355                      seg1 = digito_hora_temp;
	LDD  R30,Y+6
	LDI  R26,LOW(_seg1)
	LDI  R27,HIGH(_seg1)
	CALL __EEPROMWRB
; 0000 0356 
; 0000 0357                   digito_hora_temp = rx_b0[pos1 + 4 ] - 48;
_0x18F:
	CALL SUBOPT_0x42
	CALL SUBOPT_0x3C
	STD  Y+6,R30
; 0000 0358                   if ( digito_hora_temp >= 0 && digito_hora_temp <= 9)
	LDD  R26,Y+6
	CPI  R26,0
	BRLO _0x193
	CPI  R26,LOW(0xA)
	BRLO _0x194
_0x193:
	RJMP _0x192
_0x194:
; 0000 0359                      minu = digito_hora_temp;
	LDD  R30,Y+6
	LDI  R26,LOW(_minu)
	LDI  R27,HIGH(_minu)
	CALL __EEPROMWRB
; 0000 035A 
; 0000 035B                   digito_hora_temp = rx_b0[pos1 + 3 ] - 48;
_0x192:
	CALL SUBOPT_0x41
	CALL SUBOPT_0x3C
	STD  Y+6,R30
; 0000 035C                   if ( digito_hora_temp >= 0 && digito_hora_temp <= 9)
	LDD  R26,Y+6
	CPI  R26,0
	BRLO _0x196
	CPI  R26,LOW(0xA)
	BRLO _0x197
_0x196:
	RJMP _0x195
_0x197:
; 0000 035D                      min1  = digito_hora_temp;
	LDD  R30,Y+6
	LDI  R26,LOW(_min1)
	LDI  R27,HIGH(_min1)
	CALL __EEPROMWRB
; 0000 035E 
; 0000 035F                   digito_hora_temp = rx_b0[pos1 + 2 ] - 48;
_0x195:
	LDD  R30,Y+21
	LDD  R31,Y+21+1
	__ADDW1MN _rx_b0,2
	CALL SUBOPT_0x3C
	STD  Y+6,R30
; 0000 0360                   if ( digito_hora_temp >= 0 && digito_hora_temp <= 9)
	LDD  R26,Y+6
	CPI  R26,0
	BRLO _0x199
	CPI  R26,LOW(0xA)
	BRLO _0x19A
_0x199:
	RJMP _0x198
_0x19A:
; 0000 0361                      n2 = digito_hora_temp;
	CALL SUBOPT_0x8
	STD  Y+11,R30
	STD  Y+11+1,R31
; 0000 0362 
; 0000 0363                   digito_hora_temp = rx_b0[pos1 + 1 ] - 48;
_0x198:
	CALL SUBOPT_0x45
	CALL SUBOPT_0x3C
	STD  Y+6,R30
; 0000 0364                   if ( digito_hora_temp >= 0 && digito_hora_temp <= 9)
	LDD  R26,Y+6
	CPI  R26,0
	BRLO _0x19C
	CPI  R26,LOW(0xA)
	BRLO _0x19D
_0x19C:
	RJMP _0x19B
_0x19D:
; 0000 0365                      n1  = digito_hora_temp;
	CALL SUBOPT_0x8
	STD  Y+13,R30
	STD  Y+13+1,R31
; 0000 0366 
; 0000 0367 
; 0000 0368                   n3 = ( n1*10 ) + n2;   // Hora total suma unidades y decenas
_0x19B:
	LDD  R30,Y+13
	LDD  R31,Y+13+1
	LDI  R26,LOW(10)
	LDI  R27,HIGH(10)
	CALL __MULW12
	LDD  R26,Y+11
	LDD  R27,Y+11+1
	ADD  R30,R26
	ADC  R31,R27
	STD  Y+9,R30
	STD  Y+9+1,R31
; 0000 0369                   n4 = n3 - 5;  // Zona horaria
	SBIW R30,5
	STD  Y+7,R30
	STD  Y+7+1,R31
; 0000 036A 
; 0000 036B                   if( n4 < 0 )
	LDD  R26,Y+8
	TST  R26
	BRPL _0x19E
; 0000 036C                   {
; 0000 036D                      n4    = n4 + 24;
	ADIW R30,24
	STD  Y+7,R30
	STD  Y+7+1,R31
; 0000 036E                      hora  = n4 % 10;
	CALL SUBOPT_0x47
	CALL SUBOPT_0x48
; 0000 036F                      hora1 = n4 / 10;
	CALL SUBOPT_0x49
; 0000 0370                   }
; 0000 0371 
; 0000 0372                   hora = n4 % 10;
_0x19E:
	CALL SUBOPT_0x47
	CALL SUBOPT_0x48
; 0000 0373                   hora1= n4 / 10;
	CALL SUBOPT_0x49
; 0000 0374 
; 0000 0375                }
; 0000 0376 
; 0000 0377                // Comprueva la conexin de GPS
; 0000 0378                gps = rx_b0 [ pos2 + 1 ];
_0x189:
	LDD  R30,Y+19
	LDD  R31,Y+19+1
	__ADDW1MN _rx_b0,1
	LD   R30,Z
	LDI  R31,0
	STS  _gps,R30
	STS  _gps+1,R31
; 0000 0379                printf( "%c", gps);  //Herramienta de DEBUG
	__POINTW1FN _0x0,207
	ST   -Y,R31
	ST   -Y,R30
	LDS  R30,_gps
	LDS  R31,_gps+1
	CALL __CWD1
	CALL __PUTPARD1
	LDI  R24,4
	CALL _printf
	ADIW R28,6
; 0000 037A 
; 0000 037B                //Obtener Hora y dia
; 0000 037C                if( (rx_b0[pos3+1]-48) >= 0 &&
; 0000 037D                    (rx_b0[pos3+1]-48) < 10 )
	CALL SUBOPT_0x4A
	TST  R31
	BRMI _0x1A0
	SBIW R30,10
	BRLT _0x1A1
_0x1A0:
	RJMP _0x19F
_0x1A1:
; 0000 037E                {
; 0000 037F 
; 0000 0380                   dia1 = rx_b0[pos3+1]-48;
	CALL SUBOPT_0x4A
	LDI  R26,LOW(_dia1)
	LDI  R27,HIGH(_dia1)
	CALL SUBOPT_0x4B
; 0000 0381                   dia  = rx_b0[pos3+2]-48;
	__ADDW1MN _rx_b0,2
	CALL SUBOPT_0x3C
	LDI  R26,LOW(_dia)
	LDI  R27,HIGH(_dia)
	CALL SUBOPT_0x4B
; 0000 0382                   mes1 = rx_b0[pos3+3]-48;
	__ADDW1MN _rx_b0,3
	CALL SUBOPT_0x3C
	LDI  R26,LOW(_mes1)
	LDI  R27,HIGH(_mes1)
	CALL SUBOPT_0x4B
; 0000 0383                   mes  = rx_b0[pos3+4]-48;
	__ADDW1MN _rx_b0,4
	CALL SUBOPT_0x3C
	LDI  R26,LOW(_mes)
	LDI  R27,HIGH(_mes)
	CALL SUBOPT_0x4B
; 0000 0384                   an1  = rx_b0[pos3+5]-48;
	__ADDW1MN _rx_b0,5
	CALL SUBOPT_0x3C
	LDI  R26,LOW(_an1)
	LDI  R27,HIGH(_an1)
	CALL SUBOPT_0x4B
; 0000 0385                   an   = rx_b0[pos3+6]-48;
	CALL SUBOPT_0x38
	LDI  R26,LOW(_an)
	LDI  R27,HIGH(_an)
	CALL __EEPROMWRB
; 0000 0386 
; 0000 0387                   if( n4 > 18)
	LDD  R26,Y+7
	LDD  R27,Y+7+1
	SBIW R26,19
	BRLT _0x1A2
; 0000 0388                      dia = dia-1;  // Por la zona horaria de EC-5GTM
	CALL SUBOPT_0x4C
	LDI  R31,0
	SBIW R30,1
	LDI  R26,LOW(_dia)
	LDI  R27,HIGH(_dia)
	CALL __EEPROMWRB
; 0000 0389 
; 0000 038A                }else{
_0x1A2:
_0x19F:
; 0000 038B 
; 0000 038C                 // No actualizar la hora, continuar con la anterior
; 0000 038D                }
; 0000 038E             }
; 0000 038F          }
_0x17F:
	__ADDWRN 16,17,1
	RJMP _0x147
_0x148:
; 0000 0390 
; 0000 0391          rx_counter0  = 0;
	CLR  R6
; 0000 0392          rx_wr_index0 = 0;
	CLR  R4
; 0000 0393 
; 0000 0394          BIT_UART=1;
	SBI  0x1E,1
; 0000 0395 
; 0000 0396          for (j=0;j<201;j++)
	__GETWRN 18,19,0
_0x1A7:
	__CPWRN 18,19,201
	BRGE _0x1A8
; 0000 0397          {
; 0000 0398             rx_b0[j]=0;
	LDI  R26,LOW(_rx_b0)
	LDI  R27,HIGH(_rx_b0)
	ADD  R26,R18
	ADC  R27,R19
	LDI  R30,LOW(0)
	ST   X,R30
; 0000 0399          }
	__ADDWRN 18,19,1
	RJMP _0x1A7
_0x1A8:
; 0000 039A       }
	CALL __LOADLOCR6
	ADIW R28,27
	RET
;   //---------------------------------------------------------------------------------------------//
;
;
;
;
;/////////////////////////////////////////////////////////////////////////////////////////////////////////////////////
;//******************************************** PROGRAMA PRINCIPAL *************************************************//
;/////////////////////////////////////////////////////////////////////////////////////////////////////////////////////
;void main(void)
; 0000 03A4 {
_main:
; 0000 03A5 
; 0000 03A6    // CODIGO GENERADO CON EL COMPILADOR CODEVISION
; 0000 03A7       #pragma optsize-
; 0000 03A8       CLKPR=0x80;
	LDI  R30,LOW(128)
	STS  97,R30
; 0000 03A9       CLKPR=0x00;
	LDI  R30,LOW(0)
	STS  97,R30
; 0000 03AA       #ifdef _OPTIMIZE_SIZE_
; 0000 03AB          #pragma optsize+
; 0000 03AC       #endif
; 0000 03AD 
; 0000 03AE       DATADDR = 0xff;
	LDI  R30,LOW(255)
	OUT  0x7,R30
; 0000 03AF 
; 0000 03B0       PORTA=0xFF;
	OUT  0x2,R30
; 0000 03B1       DDRA=0xF0;
	LDI  R30,LOW(240)
	OUT  0x1,R30
; 0000 03B2 
; 0000 03B3       PORTB=0x00;
	LDI  R30,LOW(0)
	OUT  0x5,R30
; 0000 03B4       DDRB=0xFF;
	LDI  R30,LOW(255)
	OUT  0x4,R30
; 0000 03B5 
; 0000 03B6       PORTD=0x00;
	LDI  R30,LOW(0)
	OUT  0xB,R30
; 0000 03B7       DDRD=0b11110000;
	LDI  R30,LOW(240)
	OUT  0xA,R30
; 0000 03B8 
; 0000 03B9       // USART0 initialization
; 0000 03BA       // Communication Parameters: 8 Data, 1 Stop, No Parity
; 0000 03BB       // USART0 Receiver: On
; 0000 03BC       // USART0 Transmitter: On
; 0000 03BD       // USART0 Mode: Asynchronous
; 0000 03BE       //// USART0 Baud Rate: 9600 11.0592 MHz
; 0000 03BF       //UCSR0A=0x00;
; 0000 03C0       //UCSR0B=0x98;
; 0000 03C1       //UCSR0C=0x06;
; 0000 03C2       //UBRR0H=0x00;
; 0000 03C3       //UBRR0L=0x47;
; 0000 03C4 
; 0000 03C5       // USART0 Baud Rate: 115200
; 0000 03C6       UCSR0A=0x00;
	LDI  R30,LOW(0)
	STS  192,R30
; 0000 03C7       UCSR0B=0x98;
	LDI  R30,LOW(152)
	STS  193,R30
; 0000 03C8       UCSR0C=0x06;
	LDI  R30,LOW(6)
	STS  194,R30
; 0000 03C9       UBRR0H=0x00;
	LDI  R30,LOW(0)
	STS  197,R30
; 0000 03CA       UBRR0L=0x05;
	LDI  R30,LOW(5)
	STS  196,R30
; 0000 03CB 
; 0000 03CC       //USART0 Baud Rate: 9600 8 MHz
; 0000 03CD       //UCSR0A=0x00;
; 0000 03CE       //UCSR0B=0x18;
; 0000 03CF       //UCSR0C=0x06;
; 0000 03D0       //UBRR0H=0x00;
; 0000 03D1       //UBRR0L=0x33;
; 0000 03D2 
; 0000 03D3       // Timer/Counter 0 initialization
; 0000 03D4       // Clock source: System Clock
; 0000 03D5       // Clock value: 10,800 kHz
; 0000 03D6       // Mode: Normal top=0xFF
; 0000 03D7       // OC0A output: Disconnected
; 0000 03D8       // OC0B output: Disconnected
; 0000 03D9       TCCR0A=0x00;
	LDI  R30,LOW(0)
	OUT  0x24,R30
; 0000 03DA       TCCR0B=0x05;
	LDI  R30,LOW(5)
	OUT  0x25,R30
; 0000 03DB       TCNT0=0x00;
	LDI  R30,LOW(0)
	OUT  0x26,R30
; 0000 03DC       OCR0A=0x00;
	OUT  0x27,R30
; 0000 03DD       OCR0B=0x00;
	OUT  0x28,R30
; 0000 03DE 
; 0000 03DF       // Timer/Counter 0 Interrupt(s) initialization
; 0000 03E0       TIMSK0=0x01;
	LDI  R30,LOW(1)
	STS  110,R30
; 0000 03E1 
; 0000 03E2    // Inicilizar GLCD
; 0000 03E3       glcd_on();
	CALL _glcd_on
; 0000 03E4       delay_ms(INIT_DELAY_GLCD_MS);
	LDI  R30,LOW(10)
	LDI  R31,HIGH(10)
	CALL SUBOPT_0x4D
; 0000 03E5       glcd_clear();
; 0000 03E6 
; 0000 03E7       buzz();
	RCALL _buzz
; 0000 03E8       buzz();
	RCALL _buzz
; 0000 03E9 
; 0000 03EA       // Dibuja KRADAC
; 0000 03EB       bmp_disp(arr,0,0,127,7);
	LDI  R30,LOW(_arr*2)
	LDI  R31,HIGH(_arr*2)
	CALL SUBOPT_0x2B
	CALL SUBOPT_0x2
	LDI  R30,LOW(127)
	LDI  R31,HIGH(127)
	CALL SUBOPT_0x2D
	RCALL _bmp_disp
; 0000 03EC       delay_ms( DELAY_PANTALLA_INI );
	LDI  R30,LOW(2000)
	LDI  R31,HIGH(2000)
	CALL SUBOPT_0x4D
; 0000 03ED       glcd_clear();
; 0000 03EE 
; 0000 03EF       // Dibuja BUS
; 0000 03F0       bmp_disp(bus,0,0,45,7);
	LDI  R30,LOW(_bus*2)
	LDI  R31,HIGH(_bus*2)
	CALL SUBOPT_0x2B
	CALL SUBOPT_0x2
	LDI  R30,LOW(45)
	LDI  R31,HIGH(45)
	CALL SUBOPT_0x2D
	RCALL _bmp_disp
; 0000 03F1 
; 0000 03F2       // Escribe NOMBRE_PANTALLA "SITU"
; 0000 03F3       glcd_puts(NOMBRE_DISP,55,2,0,2,-1);
	LDI  R30,LOW(_NOMBRE_DISP)
	LDI  R31,HIGH(_NOMBRE_DISP)
	ST   -Y,R31
	ST   -Y,R30
	LDI  R30,LOW(55)
	LDI  R31,HIGH(55)
	CALL SUBOPT_0x4E
	CALL SUBOPT_0x4F
; 0000 03F4 
; 0000 03F5       // Escribe NUMERO_PANTALLA "BUS####"
; 0000 03F6       glcd_puts("BUS",59,5,0,1,-1);
	__POINTW1MN _0x1A9,0
	ST   -Y,R31
	ST   -Y,R30
	LDI  R30,LOW(59)
	LDI  R31,HIGH(59)
	CALL SUBOPT_0x50
	CALL SUBOPT_0x2F
	CALL SUBOPT_0x30
; 0000 03F7       glcd_puts(NUM_DISP,82,5,0,1,-1);
	LDI  R30,LOW(_NUM_DISP)
	LDI  R31,HIGH(_NUM_DISP)
	ST   -Y,R31
	ST   -Y,R30
	LDI  R30,LOW(82)
	LDI  R31,HIGH(82)
	CALL SUBOPT_0x50
	CALL SUBOPT_0x2F
	CALL SUBOPT_0x30
; 0000 03F8 
; 0000 03F9       //Tiempo q muestra la pantalla de inicio
; 0000 03FA       delay_ms( DELAY_PANTALLA_INI );
	LDI  R30,LOW(2000)
	LDI  R31,HIGH(2000)
	CALL SUBOPT_0x4D
; 0000 03FB       glcd_clear();
; 0000 03FC 
; 0000 03FD 
; 0000 03FE    ////////////  VALORES INICIALES PARA VARIABLES DE LA EEPROM ///////////
; 0000 03FF 
; 0000 0400       // En caso de que no haya recibido tramas del sky
; 0000 0401       // previene que muestre valores de -1 en la hora y fecha
; 0000 0402       if (hora1 == 0xff )
	CALL SUBOPT_0x25
	CPI  R30,LOW(0xFF)
	BRNE _0x1AA
; 0000 0403       {
; 0000 0404          hora1 = 0; min1 = 0; seg1 = 0;
	LDI  R26,LOW(_hora1)
	LDI  R27,HIGH(_hora1)
	LDI  R30,LOW(0)
	CALL __EEPROMWRB
	CALL SUBOPT_0x22
	CALL SUBOPT_0x1E
; 0000 0405            hora = 0; minu = 0;  seg = 0;
	CALL SUBOPT_0x24
	CALL SUBOPT_0x20
	CALL SUBOPT_0x1D
; 0000 0406       }
; 0000 0407 
; 0000 0408       // En caso de que no haya fecha
; 0000 0409       if (mes == 0xff && dia == 0xff && an == 0xff)
_0x1AA:
	CALL SUBOPT_0x51
	CPI  R30,LOW(0xFF)
	BRNE _0x1AC
	CALL SUBOPT_0x4C
	CPI  R30,LOW(0xFF)
	BRNE _0x1AC
	CALL SUBOPT_0x52
	CPI  R30,LOW(0xFF)
	BREQ _0x1AD
_0x1AC:
	RJMP _0x1AB
_0x1AD:
; 0000 040A       {
; 0000 040B          dia = 0; dia1 = 0;
	LDI  R26,LOW(_dia)
	LDI  R27,HIGH(_dia)
	LDI  R30,LOW(0)
	CALL __EEPROMWRB
	LDI  R26,LOW(_dia1)
	LDI  R27,HIGH(_dia1)
	CALL __EEPROMWRB
; 0000 040C           mes = 0; mes1 = 0;
	LDI  R26,LOW(_mes)
	LDI  R27,HIGH(_mes)
	CALL __EEPROMWRB
	LDI  R26,LOW(_mes1)
	LDI  R27,HIGH(_mes1)
	CALL __EEPROMWRB
; 0000 040D            an = 0;  an1 = 0;
	LDI  R26,LOW(_an)
	LDI  R27,HIGH(_an)
	CALL __EEPROMWRB
	LDI  R26,LOW(_an1)
	LDI  R27,HIGH(_an1)
	CALL __EEPROMWRB
; 0000 040E       }
; 0000 040F 
; 0000 0410       // Iniciala la eeprom.
; 0000 0411       if (num_ruta  == 0xff)
_0x1AB:
	LDI  R26,LOW(_num_ruta)
	LDI  R27,HIGH(_num_ruta)
	CALL __EEPROMRDB
	CPI  R30,LOW(0xFF)
	BRNE _0x1AE
; 0000 0412       {
; 0000 0413          num_ruta  = 0;
	LDI  R26,LOW(_num_ruta)
	LDI  R27,HIGH(_num_ruta)
	LDI  R30,LOW(0)
	CALL __EEPROMWRB
; 0000 0414          _num_ruta = 0;
	RJMP _0x1D8
; 0000 0415       }
; 0000 0416       else
_0x1AE:
; 0000 0417          _num_ruta = num_ruta;
	LDI  R26,LOW(_num_ruta)
	LDI  R27,HIGH(_num_ruta)
	CALL __EEPROMRDB
_0x1D8:
	STS  __num_ruta,R30
; 0000 0418 
; 0000 0419       if (laborando == 0xff)
	LDI  R26,LOW(_laborando)
	LDI  R27,HIGH(_laborando)
	CALL __EEPROMRDB
	CPI  R30,LOW(0xFF)
	BRNE _0x1B0
; 0000 041A       {
; 0000 041B          laborando = 0;
	LDI  R26,LOW(_laborando)
	LDI  R27,HIGH(_laborando)
	LDI  R30,LOW(0)
	CALL __EEPROMWRB
; 0000 041C          _laborando= 0;
	RJMP _0x1D9
; 0000 041D       }
; 0000 041E       else
_0x1B0:
; 0000 041F          _laborando = laborando;
	LDI  R26,LOW(_laborando)
	LDI  R27,HIGH(_laborando)
	CALL __EEPROMRDB
_0x1D9:
	STS  __laborando,R30
; 0000 0420    //------------------------------------------------------------------------//
; 0000 0421 
; 0000 0422 
; 0000 0423    // Encender interrupciones
; 0000 0424    #asm("sei")
	sei
; 0000 0425 
; 0000 0426    // Muestra vacio
; 0000 0427    bmp_disp(vacio,0,5,25,7);
	LDI  R30,LOW(_vacio*2)
	LDI  R31,HIGH(_vacio*2)
	CALL SUBOPT_0x2B
	CALL SUBOPT_0x2C
	LDI  R30,LOW(25)
	LDI  R31,HIGH(25)
	CALL SUBOPT_0x2D
	RCALL _bmp_disp
; 0000 0428 
; 0000 0429    // Pide el ID del Skypatrol para verificar la pantalla
; 0000 042A    printf("AT$TTDEVID?\n\r");
	CALL SUBOPT_0x1B
; 0000 042B    delay_us( 500 );
	__DELAY_USW 1382
; 0000 042C    obt();
	RCALL _obt
; 0000 042D 
; 0000 042E    // Estados iniciales de los botones
; 0000 042F    bandera1 = 0;
	CLR  R7
; 0000 0430    bandera2 = 0;
	CLR  R10
; 0000 0431    bandera3 = 0;
	CLR  R9
; 0000 0432 
; 0000 0433     // Forza la autorizacion de la pantalla
; 0000 0434     act =1;
	CALL SUBOPT_0x46
; 0000 0435 
; 0000 0436    while (1)
_0x1B2:
; 0000 0437    {
; 0000 0438 
; 0000 0439       // Verifica la bandera de interrupcion serial
; 0000 043A       if( BIT_UART == 0 )
	SBIC 0x1E,1
	RJMP _0x1B5
; 0000 043B       {
; 0000 043C          obt();
	RCALL _obt
; 0000 043D          BIT_UART=1;
	SBI  0x1E,1
; 0000 043E       }
; 0000 043F 
; 0000 0440       // GRAFICA LA RUTA ACTUAL.
; 0000 0441       glcd_putchar(ruta_aux,79,7,0,1);
_0x1B5:
	ST   -Y,R8
	LDI  R30,LOW(79)
	LDI  R31,HIGH(79)
	CALL SUBOPT_0x2D
	CALL SUBOPT_0x2F
	CALL _glcd_putchar
; 0000 0442 
; 0000 0443       boton1();
	RCALL _boton1
; 0000 0444 
; 0000 0445       boton2();
	RCALL _boton2
; 0000 0446 
; 0000 0447       boton3();
	RCALL _boton3
; 0000 0448 
; 0000 0449       boton4();
	RCALL _boton4
; 0000 044A 
; 0000 044B       dibujar_senal();
	RCALL _dibujar_senal
; 0000 044C 
; 0000 044D       // act = autoirzado
; 0000 044E       if(act==1)
	LDS  R26,_act_G000
	LDS  R27,_act_G000+1
	SBIW R26,1
	BREQ PC+3
	JMP _0x1B8
; 0000 044F       {
; 0000 0450          if( gsm == 1)
	LDS  R26,_gsm
	LDS  R27,_gsm+1
	SBIW R26,1
	BRNE _0x1B9
; 0000 0451          {
; 0000 0452             glcd_putchar('E',19,0,1,1);
	LDI  R30,LOW(69)
	RJMP _0x1DA
; 0000 0453          }else{
_0x1B9:
; 0000 0454             glcd_putchar(' ',19,0,1,1);
	LDI  R30,LOW(32)
_0x1DA:
	ST   -Y,R30
	LDI  R30,LOW(19)
	LDI  R31,HIGH(19)
	CALL SUBOPT_0x2B
	LDI  R30,LOW(1)
	ST   -Y,R30
	ST   -Y,R30
	CALL _glcd_putchar
; 0000 0455          }
; 0000 0456 
; 0000 0457 
; 0000 0458          // Muestra el reloj al conductor
; 0000 0459          if(pt==0)
	LDS  R30,_pt
	CPI  R30,0
	BREQ PC+3
	JMP _0x1BB
; 0000 045A          {
; 0000 045B             sprintf(reloj,"%d%d:%d%d:%d%d",hora1, hora, min1, minu, seg1, seg);
	LDI  R30,LOW(_reloj)
	LDI  R31,HIGH(_reloj)
	ST   -Y,R31
	ST   -Y,R30
	__POINTW1FN _0x0,214
	ST   -Y,R31
	ST   -Y,R30
	CALL SUBOPT_0x25
	CALL SUBOPT_0x28
	CALL SUBOPT_0x23
	CALL SUBOPT_0x28
	CALL SUBOPT_0x21
	CALL SUBOPT_0x28
	CALL SUBOPT_0x1F
	CALL SUBOPT_0x28
	CALL SUBOPT_0x1A
	CALL SUBOPT_0x28
	CALL SUBOPT_0x18
	CALL SUBOPT_0x28
	LDI  R24,24
	RCALL _sprintf
	ADIW R28,28
; 0000 045C             //printf("%d%d:%d%d:%d%d\n\r",hora1, hora, min1, minu, seg1, seg);
; 0000 045D 
; 0000 045E             // pasa de la eeprom a la flash del micro
; 0000 045F             _seg  = seg  ;
	CALL SUBOPT_0x18
	STS  __seg,R30
; 0000 0460             _seg1 = seg1 ;    // segundos en unidades y decenas
	CALL SUBOPT_0x1A
	STS  __seg1,R30
; 0000 0461             _minu = minu ;
	CALL SUBOPT_0x1F
	STS  __minu,R30
; 0000 0462             _min1 = min1 ;    // minutos en unidades y decenas
	CALL SUBOPT_0x21
	STS  __min1,R30
; 0000 0463             _hora = hora ;
	CALL SUBOPT_0x23
	STS  __hora,R30
; 0000 0464             _hora1= hora1;    // hora en unidades y decenas
	CALL SUBOPT_0x25
	STS  __hora1,R30
; 0000 0465             _dia  = dia  ;
	CALL SUBOPT_0x4C
	STS  __dia,R30
; 0000 0466             _dia1 = dia1 ;    // dias en unidades y decenas
	LDI  R26,LOW(_dia1)
	LDI  R27,HIGH(_dia1)
	CALL __EEPROMRDB
	STS  __dia1,R30
; 0000 0467             _mes  = mes  ;
	CALL SUBOPT_0x51
	STS  __mes,R30
; 0000 0468             _mes1 = mes1 ;    // mes en unidades y decenas
	LDI  R26,LOW(_mes1)
	LDI  R27,HIGH(_mes1)
	CALL __EEPROMRDB
	STS  __mes1,R30
; 0000 0469             _an   = an   ;
	CALL SUBOPT_0x52
	STS  __an,R30
; 0000 046A             _an1  = an1  ;     // anos en unidades y decenas
	LDI  R26,LOW(_an1)
	LDI  R27,HIGH(_an1)
	CALL __EEPROMRDB
	STS  __an1,R30
; 0000 046B 
; 0000 046C             num_ruta  = _num_ruta;
	LDS  R30,__num_ruta
	LDI  R26,LOW(_num_ruta)
	LDI  R27,HIGH(_num_ruta)
	CALL __EEPROMWRB
; 0000 046D             laborando = _laborando;
	LDS  R30,__laborando
	LDI  R26,LOW(_laborando)
	LDI  R27,HIGH(_laborando)
	CALL __EEPROMWRB
; 0000 046E 
; 0000 046F             glcd_puts(reloj,7,2,0,2,-1);
	LDI  R30,LOW(_reloj)
	LDI  R31,HIGH(_reloj)
	CALL SUBOPT_0x2D
	CALL SUBOPT_0x53
	CALL SUBOPT_0x4F
; 0000 0470          }
; 0000 0471 
; 0000 0472          //Entra a esta funcion cuando llega un punto de control, verificando por el evento 18  pt=1
; 0000 0473          else if(pt==1)
	RJMP _0x1BC
_0x1BB:
	LDS  R26,_pt
	CPI  R26,LOW(0x1)
	BRNE _0x1BD
; 0000 0474          {
; 0000 0475             glcd_clrln(2);
	CALL SUBOPT_0x44
; 0000 0476             glcd_clrln(3);
; 0000 0477             glcd_clrln(4);
; 0000 0478             glcd_clrln(5);
; 0000 0479 
; 0000 047A             delay_ms(1);
	CALL SUBOPT_0x33
	CALL _delay_ms
; 0000 047B 
; 0000 047C             glcd_puts(no_pt,48,3,0,2,1);
	LDI  R30,LOW(_no_pt)
	LDI  R31,HIGH(_no_pt)
	ST   -Y,R31
	ST   -Y,R30
	LDI  R30,LOW(48)
	LDI  R31,HIGH(48)
	ST   -Y,R31
	ST   -Y,R30
	LDI  R30,LOW(3)
	LDI  R31,HIGH(3)
	ST   -Y,R31
	ST   -Y,R30
	LDI  R30,LOW(0)
	ST   -Y,R30
	LDI  R30,LOW(2)
	ST   -Y,R30
	LDI  R30,LOW(1)
	ST   -Y,R30
	CALL _glcd_puts
; 0000 047D             //glcd_puts(nombre_pt,10,2,0,1,-2);
; 0000 047E 
; 0000 047F             buzz();
	RCALL _buzz
; 0000 0480             buzz();
	RCALL _buzz
; 0000 0481 
; 0000 0482             delay_ms(MOSTRAR_NUM_RUTA_MS);
	LDI  R30,LOW(2000)
	LDI  R31,HIGH(2000)
	RJMP _0x1DB
; 0000 0483 
; 0000 0484             glcd_clrln(2);
; 0000 0485             glcd_clrln(3);
; 0000 0486             glcd_clrln(4);
; 0000 0487             glcd_clrln(5);
; 0000 0488 
; 0000 0489             //esta variable se pone en 0 para que se vuelva a mostrar el reloj
; 0000 048A             pt=0;
; 0000 048B          }
; 0000 048C 
; 0000 048D          // CHOFER HA INICIADO SESION
; 0000 048E          else if (pt==2){
_0x1BD:
	LDS  R26,_pt
	CPI  R26,LOW(0x2)
	BREQ PC+3
	JMP _0x1BF
; 0000 048F             glcd_clrln(2);
	CALL SUBOPT_0x44
; 0000 0490             glcd_clrln(3);
; 0000 0491             glcd_clrln(4);
; 0000 0492             glcd_clrln(5);
; 0000 0493 
; 0000 0494             delay_ms(1);
	CALL SUBOPT_0x33
	CALL _delay_ms
; 0000 0495 
; 0000 0496             // Simulacion de un inicio de sesion
; 0000 0497             glcd_puts("INICIO DE SESION",5,2,0,1,-1);
	__POINTW1MN _0x1A9,4
	CALL SUBOPT_0x50
	CALL SUBOPT_0x53
	CALL SUBOPT_0x2F
	CALL SUBOPT_0x30
; 0000 0498             delay_ms( 500 );
	CALL SUBOPT_0x54
; 0000 0499             glcd_puts("*",45,4,0,1,-1);
	__POINTW1MN _0x1A9,21
	ST   -Y,R31
	ST   -Y,R30
	LDI  R30,LOW(45)
	LDI  R31,HIGH(45)
	CALL SUBOPT_0x55
	CALL SUBOPT_0x30
; 0000 049A             delay_ms( 300 );
	CALL SUBOPT_0x56
; 0000 049B             glcd_puts("*",53,4,0,1,-1);
	__POINTW1MN _0x1A9,23
	ST   -Y,R31
	ST   -Y,R30
	LDI  R30,LOW(53)
	LDI  R31,HIGH(53)
	CALL SUBOPT_0x55
	CALL SUBOPT_0x30
; 0000 049C             delay_ms( 300 );
	CALL SUBOPT_0x56
; 0000 049D             glcd_puts("*",61,4,0,1,-1);
	__POINTW1MN _0x1A9,25
	ST   -Y,R31
	ST   -Y,R30
	LDI  R30,LOW(61)
	LDI  R31,HIGH(61)
	CALL SUBOPT_0x55
	CALL SUBOPT_0x30
; 0000 049E             delay_ms( 300 );
	CALL SUBOPT_0x56
; 0000 049F             glcd_puts("*",69,4,0,1,-1);
	__POINTW1MN _0x1A9,27
	ST   -Y,R31
	ST   -Y,R30
	LDI  R30,LOW(69)
	LDI  R31,HIGH(69)
	CALL SUBOPT_0x55
	CALL SUBOPT_0x30
; 0000 04A0             delay_ms( 500 );
	CALL SUBOPT_0x54
; 0000 04A1 
; 0000 04A2             buzz();
	RJMP _0x1DC
; 0000 04A3             buzz();
; 0000 04A4 
; 0000 04A5             delay_ms(MOSTRAR_MSN_ENV_MS);
; 0000 04A6 
; 0000 04A7             glcd_clrln(2);
; 0000 04A8             glcd_clrln(3);
; 0000 04A9             glcd_clrln(4);
; 0000 04AA             glcd_clrln(5);
; 0000 04AB 
; 0000 04AC             pt=0;  //esta variable se pone en 0 para que se vuelva a mostrar el reloj
; 0000 04AD          }
; 0000 04AE 
; 0000 04AF          // FINALIZO LA RUTA
; 0000 04B0          else if (pt==3){
_0x1BF:
	LDS  R26,_pt
	CPI  R26,LOW(0x3)
	BRNE _0x1C1
; 0000 04B1 
; 0000 04B2             glcd_clrln(2);
	CALL SUBOPT_0x44
; 0000 04B3             glcd_clrln(3);
; 0000 04B4             glcd_clrln(4);
; 0000 04B5             glcd_clrln(5);
; 0000 04B6             delay_ms(1);
	CALL SUBOPT_0x33
	CALL _delay_ms
; 0000 04B7 
; 0000 04B8             glcd_puts("FIN RUTA",28,3,0,1,-1);
	__POINTW1MN _0x1A9,29
	ST   -Y,R31
	ST   -Y,R30
	LDI  R30,LOW(28)
	LDI  R31,HIGH(28)
	ST   -Y,R31
	ST   -Y,R30
	LDI  R30,LOW(3)
	LDI  R31,HIGH(3)
	RJMP _0x1DD
; 0000 04B9 
; 0000 04BA             buzz();
; 0000 04BB             buzz();
; 0000 04BC 
; 0000 04BD             delay_ms(1000);
; 0000 04BE 
; 0000 04BF             glcd_clrln(2);
; 0000 04C0             glcd_clrln(3);
; 0000 04C1             glcd_clrln(4);
; 0000 04C2             glcd_clrln(5);
; 0000 04C3             pt=0;  //esta variable se pone en 0 para que se vuelva a mostrar el reloj
; 0000 04C4          }
; 0000 04C5 
; 0000 04C6          else if (pt==4){
_0x1C1:
	LDS  R26,_pt
	CPI  R26,LOW(0x4)
	BRNE _0x1C3
; 0000 04C7 
; 0000 04C8             glcd_clrln(2);
	CALL SUBOPT_0x44
; 0000 04C9             glcd_clrln(3);
; 0000 04CA             glcd_clrln(4);
; 0000 04CB             glcd_clrln(5);
; 0000 04CC             delay_ms(1);
	CALL SUBOPT_0x33
	CALL _delay_ms
; 0000 04CD 
; 0000 04CE             glcd_puts("INICIO RUTA",20,3,0,1,-1);
	__POINTW1MN _0x1A9,38
	CALL SUBOPT_0x57
	LDI  R30,LOW(3)
	LDI  R31,HIGH(3)
	RJMP _0x1DD
; 0000 04CF             buzz();
; 0000 04D0             buzz();
; 0000 04D1             delay_ms(MOSTRAR_MSN_ENV_MS);
; 0000 04D2 
; 0000 04D3             glcd_clrln(2);
; 0000 04D4             glcd_clrln(3);
; 0000 04D5             glcd_clrln(4);
; 0000 04D6             glcd_clrln(5);
; 0000 04D7             pt=0;  //esta variable se pone en 0 para que se vuelva a mostrar el reloj
; 0000 04D8          }
; 0000 04D9          //  CIERRA SESION
; 0000 04DA          else if (pt==5){
_0x1C3:
	LDS  R26,_pt
	CPI  R26,LOW(0x5)
	BRNE _0x1C5
; 0000 04DB             glcd_clrln(2);
	CALL SUBOPT_0x44
; 0000 04DC             glcd_clrln(3);
; 0000 04DD             glcd_clrln(4);
; 0000 04DE             glcd_clrln(5);
; 0000 04DF 
; 0000 04E0             delay_ms(1);
	CALL SUBOPT_0x33
	CALL _delay_ms
; 0000 04E1 
; 0000 04E2             glcd_puts(" HA SALIDO",20,2,0,1,-1);
	__POINTW1MN _0x1A9,50
	CALL SUBOPT_0x57
	CALL SUBOPT_0x53
	CALL SUBOPT_0x2F
	CALL SUBOPT_0x30
; 0000 04E3             glcd_puts("DEL SISTEMA",20,4,0,1,-1);
	__POINTW1MN _0x1A9,61
	CALL SUBOPT_0x57
	LDI  R30,LOW(4)
	LDI  R31,HIGH(4)
	RJMP _0x1DD
; 0000 04E4 
; 0000 04E5             buzz();
; 0000 04E6             buzz();
; 0000 04E7 
; 0000 04E8             delay_ms(MOSTRAR_MSN_ENV_MS);
; 0000 04E9 
; 0000 04EA             glcd_clrln(2);
; 0000 04EB             glcd_clrln(3);
; 0000 04EC             glcd_clrln(4);
; 0000 04ED             glcd_clrln(5);
; 0000 04EE 
; 0000 04EF             pt=0;  //esta variable se pone en 0 para que se vuelva a mostrar el reloj
; 0000 04F0 
; 0000 04F1             // CONSIDERAR - Cuando cierre sesion que se pida iniciar o no muestra nada.
; 0000 04F2             //pt=0;  //esta variable se pone en 0 para que se vuelva a mostrar el reloj
; 0000 04F3          }
; 0000 04F4 
; 0000 04F5          // Debe iniciar sesion
; 0000 04F6          else if (pt==6){
_0x1C5:
	LDS  R26,_pt
	CPI  R26,LOW(0x6)
	BRNE _0x1C7
; 0000 04F7             glcd_clrln(2);
	CALL SUBOPT_0x44
; 0000 04F8             glcd_clrln(3);
; 0000 04F9             glcd_clrln(4);
; 0000 04FA             glcd_clrln(5);
; 0000 04FB 
; 0000 04FC             delay_ms(1);
	CALL SUBOPT_0x33
	CALL _delay_ms
; 0000 04FD 
; 0000 04FE             glcd_puts("NECESITA INICIAR JORNADA",20,2,0,1,-1);
	__POINTW1MN _0x1A9,73
	CALL SUBOPT_0x57
	LDI  R30,LOW(2)
	LDI  R31,HIGH(2)
_0x1DD:
	ST   -Y,R31
	ST   -Y,R30
	CALL SUBOPT_0x2F
	CALL SUBOPT_0x30
; 0000 04FF 
; 0000 0500             buzz();
_0x1DC:
	RCALL _buzz
; 0000 0501             buzz();
	RCALL _buzz
; 0000 0502 
; 0000 0503             delay_ms(MOSTRAR_MSN_ENV_MS);
	LDI  R30,LOW(1000)
	LDI  R31,HIGH(1000)
_0x1DB:
	ST   -Y,R31
	ST   -Y,R30
	CALL _delay_ms
; 0000 0504 
; 0000 0505             glcd_clrln(2);
	CALL SUBOPT_0x44
; 0000 0506             glcd_clrln(3);
; 0000 0507             glcd_clrln(4);
; 0000 0508             glcd_clrln(5);
; 0000 0509 
; 0000 050A             pt=0;  //esta variable se pone en 0 para que se vuelva a mostrar el reloj
	LDI  R30,LOW(0)
	STS  _pt,R30
; 0000 050B          }
; 0000 050C 
; 0000 050D 
; 0000 050E 
; 0000 050F          // Con senal GPS
; 0000 0510          if( gps == 'A' )
_0x1C7:
_0x1BC:
	CALL SUBOPT_0x58
	CPI  R26,LOW(0x41)
	LDI  R30,HIGH(0x41)
	CPC  R27,R30
	BRNE _0x1C8
; 0000 0511          {
; 0000 0512             bmp_disp(GPS1,95,0,127,1);
	LDI  R30,LOW(_GPS1*2)
	LDI  R31,HIGH(_GPS1*2)
	RJMP _0x1DE
; 0000 0513 
; 0000 0514             sprintf(fecha,"20%d%d-%d%d-%d%d",an1, an, mes1, mes, dia1, dia);
; 0000 0515             glcd_puts(fecha,34,5,0,1,-1);
; 0000 0516 
; 0000 0517          }
; 0000 0518          // Sin senal GPS
; 0000 0519          else if (gps == 'V' || gps == '9' )
_0x1C8:
	CALL SUBOPT_0x58
	CPI  R26,LOW(0x56)
	LDI  R30,HIGH(0x56)
	CPC  R27,R30
	BREQ _0x1CB
	CALL SUBOPT_0x58
	SBIW R26,57
_0x1CB:
; 0000 051A          {
; 0000 051B             bmp_disp(GPS2,95,0,127,1);
; 0000 051C 
; 0000 051D             sprintf(fecha,"20%d%d-%d%d-%d%d",an1, an, mes1, mes, dia1, dia);
; 0000 051E             glcd_puts(fecha,34,5,0,1,-1);
; 0000 051F 
; 0000 0520          }
; 0000 0521          else
; 0000 0522          {
; 0000 0523             bmp_disp(GPS2,95,0,127,1);
_0x1DF:
	LDI  R30,LOW(_GPS2*2)
	LDI  R31,HIGH(_GPS2*2)
_0x1DE:
	ST   -Y,R31
	ST   -Y,R30
	LDI  R30,LOW(95)
	LDI  R31,HIGH(95)
	CALL SUBOPT_0x2B
	LDI  R30,LOW(127)
	LDI  R31,HIGH(127)
	ST   -Y,R31
	ST   -Y,R30
	CALL SUBOPT_0x33
	CALL _bmp_disp
; 0000 0524             sprintf(fecha,"20%d%d-%d%d-%d%d",an1, an, mes1, mes, dia1, dia);
	LDI  R30,LOW(_fecha)
	LDI  R31,HIGH(_fecha)
	ST   -Y,R31
	ST   -Y,R30
	__POINTW1FN _0x0,317
	ST   -Y,R31
	ST   -Y,R30
	LDI  R26,LOW(_an1)
	LDI  R27,HIGH(_an1)
	CALL SUBOPT_0x59
	CALL SUBOPT_0x52
	CALL SUBOPT_0x28
	LDI  R26,LOW(_mes1)
	LDI  R27,HIGH(_mes1)
	CALL SUBOPT_0x59
	CALL SUBOPT_0x51
	CALL SUBOPT_0x28
	LDI  R26,LOW(_dia1)
	LDI  R27,HIGH(_dia1)
	CALL SUBOPT_0x59
	CALL SUBOPT_0x4C
	CALL SUBOPT_0x28
	LDI  R24,24
	RCALL _sprintf
	ADIW R28,28
; 0000 0525             glcd_puts(fecha,34,5,0,1,-1);
	LDI  R30,LOW(_fecha)
	LDI  R31,HIGH(_fecha)
	ST   -Y,R31
	ST   -Y,R30
	LDI  R30,LOW(34)
	LDI  R31,HIGH(34)
	CALL SUBOPT_0x50
	CALL SUBOPT_0x2F
	CALL SUBOPT_0x30
; 0000 0526          }
; 0000 0527       }
; 0000 0528 
; 0000 0529       else
	RJMP _0x1CE
_0x1B8:
; 0000 052A       {
; 0000 052B          glcd_puts("Pantalla",30,2,0,1,-1);
	__POINTW1MN _0x1A9,98
	ST   -Y,R31
	ST   -Y,R30
	LDI  R30,LOW(30)
	LDI  R31,HIGH(30)
	CALL SUBOPT_0x4E
	CALL SUBOPT_0x2F
	CALL SUBOPT_0x30
; 0000 052C          glcd_puts("No Autorizada",15,4,0,1,-1);
	__POINTW1MN _0x1A9,107
	ST   -Y,R31
	ST   -Y,R30
	LDI  R30,LOW(15)
	LDI  R31,HIGH(15)
	CALL SUBOPT_0x55
	CALL SUBOPT_0x30
; 0000 052D       }
_0x1CE:
; 0000 052E 
; 0000 052F          bmp_disp(frente,105,5,127,7);
	LDI  R30,LOW(_frente*2)
	LDI  R31,HIGH(_frente*2)
	ST   -Y,R31
	ST   -Y,R30
	LDI  R30,LOW(105)
	LDI  R31,HIGH(105)
	CALL SUBOPT_0x50
	LDI  R30,LOW(127)
	LDI  R31,HIGH(127)
	CALL SUBOPT_0x2D
	CALL _bmp_disp
; 0000 0530    } // Fin del While
	RJMP _0x1B2
; 0000 0531 }
_0x1CF:
	RJMP _0x1CF

	.DSEG
_0x1A9:
	.BYTE 0x79
;//---------------------------------------- FIN DEL PROGRAMA PRINCIPAL ---------------------------------------------//
	#ifndef __SLEEP_DEFINED__
	#define __SLEEP_DEFINED__
	.EQU __se_bit=0x01
	.EQU __sm_mask=0x0E
	.EQU __sm_powerdown=0x04
	.EQU __sm_powersave=0x06
	.EQU __sm_standby=0x0C
	.EQU __sm_ext_standby=0x0E
	.EQU __sm_adc_noise_red=0x02
	.SET power_ctrl_reg=smcr
	#endif

	.CSEG
_putchar:
_0x2000006:
	LDS  R30,192
	ANDI R30,LOW(0x20)
	BREQ _0x2000006
	LD   R30,Y
	STS  198,R30
	ADIW R28,1
	RET
_put_usart_G100:
	LDD  R30,Y+2
	ST   -Y,R30
	RCALL _putchar
	LD   R26,Y
	LDD  R27,Y+1
	CALL SUBOPT_0x7
	ADIW R28,3
	RET
_put_buff_G100:
	ST   -Y,R17
	ST   -Y,R16
	LDD  R26,Y+2
	LDD  R27,Y+2+1
	ADIW R26,2
	CALL __GETW1P
	SBIW R30,0
	BREQ _0x2000016
	LDD  R26,Y+2
	LDD  R27,Y+2+1
	ADIW R26,4
	CALL __GETW1P
	MOVW R16,R30
	SBIW R30,0
	BREQ _0x2000018
	__CPWRN 16,17,2
	BRLO _0x2000019
	MOVW R30,R16
	SBIW R30,1
	MOVW R16,R30
	__PUTW1SNS 2,4
_0x2000018:
	LDD  R26,Y+2
	LDD  R27,Y+2+1
	ADIW R26,2
	CALL SUBOPT_0x7
	SBIW R30,1
	LDD  R26,Y+4
	STD  Z+0,R26
	LDD  R26,Y+2
	LDD  R27,Y+2+1
	CALL __GETW1P
	TST  R31
	BRMI _0x200001A
	CALL SUBOPT_0x7
_0x200001A:
_0x2000019:
	RJMP _0x200001B
_0x2000016:
	LDD  R26,Y+2
	LDD  R27,Y+2+1
	LDI  R30,LOW(65535)
	LDI  R31,HIGH(65535)
	ST   X+,R30
	ST   X,R31
_0x200001B:
	LDD  R17,Y+1
	LDD  R16,Y+0
	ADIW R28,5
	RET
__print_G100:
	SBIW R28,6
	CALL __SAVELOCR6
	LDI  R17,0
	LDD  R26,Y+12
	LDD  R27,Y+12+1
	LDI  R30,LOW(0)
	LDI  R31,HIGH(0)
	ST   X+,R30
	ST   X,R31
_0x200001C:
	LDD  R30,Y+18
	LDD  R31,Y+18+1
	ADIW R30,1
	STD  Y+18,R30
	STD  Y+18+1,R31
	SBIW R30,1
	LPM  R30,Z
	MOV  R18,R30
	CPI  R30,0
	BRNE PC+3
	JMP _0x200001E
	MOV  R30,R17
	CPI  R30,0
	BRNE _0x2000022
	CPI  R18,37
	BRNE _0x2000023
	LDI  R17,LOW(1)
	RJMP _0x2000024
_0x2000023:
	CALL SUBOPT_0x5A
_0x2000024:
	RJMP _0x2000021
_0x2000022:
	CPI  R30,LOW(0x1)
	BRNE _0x2000025
	CPI  R18,37
	BRNE _0x2000026
	CALL SUBOPT_0x5A
	RJMP _0x20000CF
_0x2000026:
	LDI  R17,LOW(2)
	LDI  R20,LOW(0)
	LDI  R16,LOW(0)
	CPI  R18,45
	BRNE _0x2000027
	LDI  R16,LOW(1)
	RJMP _0x2000021
_0x2000027:
	CPI  R18,43
	BRNE _0x2000028
	LDI  R20,LOW(43)
	RJMP _0x2000021
_0x2000028:
	CPI  R18,32
	BRNE _0x2000029
	LDI  R20,LOW(32)
	RJMP _0x2000021
_0x2000029:
	RJMP _0x200002A
_0x2000025:
	CPI  R30,LOW(0x2)
	BRNE _0x200002B
_0x200002A:
	LDI  R21,LOW(0)
	LDI  R17,LOW(3)
	CPI  R18,48
	BRNE _0x200002C
	ORI  R16,LOW(128)
	RJMP _0x2000021
_0x200002C:
	RJMP _0x200002D
_0x200002B:
	CPI  R30,LOW(0x3)
	BREQ PC+3
	JMP _0x2000021
_0x200002D:
	CPI  R18,48
	BRLO _0x2000030
	CPI  R18,58
	BRLO _0x2000031
_0x2000030:
	RJMP _0x200002F
_0x2000031:
	LDI  R26,LOW(10)
	MUL  R21,R26
	MOV  R21,R0
	MOV  R30,R18
	SUBI R30,LOW(48)
	ADD  R21,R30
	RJMP _0x2000021
_0x200002F:
	MOV  R30,R18
	CPI  R30,LOW(0x63)
	BRNE _0x2000035
	CALL SUBOPT_0x5B
	LDD  R30,Y+16
	LDD  R31,Y+16+1
	LDD  R26,Z+4
	ST   -Y,R26
	CALL SUBOPT_0x5C
	RJMP _0x2000036
_0x2000035:
	CPI  R30,LOW(0x73)
	BRNE _0x2000038
	CALL SUBOPT_0x5B
	CALL SUBOPT_0x5D
	CALL _strlen
	MOV  R17,R30
	RJMP _0x2000039
_0x2000038:
	CPI  R30,LOW(0x70)
	BRNE _0x200003B
	CALL SUBOPT_0x5B
	CALL SUBOPT_0x5D
	CALL _strlenf
	MOV  R17,R30
	ORI  R16,LOW(8)
_0x2000039:
	ORI  R16,LOW(2)
	ANDI R16,LOW(127)
	LDI  R19,LOW(0)
	RJMP _0x200003C
_0x200003B:
	CPI  R30,LOW(0x64)
	BREQ _0x200003F
	CPI  R30,LOW(0x69)
	BRNE _0x2000040
_0x200003F:
	ORI  R16,LOW(4)
	RJMP _0x2000041
_0x2000040:
	CPI  R30,LOW(0x75)
	BRNE _0x2000042
_0x2000041:
	LDI  R30,LOW(_tbl10_G100*2)
	LDI  R31,HIGH(_tbl10_G100*2)
	STD  Y+6,R30
	STD  Y+6+1,R31
	LDI  R17,LOW(5)
	RJMP _0x2000043
_0x2000042:
	CPI  R30,LOW(0x58)
	BRNE _0x2000045
	ORI  R16,LOW(8)
	RJMP _0x2000046
_0x2000045:
	CPI  R30,LOW(0x78)
	BREQ PC+3
	JMP _0x2000077
_0x2000046:
	LDI  R30,LOW(_tbl16_G100*2)
	LDI  R31,HIGH(_tbl16_G100*2)
	STD  Y+6,R30
	STD  Y+6+1,R31
	LDI  R17,LOW(4)
_0x2000043:
	SBRS R16,2
	RJMP _0x2000048
	CALL SUBOPT_0x5B
	CALL SUBOPT_0x5E
	LDD  R26,Y+11
	TST  R26
	BRPL _0x2000049
	LDD  R30,Y+10
	LDD  R31,Y+10+1
	CALL __ANEGW1
	STD  Y+10,R30
	STD  Y+10+1,R31
	LDI  R20,LOW(45)
_0x2000049:
	CPI  R20,0
	BREQ _0x200004A
	SUBI R17,-LOW(1)
	RJMP _0x200004B
_0x200004A:
	ANDI R16,LOW(251)
_0x200004B:
	RJMP _0x200004C
_0x2000048:
	CALL SUBOPT_0x5B
	CALL SUBOPT_0x5E
_0x200004C:
_0x200003C:
	SBRC R16,0
	RJMP _0x200004D
_0x200004E:
	CP   R17,R21
	BRSH _0x2000050
	SBRS R16,7
	RJMP _0x2000051
	SBRS R16,2
	RJMP _0x2000052
	ANDI R16,LOW(251)
	MOV  R18,R20
	SUBI R17,LOW(1)
	RJMP _0x2000053
_0x2000052:
	LDI  R18,LOW(48)
_0x2000053:
	RJMP _0x2000054
_0x2000051:
	LDI  R18,LOW(32)
_0x2000054:
	CALL SUBOPT_0x5A
	SUBI R21,LOW(1)
	RJMP _0x200004E
_0x2000050:
_0x200004D:
	MOV  R19,R17
	SBRS R16,1
	RJMP _0x2000055
_0x2000056:
	CPI  R19,0
	BREQ _0x2000058
	SBRS R16,3
	RJMP _0x2000059
	LDD  R30,Y+6
	LDD  R31,Y+6+1
	LPM  R18,Z+
	STD  Y+6,R30
	STD  Y+6+1,R31
	RJMP _0x200005A
_0x2000059:
	LDD  R26,Y+6
	LDD  R27,Y+6+1
	LD   R18,X+
	STD  Y+6,R26
	STD  Y+6+1,R27
_0x200005A:
	CALL SUBOPT_0x5A
	CPI  R21,0
	BREQ _0x200005B
	SUBI R21,LOW(1)
_0x200005B:
	SUBI R19,LOW(1)
	RJMP _0x2000056
_0x2000058:
	RJMP _0x200005C
_0x2000055:
_0x200005E:
	LDI  R18,LOW(48)
	LDD  R30,Y+6
	LDD  R31,Y+6+1
	CALL __GETW1PF
	STD  Y+8,R30
	STD  Y+8+1,R31
	LDD  R30,Y+6
	LDD  R31,Y+6+1
	ADIW R30,2
	STD  Y+6,R30
	STD  Y+6+1,R31
_0x2000060:
	LDD  R30,Y+8
	LDD  R31,Y+8+1
	LDD  R26,Y+10
	LDD  R27,Y+10+1
	CP   R26,R30
	CPC  R27,R31
	BRLO _0x2000062
	SUBI R18,-LOW(1)
	LDD  R26,Y+8
	LDD  R27,Y+8+1
	LDD  R30,Y+10
	LDD  R31,Y+10+1
	SUB  R30,R26
	SBC  R31,R27
	STD  Y+10,R30
	STD  Y+10+1,R31
	RJMP _0x2000060
_0x2000062:
	CPI  R18,58
	BRLO _0x2000063
	SBRS R16,3
	RJMP _0x2000064
	SUBI R18,-LOW(7)
	RJMP _0x2000065
_0x2000064:
	SUBI R18,-LOW(39)
_0x2000065:
_0x2000063:
	SBRC R16,4
	RJMP _0x2000067
	CPI  R18,49
	BRSH _0x2000069
	LDD  R26,Y+8
	LDD  R27,Y+8+1
	SBIW R26,1
	BRNE _0x2000068
_0x2000069:
	RJMP _0x20000D0
_0x2000068:
	CP   R21,R19
	BRLO _0x200006D
	SBRS R16,0
	RJMP _0x200006E
_0x200006D:
	RJMP _0x200006C
_0x200006E:
	LDI  R18,LOW(32)
	SBRS R16,7
	RJMP _0x200006F
	LDI  R18,LOW(48)
_0x20000D0:
	ORI  R16,LOW(16)
	SBRS R16,2
	RJMP _0x2000070
	ANDI R16,LOW(251)
	ST   -Y,R20
	CALL SUBOPT_0x5C
	CPI  R21,0
	BREQ _0x2000071
	SUBI R21,LOW(1)
_0x2000071:
_0x2000070:
_0x200006F:
_0x2000067:
	CALL SUBOPT_0x5A
	CPI  R21,0
	BREQ _0x2000072
	SUBI R21,LOW(1)
_0x2000072:
_0x200006C:
	SUBI R19,LOW(1)
	LDD  R26,Y+8
	LDD  R27,Y+8+1
	SBIW R26,2
	BRLO _0x200005F
	RJMP _0x200005E
_0x200005F:
_0x200005C:
	SBRS R16,0
	RJMP _0x2000073
_0x2000074:
	CPI  R21,0
	BREQ _0x2000076
	SUBI R21,LOW(1)
	LDI  R30,LOW(32)
	ST   -Y,R30
	CALL SUBOPT_0x5C
	RJMP _0x2000074
_0x2000076:
_0x2000073:
_0x2000077:
_0x2000036:
_0x20000CF:
	LDI  R17,LOW(0)
_0x2000021:
	RJMP _0x200001C
_0x200001E:
	LDD  R26,Y+12
	LDD  R27,Y+12+1
	CALL __GETW1P
	CALL __LOADLOCR6
	ADIW R28,20
	RET
_sprintf:
	PUSH R15
	MOV  R15,R24
	SBIW R28,6
	CALL __SAVELOCR4
	CALL SUBOPT_0x5F
	SBIW R30,0
	BRNE _0x2000078
	LDI  R30,LOW(65535)
	LDI  R31,HIGH(65535)
	RJMP _0x20A0001
_0x2000078:
	MOVW R26,R28
	ADIW R26,6
	CALL __ADDW2R15
	MOVW R16,R26
	CALL SUBOPT_0x5F
	STD  Y+6,R30
	STD  Y+6+1,R31
	LDI  R30,LOW(0)
	STD  Y+8,R30
	STD  Y+8+1,R30
	MOVW R26,R28
	ADIW R26,10
	CALL SUBOPT_0x60
	LDI  R30,LOW(_put_buff_G100)
	LDI  R31,HIGH(_put_buff_G100)
	ST   -Y,R31
	ST   -Y,R30
	MOVW R30,R28
	ADIW R30,10
	ST   -Y,R31
	ST   -Y,R30
	RCALL __print_G100
	MOVW R18,R30
	LDD  R26,Y+6
	LDD  R27,Y+6+1
	LDI  R30,LOW(0)
	ST   X,R30
	MOVW R30,R18
_0x20A0001:
	CALL __LOADLOCR4
	ADIW R28,10
	POP  R15
	RET
_printf:
	PUSH R15
	MOV  R15,R24
	SBIW R28,6
	ST   -Y,R17
	ST   -Y,R16
	MOVW R26,R28
	ADIW R26,4
	CALL __ADDW2R15
	MOVW R16,R26
	LDI  R30,LOW(0)
	STD  Y+4,R30
	STD  Y+4+1,R30
	STD  Y+6,R30
	STD  Y+6+1,R30
	MOVW R26,R28
	ADIW R26,8
	CALL SUBOPT_0x60
	LDI  R30,LOW(_put_usart_G100)
	LDI  R31,HIGH(_put_usart_G100)
	ST   -Y,R31
	ST   -Y,R30
	MOVW R30,R28
	ADIW R30,8
	ST   -Y,R31
	ST   -Y,R30
	RCALL __print_G100
	LDD  R17,Y+1
	LDD  R16,Y+0
	ADIW R28,8
	POP  R15
	RET

	.CSEG

	.DSEG

	.CSEG

	.CSEG

	.CSEG
_strlen:
    ld   r26,y+
    ld   r27,y+
    clr  r30
    clr  r31
strlen0:
    ld   r22,x+
    tst  r22
    breq strlen1
    adiw r30,1
    rjmp strlen0
strlen1:
    ret
_strlenf:
    clr  r26
    clr  r27
    ld   r30,y+
    ld   r31,y+
strlenf0:
	lpm  r0,z+
    tst  r0
    breq strlenf1
    adiw r26,1
    rjmp strlenf0
strlenf1:
    movw r30,r26
    ret

	.CSEG

	.DSEG
_prevLet_G000:
	.BYTE 0x2
_stat_G000:
	.BYTE 0x1
_prevX_G000:
	.BYTE 0x1
_prevY_G000:
	.BYTE 0x1
_rx_b0:
	.BYTE 0xC8
_NOMBRE_DISP:
	.BYTE 0x5
_NUM_DISP:
	.BYTE 0x5
_btn2:
	.BYTE 0x1
_btn4:
	.BYTE 0x1
_btn5:
	.BYTE 0x1
_gsm:
	.BYTE 0x2
_gps:
	.BYTE 0x2
_ind_sen:
	.BYTE 0x2
_reloj:
	.BYTE 0x8
_fecha:
	.BYTE 0x8
_punto:
	.BYTE 0x4
_pt:
	.BYTE 0x1
_no_pt:
	.BYTE 0x4
_unidades_ruta:
	.BYTE 0x2
_decenas_ruta:
	.BYTE 0x2
_centenas_ruta:
	.BYTE 0x2
_time_count_G000:
	.BYTE 0x2
_act_G000:
	.BYTE 0x2

	.ESEG

	.ORG 0x80
_seg:
	.BYTE 0x1

	.ORG 0x0

	.ORG 0x82
_seg1:
	.BYTE 0x1

	.ORG 0x0

	.ORG 0x84
_minu:
	.BYTE 0x1

	.ORG 0x0

	.ORG 0x86
_min1:
	.BYTE 0x1

	.ORG 0x0

	.ORG 0x88
_hora:
	.BYTE 0x1

	.ORG 0x0

	.ORG 0x8A
_hora1:
	.BYTE 0x1

	.ORG 0x0

	.ORG 0x8C
_dia:
	.BYTE 0x1

	.ORG 0x0

	.ORG 0x8E
_dia1:
	.BYTE 0x1

	.ORG 0x0

	.ORG 0x90
_mes:
	.BYTE 0x1

	.ORG 0x0

	.ORG 0x92
_mes1:
	.BYTE 0x1

	.ORG 0x0

	.ORG 0x94
_an:
	.BYTE 0x1

	.ORG 0x0

	.ORG 0x96
_an1:
	.BYTE 0x1

	.ORG 0x0

	.ORG 0x28
_num_ruta:
	.BYTE 0x1

	.ORG 0x0

	.ORG 0x2A
_laborando:
	.BYTE 0x1

	.ORG 0x0

	.DSEG
__seg:
	.BYTE 0x1
__seg1:
	.BYTE 0x1
__minu:
	.BYTE 0x1
__min1:
	.BYTE 0x1
__hora:
	.BYTE 0x1
__hora1:
	.BYTE 0x1
__dia:
	.BYTE 0x1
__dia1:
	.BYTE 0x1
__mes:
	.BYTE 0x1
__mes1:
	.BYTE 0x1
__an:
	.BYTE 0x1
__an1:
	.BYTE 0x1
__num_ruta:
	.BYTE 0x1
__laborando:
	.BYTE 0x1
__seed_G101:
	.BYTE 0x4

	.CSEG
;OPTIMIZER ADDED SUBROUTINE, CALLED 3 TIMES, CODE SIZE REDUCTION:1 WORDS
SUBOPT_0x0:
	ST   -Y,R31
	ST   -Y,R30
	JMP  _goto_col

;OPTIMIZER ADDED SUBROUTINE, CALLED 3 TIMES, CODE SIZE REDUCTION:1 WORDS
SUBOPT_0x1:
	ST   -Y,R31
	ST   -Y,R30
	JMP  _goto_row

;OPTIMIZER ADDED SUBROUTINE, CALLED 12 TIMES, CODE SIZE REDUCTION:19 WORDS
SUBOPT_0x2:
	LDI  R30,LOW(0)
	LDI  R31,HIGH(0)
	ST   -Y,R31
	ST   -Y,R30
	RET

;OPTIMIZER ADDED SUBROUTINE, CALLED 2 TIMES, CODE SIZE REDUCTION:3 WORDS
SUBOPT_0x3:
	LDD  R30,Y+4
	LDI  R31,0
	ST   -Y,R31
	ST   -Y,R30
	JMP  _goto_xy

;OPTIMIZER ADDED SUBROUTINE, CALLED 11 TIMES, CODE SIZE REDUCTION:17 WORDS
SUBOPT_0x4:
	MOV  R30,R17
	LDI  R31,0
	RET

;OPTIMIZER ADDED SUBROUTINE, CALLED 2 TIMES, CODE SIZE REDUCTION:1 WORDS
SUBOPT_0x5:
	LDD  R26,Y+6
	LDD  R27,Y+6+1
	CLR  R30
	ADD  R26,R17
	ADC  R27,R30
	LD   R30,X
	RET

;OPTIMIZER ADDED SUBROUTINE, CALLED 3 TIMES, CODE SIZE REDUCTION:5 WORDS
SUBOPT_0x6:
	__GETW1SX 71
	RET

;OPTIMIZER ADDED SUBROUTINE, CALLED 5 TIMES, CODE SIZE REDUCTION:9 WORDS
SUBOPT_0x7:
	LD   R30,X+
	LD   R31,X+
	ADIW R30,1
	ST   -X,R31
	ST   -X,R30
	RET

;OPTIMIZER ADDED SUBROUTINE, CALLED 7 TIMES, CODE SIZE REDUCTION:9 WORDS
SUBOPT_0x8:
	LDD  R30,Y+6
	LDI  R31,0
	RET

;OPTIMIZER ADDED SUBROUTINE, CALLED 2 TIMES, CODE SIZE REDUCTION:7 WORDS
SUBOPT_0x9:
	LDS  R30,_prevLet_G000
	LDS  R31,_prevLet_G000+1
	SUBI R30,LOW(193)
	SBCI R31,HIGH(193)
	LDI  R26,LOW(6)
	LDI  R27,HIGH(6)
	CALL __MULW12U
	SUBI R30,LOW(-_map*2)
	SBCI R31,HIGH(-_map*2)
	RET

;OPTIMIZER ADDED SUBROUTINE, CALLED 2 TIMES, CODE SIZE REDUCTION:3 WORDS
SUBOPT_0xA:
	SUBI R30,LOW(193)
	SBCI R31,HIGH(193)
	LDI  R26,LOW(6)
	LDI  R27,HIGH(6)
	CALL __MULW12U
	SUBI R30,LOW(-_map*2)
	SBCI R31,HIGH(-_map*2)
	RET

;OPTIMIZER ADDED SUBROUTINE, CALLED 3 TIMES, CODE SIZE REDUCTION:3 WORDS
SUBOPT_0xB:
	LDI  R31,0
	ST   -Y,R31
	ST   -Y,R30
	RET

;OPTIMIZER ADDED SUBROUTINE, CALLED 4 TIMES, CODE SIZE REDUCTION:3 WORDS
SUBOPT_0xC:
	ST   -Y,R31
	ST   -Y,R30
	LDD  R30,Y+6
	LDD  R31,Y+6+1
	RET

;OPTIMIZER ADDED SUBROUTINE, CALLED 2 TIMES, CODE SIZE REDUCTION:1 WORDS
SUBOPT_0xD:
	ST   -Y,R31
	ST   -Y,R30
	LDD  R30,Y+6
	ST   -Y,R30
	JMP  _putItSz

;OPTIMIZER ADDED SUBROUTINE, CALLED 2 TIMES, CODE SIZE REDUCTION:7 WORDS
SUBOPT_0xE:
	LDD  R30,Y+9
	LDD  R31,Y+9+1
	ST   -Y,R31
	ST   -Y,R30
	CALL _strlen
	MOV  R26,R17
	LDI  R27,0
	CP   R26,R30
	CPC  R27,R31
	RET

;OPTIMIZER ADDED SUBROUTINE, CALLED 7 TIMES, CODE SIZE REDUCTION:9 WORDS
SUBOPT_0xF:
	LDD  R26,Y+9
	LDD  R27,Y+9+1
	ADD  R26,R30
	ADC  R27,R31
	RET

;OPTIMIZER ADDED SUBROUTINE, CALLED 4 TIMES, CODE SIZE REDUCTION:3 WORDS
SUBOPT_0x10:
	LDD  R30,Y+8
	LDD  R31,Y+8+1
	ST   -Y,R31
	ST   -Y,R30
	RET

;OPTIMIZER ADDED SUBROUTINE, CALLED 3 TIMES, CODE SIZE REDUCTION:3 WORDS
SUBOPT_0x11:
	ST   -Y,R30
	LDD  R30,Y+9
	ST   -Y,R30
	JMP  _glcd_putchar

;OPTIMIZER ADDED SUBROUTINE, CALLED 2 TIMES, CODE SIZE REDUCTION:7 WORDS
SUBOPT_0x12:
	LDD  R30,Y+2
	LDI  R31,0
	SBRC R30,7
	SER  R31
	ADIW R30,8
	MOVW R26,R30
	LDD  R30,Y+3
	LDI  R31,0
	CALL __MULW12
	RET

;OPTIMIZER ADDED SUBROUTINE, CALLED 5 TIMES, CODE SIZE REDUCTION:5 WORDS
SUBOPT_0x13:
	LDD  R30,Y+3
	LDI  R26,LOW(8)
	MULS R30,R26
	MOVW R30,R0
	RET

;OPTIMIZER ADDED SUBROUTINE, CALLED 2 TIMES, CODE SIZE REDUCTION:5 WORDS
SUBOPT_0x14:
	LDD  R30,Y+3
	LDI  R31,0
	LDD  R26,Y+5
	LDD  R27,Y+5+1
	ADD  R30,R26
	ADC  R31,R27
	STD  Y+5,R30
	STD  Y+5+1,R31
	RET

;OPTIMIZER ADDED SUBROUTINE, CALLED 4 TIMES, CODE SIZE REDUCTION:6 WORDS
SUBOPT_0x15:
	LDD  R26,Y+9
	LDD  R27,Y+9+1
	ADD  R30,R26
	ADC  R31,R27
	LDD  R26,Z+1
	RET

;OPTIMIZER ADDED SUBROUTINE, CALLED 2 TIMES, CODE SIZE REDUCTION:7 WORDS
SUBOPT_0x16:
	LDD  R30,Y+4
	LDI  R26,LOW(8)
	MULS R30,R26
	MOVW R30,R0
	LDD  R26,Y+8
	LDD  R27,Y+8+1
	SUB  R26,R30
	SBC  R27,R31
	ST   -Y,R27
	ST   -Y,R26
	RJMP SUBOPT_0x10

;OPTIMIZER ADDED SUBROUTINE, CALLED 3 TIMES, CODE SIZE REDUCTION:1 WORDS
SUBOPT_0x17:
	SUB  R26,R30
	SBC  R27,R31
	STD  Y+7,R26
	STD  Y+7+1,R27
	RET

;OPTIMIZER ADDED SUBROUTINE, CALLED 11 TIMES, CODE SIZE REDUCTION:17 WORDS
SUBOPT_0x18:
	LDI  R26,LOW(_seg)
	LDI  R27,HIGH(_seg)
	CALL __EEPROMRDB
	RET

;OPTIMIZER ADDED SUBROUTINE, CALLED 6 TIMES, CODE SIZE REDUCTION:7 WORDS
SUBOPT_0x19:
	SUBI R30,-LOW(1)
	CALL __EEPROMWRB
	SUBI R30,LOW(1)
	RET

;OPTIMIZER ADDED SUBROUTINE, CALLED 9 TIMES, CODE SIZE REDUCTION:13 WORDS
SUBOPT_0x1A:
	LDI  R26,LOW(_seg1)
	LDI  R27,HIGH(_seg1)
	CALL __EEPROMRDB
	RET

;OPTIMIZER ADDED SUBROUTINE, CALLED 2 TIMES, CODE SIZE REDUCTION:3 WORDS
SUBOPT_0x1B:
	__POINTW1FN _0x0,0
	ST   -Y,R31
	ST   -Y,R30
	LDI  R24,0
	CALL _printf
	ADIW R28,2
	RET

;OPTIMIZER ADDED SUBROUTINE, CALLED 3 TIMES, CODE SIZE REDUCTION:5 WORDS
SUBOPT_0x1C:
	ST   -Y,R31
	ST   -Y,R30
	LDI  R24,0
	CALL _printf
	ADIW R28,2
	RET

;OPTIMIZER ADDED SUBROUTINE, CALLED 3 TIMES, CODE SIZE REDUCTION:3 WORDS
SUBOPT_0x1D:
	LDI  R26,LOW(_seg)
	LDI  R27,HIGH(_seg)
	LDI  R30,LOW(0)
	CALL __EEPROMWRB
	RET

;OPTIMIZER ADDED SUBROUTINE, CALLED 3 TIMES, CODE SIZE REDUCTION:3 WORDS
SUBOPT_0x1E:
	LDI  R26,LOW(_seg1)
	LDI  R27,HIGH(_seg1)
	LDI  R30,LOW(0)
	CALL __EEPROMWRB
	RET

;OPTIMIZER ADDED SUBROUTINE, CALLED 7 TIMES, CODE SIZE REDUCTION:9 WORDS
SUBOPT_0x1F:
	LDI  R26,LOW(_minu)
	LDI  R27,HIGH(_minu)
	CALL __EEPROMRDB
	RET

;OPTIMIZER ADDED SUBROUTINE, CALLED 3 TIMES, CODE SIZE REDUCTION:3 WORDS
SUBOPT_0x20:
	LDI  R26,LOW(_minu)
	LDI  R27,HIGH(_minu)
	LDI  R30,LOW(0)
	CALL __EEPROMWRB
	RET

;OPTIMIZER ADDED SUBROUTINE, CALLED 5 TIMES, CODE SIZE REDUCTION:5 WORDS
SUBOPT_0x21:
	LDI  R26,LOW(_min1)
	LDI  R27,HIGH(_min1)
	CALL __EEPROMRDB
	RET

;OPTIMIZER ADDED SUBROUTINE, CALLED 3 TIMES, CODE SIZE REDUCTION:3 WORDS
SUBOPT_0x22:
	LDI  R26,LOW(_min1)
	LDI  R27,HIGH(_min1)
	LDI  R30,LOW(0)
	CALL __EEPROMWRB
	RET

;OPTIMIZER ADDED SUBROUTINE, CALLED 7 TIMES, CODE SIZE REDUCTION:9 WORDS
SUBOPT_0x23:
	LDI  R26,LOW(_hora)
	LDI  R27,HIGH(_hora)
	CALL __EEPROMRDB
	RET

;OPTIMIZER ADDED SUBROUTINE, CALLED 3 TIMES, CODE SIZE REDUCTION:3 WORDS
SUBOPT_0x24:
	LDI  R26,LOW(_hora)
	LDI  R27,HIGH(_hora)
	LDI  R30,LOW(0)
	CALL __EEPROMWRB
	RET

;OPTIMIZER ADDED SUBROUTINE, CALLED 5 TIMES, CODE SIZE REDUCTION:5 WORDS
SUBOPT_0x25:
	LDI  R26,LOW(_hora1)
	LDI  R27,HIGH(_hora1)
	CALL __EEPROMRDB
	RET

;OPTIMIZER ADDED SUBROUTINE, CALLED 2 TIMES, CODE SIZE REDUCTION:1 WORDS
SUBOPT_0x26:
	LDI  R30,LOW(100)
	LDI  R31,HIGH(100)
	ST   -Y,R31
	ST   -Y,R30
	JMP  _delay_ms

;OPTIMIZER ADDED SUBROUTINE, CALLED 2 TIMES, CODE SIZE REDUCTION:54 WORDS
SUBOPT_0x27:
	ST   -Y,R31
	ST   -Y,R30
	LDI  R30,LOW(_NUM_DISP)
	LDI  R31,HIGH(_NUM_DISP)
	CLR  R22
	CLR  R23
	CALL __PUTPARD1
	LDS  R30,__dia1
	CLR  R31
	CLR  R22
	CLR  R23
	CALL __PUTPARD1
	LDS  R30,__dia
	CLR  R31
	CLR  R22
	CLR  R23
	CALL __PUTPARD1
	LDS  R30,__mes1
	CLR  R31
	CLR  R22
	CLR  R23
	CALL __PUTPARD1
	LDS  R30,__mes
	CLR  R31
	CLR  R22
	CLR  R23
	CALL __PUTPARD1
	LDS  R30,__an1
	CLR  R31
	CLR  R22
	CLR  R23
	CALL __PUTPARD1
	LDS  R30,__an
	CLR  R31
	CLR  R22
	CLR  R23
	CALL __PUTPARD1
	LDS  R30,__hora1
	CLR  R31
	CLR  R22
	CLR  R23
	CALL __PUTPARD1
	RJMP SUBOPT_0x23

;OPTIMIZER ADDED SUBROUTINE, CALLED 25 TIMES, CODE SIZE REDUCTION:69 WORDS
SUBOPT_0x28:
	CLR  R31
	CLR  R22
	CLR  R23
	CALL __PUTPARD1
	RET

;OPTIMIZER ADDED SUBROUTINE, CALLED 2 TIMES, CODE SIZE REDUCTION:3 WORDS
SUBOPT_0x29:
	CALL _buzz
	LDI  R30,LOW(200)
	LDI  R31,HIGH(200)
	ST   -Y,R31
	ST   -Y,R30
	JMP  _delay_ms

;OPTIMIZER ADDED SUBROUTINE, CALLED 3 TIMES, CODE SIZE REDUCTION:5 WORDS
SUBOPT_0x2A:
	LDI  R31,0
	CPI  R30,LOW(0x1)
	LDI  R26,HIGH(0x1)
	CPC  R31,R26
	RET

;OPTIMIZER ADDED SUBROUTINE, CALLED 7 TIMES, CODE SIZE REDUCTION:9 WORDS
SUBOPT_0x2B:
	ST   -Y,R31
	ST   -Y,R30
	RJMP SUBOPT_0x2

;OPTIMIZER ADDED SUBROUTINE, CALLED 8 TIMES, CODE SIZE REDUCTION:11 WORDS
SUBOPT_0x2C:
	LDI  R30,LOW(5)
	LDI  R31,HIGH(5)
	ST   -Y,R31
	ST   -Y,R30
	RET

;OPTIMIZER ADDED SUBROUTINE, CALLED 11 TIMES, CODE SIZE REDUCTION:37 WORDS
SUBOPT_0x2D:
	ST   -Y,R31
	ST   -Y,R30
	LDI  R30,LOW(7)
	LDI  R31,HIGH(7)
	ST   -Y,R31
	ST   -Y,R30
	RET

;OPTIMIZER ADDED SUBROUTINE, CALLED 2 TIMES, CODE SIZE REDUCTION:1 WORDS
SUBOPT_0x2E:
	ST   -Y,R31
	ST   -Y,R30
	LDI  R30,LOW(44)
	LDI  R31,HIGH(44)
	RJMP SUBOPT_0x2D

;OPTIMIZER ADDED SUBROUTINE, CALLED 16 TIMES, CODE SIZE REDUCTION:27 WORDS
SUBOPT_0x2F:
	LDI  R30,LOW(0)
	ST   -Y,R30
	LDI  R30,LOW(1)
	ST   -Y,R30
	RET

;OPTIMIZER ADDED SUBROUTINE, CALLED 16 TIMES, CODE SIZE REDUCTION:27 WORDS
SUBOPT_0x30:
	LDI  R30,LOW(255)
	ST   -Y,R30
	JMP  _glcd_puts

;OPTIMIZER ADDED SUBROUTINE, CALLED 2 TIMES, CODE SIZE REDUCTION:1 WORDS
SUBOPT_0x31:
	LDI  R30,LOW(200)
	LDI  R31,HIGH(200)
	ST   -Y,R31
	ST   -Y,R30
	JMP  _delay_ms

;OPTIMIZER ADDED SUBROUTINE, CALLED 5 TIMES, CODE SIZE REDUCTION:5 WORDS
SUBOPT_0x32:
	LDI  R30,LOW(20)
	LDI  R31,HIGH(20)
	ST   -Y,R31
	ST   -Y,R30
	RET

;OPTIMIZER ADDED SUBROUTINE, CALLED 8 TIMES, CODE SIZE REDUCTION:11 WORDS
SUBOPT_0x33:
	LDI  R30,LOW(1)
	LDI  R31,HIGH(1)
	ST   -Y,R31
	ST   -Y,R30
	RET

;OPTIMIZER ADDED SUBROUTINE, CALLED 5 TIMES, CODE SIZE REDUCTION:5 WORDS
SUBOPT_0x34:
	MOVW R30,R16
	__ADDW1MN _rx_b0,0
	LD   R26,Z
	RET

;OPTIMIZER ADDED SUBROUTINE, CALLED 5 TIMES, CODE SIZE REDUCTION:5 WORDS
SUBOPT_0x35:
	MOVW R30,R16
	__ADDW1MN _rx_b0,1
	LD   R26,Z
	RET

;OPTIMIZER ADDED SUBROUTINE, CALLED 4 TIMES, CODE SIZE REDUCTION:3 WORDS
SUBOPT_0x36:
	MOVW R30,R16
	__ADDW1MN _rx_b0,3
	LD   R26,Z
	RET

;OPTIMIZER ADDED SUBROUTINE, CALLED 4 TIMES, CODE SIZE REDUCTION:3 WORDS
SUBOPT_0x37:
	MOVW R30,R16
	__ADDW1MN _rx_b0,4
	LD   R26,Z
	RET

;OPTIMIZER ADDED SUBROUTINE, CALLED 3 TIMES, CODE SIZE REDUCTION:7 WORDS
SUBOPT_0x38:
	__ADDW1MN _rx_b0,6
	LD   R30,Z
	LDI  R31,0
	SBIW R30,48
	RET

;OPTIMIZER ADDED SUBROUTINE, CALLED 2 TIMES, CODE SIZE REDUCTION:2 WORDS
SUBOPT_0x39:
	__ADDW1MN _rx_b0,7
	LD   R30,Z
	LDI  R31,0
	SBIW R30,48
	RET

;OPTIMIZER ADDED SUBROUTINE, CALLED 4 TIMES, CODE SIZE REDUCTION:3 WORDS
SUBOPT_0x3A:
	STS  _ind_sen,R30
	STS  _ind_sen+1,R31
	RET

;OPTIMIZER ADDED SUBROUTINE, CALLED 4 TIMES, CODE SIZE REDUCTION:3 WORDS
SUBOPT_0x3B:
	MOVW R30,R16
	__ADDW1MN _rx_b0,2
	LD   R26,Z
	RET

;OPTIMIZER ADDED SUBROUTINE, CALLED 21 TIMES, CODE SIZE REDUCTION:57 WORDS
SUBOPT_0x3C:
	LD   R30,Z
	LDI  R31,0
	SBIW R30,48
	RET

;OPTIMIZER ADDED SUBROUTINE, CALLED 3 TIMES, CODE SIZE REDUCTION:1 WORDS
SUBOPT_0x3D:
	MOVW R30,R16
	ADIW R30,4
	STD  Y+25,R30
	STD  Y+25+1,R31
	RET

;OPTIMIZER ADDED SUBROUTINE, CALLED 2 TIMES, CODE SIZE REDUCTION:4 WORDS
SUBOPT_0x3E:
	MOVW R30,R20
	LDD  R26,Y+25
	LDD  R27,Y+25+1
	ADD  R30,R26
	ADC  R31,R27
	__ADDW1MN _rx_b0,1
	LD   R26,Z
	CPI  R26,LOW(0x3A)
	RET

;OPTIMIZER ADDED SUBROUTINE, CALLED 3 TIMES, CODE SIZE REDUCTION:9 WORDS
SUBOPT_0x3F:
	LDD  R30,Y+23
	LDD  R31,Y+23+1
	ADIW R30,1
	STD  Y+23,R30
	STD  Y+23+1,R31
	LDD  R26,Y+23
	LDD  R27,Y+23+1
	SBIW R26,1
	RET

;OPTIMIZER ADDED SUBROUTINE, CALLED 3 TIMES, CODE SIZE REDUCTION:7 WORDS
SUBOPT_0x40:
	LDD  R30,Y+25
	LDD  R31,Y+25+1
	ADD  R30,R20
	ADC  R31,R21
	ADIW R30,1
	STD  Y+21,R30
	STD  Y+21+1,R31
	RET

;OPTIMIZER ADDED SUBROUTINE, CALLED 3 TIMES, CODE SIZE REDUCTION:1 WORDS
SUBOPT_0x41:
	LDD  R30,Y+21
	LDD  R31,Y+21+1
	__ADDW1MN _rx_b0,3
	RET

;OPTIMIZER ADDED SUBROUTINE, CALLED 3 TIMES, CODE SIZE REDUCTION:1 WORDS
SUBOPT_0x42:
	LDD  R30,Y+21
	LDD  R31,Y+21+1
	__ADDW1MN _rx_b0,4
	RET

;OPTIMIZER ADDED SUBROUTINE, CALLED 3 TIMES, CODE SIZE REDUCTION:1 WORDS
SUBOPT_0x43:
	LDD  R30,Y+21
	LDD  R31,Y+21+1
	__ADDW1MN _rx_b0,5
	RET

;OPTIMIZER ADDED SUBROUTINE, CALLED 8 TIMES, CODE SIZE REDUCTION:95 WORDS
SUBOPT_0x44:
	LDI  R30,LOW(2)
	ST   -Y,R30
	CALL _glcd_clrln
	LDI  R30,LOW(3)
	ST   -Y,R30
	CALL _glcd_clrln
	LDI  R30,LOW(4)
	ST   -Y,R30
	CALL _glcd_clrln
	LDI  R30,LOW(5)
	ST   -Y,R30
	JMP  _glcd_clrln

;OPTIMIZER ADDED SUBROUTINE, CALLED 3 TIMES, CODE SIZE REDUCTION:1 WORDS
SUBOPT_0x45:
	LDD  R30,Y+21
	LDD  R31,Y+21+1
	__ADDW1MN _rx_b0,1
	RET

;OPTIMIZER ADDED SUBROUTINE, CALLED 2 TIMES, CODE SIZE REDUCTION:1 WORDS
SUBOPT_0x46:
	LDI  R30,LOW(1)
	LDI  R31,HIGH(1)
	STS  _act_G000,R30
	STS  _act_G000+1,R31
	RET

;OPTIMIZER ADDED SUBROUTINE, CALLED 4 TIMES, CODE SIZE REDUCTION:3 WORDS
SUBOPT_0x47:
	LDD  R26,Y+7
	LDD  R27,Y+7+1
	LDI  R30,LOW(10)
	LDI  R31,HIGH(10)
	RET

;OPTIMIZER ADDED SUBROUTINE, CALLED 2 TIMES, CODE SIZE REDUCTION:3 WORDS
SUBOPT_0x48:
	CALL __MODW21
	LDI  R26,LOW(_hora)
	LDI  R27,HIGH(_hora)
	CALL __EEPROMWRB
	RJMP SUBOPT_0x47

;OPTIMIZER ADDED SUBROUTINE, CALLED 2 TIMES, CODE SIZE REDUCTION:1 WORDS
SUBOPT_0x49:
	CALL __DIVW21
	LDI  R26,LOW(_hora1)
	LDI  R27,HIGH(_hora1)
	CALL __EEPROMWRB
	RET

;OPTIMIZER ADDED SUBROUTINE, CALLED 2 TIMES, CODE SIZE REDUCTION:1 WORDS
SUBOPT_0x4A:
	LDD  R30,Y+17
	LDD  R31,Y+17+1
	__ADDW1MN _rx_b0,1
	RJMP SUBOPT_0x3C

;OPTIMIZER ADDED SUBROUTINE, CALLED 5 TIMES, CODE SIZE REDUCTION:5 WORDS
SUBOPT_0x4B:
	CALL __EEPROMWRB
	LDD  R30,Y+17
	LDD  R31,Y+17+1
	RET

;OPTIMIZER ADDED SUBROUTINE, CALLED 4 TIMES, CODE SIZE REDUCTION:3 WORDS
SUBOPT_0x4C:
	LDI  R26,LOW(_dia)
	LDI  R27,HIGH(_dia)
	CALL __EEPROMRDB
	RET

;OPTIMIZER ADDED SUBROUTINE, CALLED 3 TIMES, CODE SIZE REDUCTION:5 WORDS
SUBOPT_0x4D:
	ST   -Y,R31
	ST   -Y,R30
	CALL _delay_ms
	JMP  _glcd_clear

;OPTIMIZER ADDED SUBROUTINE, CALLED 2 TIMES, CODE SIZE REDUCTION:1 WORDS
SUBOPT_0x4E:
	ST   -Y,R31
	ST   -Y,R30
	LDI  R30,LOW(2)
	LDI  R31,HIGH(2)
	ST   -Y,R31
	ST   -Y,R30
	RET

;OPTIMIZER ADDED SUBROUTINE, CALLED 2 TIMES, CODE SIZE REDUCTION:1 WORDS
SUBOPT_0x4F:
	LDI  R30,LOW(0)
	ST   -Y,R30
	LDI  R30,LOW(2)
	ST   -Y,R30
	RJMP SUBOPT_0x30

;OPTIMIZER ADDED SUBROUTINE, CALLED 5 TIMES, CODE SIZE REDUCTION:5 WORDS
SUBOPT_0x50:
	ST   -Y,R31
	ST   -Y,R30
	RJMP SUBOPT_0x2C

;OPTIMIZER ADDED SUBROUTINE, CALLED 3 TIMES, CODE SIZE REDUCTION:1 WORDS
SUBOPT_0x51:
	LDI  R26,LOW(_mes)
	LDI  R27,HIGH(_mes)
	CALL __EEPROMRDB
	RET

;OPTIMIZER ADDED SUBROUTINE, CALLED 3 TIMES, CODE SIZE REDUCTION:1 WORDS
SUBOPT_0x52:
	LDI  R26,LOW(_an)
	LDI  R27,HIGH(_an)
	CALL __EEPROMRDB
	RET

;OPTIMIZER ADDED SUBROUTINE, CALLED 3 TIMES, CODE SIZE REDUCTION:1 WORDS
SUBOPT_0x53:
	LDI  R30,LOW(2)
	LDI  R31,HIGH(2)
	ST   -Y,R31
	ST   -Y,R30
	RET

;OPTIMIZER ADDED SUBROUTINE, CALLED 2 TIMES, CODE SIZE REDUCTION:1 WORDS
SUBOPT_0x54:
	LDI  R30,LOW(500)
	LDI  R31,HIGH(500)
	ST   -Y,R31
	ST   -Y,R30
	JMP  _delay_ms

;OPTIMIZER ADDED SUBROUTINE, CALLED 5 TIMES, CODE SIZE REDUCTION:21 WORDS
SUBOPT_0x55:
	ST   -Y,R31
	ST   -Y,R30
	LDI  R30,LOW(4)
	LDI  R31,HIGH(4)
	ST   -Y,R31
	ST   -Y,R30
	RJMP SUBOPT_0x2F

;OPTIMIZER ADDED SUBROUTINE, CALLED 3 TIMES, CODE SIZE REDUCTION:5 WORDS
SUBOPT_0x56:
	LDI  R30,LOW(300)
	LDI  R31,HIGH(300)
	ST   -Y,R31
	ST   -Y,R30
	JMP  _delay_ms

;OPTIMIZER ADDED SUBROUTINE, CALLED 4 TIMES, CODE SIZE REDUCTION:3 WORDS
SUBOPT_0x57:
	ST   -Y,R31
	ST   -Y,R30
	RJMP SUBOPT_0x32

;OPTIMIZER ADDED SUBROUTINE, CALLED 3 TIMES, CODE SIZE REDUCTION:1 WORDS
SUBOPT_0x58:
	LDS  R26,_gps
	LDS  R27,_gps+1
	RET

;OPTIMIZER ADDED SUBROUTINE, CALLED 3 TIMES, CODE SIZE REDUCTION:1 WORDS
SUBOPT_0x59:
	CALL __EEPROMRDB
	RJMP SUBOPT_0x28

;OPTIMIZER ADDED SUBROUTINE, CALLED 5 TIMES, CODE SIZE REDUCTION:21 WORDS
SUBOPT_0x5A:
	ST   -Y,R18
	LDD  R30,Y+13
	LDD  R31,Y+13+1
	ST   -Y,R31
	ST   -Y,R30
	LDD  R30,Y+17
	LDD  R31,Y+17+1
	ICALL
	RET

;OPTIMIZER ADDED SUBROUTINE, CALLED 5 TIMES, CODE SIZE REDUCTION:9 WORDS
SUBOPT_0x5B:
	LDD  R30,Y+16
	LDD  R31,Y+16+1
	SBIW R30,4
	STD  Y+16,R30
	STD  Y+16+1,R31
	RET

;OPTIMIZER ADDED SUBROUTINE, CALLED 3 TIMES, CODE SIZE REDUCTION:7 WORDS
SUBOPT_0x5C:
	LDD  R30,Y+13
	LDD  R31,Y+13+1
	ST   -Y,R31
	ST   -Y,R30
	LDD  R30,Y+17
	LDD  R31,Y+17+1
	ICALL
	RET

;OPTIMIZER ADDED SUBROUTINE, CALLED 2 TIMES, CODE SIZE REDUCTION:6 WORDS
SUBOPT_0x5D:
	LDD  R26,Y+16
	LDD  R27,Y+16+1
	ADIW R26,4
	CALL __GETW1P
	STD  Y+6,R30
	STD  Y+6+1,R31
	ST   -Y,R31
	ST   -Y,R30
	RET

;OPTIMIZER ADDED SUBROUTINE, CALLED 2 TIMES, CODE SIZE REDUCTION:2 WORDS
SUBOPT_0x5E:
	LDD  R26,Y+16
	LDD  R27,Y+16+1
	ADIW R26,4
	CALL __GETW1P
	STD  Y+10,R30
	STD  Y+10+1,R31
	RET

;OPTIMIZER ADDED SUBROUTINE, CALLED 2 TIMES, CODE SIZE REDUCTION:1 WORDS
SUBOPT_0x5F:
	MOVW R26,R28
	ADIW R26,12
	CALL __ADDW2R15
	CALL __GETW1P
	RET

;OPTIMIZER ADDED SUBROUTINE, CALLED 2 TIMES, CODE SIZE REDUCTION:3 WORDS
SUBOPT_0x60:
	CALL __ADDW2R15
	CALL __GETW1P
	ST   -Y,R31
	ST   -Y,R30
	ST   -Y,R17
	ST   -Y,R16
	RET


	.CSEG
_delay_ms:
	ld   r30,y+
	ld   r31,y+
	adiw r30,0
	breq __delay_ms1
__delay_ms0:
	__DELAY_USW 0xACD
	wdr
	sbiw r30,1
	brne __delay_ms0
__delay_ms1:
	ret

__ADDW2R15:
	CLR  R0
	ADD  R26,R15
	ADC  R27,R0
	RET

__ANEGW1:
	NEG  R31
	NEG  R30
	SBCI R31,0
	RET

__LSLW3:
	LSL  R30
	ROL  R31
__LSLW2:
	LSL  R30
	ROL  R31
	LSL  R30
	ROL  R31
	RET

__CWD1:
	MOV  R22,R31
	ADD  R22,R22
	SBC  R22,R22
	MOV  R23,R22
	RET

__MULW12U:
	MUL  R31,R26
	MOV  R31,R0
	MUL  R30,R27
	ADD  R31,R0
	MUL  R30,R26
	MOV  R30,R0
	ADD  R31,R1
	RET

__MULW12:
	RCALL __CHKSIGNW
	RCALL __MULW12U
	BRTC __MULW121
	RCALL __ANEGW1
__MULW121:
	RET

__DIVW21U:
	CLR  R0
	CLR  R1
	LDI  R25,16
__DIVW21U1:
	LSL  R26
	ROL  R27
	ROL  R0
	ROL  R1
	SUB  R0,R30
	SBC  R1,R31
	BRCC __DIVW21U2
	ADD  R0,R30
	ADC  R1,R31
	RJMP __DIVW21U3
__DIVW21U2:
	SBR  R26,1
__DIVW21U3:
	DEC  R25
	BRNE __DIVW21U1
	MOVW R30,R26
	MOVW R26,R0
	RET

__DIVW21:
	RCALL __CHKSIGNW
	RCALL __DIVW21U
	BRTC __DIVW211
	RCALL __ANEGW1
__DIVW211:
	RET

__MODW21:
	CLT
	SBRS R27,7
	RJMP __MODW211
	COM  R26
	COM  R27
	ADIW R26,1
	SET
__MODW211:
	SBRC R31,7
	RCALL __ANEGW1
	RCALL __DIVW21U
	MOVW R30,R26
	BRTC __MODW212
	RCALL __ANEGW1
__MODW212:
	RET

__CHKSIGNW:
	CLT
	SBRS R31,7
	RJMP __CHKSW1
	RCALL __ANEGW1
	SET
__CHKSW1:
	SBRS R27,7
	RJMP __CHKSW2
	COM  R26
	COM  R27
	ADIW R26,1
	BLD  R0,0
	INC  R0
	BST  R0,0
__CHKSW2:
	RET

__GETW1P:
	LD   R30,X+
	LD   R31,X
	SBIW R26,1
	RET

__GETW1PF:
	LPM  R0,Z+
	LPM  R31,Z
	MOV  R30,R0
	RET

__PUTPARD1:
	ST   -Y,R23
	ST   -Y,R22
	ST   -Y,R31
	ST   -Y,R30
	RET

__SWAPW12:
	MOV  R1,R27
	MOV  R27,R31
	MOV  R31,R1

__SWAPB12:
	MOV  R1,R26
	MOV  R26,R30
	MOV  R30,R1
	RET

__EEPROMRDB:
	SBIC EECR,EEWE
	RJMP __EEPROMRDB
	PUSH R31
	IN   R31,SREG
	CLI
	OUT  EEARL,R26
	OUT  EEARH,R27
	SBI  EECR,EERE
	IN   R30,EEDR
	OUT  SREG,R31
	POP  R31
	RET

__EEPROMWRB:
	SBIS EECR,EEWE
	RJMP __EEPROMWRB1
	WDR
	RJMP __EEPROMWRB
__EEPROMWRB1:
	IN   R25,SREG
	CLI
	OUT  EEARL,R26
	OUT  EEARH,R27
	SBI  EECR,EERE
	IN   R24,EEDR
	CP   R30,R24
	BREQ __EEPROMWRB0
	OUT  EEDR,R30
	SBI  EECR,EEMWE
	SBI  EECR,EEWE
__EEPROMWRB0:
	OUT  SREG,R25
	RET

__SAVELOCR6:
	ST   -Y,R21
__SAVELOCR5:
	ST   -Y,R20
__SAVELOCR4:
	ST   -Y,R19
__SAVELOCR3:
	ST   -Y,R18
__SAVELOCR2:
	ST   -Y,R17
	ST   -Y,R16
	RET

__LOADLOCR6:
	LDD  R21,Y+5
__LOADLOCR5:
	LDD  R20,Y+4
__LOADLOCR4:
	LDD  R19,Y+3
__LOADLOCR3:
	LDD  R18,Y+2
__LOADLOCR2:
	LDD  R17,Y+1
	LD   R16,Y
	RET

;END OF CODE MARKER
__END_OF_CODE:
