
AVRASM ver. 2.1.30  C:\Users\DELL\GIT\glcd_bus\List\disp.asm Mon Aug 25 16:43:48 2014

C:\Users\DELL\GIT\glcd_bus\List\disp.asm(1053): warning: Register r4 already defined by the .DEF directive
C:\Users\DELL\GIT\glcd_bus\List\disp.asm(1054): warning: Register r3 already defined by the .DEF directive
C:\Users\DELL\GIT\glcd_bus\List\disp.asm(1055): warning: Register r6 already defined by the .DEF directive
C:\Users\DELL\GIT\glcd_bus\List\disp.asm(1056): warning: Register r5 already defined by the .DEF directive
C:\Users\DELL\GIT\glcd_bus\List\disp.asm(1057): warning: Register r8 already defined by the .DEF directive
C:\Users\DELL\GIT\glcd_bus\List\disp.asm(1058): warning: Register r7 already defined by the .DEF directive
C:\Users\DELL\GIT\glcd_bus\List\disp.asm(1059): warning: Register r10 already defined by the .DEF directive
C:\Users\DELL\GIT\glcd_bus\List\disp.asm(1060): warning: Register r9 already defined by the .DEF directive
C:\Users\DELL\GIT\glcd_bus\List\disp.asm(1061): warning: Register r12 already defined by the .DEF directive
C:\Users\DELL\GIT\glcd_bus\List\disp.asm(1062): warning: Register r11 already defined by the .DEF directive
C:\Users\DELL\GIT\glcd_bus\List\disp.asm(1063): warning: Register r14 already defined by the .DEF directive
C:\Users\DELL\GIT\glcd_bus\List\disp.asm(1064): warning: Register r13 already defined by the .DEF directive
                 
                 
                 ;CodeVisionAVR C Compiler V2.04.4a Advanced
                 ;(C) Copyright 1998-2009 Pavel Haiduc, HP InfoTech s.r.l.
                 ;http://www.hpinfotech.com
                 
                 ;Chip type                : ATmega324P
                 ;Program type             : Application
                 ;Clock frequency          : 11,059200 MHz
                 ;Memory model             : Small
                 ;Optimize for             : Size
                 ;(s)printf features       : int, width
                 ;(s)scanf features        : int, width
                 ;External RAM size        : 0
                 ;Data Stack size          : 512 byte(s)
                 ;Heap size                : 0 byte(s)
                 ;Promote 'char' to 'int'  : Yes
                 ;'char' is unsigned       : Yes
                 ;8 bit enums              : Yes
                 ;global 'const' stored in FLASH: No
                 ;Enhanced core instructions    : On
                 ;Smart register allocation     : On
                 ;Automatic register allocation : On
                 
                 	#pragma AVRPART ADMIN PART_NAME ATmega324P
                 	#pragma AVRPART MEMORY PROG_FLASH 32768
                 	#pragma AVRPART MEMORY EEPROM 1024
                 	#pragma AVRPART MEMORY INT_SRAM SIZE 2048
                 	#pragma AVRPART MEMORY INT_SRAM START_ADDR 0x100
                 
                 	.LISTMAC
                 	.EQU EERE=0x0
                 	.EQU EEWE=0x1
                 	.EQU EEMWE=0x2
                 	.EQU UDRE=0x5
                 	.EQU RXC=0x7
                 	.EQU EECR=0x1F
                 	.EQU EEDR=0x20
                 	.EQU EEARL=0x21
                 	.EQU EEARH=0x22
                 	.EQU SPSR0=0x2D
                 	.EQU SPDR0=0x2E
                 	.EQU SMCR=0x33
                 	.EQU MCUSR=0x34
                 	.EQU MCUCR=0x35
                 	.EQU WDTCSR=0x60
                 	.EQU UCSR0A=0xC0
                 	.EQU UDR0=0xC6
                 	.EQU SPL=0x3D
                 	.EQU SPH=0x3E
                 	.EQU SREG=0x3F
                 	.EQU GPIOR0=0x1E
                 
                 	.DEF R0X0=R0
                 	.DEF R0X1=R1
                 	.DEF R0X2=R2
                 	.DEF R0X3=R3
                 	.DEF R0X4=R4
                 	.DEF R0X5=R5
                 	.DEF R0X6=R6
                 	.DEF R0X7=R7
                 	.DEF R0X8=R8
                 	.DEF R0X9=R9
                 	.DEF R0XA=R10
                 	.DEF R0XB=R11
                 	.DEF R0XC=R12
                 	.DEF R0XD=R13
                 	.DEF R0XE=R14
                 	.DEF R0XF=R15
                 	.DEF R0X10=R16
                 	.DEF R0X11=R17
                 	.DEF R0X12=R18
                 	.DEF R0X13=R19
                 	.DEF R0X14=R20
                 	.DEF R0X15=R21
                 	.DEF R0X16=R22
                 	.DEF R0X17=R23
                 	.DEF R0X18=R24
                 	.DEF R0X19=R25
                 	.DEF R0X1A=R26
                 	.DEF R0X1B=R27
                 	.DEF R0X1C=R28
                 	.DEF R0X1D=R29
                 	.DEF R0X1E=R30
                 	.DEF R0X1F=R31
                 
                 	.MACRO __CPD1N
                 	CPI  R30,LOW(@0)
                 	LDI  R26,HIGH(@0)
                 	CPC  R31,R26
                 	LDI  R26,BYTE3(@0)
                 	CPC  R22,R26
                 	LDI  R26,BYTE4(@0)
                 	CPC  R23,R26
                 	.ENDM
                 
                 	.MACRO __CPD2N
                 	CPI  R26,LOW(@0)
                 	LDI  R30,HIGH(@0)
                 	CPC  R27,R30
                 	LDI  R30,BYTE3(@0)
                 	CPC  R24,R30
                 	LDI  R30,BYTE4(@0)
                 	CPC  R25,R30
                 	.ENDM
                 
                 	.MACRO __CPWRR
                 	CP   R@0,R@2
                 	CPC  R@1,R@3
                 	.ENDM
                 
                 	.MACRO __CPWRN
                 	CPI  R@0,LOW(@2)
                 	LDI  R30,HIGH(@2)
                 	CPC  R@1,R30
                 	.ENDM
                 
                 	.MACRO __ADDB1MN
                 	SUBI R30,LOW(-@0-(@1))
                 	.ENDM
                 
                 	.MACRO __ADDB2MN
                 	SUBI R26,LOW(-@0-(@1))
                 	.ENDM
                 
                 	.MACRO __ADDW1MN
                 	SUBI R30,LOW(-@0-(@1))
                 	SBCI R31,HIGH(-@0-(@1))
                 	.ENDM
                 
                 	.MACRO __ADDW2MN
                 	SUBI R26,LOW(-@0-(@1))
                 	SBCI R27,HIGH(-@0-(@1))
                 	.ENDM
                 
                 	.MACRO __ADDW1FN
                 	SUBI R30,LOW(-2*@0-(@1))
                 	SBCI R31,HIGH(-2*@0-(@1))
                 	.ENDM
                 
                 	.MACRO __ADDD1FN
                 	SUBI R30,LOW(-2*@0-(@1))
                 	SBCI R31,HIGH(-2*@0-(@1))
                 	SBCI R22,BYTE3(-2*@0-(@1))
                 	.ENDM
                 
                 	.MACRO __ADDD1N
                 	SUBI R30,LOW(-@0)
                 	SBCI R31,HIGH(-@0)
                 	SBCI R22,BYTE3(-@0)
                 	SBCI R23,BYTE4(-@0)
                 	.ENDM
                 
                 	.MACRO __ADDD2N
                 	SUBI R26,LOW(-@0)
                 	SBCI R27,HIGH(-@0)
                 	SBCI R24,BYTE3(-@0)
                 	SBCI R25,BYTE4(-@0)
                 	.ENDM
                 
                 	.MACRO __SUBD1N
                 	SUBI R30,LOW(@0)
                 	SBCI R31,HIGH(@0)
                 	SBCI R22,BYTE3(@0)
                 	SBCI R23,BYTE4(@0)
                 	.ENDM
                 
                 	.MACRO __SUBD2N
                 	SUBI R26,LOW(@0)
                 	SBCI R27,HIGH(@0)
                 	SBCI R24,BYTE3(@0)
                 	SBCI R25,BYTE4(@0)
                 	.ENDM
                 
                 	.MACRO __ANDBMNN
                 	LDS  R30,@0+(@1)
                 	ANDI R30,LOW(@2)
                 	STS  @0+(@1),R30
                 	.ENDM
                 
                 	.MACRO __ANDWMNN
                 	LDS  R30,@0+(@1)
                 	ANDI R30,LOW(@2)
                 	STS  @0+(@1),R30
                 	LDS  R30,@0+(@1)+1
                 	ANDI R30,HIGH(@2)
                 	STS  @0+(@1)+1,R30
                 	.ENDM
                 
                 	.MACRO __ANDD1N
                 	ANDI R30,LOW(@0)
                 	ANDI R31,HIGH(@0)
                 	ANDI R22,BYTE3(@0)
                 	ANDI R23,BYTE4(@0)
                 	.ENDM
                 
                 	.MACRO __ANDD2N
                 	ANDI R26,LOW(@0)
                 	ANDI R27,HIGH(@0)
                 	ANDI R24,BYTE3(@0)
                 	ANDI R25,BYTE4(@0)
                 	.ENDM
                 
                 	.MACRO __ORBMNN
                 	LDS  R30,@0+(@1)
                 	ORI  R30,LOW(@2)
                 	STS  @0+(@1),R30
                 	.ENDM
                 
                 	.MACRO __ORWMNN
                 	LDS  R30,@0+(@1)
                 	ORI  R30,LOW(@2)
                 	STS  @0+(@1),R30
                 	LDS  R30,@0+(@1)+1
                 	ORI  R30,HIGH(@2)
                 	STS  @0+(@1)+1,R30
                 	.ENDM
                 
                 	.MACRO __ORD1N
                 	ORI  R30,LOW(@0)
                 	ORI  R31,HIGH(@0)
                 	ORI  R22,BYTE3(@0)
                 	ORI  R23,BYTE4(@0)
                 	.ENDM
                 
                 	.MACRO __ORD2N
                 	ORI  R26,LOW(@0)
                 	ORI  R27,HIGH(@0)
                 	ORI  R24,BYTE3(@0)
                 	ORI  R25,BYTE4(@0)
                 	.ENDM
                 
                 	.MACRO __DELAY_USB
                 	LDI  R24,LOW(@0)
                 __DELAY_USB_LOOP:
                 	DEC  R24
                 	BRNE __DELAY_USB_LOOP
                 	.ENDM
                 
                 	.MACRO __DELAY_USW
                 	LDI  R24,LOW(@0)
                 	LDI  R25,HIGH(@0)
                 __DELAY_USW_LOOP:
                 	SBIW R24,1
                 	BRNE __DELAY_USW_LOOP
                 	.ENDM
                 
                 	.MACRO __GETD1S
                 	LDD  R30,Y+@0
                 	LDD  R31,Y+@0+1
                 	LDD  R22,Y+@0+2
                 	LDD  R23,Y+@0+3
                 	.ENDM
                 
                 	.MACRO __GETD2S
                 	LDD  R26,Y+@0
                 	LDD  R27,Y+@0+1
                 	LDD  R24,Y+@0+2
                 	LDD  R25,Y+@0+3
                 	.ENDM
                 
                 	.MACRO __PUTD1S
                 	STD  Y+@0,R30
                 	STD  Y+@0+1,R31
                 	STD  Y+@0+2,R22
                 	STD  Y+@0+3,R23
                 	.ENDM
                 
                 	.MACRO __PUTD2S
                 	STD  Y+@0,R26
                 	STD  Y+@0+1,R27
                 	STD  Y+@0+2,R24
                 	STD  Y+@0+3,R25
                 	.ENDM
                 
                 	.MACRO __PUTDZ2
                 	STD  Z+@0,R26
                 	STD  Z+@0+1,R27
                 	STD  Z+@0+2,R24
                 	STD  Z+@0+3,R25
                 	.ENDM
                 
                 	.MACRO __CLRD1S
                 	STD  Y+@0,R30
                 	STD  Y+@0+1,R30
                 	STD  Y+@0+2,R30
                 	STD  Y+@0+3,R30
                 	.ENDM
                 
                 	.MACRO __POINTB1MN
                 	LDI  R30,LOW(@0+(@1))
                 	.ENDM
                 
                 	.MACRO __POINTW1MN
                 	LDI  R30,LOW(@0+(@1))
                 	LDI  R31,HIGH(@0+(@1))
                 	.ENDM
                 
                 	.MACRO __POINTD1M
                 	LDI  R30,LOW(@0)
                 	LDI  R31,HIGH(@0)
                 	LDI  R22,BYTE3(@0)
                 	LDI  R23,BYTE4(@0)
                 	.ENDM
                 
                 	.MACRO __POINTW1FN
                 	LDI  R30,LOW(2*@0+(@1))
                 	LDI  R31,HIGH(2*@0+(@1))
                 	.ENDM
                 
                 	.MACRO __POINTD1FN
                 	LDI  R30,LOW(2*@0+(@1))
                 	LDI  R31,HIGH(2*@0+(@1))
                 	LDI  R22,BYTE3(2*@0+(@1))
                 	LDI  R23,BYTE4(2*@0+(@1))
                 	.ENDM
                 
                 	.MACRO __POINTB2MN
                 	LDI  R26,LOW(@0+(@1))
                 	.ENDM
                 
                 	.MACRO __POINTW2MN
                 	LDI  R26,LOW(@0+(@1))
                 	LDI  R27,HIGH(@0+(@1))
                 	.ENDM
                 
                 	.MACRO __POINTBRM
                 	LDI  R@0,LOW(@1)
                 	.ENDM
                 
                 	.MACRO __POINTWRM
                 	LDI  R@0,LOW(@2)
                 	LDI  R@1,HIGH(@2)
                 	.ENDM
                 
                 	.MACRO __POINTBRMN
                 	LDI  R@0,LOW(@1+(@2))
                 	.ENDM
                 
                 	.MACRO __POINTWRMN
                 	LDI  R@0,LOW(@2+(@3))
                 	LDI  R@1,HIGH(@2+(@3))
                 	.ENDM
                 
                 	.MACRO __POINTWRFN
                 	LDI  R@0,LOW(@2*2+(@3))
                 	LDI  R@1,HIGH(@2*2+(@3))
                 	.ENDM
                 
                 	.MACRO __GETD1N
                 	LDI  R30,LOW(@0)
                 	LDI  R31,HIGH(@0)
                 	LDI  R22,BYTE3(@0)
                 	LDI  R23,BYTE4(@0)
                 	.ENDM
                 
                 	.MACRO __GETD2N
                 	LDI  R26,LOW(@0)
                 	LDI  R27,HIGH(@0)
                 	LDI  R24,BYTE3(@0)
                 	LDI  R25,BYTE4(@0)
                 	.ENDM
                 
                 	.MACRO __GETB1MN
                 	LDS  R30,@0+(@1)
                 	.ENDM
                 
                 	.MACRO __GETB1HMN
                 	LDS  R31,@0+(@1)
                 	.ENDM
                 
                 	.MACRO __GETW1MN
                 	LDS  R30,@0+(@1)
                 	LDS  R31,@0+(@1)+1
                 	.ENDM
                 
                 	.MACRO __GETD1MN
                 	LDS  R30,@0+(@1)
                 	LDS  R31,@0+(@1)+1
                 	LDS  R22,@0+(@1)+2
                 	LDS  R23,@0+(@1)+3
                 	.ENDM
                 
                 	.MACRO __GETBRMN
                 	LDS  R@0,@1+(@2)
                 	.ENDM
                 
                 	.MACRO __GETWRMN
                 	LDS  R@0,@2+(@3)
                 	LDS  R@1,@2+(@3)+1
                 	.ENDM
                 
                 	.MACRO __GETWRZ
                 	LDD  R@0,Z+@2
                 	LDD  R@1,Z+@2+1
                 	.ENDM
                 
                 	.MACRO __GETD2Z
                 	LDD  R26,Z+@0
                 	LDD  R27,Z+@0+1
                 	LDD  R24,Z+@0+2
                 	LDD  R25,Z+@0+3
                 	.ENDM
                 
                 	.MACRO __GETB2MN
                 	LDS  R26,@0+(@1)
                 	.ENDM
                 
                 	.MACRO __GETW2MN
                 	LDS  R26,@0+(@1)
                 	LDS  R27,@0+(@1)+1
                 	.ENDM
                 
                 	.MACRO __GETD2MN
                 	LDS  R26,@0+(@1)
                 	LDS  R27,@0+(@1)+1
                 	LDS  R24,@0+(@1)+2
                 	LDS  R25,@0+(@1)+3
                 	.ENDM
                 
                 	.MACRO __PUTB1MN
                 	STS  @0+(@1),R30
                 	.ENDM
                 
                 	.MACRO __PUTW1MN
                 	STS  @0+(@1),R30
                 	STS  @0+(@1)+1,R31
                 	.ENDM
                 
                 	.MACRO __PUTD1MN
                 	STS  @0+(@1),R30
                 	STS  @0+(@1)+1,R31
                 	STS  @0+(@1)+2,R22
                 	STS  @0+(@1)+3,R23
                 	.ENDM
                 
                 	.MACRO __PUTB1EN
                 	LDI  R26,LOW(@0+(@1))
                 	LDI  R27,HIGH(@0+(@1))
                 	CALL __EEPROMWRB
                 	.ENDM
                 
                 	.MACRO __PUTW1EN
                 	LDI  R26,LOW(@0+(@1))
                 	LDI  R27,HIGH(@0+(@1))
                 	CALL __EEPROMWRW
                 	.ENDM
                 
                 	.MACRO __PUTD1EN
                 	LDI  R26,LOW(@0+(@1))
                 	LDI  R27,HIGH(@0+(@1))
                 	CALL __EEPROMWRD
                 	.ENDM
                 
                 	.MACRO __PUTBR0MN
                 	STS  @0+(@1),R0
                 	.ENDM
                 
                 	.MACRO __PUTBMRN
                 	STS  @0+(@1),R@2
                 	.ENDM
                 
                 	.MACRO __PUTWMRN
                 	STS  @0+(@1),R@2
                 	STS  @0+(@1)+1,R@3
                 	.ENDM
                 
                 	.MACRO __PUTBZR
                 	STD  Z+@1,R@0
                 	.ENDM
                 
                 	.MACRO __PUTWZR
                 	STD  Z+@2,R@0
                 	STD  Z+@2+1,R@1
                 	.ENDM
                 
                 	.MACRO __GETW1R
                 	MOV  R30,R@0
                 	MOV  R31,R@1
                 	.ENDM
                 
                 	.MACRO __GETW2R
                 	MOV  R26,R@0
                 	MOV  R27,R@1
                 	.ENDM
                 
                 	.MACRO __GETWRN
                 	LDI  R@0,LOW(@2)
                 	LDI  R@1,HIGH(@2)
                 	.ENDM
                 
                 	.MACRO __PUTW1R
                 	MOV  R@0,R30
                 	MOV  R@1,R31
                 	.ENDM
                 
                 	.MACRO __PUTW2R
                 	MOV  R@0,R26
                 	MOV  R@1,R27
                 	.ENDM
                 
                 	.MACRO __ADDWRN
                 	SUBI R@0,LOW(-@2)
                 	SBCI R@1,HIGH(-@2)
                 	.ENDM
                 
                 	.MACRO __ADDWRR
                 	ADD  R@0,R@2
                 	ADC  R@1,R@3
                 	.ENDM
                 
                 	.MACRO __SUBWRN
                 	SUBI R@0,LOW(@2)
                 	SBCI R@1,HIGH(@2)
                 	.ENDM
                 
                 	.MACRO __SUBWRR
                 	SUB  R@0,R@2
                 	SBC  R@1,R@3
                 	.ENDM
                 
                 	.MACRO __ANDWRN
                 	ANDI R@0,LOW(@2)
                 	ANDI R@1,HIGH(@2)
                 	.ENDM
                 
                 	.MACRO __ANDWRR
                 	AND  R@0,R@2
                 	AND  R@1,R@3
                 	.ENDM
                 
                 	.MACRO __ORWRN
                 	ORI  R@0,LOW(@2)
                 	ORI  R@1,HIGH(@2)
                 	.ENDM
                 
                 	.MACRO __ORWRR
                 	OR   R@0,R@2
                 	OR   R@1,R@3
                 	.ENDM
                 
                 	.MACRO __EORWRR
                 	EOR  R@0,R@2
                 	EOR  R@1,R@3
                 	.ENDM
                 
                 	.MACRO __GETWRS
                 	LDD  R@0,Y+@2
                 	LDD  R@1,Y+@2+1
                 	.ENDM
                 
                 	.MACRO __PUTBSR
                 	STD  Y+@1,R@0
                 	.ENDM
                 
                 	.MACRO __PUTWSR
                 	STD  Y+@2,R@0
                 	STD  Y+@2+1,R@1
                 	.ENDM
                 
                 	.MACRO __MOVEWRR
                 	MOV  R@0,R@2
                 	MOV  R@1,R@3
                 	.ENDM
                 
                 	.MACRO __INWR
                 	IN   R@0,@2
                 	IN   R@1,@2+1
                 	.ENDM
                 
                 	.MACRO __OUTWR
                 	OUT  @2+1,R@1
                 	OUT  @2,R@0
                 	.ENDM
                 
                 	.MACRO __CALL1MN
                 	LDS  R30,@0+(@1)
                 	LDS  R31,@0+(@1)+1
                 	ICALL
                 	.ENDM
                 
                 	.MACRO __CALL1FN
                 	LDI  R30,LOW(2*@0+(@1))
                 	LDI  R31,HIGH(2*@0+(@1))
                 	CALL __GETW1PF
                 	ICALL
                 	.ENDM
                 
                 	.MACRO __CALL2EN
                 	LDI  R26,LOW(@0+(@1))
                 	LDI  R27,HIGH(@0+(@1))
                 	CALL __EEPROMRDW
                 	ICALL
                 	.ENDM
                 
                 	.MACRO __GETW1STACK
                 	IN   R26,SPL
                 	IN   R27,SPH
                 	ADIW R26,@0+1
                 	LD   R30,X+
                 	LD   R31,X
                 	.ENDM
                 
                 	.MACRO __GETD1STACK
                 	IN   R26,SPL
                 	IN   R27,SPH
                 	ADIW R26,@0+1
                 	LD   R30,X+
                 	LD   R31,X+
                 	LD   R22,X
                 	.ENDM
                 
                 	.MACRO __NBST
                 	BST  R@0,@1
                 	IN   R30,SREG
                 	LDI  R31,0x40
                 	EOR  R30,R31
                 	OUT  SREG,R30
                 	.ENDM
                 
                 
                 	.MACRO __PUTB1SN
                 	LDD  R26,Y+@0
                 	LDD  R27,Y+@0+1
                 	SUBI R26,LOW(-@1)
                 	SBCI R27,HIGH(-@1)
                 	ST   X,R30
                 	.ENDM
                 
                 	.MACRO __PUTW1SN
                 	LDD  R26,Y+@0
                 	LDD  R27,Y+@0+1
                 	SUBI R26,LOW(-@1)
                 	SBCI R27,HIGH(-@1)
                 	ST   X+,R30
                 	ST   X,R31
                 	.ENDM
                 
                 	.MACRO __PUTD1SN
                 	LDD  R26,Y+@0
                 	LDD  R27,Y+@0+1
                 	SUBI R26,LOW(-@1)
                 	SBCI R27,HIGH(-@1)
                 	CALL __PUTDP1
                 	.ENDM
                 
                 	.MACRO __PUTB1SNS
                 	LDD  R26,Y+@0
                 	LDD  R27,Y+@0+1
                 	ADIW R26,@1
                 	ST   X,R30
                 	.ENDM
                 
                 	.MACRO __PUTW1SNS
                 	LDD  R26,Y+@0
                 	LDD  R27,Y+@0+1
                 	ADIW R26,@1
                 	ST   X+,R30
                 	ST   X,R31
                 	.ENDM
                 
                 	.MACRO __PUTD1SNS
                 	LDD  R26,Y+@0
                 	LDD  R27,Y+@0+1
                 	ADIW R26,@1
                 	CALL __PUTDP1
                 	.ENDM
                 
                 	.MACRO __PUTB1PMN
                 	LDS  R26,@0
                 	LDS  R27,@0+1
                 	SUBI R26,LOW(-@1)
                 	SBCI R27,HIGH(-@1)
                 	ST   X,R30
                 	.ENDM
                 
                 	.MACRO __PUTW1PMN
                 	LDS  R26,@0
                 	LDS  R27,@0+1
                 	SUBI R26,LOW(-@1)
                 	SBCI R27,HIGH(-@1)
                 	ST   X+,R30
                 	ST   X,R31
                 	.ENDM
                 
                 	.MACRO __PUTD1PMN
                 	LDS  R26,@0
                 	LDS  R27,@0+1
                 	SUBI R26,LOW(-@1)
                 	SBCI R27,HIGH(-@1)
                 	CALL __PUTDP1
                 	.ENDM
                 
                 	.MACRO __PUTB1PMNS
                 	LDS  R26,@0
                 	LDS  R27,@0+1
                 	ADIW R26,@1
                 	ST   X,R30
                 	.ENDM
                 
                 	.MACRO __PUTW1PMNS
                 	LDS  R26,@0
                 	LDS  R27,@0+1
                 	ADIW R26,@1
                 	ST   X+,R30
                 	ST   X,R31
                 	.ENDM
                 
                 	.MACRO __PUTD1PMNS
                 	LDS  R26,@0
                 	LDS  R27,@0+1
                 	ADIW R26,@1
                 	CALL __PUTDP1
                 	.ENDM
                 
                 	.MACRO __PUTB1RN
                 	MOVW R26,R@0
                 	SUBI R26,LOW(-@1)
                 	SBCI R27,HIGH(-@1)
                 	ST   X,R30
                 	.ENDM
                 
                 	.MACRO __PUTW1RN
                 	MOVW R26,R@0
                 	SUBI R26,LOW(-@1)
                 	SBCI R27,HIGH(-@1)
                 	ST   X+,R30
                 	ST   X,R31
                 	.ENDM
                 
                 	.MACRO __PUTD1RN
                 	MOVW R26,R@0
                 	SUBI R26,LOW(-@1)
                 	SBCI R27,HIGH(-@1)
                 	CALL __PUTDP1
                 	.ENDM
                 
                 	.MACRO __PUTB1RNS
                 	MOVW R26,R@0
                 	ADIW R26,@1
                 	ST   X,R30
                 	.ENDM
                 
                 	.MACRO __PUTW1RNS
                 	MOVW R26,R@0
                 	ADIW R26,@1
                 	ST   X+,R30
                 	ST   X,R31
                 	.ENDM
                 
                 	.MACRO __PUTD1RNS
                 	MOVW R26,R@0
                 	ADIW R26,@1
                 	CALL __PUTDP1
                 	.ENDM
                 
                 	.MACRO __PUTB1RON
                 	MOV  R26,R@0
                 	MOV  R27,R@1
                 	SUBI R26,LOW(-@2)
                 	SBCI R27,HIGH(-@2)
                 	ST   X,R30
                 	.ENDM
                 
                 	.MACRO __PUTW1RON
                 	MOV  R26,R@0
                 	MOV  R27,R@1
                 	SUBI R26,LOW(-@2)
                 	SBCI R27,HIGH(-@2)
                 	ST   X+,R30
                 	ST   X,R31
                 	.ENDM
                 
                 	.MACRO __PUTD1RON
                 	MOV  R26,R@0
                 	MOV  R27,R@1
                 	SUBI R26,LOW(-@2)
                 	SBCI R27,HIGH(-@2)
                 	CALL __PUTDP1
                 	.ENDM
                 
                 	.MACRO __PUTB1RONS
                 	MOV  R26,R@0
                 	MOV  R27,R@1
                 	ADIW R26,@2
                 	ST   X,R30
                 	.ENDM
                 
                 	.MACRO __PUTW1RONS
                 	MOV  R26,R@0
                 	MOV  R27,R@1
                 	ADIW R26,@2
                 	ST   X+,R30
                 	ST   X,R31
                 	.ENDM
                 
                 	.MACRO __PUTD1RONS
                 	MOV  R26,R@0
                 	MOV  R27,R@1
                 	ADIW R26,@2
                 	CALL __PUTDP1
                 	.ENDM
                 
                 
                 	.MACRO __GETB1SX
                 	MOVW R30,R28
                 	SUBI R30,LOW(-@0)
                 	SBCI R31,HIGH(-@0)
                 	LD   R30,Z
                 	.ENDM
                 
                 	.MACRO __GETB1HSX
                 	MOVW R30,R28
                 	SUBI R30,LOW(-@0)
                 	SBCI R31,HIGH(-@0)
                 	LD   R31,Z
                 	.ENDM
                 
                 	.MACRO __GETW1SX
                 	MOVW R30,R28
                 	SUBI R30,LOW(-@0)
                 	SBCI R31,HIGH(-@0)
                 	LD   R0,Z+
                 	LD   R31,Z
                 	MOV  R30,R0
                 	.ENDM
                 
                 	.MACRO __GETD1SX
                 	MOVW R30,R28
                 	SUBI R30,LOW(-@0)
                 	SBCI R31,HIGH(-@0)
                 	LD   R0,Z+
                 	LD   R1,Z+
                 	LD   R22,Z+
                 	LD   R23,Z
                 	MOVW R30,R0
                 	.ENDM
                 
                 	.MACRO __GETB2SX
                 	MOVW R26,R28
                 	SUBI R26,LOW(-@0)
                 	SBCI R27,HIGH(-@0)
                 	LD   R26,X
                 	.ENDM
                 
                 	.MACRO __GETW2SX
                 	MOVW R26,R28
                 	SUBI R26,LOW(-@0)
                 	SBCI R27,HIGH(-@0)
                 	LD   R0,X+
                 	LD   R27,X
                 	MOV  R26,R0
                 	.ENDM
                 
                 	.MACRO __GETD2SX
                 	MOVW R26,R28
                 	SUBI R26,LOW(-@0)
                 	SBCI R27,HIGH(-@0)
                 	LD   R0,X+
                 	LD   R1,X+
                 	LD   R24,X+
                 	LD   R25,X
                 	MOVW R26,R0
                 	.ENDM
                 
                 	.MACRO __GETBRSX
                 	MOVW R30,R28
                 	SUBI R30,LOW(-@1)
                 	SBCI R31,HIGH(-@1)
                 	LD   R@0,Z
                 	.ENDM
                 
                 	.MACRO __GETWRSX
                 	MOVW R30,R28
                 	SUBI R30,LOW(-@2)
                 	SBCI R31,HIGH(-@2)
                 	LD   R@0,Z+
                 	LD   R@1,Z
                 	.ENDM
                 
                 	.MACRO __GETBRSX2
                 	MOVW R26,R28
                 	SUBI R26,LOW(-@1)
                 	SBCI R27,HIGH(-@1)
                 	LD   R@0,X
                 	.ENDM
                 
                 	.MACRO __GETWRSX2
                 	MOVW R26,R28
                 	SUBI R26,LOW(-@2)
                 	SBCI R27,HIGH(-@2)
                 	LD   R@0,X+
                 	LD   R@1,X
                 	.ENDM
                 
                 	.MACRO __LSLW8SX
                 	MOVW R30,R28
                 	SUBI R30,LOW(-@0)
                 	SBCI R31,HIGH(-@0)
                 	LD   R31,Z
                 	CLR  R30
                 	.ENDM
                 
                 	.MACRO __PUTB1SX
                 	MOVW R26,R28
                 	SUBI R26,LOW(-@0)
                 	SBCI R27,HIGH(-@0)
                 	ST   X,R30
                 	.ENDM
                 
                 	.MACRO __PUTW1SX
                 	MOVW R26,R28
                 	SUBI R26,LOW(-@0)
                 	SBCI R27,HIGH(-@0)
                 	ST   X+,R30
                 	ST   X,R31
                 	.ENDM
                 
                 	.MACRO __PUTD1SX
                 	MOVW R26,R28
                 	SUBI R26,LOW(-@0)
                 	SBCI R27,HIGH(-@0)
                 	ST   X+,R30
                 	ST   X+,R31
                 	ST   X+,R22
                 	ST   X,R23
                 	.ENDM
                 
                 	.MACRO __CLRW1SX
                 	MOVW R26,R28
                 	SUBI R26,LOW(-@0)
                 	SBCI R27,HIGH(-@0)
                 	ST   X+,R30
                 	ST   X,R30
                 	.ENDM
                 
                 	.MACRO __CLRD1SX
                 	MOVW R26,R28
                 	SUBI R26,LOW(-@0)
                 	SBCI R27,HIGH(-@0)
                 	ST   X+,R30
                 	ST   X+,R30
                 	ST   X+,R30
                 	ST   X,R30
                 	.ENDM
                 
                 	.MACRO __PUTB2SX
                 	MOVW R30,R28
                 	SUBI R30,LOW(-@0)
                 	SBCI R31,HIGH(-@0)
                 	ST   Z,R26
                 	.ENDM
                 
                 	.MACRO __PUTW2SX
                 	MOVW R30,R28
                 	SUBI R30,LOW(-@0)
                 	SBCI R31,HIGH(-@0)
                 	ST   Z+,R26
                 	ST   Z,R27
                 	.ENDM
                 
                 	.MACRO __PUTD2SX
                 	MOVW R30,R28
                 	SUBI R30,LOW(-@0)
                 	SBCI R31,HIGH(-@0)
                 	ST   Z+,R26
                 	ST   Z+,R27
                 	ST   Z+,R24
                 	ST   Z,R25
                 	.ENDM
                 
                 	.MACRO __PUTBSRX
                 	MOVW R30,R28
                 	SUBI R30,LOW(-@1)
                 	SBCI R31,HIGH(-@1)
                 	ST   Z,R@0
                 	.ENDM
                 
                 	.MACRO __PUTWSRX
                 	MOVW R30,R28
                 	SUBI R30,LOW(-@2)
                 	SBCI R31,HIGH(-@2)
                 	ST   Z+,R@0
                 	ST   Z,R@1
                 	.ENDM
                 
                 	.MACRO __PUTB1SNX
                 	MOVW R26,R28
                 	SUBI R26,LOW(-@0)
                 	SBCI R27,HIGH(-@0)
                 	LD   R0,X+
                 	LD   R27,X
                 	MOV  R26,R0
                 	SUBI R26,LOW(-@1)
                 	SBCI R27,HIGH(-@1)
                 	ST   X,R30
                 	.ENDM
                 
                 	.MACRO __PUTW1SNX
                 	MOVW R26,R28
                 	SUBI R26,LOW(-@0)
                 	SBCI R27,HIGH(-@0)
                 	LD   R0,X+
                 	LD   R27,X
                 	MOV  R26,R0
                 	SUBI R26,LOW(-@1)
                 	SBCI R27,HIGH(-@1)
                 	ST   X+,R30
                 	ST   X,R31
                 	.ENDM
                 
                 	.MACRO __PUTD1SNX
                 	MOVW R26,R28
                 	SUBI R26,LOW(-@0)
                 	SBCI R27,HIGH(-@0)
                 	LD   R0,X+
                 	LD   R27,X
                 	MOV  R26,R0
                 	SUBI R26,LOW(-@1)
                 	SBCI R27,HIGH(-@1)
                 	ST   X+,R30
                 	ST   X+,R31
                 	ST   X+,R22
                 	ST   X,R23
                 	.ENDM
                 
                 	.MACRO __MULBRR
                 	MULS R@0,R@1
                 	MOVW R30,R0
                 	.ENDM
                 
                 	.MACRO __MULBRRU
                 	MUL  R@0,R@1
                 	MOVW R30,R0
                 	.ENDM
                 
                 	.MACRO __MULBRR0
                 	MULS R@0,R@1
                 	.ENDM
                 
                 	.MACRO __MULBRRU0
                 	MUL  R@0,R@1
                 	.ENDM
                 
                 	.MACRO __MULBNWRU
                 	LDI  R26,@2
                 	MUL  R26,R@0
                 	MOVW R30,R0
                 	MUL  R26,R@1
                 	ADD  R31,R0
                 	.ENDM
                 
                 ;NAME DEFINITIONS FOR GLOBAL VARIABLES ALLOCATED TO REGISTERS
                 	.DEF _i_txt_glcd=R4
                 	.DEF _i_txt_overflow=R3
                 	.DEF _rx_wr_index0=R6
                 	.DEF _rx_rd_index0=R5
                 	.DEF _rx_counter0=R8
                 	.DEF _ruta=R7
                 	.DEF _ruta_aux=R10
                 	.DEF _bandera1=R9
                 	.DEF _bandera2=R12
                 	.DEF _bandera3=R11
                 	.DEF _bandera4=R14
                 	.DEF _bandera5=R13
                 
                 	.CSEG
                 	.ORG 0x00
                 
                 ;INTERRUPT VECTORS
000000 940c 17bd 	JMP  __RESET
000002 940c 0000 	JMP  0x00
000004 940c 0000 	JMP  0x00
000006 940c 0000 	JMP  0x00
000008 940c 0000 	JMP  0x00
00000a 940c 0000 	JMP  0x00
00000c 940c 0000 	JMP  0x00
00000e 940c 0000 	JMP  0x00
000010 940c 0000 	JMP  0x00
000012 940c 0000 	JMP  0x00
000014 940c 0000 	JMP  0x00
000016 940c 0000 	JMP  0x00
000018 940c 0000 	JMP  0x00
00001a 940c 0000 	JMP  0x00
00001c 940c 0000 	JMP  0x00
00001e 940c 0000 	JMP  0x00
000020 940c 0000 	JMP  0x00
000022 940c 0000 	JMP  0x00
000024 940c 1ae2 	JMP  _timer0_ovf_isr
000026 940c 0000 	JMP  0x00
000028 940c 1ab7 	JMP  _usart0_rx_isr
00002a 940c 0000 	JMP  0x00
00002c 940c 0000 	JMP  0x00
00002e 940c 0000 	JMP  0x00
000030 940c 0000 	JMP  0x00
000032 940c 0000 	JMP  0x00
000034 940c 0000 	JMP  0x00
000036 940c 0000 	JMP  0x00
000038 940c 0000 	JMP  0x00
00003a 940c 0000 	JMP  0x00
00003c 940c 0000 	JMP  0x00
                 
                 _font:
00003e 0000
00003f 0000
000040 0000
000041 0000      	.DB  0x0,0x0,0x0,0x0,0x0,0x0,0x0,0x0
000042 0000
000043 0000
000044 0000
000045 0000      	.DB  0x0,0x0,0x0,0x0,0x0,0x0,0x0,0x0
000046 0000
000047 0000
000048 0000
000049 0000      	.DB  0x0,0x0,0x0,0x0,0x0,0x0,0x0,0x0
00004a 0000
00004b 0000
00004c 0000
00004d 0000      	.DB  0x0,0x0,0x0,0x0,0x0,0x0,0x0,0x0
00004e 0000
00004f 0000
000050 0000
000051 0000      	.DB  0x0,0x0,0x0,0x0,0x0,0x0,0x0,0x0
000052 0000
000053 0000
000054 0000
000055 0000      	.DB  0x0,0x0,0x0,0x0,0x0,0x0,0x0,0x0
000056 0000
000057 0000
000058 0000
000059 0000      	.DB  0x0,0x0,0x0,0x0,0x0,0x0,0x0,0x0
00005a 0000
00005b 0000
00005c 0000
00005d 0000      	.DB  0x0,0x0,0x0,0x0,0x0,0x0,0x0,0x0
00005e 0000
00005f 0000
000060 0000
000061 0000      	.DB  0x0,0x0,0x0,0x0,0x0,0x0,0x0,0x0
000062 0000
000063 0000
000064 0000
000065 0000      	.DB  0x0,0x0,0x0,0x0,0x0,0x0,0x0,0x0
000066 0000
000067 0000
000068 0000
000069 0000      	.DB  0x0,0x0,0x0,0x0,0x0,0x0,0x0,0x0
00006a 0000
00006b 0000
00006c 0000
00006d 0000      	.DB  0x0,0x0,0x0,0x0,0x0,0x0,0x0,0x0
00006e 0000
00006f 0000
000070 0000
000071 0000      	.DB  0x0,0x0,0x0,0x0,0x0,0x0,0x0,0x0
000072 0000
000073 0000
000074 0000
000075 0000      	.DB  0x0,0x0,0x0,0x0,0x0,0x0,0x0,0x0
000076 0000
000077 0000
000078 0000
000079 0000      	.DB  0x0,0x0,0x0,0x0,0x0,0x0,0x0,0x0
00007a 0000
00007b 0000
00007c 0000
00007d 0000      	.DB  0x0,0x0,0x0,0x0,0x0,0x0,0x0,0x0
00007e 0000
00007f 0000
000080 0000
000081 0000      	.DB  0x0,0x0,0x0,0x0,0x0,0x0,0x0,0x0
000082 0000
000083 0000
000084 0000
000085 0000      	.DB  0x0,0x0,0x0,0x0,0x0,0x0,0x0,0x0
000086 0000
000087 0000
000088 0000
000089 0000      	.DB  0x0,0x0,0x0,0x0,0x0,0x0,0x0,0x0
00008a 0000
00008b 0000
00008c 0000
00008d 0000      	.DB  0x0,0x0,0x0,0x0,0x0,0x0,0x0,0x0
00008e 0000
00008f 0000
000090 0000
000091 0000      	.DB  0x0,0x0,0x0,0x0,0x0,0x0,0x0,0x0
000092 0000
000093 0000
000094 0000
000095 0000      	.DB  0x0,0x0,0x0,0x0,0x0,0x0,0x0,0x0
000096 0000
000097 0000
000098 0000
000099 0000      	.DB  0x0,0x0,0x0,0x0,0x0,0x0,0x0,0x0
00009a 0000
00009b 0000
00009c 0000
00009d 0000      	.DB  0x0,0x0,0x0,0x0,0x0,0x0,0x0,0x0
00009e 0000
00009f 0000
0000a0 0000
0000a1 0000      	.DB  0x0,0x0,0x0,0x0,0x0,0x0,0x0,0x0
0000a2 0000
0000a3 0000
0000a4 0000
0000a5 0000      	.DB  0x0,0x0,0x0,0x0,0x0,0x0,0x0,0x0
0000a6 0000
0000a7 0000
0000a8 0000
0000a9 0000      	.DB  0x0,0x0,0x0,0x0,0x0,0x0,0x0,0x0
0000aa 0000
0000ab 0000
0000ac 0000
0000ad 0000      	.DB  0x0,0x0,0x0,0x0,0x0,0x0,0x0,0x0
0000ae 0000
0000af 0000
0000b0 0000
0000b1 0000      	.DB  0x0,0x0,0x0,0x0,0x0,0x0,0x0,0x0
0000b2 0000
0000b3 0000
0000b4 0000
0000b5 0000      	.DB  0x0,0x0,0x0,0x0,0x0,0x0,0x0,0x0
0000b6 0000
0000b7 0000
0000b8 0000
0000b9 0000      	.DB  0x0,0x0,0x0,0x0,0x0,0x0,0x0,0x0
0000ba 0000
0000bb 0000
0000bc 0000
0000bd 0000      	.DB  0x0,0x0,0x0,0x0,0x0,0x0,0x0,0x0
0000be 0000
0000bf 0000
0000c0 0000
0000c1 0000      	.DB  0x0,0x0,0x0,0x0,0x0,0x0,0x0,0x0
0000c2 0000
0000c3 004f
0000c4 0000
0000c5 0000      	.DB  0x0,0x0,0x4F,0x0,0x0,0x0,0x0,0x0
0000c6 0700
0000c7 0700
0000c8 0000
0000c9 0000      	.DB  0x0,0x7,0x0,0x7,0x0,0x0,0x0,0x0
0000ca 2400
0000cb 24ff
0000cc 24ff
0000cd 0000      	.DB  0x0,0x24,0xFF,0x24,0xFF,0x24,0x0,0x0
0000ce 4400
0000cf ff4a
0000d0 324a
0000d1 0000      	.DB  0x0,0x44,0x4A,0xFF,0x4A,0x32,0x0,0x0
0000d2 2340
0000d3 0813
0000d4 c2c4
0000d5 0000      	.DB  0x40,0x23,0x13,0x8,0xC4,0xC2,0x0,0x0
0000d6 3600
0000d7 5549
0000d8 4022
0000d9 0080      	.DB  0x0,0x36,0x49,0x55,0x22,0x40,0x80,0x0
0000da 0000
0000db 0305
0000dc 0000
0000dd 0000      	.DB  0x0,0x0,0x5,0x3,0x0,0x0,0x0,0x0
0000de 3c00
0000df 8142
0000e0 0000
0000e1 0000      	.DB  0x0,0x3C,0x42,0x81,0x0,0x0,0x0,0x0
0000e2 8100
0000e3 3c42
0000e4 0000
0000e5 0000      	.DB  0x0,0x81,0x42,0x3C,0x0,0x0,0x0,0x0
0000e6 1400
0000e7 3e08
0000e8 1408
0000e9 0000      	.DB  0x0,0x14,0x8,0x3E,0x8,0x14,0x0,0x0
0000ea 1000
0000eb 7c10
0000ec 1010
0000ed 0000      	.DB  0x0,0x10,0x10,0x7C,0x10,0x10,0x0,0x0
0000ee 0000
0000ef 1828
0000f0 0000
0000f1 0000      	.DB  0x0,0x0,0x28,0x18,0x0,0x0,0x0,0x0
0000f2 0800
0000f3 0808
0000f4 0808
0000f5 0008      	.DB  0x0,0x8,0x8,0x8,0x8,0x8,0x8,0x0
0000f6 6000
0000f7 0060
0000f8 0000
0000f9 0000      	.DB  0x0,0x60,0x60,0x0,0x0,0x0,0x0,0x0
0000fa 2040
0000fb 0810
0000fc 0204
0000fd 0000      	.DB  0x40,0x20,0x10,0x8,0x4,0x2,0x0,0x0
0000fe 7e00
0000ff 81ff
000100 ff81
000101 007e      	.DB  0x0,0x7E,0xFF,0x81,0x81,0xFF,0x7E,0x0
000102 8000
000103 fe82
000104 80ff
000105 0080      	.DB  0x0,0x80,0x82,0xFE,0xFF,0x80,0x80,0x0
000106 e200
000107 91f1
000108 9f91
000109 008e      	.DB  0x0,0xE2,0xF1,0x91,0x91,0x9F,0x8E,0x0
00010a 6200
00010b c9c3
00010c ffc9
00010d 0076      	.DB  0x0,0x62,0xC3,0xC9,0xC9,0xFF,0x76,0x0
00010e 1800
00010f 1214
000110 ffff
000111 0010      	.DB  0x0,0x18,0x14,0x12,0xFF,0xFF,0x10,0x0
000112 6f00
000113 898f
000114 f989
000115 0071      	.DB  0x0,0x6F,0x8F,0x89,0x89,0xF9,0x71,0x0
000116 7e00
000117 89ff
000118 f989
000119 0072      	.DB  0x0,0x7E,0xFF,0x89,0x89,0xF9,0x72,0x0
00011a 0100
00011b f101
00011c 07fd
00011d 0003      	.DB  0x0,0x1,0x1,0xF1,0xFD,0x7,0x3,0x0
00011e 7600
00011f 89ff
000120 ff89
000121 0076      	.DB  0x0,0x76,0xFF,0x89,0x89,0xFF,0x76,0x0
000122 4600
000123 898f
000124 ff89
000125 007e      	.DB  0x0,0x46,0x8F,0x89,0x89,0xFF,0x7E,0x0
000126 0000
000127 6666
000128 0000
000129 0000      	.DB  0x0,0x0,0x66,0x66,0x0,0x0,0x0,0x0
00012a 0000
00012b 3656
00012c 0000
00012d 0000      	.DB  0x0,0x0,0x56,0x36,0x0,0x0,0x0,0x0
00012e 0800
00012f 2214
000130 0041
000131 0000      	.DB  0x0,0x8,0x14,0x22,0x41,0x0,0x0,0x0
000132 2400
000133 2424
000134 2424
000135 0000      	.DB  0x0,0x24,0x24,0x24,0x24,0x24,0x0,0x0
000136 0000
000137 2241
000138 0814
000139 0000      	.DB  0x0,0x0,0x41,0x22,0x14,0x8,0x0,0x0
00013a 0200
00013b b101
00013c 0609
00013d 0000      	.DB  0x0,0x2,0x1,0xB1,0x9,0x6,0x0,0x0
00013e 6200
00013f f191
000140 7e81
000141 0000      	.DB  0x0,0x62,0x91,0xF1,0x81,0x7E,0x0,0x0
000142 fe00
000143 1111
000144 fe11
000145 0000      	.DB  0x0,0xFE,0x11,0x11,0x11,0xFE,0x0,0x0
000146 ff00
000147 8989
000148 7689
000149 0000      	.DB  0x0,0xFF,0x89,0x89,0x89,0x76,0x0,0x0
00014a 7e00
00014b 8181
00014c 4281
00014d 0000      	.DB  0x0,0x7E,0x81,0x81,0x81,0x42,0x0,0x0
00014e ff00
00014f 8181
000150 3c42
000151 0000      	.DB  0x0,0xFF,0x81,0x81,0x42,0x3C,0x0,0x0
000152 ff00
000153 8989
000154 8189
000155 0000      	.DB  0x0,0xFF,0x89,0x89,0x89,0x81,0x0,0x0
000156 ff00
000157 0909
000158 0109
000159 0000      	.DB  0x0,0xFF,0x9,0x9,0x9,0x1,0x0,0x0
00015a 7e00
00015b 9181
00015c 7291
00015d 0000      	.DB  0x0,0x7E,0x81,0x91,0x91,0x72,0x0,0x0
00015e ff00
00015f 1010
000160 ff10
000161 0000      	.DB  0x0,0xFF,0x10,0x10,0x10,0xFF,0x0,0x0
000162 0000
000163 ff81
000164 0081
000165 0000      	.DB  0x0,0x0,0x81,0xFF,0x81,0x0,0x0,0x0
000166 4000
000167 8180
000168 017f
000169 0000      	.DB  0x0,0x40,0x80,0x81,0x7F,0x1,0x0,0x0
00016a ff00
00016b 2418
00016c 8142
00016d 0000      	.DB  0x0,0xFF,0x18,0x24,0x42,0x81,0x0,0x0
00016e ff00
00016f 8080
000170 8080
000171 0000      	.DB  0x0,0xFF,0x80,0x80,0x80,0x80,0x0,0x0
000172 ff00
000173 0c02
000174 ff02
000175 0000      	.DB  0x0,0xFF,0x2,0xC,0x2,0xFF,0x0,0x0
000176 ff00
000177 0804
000178 ff10
000179 0000      	.DB  0x0,0xFF,0x4,0x8,0x10,0xFF,0x0,0x0
00017a 7e00
00017b 8181
00017c 7e81
00017d 0000      	.DB  0x0,0x7E,0x81,0x81,0x81,0x7E,0x0,0x0
00017e ff00
00017f 1111
000180 0e11
000181 0000      	.DB  0x0,0xFF,0x11,0x11,0x11,0xE,0x0,0x0
000182 817e
000183 41a1
000184 00be
000185 0000      	.DB  0x7E,0x81,0xA1,0x41,0xBE,0x0,0x0,0x0
000186 ff00
000187 3111
000188 8e51
000189 0000      	.DB  0x0,0xFF,0x11,0x31,0x51,0x8E,0x0,0x0
00018a 8600
00018b 8989
00018c 7189
00018d 0000      	.DB  0x0,0x86,0x89,0x89,0x89,0x71,0x0,0x0
00018e 0100
00018f ff01
000190 0101
000191 0000      	.DB  0x0,0x1,0x1,0xFF,0x1,0x1,0x0,0x0
000192 7f00
000193 8080
000194 7f80
000195 0000      	.DB  0x0,0x7F,0x80,0x80,0x80,0x7F,0x0,0x0
000196 3f00
000197 8040
000198 3f40
000199 0000      	.DB  0x0,0x3F,0x40,0x80,0x40,0x3F,0x0,0x0
00019a 3f00
00019b 60c0
00019c 3fc0
00019d 0000      	.DB  0x0,0x3F,0xC0,0x60,0xC0,0x3F,0x0,0x0
00019e e300
00019f 0814
0001a0 e314
0001a1 0000      	.DB  0x0,0xE3,0x14,0x8,0x14,0xE3,0x0,0x0
0001a2 0700
0001a3 f008
0001a4 0708
0001a5 0000      	.DB  0x0,0x7,0x8,0xF0,0x8,0x7,0x0,0x0
0001a6 c100
0001a7 91a1
0001a8 8789
0001a9 0000      	.DB  0x0,0xC1,0xA1,0x91,0x89,0x87,0x0,0x0
0001aa ff00
0001ab 8181
0001ac 0000
0001ad 0000      	.DB  0x0,0xFF,0x81,0x81,0x0,0x0,0x0,0x0
0001ae 1500
0001af 7c16
0001b0 1516
0001b1 0000      	.DB  0x0,0x15,0x16,0x7C,0x16,0x15,0x0,0x0
0001b2 4100
0001b3 7f41
0001b4 0000
0001b5 0000      	.DB  0x0,0x41,0x41,0x7F,0x0,0x0,0x0,0x0
0001b6 0400
0001b7 0102
0001b8 0402
0001b9 0000      	.DB  0x0,0x4,0x2,0x1,0x2,0x4,0x0,0x0
0001ba 4000
0001bb 4040
0001bc 4040
0001bd 0000      	.DB  0x0,0x40,0x40,0x40,0x40,0x40,0x0,0x0
0001be 0100
0001bf 0402
0001c0 0000
0001c1 0000      	.DB  0x0,0x1,0x2,0x4,0x0,0x0,0x0,0x0
0001c2 6000
0001c3 9494
0001c4 7894
0001c5 0000      	.DB  0x0,0x60,0x94,0x94,0x94,0x78,0x0,0x0
0001c6 ff00
0001c7 8888
0001c8 7088
0001c9 0000      	.DB  0x0,0xFF,0x88,0x88,0x88,0x70,0x0,0x0
0001ca 7800
0001cb 8484
0001cc 0084
0001cd 0000      	.DB  0x0,0x78,0x84,0x84,0x84,0x0,0x0,0x0
0001ce 7800
0001cf 8484
0001d0 7f88
0001d1 0000      	.DB  0x0,0x78,0x84,0x84,0x88,0x7F,0x0,0x0
0001d2 7800
0001d3 9494
0001d4 5894
0001d5 0000      	.DB  0x0,0x78,0x94,0x94,0x94,0x58,0x0,0x0
0001d6 1000
0001d7 11fe
0001d8 0201
0001d9 0000      	.DB  0x0,0x10,0xFE,0x11,0x1,0x2,0x0,0x0
0001da 0c00
0001db 9292
0001dc 7e92
0001dd 0000      	.DB  0x0,0xC,0x92,0x92,0x92,0x7E,0x0,0x0
0001de ff00
0001df 0810
0001e0 f008
0001e1 0000      	.DB  0x0,0xFF,0x10,0x8,0x8,0xF0,0x0,0x0
0001e2 0000
0001e3 fd84
0001e4 0080
0001e5 0000      	.DB  0x0,0x0,0x84,0xFD,0x80,0x0,0x0,0x0
0001e6 6000
0001e7 8080
0001e8 007d
0001e9 0000      	.DB  0x0,0x60,0x80,0x80,0x7D,0x0,0x0,0x0
0001ea ff00
0001eb 4830
0001ec 0084
0001ed 0000      	.DB  0x0,0xFF,0x30,0x48,0x84,0x0,0x0,0x0
0001ee 0000
0001ef ff81
0001f0 0080
0001f1 0000      	.DB  0x0,0x0,0x81,0xFF,0x80,0x0,0x0,0x0
0001f2 fc00
0001f3 3804
0001f4 f804
0001f5 0000      	.DB  0x0,0xFC,0x4,0x38,0x4,0xF8,0x0,0x0
0001f6 fc00
0001f7 0408
0001f8 f804
0001f9 0000      	.DB  0x0,0xFC,0x8,0x4,0x4,0xF8,0x0,0x0
0001fa 7800
0001fb 8484
0001fc 7884
0001fd 0000      	.DB  0x0,0x78,0x84,0x84,0x84,0x78,0x0,0x0
0001fe fc00
0001ff 1414
000200 0814
000201 0000      	.DB  0x0,0xFC,0x14,0x14,0x14,0x8,0x0,0x0
000202 0800
000203 1414
000204 fc18
000205 0000      	.DB  0x0,0x8,0x14,0x14,0x18,0xFC,0x0,0x0
000206 fc00
000207 0408
000208 0804
000209 0000      	.DB  0x0,0xFC,0x8,0x4,0x4,0x8,0x0,0x0
00020a 8800
00020b 9494
00020c 6094
00020d 0000      	.DB  0x0,0x88,0x94,0x94,0x94,0x60,0x0,0x0
00020e 0400
00020f 847f
000210 4080
000211 0000      	.DB  0x0,0x4,0x7F,0x84,0x80,0x40,0x0,0x0
000212 7c00
000213 8080
000214 fc40
000215 0000      	.DB  0x0,0x7C,0x80,0x80,0x40,0xFC,0x0,0x0
000216 3c00
000217 8040
000218 3c40
000219 0000      	.DB  0x0,0x3C,0x40,0x80,0x40,0x3C,0x0,0x0
00021a 3e00
00021b 60c0
00021c 3ec0
00021d 0000      	.DB  0x0,0x3E,0xC0,0x60,0xC0,0x3E,0x0,0x0
00021e 4200
00021f 1824
000220 4224
000221 0000      	.DB  0x0,0x42,0x24,0x18,0x24,0x42,0x0,0x0
000222 0600
000223 8888
000224 7e88
000225 0000      	.DB  0x0,0x6,0x88,0x88,0x88,0x7E,0x0,0x0
000226 c400
000227 94a4
000228 848c
000229 0000      	.DB  0x0,0xC4,0xA4,0x94,0x8C,0x84,0x0,0x0
00022a 0800
00022b 8176
00022c 0000
00022d 0000      	.DB  0x0,0x8,0x76,0x81,0x0,0x0,0x0,0x0
00022e 0000
00022f ff00
000230 0000
000231 0000      	.DB  0x0,0x0,0x0,0xFF,0x0,0x0,0x0,0x0
000232 8100
000233 0876
000234 0000
000235 0000      	.DB  0x0,0x81,0x76,0x8,0x0,0x0,0x0,0x0
000236 0800
000237 2a08
000238 081c
000239 0000      	.DB  0x0,0x8,0x8,0x2A,0x1C,0x8,0x0,0x0
00023a 0800
00023b 2a1c
00023c 0808
00023d 0000      	.DB  0x0,0x8,0x1C,0x2A,0x8,0x8,0x0,0x0
00023e 7c00
00023f 8182
000240 7c82
000241 0000      	.DB  0x0,0x7C,0x82,0x81,0x82,0x7C,0x0,0x0
000242 0000
000243 0000
000244 0000
000245 0000      	.DB  0x0,0x0,0x0,0x0,0x0,0x0,0x0,0x0
000246 0000
000247 0000
000248 0000
000249 0000      	.DB  0x0,0x0,0x0,0x0,0x0,0x0,0x0,0x0
00024a 0000
00024b 0000
00024c 0000
00024d 0000      	.DB  0x0,0x0,0x0,0x0,0x0,0x0,0x0,0x0
00024e 0000
00024f 0000
000250 0000
000251 0000      	.DB  0x0,0x0,0x0,0x0,0x0,0x0,0x0,0x0
000252 0000
000253 0000
000254 0000
000255 0000      	.DB  0x0,0x0,0x0,0x0,0x0,0x0,0x0,0x0
000256 0000
000257 0000
000258 0000
000259 0000      	.DB  0x0,0x0,0x0,0x0,0x0,0x0,0x0,0x0
00025a 0000
00025b 0000
00025c 0000
00025d 0000      	.DB  0x0,0x0,0x0,0x0,0x0,0x0,0x0,0x0
00025e 0000
00025f 0000
000260 0000
000261 0000      	.DB  0x0,0x0,0x0,0x0,0x0,0x0,0x0,0x0
000262 0000
000263 0000
000264 0000
000265 0000      	.DB  0x0,0x0,0x0,0x0,0x0,0x0,0x0,0x0
000266 0000
000267 0000
000268 0000
000269 0000      	.DB  0x0,0x0,0x0,0x0,0x0,0x0,0x0,0x0
00026a 0000
00026b 0000
00026c 0000
00026d 0000      	.DB  0x0,0x0,0x0,0x0,0x0,0x0,0x0,0x0
00026e 0000
00026f 0000
000270 0000
000271 0000      	.DB  0x0,0x0,0x0,0x0,0x0,0x0,0x0,0x0
000272 0000
000273 0000
000274 0000
000275 0000      	.DB  0x0,0x0,0x0,0x0,0x0,0x0,0x0,0x0
000276 0000
000277 0000
000278 0000
000279 0000      	.DB  0x0,0x0,0x0,0x0,0x0,0x0,0x0,0x0
00027a 0000
00027b 0000
00027c 0000
00027d 0000      	.DB  0x0,0x0,0x0,0x0,0x0,0x0,0x0,0x0
00027e 0000
00027f 0000
000280 0000
000281 0000      	.DB  0x0,0x0,0x0,0x0,0x0,0x0,0x0,0x0
000282 0000
000283 0000
000284 0000
000285 0000      	.DB  0x0,0x0,0x0,0x0,0x0,0x0,0x0,0x0
000286 0000
000287 0000
000288 0000
000289 0000      	.DB  0x0,0x0,0x0,0x0,0x0,0x0,0x0,0x0
00028a 0000
00028b 0000
00028c 0000
00028d 0000      	.DB  0x0,0x0,0x0,0x0,0x0,0x0,0x0,0x0
00028e 0000
00028f 0000
000290 0000
000291 0000      	.DB  0x0,0x0,0x0,0x0,0x0,0x0,0x0,0x0
000292 0000
000293 0000
000294 0000
000295 0000      	.DB  0x0,0x0,0x0,0x0,0x0,0x0,0x0,0x0
000296 0000
000297 0000
000298 0000
000299 0000      	.DB  0x0,0x0,0x0,0x0,0x0,0x0,0x0,0x0
00029a 0000
00029b 0000
00029c 0000
00029d 0000      	.DB  0x0,0x0,0x0,0x0,0x0,0x0,0x0,0x0
00029e 0000
00029f 0000
0002a0 0000
0002a1 0000      	.DB  0x0,0x0,0x0,0x0,0x0,0x0,0x0,0x0
0002a2 0000
0002a3 0000
0002a4 0000
0002a5 0000      	.DB  0x0,0x0,0x0,0x0,0x0,0x0,0x0,0x0
0002a6 0000
0002a7 0000
0002a8 0000
0002a9 0000      	.DB  0x0,0x0,0x0,0x0,0x0,0x0,0x0,0x0
0002aa 0000
0002ab 0000
0002ac 0000
0002ad 0000      	.DB  0x0,0x0,0x0,0x0,0x0,0x0,0x0,0x0
0002ae 0000
0002af 0000
0002b0 0000
0002b1 0000      	.DB  0x0,0x0,0x0,0x0,0x0,0x0,0x0,0x0
0002b2 0000
0002b3 0000
0002b4 0000
0002b5 0000      	.DB  0x0,0x0,0x0,0x0,0x0,0x0,0x0,0x0
0002b6 0000
0002b7 0000
0002b8 0000
0002b9 0000      	.DB  0x0,0x0,0x0,0x0,0x0,0x0,0x0,0x0
0002ba 0000
0002bb 0000
0002bc 0000
0002bd 0000      	.DB  0x0,0x0,0x0,0x0,0x0,0x0,0x0,0x0
0002be 0000
0002bf 0000
0002c0 0000
0002c1 0000      	.DB  0x0,0x0,0x0,0x0,0x0,0x0,0x0,0x0
0002c2 0000
0002c3 0000
0002c4 0000
0002c5 0000      	.DB  0x0,0x0,0x0,0x0,0x0,0x0,0x0,0x0
0002c6 0000
0002c7 0000
0002c8 0000
0002c9 0000      	.DB  0x0,0x0,0x0,0x0,0x0,0x0,0x0,0x0
0002ca 0000
0002cb 0000
0002cc 0000
0002cd 0000      	.DB  0x0,0x0,0x0,0x0,0x0,0x0,0x0,0x0
0002ce 0000
0002cf 0000
0002d0 0000
0002d1 0000      	.DB  0x0,0x0,0x0,0x0,0x0,0x0,0x0,0x0
0002d2 0000
0002d3 0000
0002d4 0000
0002d5 0000      	.DB  0x0,0x0,0x0,0x0,0x0,0x0,0x0,0x0
0002d6 0000
0002d7 0000
0002d8 0000
0002d9 0000      	.DB  0x0,0x0,0x0,0x0,0x0,0x0,0x0,0x0
0002da 0000
0002db 0000
0002dc 0000
0002dd 0000      	.DB  0x0,0x0,0x0,0x0,0x0,0x0,0x0,0x0
0002de 0000
0002df 0000
0002e0 0000
0002e1 0000      	.DB  0x0,0x0,0x0,0x0,0x0,0x0,0x0,0x0
0002e2 0000
0002e3 0000
0002e4 0000
0002e5 0000      	.DB  0x0,0x0,0x0,0x0,0x0,0x0,0x0,0x0
0002e6 0000
0002e7 0000
0002e8 0000
0002e9 0000      	.DB  0x0,0x0,0x0,0x0,0x0,0x0,0x0,0x0
0002ea 0000
0002eb 0000
0002ec 0000
0002ed 0000      	.DB  0x0,0x0,0x0,0x0,0x0,0x0,0x0,0x0
0002ee 0000
0002ef 0000
0002f0 0000
0002f1 0000      	.DB  0x0,0x0,0x0,0x0,0x0,0x0,0x0,0x0
0002f2 0000
0002f3 0000
0002f4 0000
0002f5 0000      	.DB  0x0,0x0,0x0,0x0,0x0,0x0,0x0,0x0
0002f6 0000
0002f7 0000
0002f8 0000
0002f9 0000      	.DB  0x0,0x0,0x0,0x0,0x0,0x0,0x0,0x0
0002fa 0000
0002fb 0000
0002fc 0000
0002fd 0000      	.DB  0x0,0x0,0x0,0x0,0x0,0x0,0x0,0x0
0002fe 0000
0002ff 0000
000300 0000
000301 0000      	.DB  0x0,0x0,0x0,0x0,0x0,0x0,0x0,0x0
000302 0000
000303 0000
000304 0000
000305 0000      	.DB  0x0,0x0,0x0,0x0,0x0,0x0,0x0,0x0
000306 0000
000307 0000
000308 0000
000309 0000      	.DB  0x0,0x0,0x0,0x0,0x0,0x0,0x0,0x0
00030a 0000
00030b 0000
00030c 0000
00030d 0000      	.DB  0x0,0x0,0x0,0x0,0x0,0x0,0x0,0x0
00030e 0000
00030f 0000
000310 0000
000311 0000      	.DB  0x0,0x0,0x0,0x0,0x0,0x0,0x0,0x0
000312 0000
000313 0000
000314 0000
000315 0000      	.DB  0x0,0x0,0x0,0x0,0x0,0x0,0x0,0x0
000316 0000
000317 0000
000318 0000
000319 0000      	.DB  0x0,0x0,0x0,0x0,0x0,0x0,0x0,0x0
00031a 0000
00031b 0000
00031c 0000
00031d 0000      	.DB  0x0,0x0,0x0,0x0,0x0,0x0,0x0,0x0
00031e 0000
00031f 0000
000320 0000
000321 0000      	.DB  0x0,0x0,0x0,0x0,0x0,0x0,0x0,0x0
000322 0000
000323 0000
000324 0000
000325 0000      	.DB  0x0,0x0,0x0,0x0,0x0,0x0,0x0,0x0
000326 0000
000327 0000
000328 0000
000329 0000      	.DB  0x0,0x0,0x0,0x0,0x0,0x0,0x0,0x0
00032a 0000
00032b 0000
00032c 0000
00032d 0000      	.DB  0x0,0x0,0x0,0x0,0x0,0x0,0x0,0x0
00032e 0000
00032f 0000
000330 0000
000331 0000      	.DB  0x0,0x0,0x0,0x0,0x0,0x0,0x0,0x0
000332 0000
000333 0000
000334 0000
000335 0000      	.DB  0x0,0x0,0x0,0x0,0x0,0x0,0x0,0x0
000336 0000
000337 0000
000338 0000
000339 0000      	.DB  0x0,0x0,0x0,0x0,0x0,0x0,0x0,0x0
00033a 0000
00033b 0000
00033c 0000
00033d 0000      	.DB  0x0,0x0,0x0,0x0,0x0,0x0,0x0,0x0
00033e 0000
00033f 0000
000340 0000
000341 0000      	.DB  0x0,0x0,0x0,0x0,0x0,0x0,0x0,0x0
000342 0000
000343 0000
000344 0000
000345 0000      	.DB  0x0,0x0,0x0,0x0,0x0,0x0,0x0,0x0
000346 0000
000347 0000
000348 0000
000349 0000      	.DB  0x0,0x0,0x0,0x0,0x0,0x0,0x0,0x0
00034a 0000
00034b 0000
00034c 0000
00034d 0000      	.DB  0x0,0x0,0x0,0x0,0x0,0x0,0x0,0x0
00034e 0000
00034f 0000
000350 0000
000351 0000      	.DB  0x0,0x0,0x0,0x0,0x0,0x0,0x0,0x0
000352 0000
000353 0000
000354 0000
000355 0000      	.DB  0x0,0x0,0x0,0x0,0x0,0x0,0x0,0x0
000356 0000
000357 0000
000358 0000
000359 0000      	.DB  0x0,0x0,0x0,0x0,0x0,0x0,0x0,0x0
00035a 0000
00035b 0000
00035c 0000
00035d 0000      	.DB  0x0,0x0,0x0,0x0,0x0,0x0,0x0,0x0
00035e 0000
00035f 0000
000360 0000
000361 0000      	.DB  0x0,0x0,0x0,0x0,0x0,0x0,0x0,0x0
000362 0000
000363 0000
000364 0000
000365 0000      	.DB  0x0,0x0,0x0,0x0,0x0,0x0,0x0,0x0
000366 0000
000367 0000
000368 0000
000369 0000      	.DB  0x0,0x0,0x0,0x0,0x0,0x0,0x0,0x0
00036a 0000
00036b 0000
00036c 0000
00036d 0000      	.DB  0x0,0x0,0x0,0x0,0x0,0x0,0x0,0x0
00036e 0000
00036f 0000
000370 0000
000371 0000      	.DB  0x0,0x0,0x0,0x0,0x0,0x0,0x0,0x0
000372 0000
000373 0000
000374 0000
000375 0000      	.DB  0x0,0x0,0x0,0x0,0x0,0x0,0x0,0x0
000376 0000
000377 0000
000378 0000
000379 0000      	.DB  0x0,0x0,0x0,0x0,0x0,0x0,0x0,0x0
00037a 0000
00037b 0000
00037c 0000
00037d 0000      	.DB  0x0,0x0,0x0,0x0,0x0,0x0,0x0,0x0
00037e 0000
00037f 0000
000380 0000
000381 0000      	.DB  0x0,0x0,0x0,0x0,0x0,0x0,0x0,0x0
000382 0000
000383 0000
000384 0000
000385 0000      	.DB  0x0,0x0,0x0,0x0,0x0,0x0,0x0,0x0
000386 0000
000387 0000
000388 0000
000389 0000      	.DB  0x0,0x0,0x0,0x0,0x0,0x0,0x0,0x0
00038a 0000
00038b 0000
00038c 0000
00038d 0000      	.DB  0x0,0x0,0x0,0x0,0x0,0x0,0x0,0x0
00038e 0000
00038f 0000
000390 0000
000391 0000      	.DB  0x0,0x0,0x0,0x0,0x0,0x0,0x0,0x0
000392 0000
000393 0000
000394 0000
000395 0000      	.DB  0x0,0x0,0x0,0x0,0x0,0x0,0x0,0x0
000396 0000
000397 0000
000398 0000
000399 0000      	.DB  0x0,0x0,0x0,0x0,0x0,0x0,0x0,0x0
00039a 0000
00039b 0000
00039c 0000
00039d 0000      	.DB  0x0,0x0,0x0,0x0,0x0,0x0,0x0,0x0
00039e 0000
00039f 0000
0003a0 0000
0003a1 0000      	.DB  0x0,0x0,0x0,0x0,0x0,0x0,0x0,0x0
0003a2 0000
0003a3 0000
0003a4 0000
0003a5 0000      	.DB  0x0,0x0,0x0,0x0,0x0,0x0,0x0,0x0
0003a6 0000
0003a7 0000
0003a8 0000
0003a9 0000      	.DB  0x0,0x0,0x0,0x0,0x0,0x0,0x0,0x0
0003aa 0000
0003ab 0000
0003ac 0000
0003ad 0000      	.DB  0x0,0x0,0x0,0x0,0x0,0x0,0x0,0x0
0003ae 0000
0003af 0000
0003b0 0000
0003b1 0000      	.DB  0x0,0x0,0x0,0x0,0x0,0x0,0x0,0x0
0003b2 0000
0003b3 0000
0003b4 0000
0003b5 0000      	.DB  0x0,0x0,0x0,0x0,0x0,0x0,0x0,0x0
0003b6 0000
0003b7 0000
0003b8 0000
0003b9 0000      	.DB  0x0,0x0,0x0,0x0,0x0,0x0,0x0,0x0
0003ba 0000
0003bb 0000
0003bc 0000
0003bd 0000      	.DB  0x0,0x0,0x0,0x0,0x0,0x0,0x0,0x0
0003be 0000
0003bf 0000
0003c0 0000
0003c1 0000      	.DB  0x0,0x0,0x0,0x0,0x0,0x0,0x0,0x0
0003c2 0000
0003c3 0000
0003c4 0000
0003c5 0000      	.DB  0x0,0x0,0x0,0x0,0x0,0x0,0x0,0x0
0003c6 0000
0003c7 0000
0003c8 0000
0003c9 0000      	.DB  0x0,0x0,0x0,0x0,0x0,0x0,0x0,0x0
0003ca 0000
0003cb 0000
0003cc 0000
0003cd 0000      	.DB  0x0,0x0,0x0,0x0,0x0,0x0,0x0,0x0
0003ce 0000
0003cf 0000
0003d0 0000
0003d1 0000      	.DB  0x0,0x0,0x0,0x0,0x0,0x0,0x0,0x0
0003d2 0000
0003d3 0000
0003d4 0000
0003d5 0000      	.DB  0x0,0x0,0x0,0x0,0x0,0x0,0x0,0x0
0003d6 0000
0003d7 0000
0003d8 0000
0003d9 0000      	.DB  0x0,0x0,0x0,0x0,0x0,0x0,0x0,0x0
0003da 0000
0003db 0000
0003dc 0000
0003dd 0000      	.DB  0x0,0x0,0x0,0x0,0x0,0x0,0x0,0x0
0003de 0000
0003df 0000
0003e0 0000
0003e1 0000      	.DB  0x0,0x0,0x0,0x0,0x0,0x0,0x0,0x0
0003e2 0000
0003e3 0000
0003e4 0000
0003e5 0000      	.DB  0x0,0x0,0x0,0x0,0x0,0x0,0x0,0x0
0003e6 0000
0003e7 0000
0003e8 0000
0003e9 0000      	.DB  0x0,0x0,0x0,0x0,0x0,0x0,0x0,0x0
0003ea 0000
0003eb 0000
0003ec 0000
0003ed 0000      	.DB  0x0,0x0,0x0,0x0,0x0,0x0,0x0,0x0
0003ee 0000
0003ef 0000
0003f0 0000
0003f1 0000      	.DB  0x0,0x0,0x0,0x0,0x0,0x0,0x0,0x0
0003f2 0000
0003f3 0000
0003f4 0000
0003f5 0000      	.DB  0x0,0x0,0x0,0x0,0x0,0x0,0x0,0x0
0003f6 0000
0003f7 0000
0003f8 0000
0003f9 0000      	.DB  0x0,0x0,0x0,0x0,0x0,0x0,0x0,0x0
0003fa 0000
0003fb 0000
0003fc 0000
0003fd 0000      	.DB  0x0,0x0,0x0,0x0,0x0,0x0,0x0,0x0
0003fe 0000
0003ff 0000
000400 0000
000401 0000      	.DB  0x0,0x0,0x0,0x0,0x0,0x0,0x0,0x0
000402 0000
000403 0000
000404 0000
000405 0000      	.DB  0x0,0x0,0x0,0x0,0x0,0x0,0x0,0x0
000406 0000
000407 0000
000408 0000
000409 0000      	.DB  0x0,0x0,0x0,0x0,0x0,0x0,0x0,0x0
00040a 0000
00040b 0000
00040c 0000
00040d 0000      	.DB  0x0,0x0,0x0,0x0,0x0,0x0,0x0,0x0
00040e 0000
00040f 0000
000410 0000
000411 0000      	.DB  0x0,0x0,0x0,0x0,0x0,0x0,0x0,0x0
000412 0000
000413 0000
000414 0000
000415 0000      	.DB  0x0,0x0,0x0,0x0,0x0,0x0,0x0,0x0
000416 0000
000417 0000
000418 0000
000419 0000      	.DB  0x0,0x0,0x0,0x0,0x0,0x0,0x0,0x0
00041a 0000
00041b 0000
00041c 0000
00041d 0000      	.DB  0x0,0x0,0x0,0x0,0x0,0x0,0x0,0x0
00041e 0000
00041f 0000
000420 0000
000421 0000      	.DB  0x0,0x0,0x0,0x0,0x0,0x0,0x0,0x0
000422 0000
000423 0000
000424 0000
000425 0000      	.DB  0x0,0x0,0x0,0x0,0x0,0x0,0x0,0x0
000426 0000
000427 0000
000428 0000
000429 0000      	.DB  0x0,0x0,0x0,0x0,0x0,0x0,0x0,0x0
00042a 0000
00042b 0000
00042c 0000
00042d 0000      	.DB  0x0,0x0,0x0,0x0,0x0,0x0,0x0,0x0
00042e 0000
00042f 0000
000430 0000
000431 0000      	.DB  0x0,0x0,0x0,0x0,0x0,0x0,0x0,0x0
000432 0000
000433 0000
000434 0000
000435 0000      	.DB  0x0,0x0,0x0,0x0,0x0,0x0,0x0,0x0
000436 0000
000437 0000
000438 0000
000439 0000      	.DB  0x0,0x0,0x0,0x0,0x0,0x0,0x0,0x0
00043a 0000
00043b 0000
00043c 0000
00043d 0000      	.DB  0x0,0x0,0x0,0x0,0x0,0x0,0x0,0x0
                 _map:
00043e c1c1
00043f c1c1
000440 0000
000441 c2c2      	.DB  0xC1,0xC1,0xC1,0xC1,0x0,0x0,0xC2,0xC2
000442 fefe
000443 0001
000444 c3c3
000445 1f1f      	.DB  0xFE,0xFE,0x1,0x0,0xC3,0xC3,0x1F,0x1F
000446 0001
000447 c4c4
000448 fcfc
000449 0001      	.DB  0x1,0x0,0xC4,0xC4,0xFC,0xFC,0x1,0x0
00044a c5c5
00044b c5c5
00044c 0101
00044d bdc6      	.DB  0xC5,0xC5,0xC5,0xC5,0x1,0x1,0xC6,0xBD
00044e bebf
00044f 0101
000450 c7c7
000451 c0c0      	.DB  0xBF,0xBE,0x1,0x1,0xC7,0xC7,0xC0,0xC0
000452 0001
000453 82c8
000454 8384
000455 0101      	.DB  0x1,0x0,0xC8,0x82,0x84,0x83,0x1,0x1
000456 c9c9
000457 fdfd
000458 0001
000459 85ca      	.DB  0xC9,0xC9,0xFD,0xFD,0x1,0x0,0xCA,0x85
00045a 8687
00045b 0101
00045c 88cb
00045d 898a      	.DB  0x87,0x86,0x1,0x1,0xCB,0x88,0x8A,0x89
00045e 0101
00045f 8bcc
000460 8bcc
000461 0101      	.DB  0x1,0x1,0xCC,0x8B,0xCC,0x8B,0x1,0x1
000462 8ccd
000463 8ccd
000464 0101
000465 11ce      	.DB  0xCD,0x8C,0xCD,0x8C,0x1,0x1,0xCE,0x11
000466 11ce
000467 0101
000468 cfcf
000469 1313      	.DB  0xCE,0x11,0x1,0x1,0xCF,0xCF,0x13,0x13
00046a 0001
00046b d0d0
00046c 8f8f
00046d 0001      	.DB  0x1,0x0,0xD0,0xD0,0x8F,0x8F,0x1,0x0
00046e d1d1
00046f 1b1b
000470 0001
000471 d2d2      	.DB  0xD1,0xD1,0x1B,0x1B,0x1,0x0,0xD2,0xD2
000472 9191
000473 0001
000474 92d3
000475 9394      	.DB  0x91,0x91,0x1,0x0,0xD3,0x92,0x94,0x93
000476 0101
000477 95d4
000478 9697
000479 0101      	.DB  0x1,0x1,0xD4,0x95,0x97,0x96,0x1,0x1
00047a 17d5
00047b 999a
00047c 0101
00047d 9bd6      	.DB  0xD5,0x17,0x9A,0x99,0x1,0x1,0xD6,0x9B
00047e 9c9d
00047f 0101
000480 d7d7
000481 d7d7      	.DB  0x9D,0x9C,0x1,0x1,0xD7,0xD7,0xD7,0xD7
000482 0000
000483 d8d8
000484 9e9e
000485 0101      	.DB  0x0,0x0,0xD8,0xD8,0x9E,0x9E,0x1,0x1
000486 d9d9
000487 9f9f
000488 0101
000489 a0da      	.DB  0xD9,0xD9,0x9F,0x9F,0x1,0x1,0xDA,0xA0
00048a a1a2
00048b 0101
00048c a3db
00048d a4a5      	.DB  0xA2,0xA1,0x1,0x1,0xDB,0xA3,0xA5,0xA4
00048e 0101
00048f dcdc
000490 dcdc
000491 0000      	.DB  0x1,0x1,0xDC,0xDC,0xDC,0xDC,0x0,0x0
000492 a6dd
000493 a7a8
000494 0101
000495 a9de      	.DB  0xDD,0xA6,0xA8,0xA7,0x1,0x1,0xDE,0xA9
000496 aaab
000497 0101
000498 acdf
000499 adae      	.DB  0xAB,0xAA,0x1,0x1,0xDF,0xAC,0xAE,0xAD
00049a 0101
00049b e0e0
00049c e0e0
00049d 0000      	.DB  0x1,0x1,0xE0,0xE0,0xE0,0xE0,0x0,0x0
00049e afe1
00049f b0b1
0004a0 0101
0004a1 e2e2      	.DB  0xE1,0xAF,0xB1,0xB0,0x1,0x1,0xE2,0xE2
0004a2 e2e2
0004a3 0000
0004a4 b2e3
0004a5 b3b4      	.DB  0xE2,0xE2,0x0,0x0,0xE3,0xB2,0xB4,0xB3
0004a6 0101
0004a7 b5e4
0004a8 b6b7
0004a9 0101      	.DB  0x1,0x1,0xE4,0xB5,0xB7,0xB6,0x1,0x1
0004aa b8e5
0004ab b9ba
0004ac 0101
0004ad e6e6      	.DB  0xE5,0xB8,0xBA,0xB9,0x1,0x1,0xE6,0xE6
0004ae bcbc
0004af 0001
0004b0 e7e7
0004b1 e7e7      	.DB  0xBC,0xBC,0x1,0x0,0xE7,0xE7,0xE7,0xE7
0004b2 0000
0004b3 e8e8
0004b4 e8e8
0004b5 0000      	.DB  0x0,0x0,0xE8,0xE8,0xE8,0xE8,0x0,0x0
0004b6 e9e9
0004b7 e9e9
0004b8 0000
0004b9 eaea      	.DB  0xE9,0xE9,0xE9,0xE9,0x0,0x0,0xEA,0xEA
0004ba eaea
0004bb 0000
0004bc ebeb
0004bd ebeb      	.DB  0xEA,0xEA,0x0,0x0,0xEB,0xEB,0xEB,0xEB
0004be 0000
0004bf bdec
0004c0 bebf
0004c1 0101      	.DB  0x0,0x0,0xEC,0xBD,0xBF,0xBE,0x1,0x1
0004c2 bded
0004c3 bebf
0004c4 0101
0004c5 eeee      	.DB  0xED,0xBD,0xBF,0xBE,0x1,0x1,0xEE,0xEE
0004c6 eeee
0004c7 0000
0004c8 efef
0004c9 efef      	.DB  0xEE,0xEE,0x0,0x0,0xEF,0xEF,0xEF,0xEF
0004ca 0000
0004cb f0f0
0004cc f0f0
0004cd 0000      	.DB  0x0,0x0,0xF0,0xF0,0xF0,0xF0,0x0,0x0
0004ce f1f1
0004cf f1f1
0004d0 0000
0004d1 f2f2      	.DB  0xF1,0xF1,0xF1,0xF1,0x0,0x0,0xF2,0xF2
0004d2 f2f2
0004d3 0000
0004d4 f3f3
0004d5 f3f3      	.DB  0xF2,0xF2,0x0,0x0,0xF3,0xF3,0xF3,0xF3
0004d6 0000
0004d7 f5f5
0004d8 f5f5
0004d9 0000      	.DB  0x0,0x0,0xF5,0xF5,0xF5,0xF5,0x0,0x0
0004da f6f6
0004db f6f6
0004dc 0000
0004dd f7f7      	.DB  0xF6,0xF6,0xF6,0xF6,0x0,0x0,0xF7,0xF7
0004de f7f7
0004df 0000
0004e0 f8f8
0004e1 f8f8      	.DB  0xF7,0xF7,0x0,0x0,0xF8,0xF8,0xF8,0xF8
0004e2 0000
0004e3 f9fb
0004e4 fafb
0004e5 0101      	.DB  0x0,0x0,0xFB,0xF9,0xFB,0xFA,0x1,0x1
0004e6 bbbb
0004e7 f4f4
0004e8 0001
0004e9 1c81      	.DB  0xBB,0xBB,0xF4,0xF4,0x1,0x0,0x81,0x1C
0004ea 1d1e
0004eb 0101
0004ec 1890
0004ed 191a      	.DB  0x1E,0x1D,0x1,0x1,0x90,0x18,0x1A,0x19
0004ee 0101
0004ef 1498
0004f0 1516
0004f1 0101      	.DB  0x1,0x1,0x98,0x14,0x16,0x15,0x1,0x1
0004f2 8e8e
0004f3 1212
0004f4 0001
0004f5 108d      	.DB  0x8E,0x8E,0x12,0x12,0x1,0x0,0x8D,0x10
0004f6 108d
0004f7 0101      	.DB  0x8D,0x10,0x1,0x1
                 _arr:
0004f8 c000
0004f9 30f0
0004fa 1838
0004fb 1818      	.DB  0x0,0xC0,0xF0,0x30,0x38,0x18,0x18,0x18
0004fc 9818
0004fd b0b0
0004fe 3030
0004ff 6030      	.DB  0x18,0x98,0xB0,0xB0,0x30,0x30,0x30,0x60
000500 6060
000501 6060
000502 c060
000503 c0c0      	.DB  0x60,0x60,0x60,0x60,0x60,0xC0,0xC0,0xC0
000504 c0c0
000505 c0c0
000506 8080
000507 8080      	.DB  0xC0,0xC0,0xC0,0xC0,0x80,0x80,0x80,0x80
000508 0080
000509 0000
00050a 0000
00050b 0000      	.DB  0x80,0x0,0x0,0x0,0x0,0x0,0x0,0x0
00050c 0000
00050d 0000
00050e 0000
00050f 0000      	.DB  0x0,0x0,0x0,0x0,0x0,0x0,0x0,0x0
000510 0000
000511 0000
000512 0000
000513 0000      	.DB  0x0,0x0,0x0,0x0,0x0,0x0,0x0,0x0
000514 0000
000515 0000
000516 0000
000517 0000      	.DB  0x0,0x0,0x0,0x0,0x0,0x0,0x0,0x0
000518 0000
000519 0000
00051a 0000
00051b 0000      	.DB  0x0,0x0,0x0,0x0,0x0,0x0,0x0,0x0
00051c 0000
00051d 0000
00051e 0000
00051f 0000      	.DB  0x0,0x0,0x0,0x0,0x0,0x0,0x0,0x0
000520 0000
000521 0000
000522 0000
000523 0000      	.DB  0x0,0x0,0x0,0x0,0x0,0x0,0x0,0x0
000524 0000
000525 0000
000526 0000
000527 0000      	.DB  0x0,0x0,0x0,0x0,0x0,0x0,0x0,0x0
000528 0000
000529 0000
00052a 0000
00052b 0000      	.DB  0x0,0x0,0x0,0x0,0x0,0x0,0x0,0x0
00052c 0000
00052d 0000
00052e 0000
00052f 0000      	.DB  0x0,0x0,0x0,0x0,0x0,0x0,0x0,0x0
000530 0000
000531 0000
000532 0000
000533 0000      	.DB  0x0,0x0,0x0,0x0,0x0,0x0,0x0,0x0
000534 0000
000535 0000
000536 0000
000537 0000      	.DB  0x0,0x0,0x0,0x0,0x0,0x0,0x0,0x0
000538 ff00
000539 00ff
00053a 0c00
00053b f018      	.DB  0x0,0xFF,0xFF,0x0,0x0,0xC,0x18,0xF0
00053c 0fe7
00053d 0ffd
00053e 0007
00053f 0000      	.DB  0xE7,0xF,0xFD,0xF,0x7,0x0,0x0,0x0
000540 0000
000541 0000
000542 0000
000543 0000      	.DB  0x0,0x0,0x0,0x0,0x0,0x0,0x0,0x0
000544 0000
000545 0000
000546 0101
000547 8101      	.DB  0x0,0x0,0x0,0x0,0x1,0x1,0x1,0x81
000548 8383
000549 c383
00054a 67e7
00054b c6e6      	.DB  0x83,0x83,0x83,0xC3,0xE7,0x67,0xE6,0xC6
00054c 0e06
00054d 0c0c
00054e 0c0c
00054f 180c      	.DB  0x6,0xE,0xC,0xC,0xC,0xC,0xC,0x18
000550 1818
000551 7078
000552 c0e0
000553 0000      	.DB  0x18,0x18,0x78,0x70,0xE0,0xC0,0x0,0x0
000554 0000
000555 e000
000556 00e0
000557 0000      	.DB  0x0,0x0,0x0,0xE0,0xE0,0x0,0x0,0x0
000558 0000
000559 c080
00055a 60e0
00055b e000      	.DB  0x0,0x0,0x80,0xC0,0xE0,0x60,0x0,0xE0
00055c 60e0
00055d 6060
00055e 6060
00055f e060      	.DB  0xE0,0x60,0x60,0x60,0x60,0x60,0x60,0xE0
000560 00c0
000561 0000
000562 c080
000563 6060      	.DB  0xC0,0x0,0x0,0x0,0x80,0xC0,0x60,0x60
000564 80c0
000565 0000
000566 e000
000567 60e0      	.DB  0xC0,0x80,0x0,0x0,0x0,0xE0,0xE0,0x60
000568 6060
000569 6060
00056a c060
00056b 0080      	.DB  0x60,0x60,0x60,0x60,0x60,0xC0,0x80,0x0
00056c 0000
00056d c080
00056e 6060
00056f 80c0      	.DB  0x0,0x0,0x80,0xC0,0x60,0x60,0xC0,0x80
000570 0000
000571 0000
000572 c080
000573 6060      	.DB  0x0,0x0,0x0,0x0,0x80,0xC0,0x60,0x60
000574 6060
000575 c060
000576 0080
000577 0000      	.DB  0x60,0x60,0x60,0xC0,0x80,0x0,0x0,0x0
000578 ff00
000579 00ff
00057a 0000
00057b ff00      	.DB  0x0,0xFF,0xFF,0x0,0x0,0x0,0x0,0xFF
00057c 00ff
00057d 00ff
00057e 0000
00057f 0000      	.DB  0xFF,0x0,0xFF,0x0,0x0,0x0,0x0,0x0
000580 0000
000581 0000
000582 0000
000583 8000      	.DB  0x0,0x0,0x0,0x0,0x0,0x0,0x0,0x80
000584 60c0
000585 1830
000586 c68c
000587 3163      	.DB  0xC0,0x60,0x30,0x18,0x8C,0xC6,0x63,0x31
000588 0818
000589 0908
00058a 0b0b
00058b 090b      	.DB  0x18,0x8,0x8,0x9,0xB,0xB,0xB,0x9
00058c 0808
00058d 0808
00058e 0808
00058f 3e1c      	.DB  0x8,0x8,0x8,0x8,0x8,0x8,0x1C,0x3E
000590 3e36
000591 001c
000592 ffff
000593 0000      	.DB  0x36,0x3E,0x1C,0x0,0xFF,0xFF,0x0,0x0
000594 0000
000595 ff00
000596 70ff
000597 8cf8      	.DB  0x0,0x0,0x0,0xFF,0xFF,0x70,0xF8,0x8C
000598 078e
000599 0103
00059a 0000
00059b ff00      	.DB  0x8E,0x7,0x3,0x1,0x0,0x0,0x0,0xFF
00059c e0ff
00059d e0e0
00059e 6060
00059f 7f60      	.DB  0xFF,0xE0,0xE0,0xE0,0x60,0x60,0x60,0x7F
0005a0 003f
0005a1 fffe
0005a2 6061
0005a3 6060      	.DB  0x3F,0x0,0xFE,0xFF,0x61,0x60,0x60,0x60
0005a4 6160
0005a5 feff
0005a6 ff00
0005a7 00ff      	.DB  0x60,0x61,0xFF,0xFE,0x0,0xFF,0xFF,0x0
0005a8 0000
0005a9 0000
0005aa ff00
0005ab 00ff      	.DB  0x0,0x0,0x0,0x0,0x0,0xFF,0xFF,0x0
0005ac fffe
0005ad 6061
0005ae 6060
0005af 6160      	.DB  0xFE,0xFF,0x61,0x60,0x60,0x60,0x60,0x61
0005b0 feff
0005b1 ff00
0005b2 00ff
0005b3 0000      	.DB  0xFF,0xFE,0x0,0xFF,0xFF,0x0,0x0,0x0
0005b4 0000
0005b5 0000
0005b6 0001
0005b7 0000      	.DB  0x0,0x0,0x0,0x0,0x1,0x0,0x0,0x0
0005b8 ff00
0005b9 00ff
0005ba 0000
0005bb ff00      	.DB  0x0,0xFF,0xFF,0x0,0x0,0x0,0x0,0xFF
0005bc 00ff
0005bd 303f
0005be 3030
0005bf 3030      	.DB  0xFF,0x0,0x3F,0x30,0x30,0x30,0x30,0x30
0005c0 3030
0005c1 1830
0005c2 c60c
0005c3 31e3      	.DB  0x30,0x30,0x30,0x18,0xC,0xC6,0xE3,0x31
0005c4 0c18
0005c5 0306
0005c6 0001
0005c7 0000      	.DB  0x18,0xC,0x6,0x3,0x1,0x0,0x0,0x0
0005c8 0000
0005c9 0000
0005ca 0000
0005cb 0000      	.DB  0x0,0x0,0x0,0x0,0x0,0x0,0x0,0x0
0005cc 0000
0005cd 0000
0005ce 0000
0005cf 0000      	.DB  0x0,0x0,0x0,0x0,0x0,0x0,0x0,0x0
0005d0 0000
0005d1 0000
0005d2 ffff
0005d3 0000      	.DB  0x0,0x0,0x0,0x0,0xFF,0xFF,0x0,0x0
0005d4 0000
0005d5 3f00
0005d6 003f
0005d7 0100      	.DB  0x0,0x0,0x0,0x3F,0x3F,0x0,0x0,0x1
0005d8 0703
0005d9 1c0e
0005da 3038
0005db 3f00      	.DB  0x3,0x7,0xE,0x1C,0x38,0x30,0x0,0x3F
0005dc 003f
0005dd 0100
0005de 0703
0005df 3c0e      	.DB  0x3F,0x0,0x0,0x1,0x3,0x7,0xE,0x3C
0005e0 0038
0005e1 3f3f
0005e2 0000
0005e3 0000      	.DB  0x38,0x0,0x3F,0x3F,0x0,0x0,0x0,0x0
0005e4 0000
0005e5 3f3f
0005e6 3f00
0005e7 303f      	.DB  0x0,0x0,0x3F,0x3F,0x0,0x3F,0x3F,0x30
0005e8 3030
0005e9 3030
0005ea 1f30
0005eb 000f      	.DB  0x30,0x30,0x30,0x30,0x30,0x1F,0xF,0x0
0005ec 3f3f
0005ed 0000
0005ee 0000
0005ef 0000      	.DB  0x3F,0x3F,0x0,0x0,0x0,0x0,0x0,0x0
0005f0 3f3f
0005f1 0f00
0005f2 301f
0005f3 3030      	.DB  0x3F,0x3F,0x0,0xF,0x1F,0x30,0x30,0x30
0005f4 3030
0005f5 3830
0005f6 0018
0005f7 0000      	.DB  0x30,0x30,0x30,0x38,0x18,0x0,0x0,0x0
0005f8 ff00
0005f9 00ff
0005fa 0000
0005fb ff00      	.DB  0x0,0xFF,0xFF,0x0,0x0,0x0,0x0,0xFF
0005fc 00ff
0005fd 03ff
0005fe 0303
0005ff 0303      	.DB  0xFF,0x0,0xFF,0x3,0x3,0x3,0x3,0x3
000600 0303
000601 0603
000602 190c
000603 6633      	.DB  0x3,0x3,0x3,0x6,0xC,0x19,0x33,0x66
000604 98cc
000605 6030
000606 80c0
000607 0000      	.DB  0xCC,0x98,0x30,0x60,0xC0,0x80,0x0,0x0
000608 0000
000609 0000
00060a 0000
00060b 0000      	.DB  0x0,0x0,0x0,0x0,0x0,0x0,0x0,0x0
00060c 0000
00060d 0000
00060e 0000
00060f 0000      	.DB  0x0,0x0,0x0,0x0,0x0,0x0,0x0,0x0
000610 0000
000611 0000
000612 ffff
000613 0000      	.DB  0x0,0x0,0x0,0x0,0xFF,0xFF,0x0,0x0
000614 0000
000615 0000
000616 0000
000617 0000      	.DB  0x0,0x0,0x0,0x0,0x0,0x0,0x0,0x0
000618 0000
000619 0000
00061a 0000
00061b 0000      	.DB  0x0,0x0,0x0,0x0,0x0,0x0,0x0,0x0
00061c 0000
00061d 0000
00061e 0000
00061f 0000      	.DB  0x0,0x0,0x0,0x0,0x0,0x0,0x0,0x0
000620 0000
000621 0000
000622 0000
000623 0000      	.DB  0x0,0x0,0x0,0x0,0x0,0x0,0x0,0x0
000624 0000
000625 0000
000626 0000
000627 0000      	.DB  0x0,0x0,0x0,0x0,0x0,0x0,0x0,0x0
000628 0000
000629 0000
00062a 0000
00062b 0000      	.DB  0x0,0x0,0x0,0x0,0x0,0x0,0x0,0x0
00062c 0000
00062d 0000
00062e 0000
00062f 0000      	.DB  0x0,0x0,0x0,0x0,0x0,0x0,0x0,0x0
000630 0000
000631 0000
000632 0000
000633 0000      	.DB  0x0,0x0,0x0,0x0,0x0,0x0,0x0,0x0
000634 0000
000635 0000
000636 0000
000637 0000      	.DB  0x0,0x0,0x0,0x0,0x0,0x0,0x0,0x0
000638 ff00
000639 00ff
00063a 0000
00063b ff00      	.DB  0x0,0xFF,0xFF,0x0,0x0,0x0,0x0,0xFF
00063c 00ff
00063d 00ff
00063e 0000
00063f 0000      	.DB  0xFF,0x0,0xFF,0x0,0x0,0x0,0x0,0x0
000640 0000
000641 0000
000642 0000
000643 0000      	.DB  0x0,0x0,0x0,0x0,0x0,0x0,0x0,0x0
000644 0100
000645 0603
000646 190c
000647 6633      	.DB  0x0,0x1,0x3,0x6,0xC,0x19,0x33,0x66
000648 4444
000649 e444
00064a b4f4
00064b e4f4      	.DB  0x44,0x44,0x44,0xE4,0xF4,0xB4,0xF4,0xE4
00064c 0404
00064d 0404
00064e 0404
00064f 1f0e      	.DB  0x4,0x4,0x4,0x4,0x4,0x4,0xE,0x1F
000650 1f1b
000651 000e
000652 ffff
000653 0000      	.DB  0x1B,0x1F,0xE,0x0,0xFF,0xFF,0x0,0x0
000654 fc00
000655 0000
000656 0000
000657 f800      	.DB  0x0,0xFC,0x0,0x0,0x0,0x0,0x0,0xF8
000658 0404
000659 f804
00065a 0c00
00065b 0404      	.DB  0x4,0x4,0x4,0xF8,0x0,0xC,0x4,0x4
00065c fc04
00065d f000
00065e 8488
00065f f088      	.DB  0x4,0xFC,0x0,0xF0,0x88,0x84,0x88,0xF0
000660 8000
000661 8080
000662 fc00
000663 8484      	.DB  0x0,0x80,0x80,0x80,0x0,0xFC,0x84,0x84
000664 0404
000665 f800
000666 0404
000667 0804      	.DB  0x4,0x4,0x0,0xF8,0x4,0x4,0x4,0x8
000668 fc00
000669 0000
00066a fc00
00066b f000      	.DB  0x0,0xFC,0x0,0x0,0x0,0xFC,0x0,0xF0
00066c 8488
00066d f088
00066e fc00
00066f 0404      	.DB  0x88,0x84,0x88,0xF0,0x0,0xFC,0x4,0x4
000670 f804
000671 f800
000672 0404
000673 f804      	.DB  0x4,0xF8,0x0,0xF8,0x4,0x4,0x4,0xF8
000674 fc00
000675 c444
000676 3844
000677 0000      	.DB  0x0,0xFC,0x44,0xC4,0x44,0x38,0x0,0x0
000678 ff00
000679 00ff
00067a 0600
00067b 0103      	.DB  0x0,0xFF,0xFF,0x0,0x0,0x6,0x3,0x1
00067c 3e1c
00067d 3e37
00067e 001c
00067f 0000      	.DB  0x1C,0x3E,0x37,0x3E,0x1C,0x0,0x0,0x0
000680 0000
000681 8000
000682 8080
000683 c080      	.DB  0x0,0x0,0x0,0x80,0x80,0x80,0x80,0xC0
000684 c0c0
000685 c0c0
000686 60e0
000687 6060      	.DB  0xC0,0xC0,0xC0,0xC0,0xE0,0x60,0x60,0x60
000688 3030
000689 3030
00068a 3931
00068b 1819      	.DB  0x30,0x30,0x30,0x30,0x31,0x39,0x19,0x18
00068c 1c18
00068d 0c0c
00068e 0c0c
00068f 060e      	.DB  0x18,0x1C,0xC,0xC,0xC,0xC,0xE,0x6
000690 0606
000691 0307
000692 0001
000693 0000      	.DB  0x6,0x6,0x7,0x3,0x1,0x0,0x0,0x0
000694 0f00
000695 0808
000696 0808
000697 0700      	.DB  0x0,0xF,0x8,0x8,0x8,0x8,0x0,0x7
000698 0808
000699 0708
00069a 0600
00069b 0808      	.DB  0x8,0x8,0x8,0x7,0x0,0x6,0x8,0x8
00069c 0708
00069d 0f00
00069e 0000
00069f 0f00      	.DB  0x8,0x7,0x0,0xF,0x0,0x0,0x0,0xF
0006a0 0000
0006a1 0000
0006a2 0f00
0006a3 0808      	.DB  0x0,0x0,0x0,0x0,0x0,0xF,0x8,0x8
0006a4 0808
0006a5 0700
0006a6 0808
0006a7 0408      	.DB  0x8,0x8,0x0,0x7,0x8,0x8,0x8,0x4
0006a8 0700
0006a9 0808
0006aa 0708
0006ab 0f00      	.DB  0x0,0x7,0x8,0x8,0x8,0x7,0x0,0xF
0006ac 0000
0006ad 0f00
0006ae 0f00
0006af 0808      	.DB  0x0,0x0,0x0,0xF,0x0,0xF,0x8,0x8
0006b0 0708
0006b1 0700
0006b2 0808
0006b3 0708      	.DB  0x8,0x7,0x0,0x7,0x8,0x8,0x8,0x7
0006b4 0f00
0006b5 0000
0006b6 0e01
0006b7 0000      	.DB  0x0,0xF,0x0,0x0,0x1,0xE,0x0,0x0
0006b8 0100
0006b9 0607
0006ba 0c0e
0006bb 0c0c      	.DB  0x0,0x1,0x7,0x6,0xE,0xC,0xC,0xC
0006bc 0c0c
0006bd 0606
0006be 0606
0006bf 0303      	.DB  0xC,0xC,0x6,0x6,0x6,0x6,0x3,0x3
0006c0 0303
0006c1 0103
0006c2 0101
0006c3 0101      	.DB  0x3,0x3,0x3,0x1,0x1,0x1,0x1,0x1
0006c4 0000
0006c5 0000
0006c6 0000
0006c7 0000      	.DB  0x0,0x0,0x0,0x0,0x0,0x0,0x0,0x0
0006c8 0000
0006c9 0000
0006ca 0000
0006cb 0000      	.DB  0x0,0x0,0x0,0x0,0x0,0x0,0x0,0x0
0006cc 0000
0006cd 0000
0006ce 0000
0006cf 0000      	.DB  0x0,0x0,0x0,0x0,0x0,0x0,0x0,0x0
0006d0 0000
0006d1 0000
0006d2 0000
0006d3 0000      	.DB  0x0,0x0,0x0,0x0,0x0,0x0,0x0,0x0
0006d4 0000
0006d5 0000
0006d6 0000
0006d7 0000      	.DB  0x0,0x0,0x0,0x0,0x0,0x0,0x0,0x0
0006d8 0000
0006d9 0000
0006da 0000
0006db 0000      	.DB  0x0,0x0,0x0,0x0,0x0,0x0,0x0,0x0
0006dc 0000
0006dd 0000
0006de 0000
0006df 0000      	.DB  0x0,0x0,0x0,0x0,0x0,0x0,0x0,0x0
0006e0 0000
0006e1 0000
0006e2 0000
0006e3 0000      	.DB  0x0,0x0,0x0,0x0,0x0,0x0,0x0,0x0
0006e4 0000
0006e5 0000
0006e6 0000
0006e7 0000      	.DB  0x0,0x0,0x0,0x0,0x0,0x0,0x0,0x0
0006e8 0000
0006e9 0000
0006ea 0000
0006eb 0000      	.DB  0x0,0x0,0x0,0x0,0x0,0x0,0x0,0x0
0006ec 0000
0006ed 0000
0006ee 0000
0006ef 0000      	.DB  0x0,0x0,0x0,0x0,0x0,0x0,0x0,0x0
0006f0 0000
0006f1 0000
0006f2 0000
0006f3 0000      	.DB  0x0,0x0,0x0,0x0,0x0,0x0,0x0,0x0
0006f4 0000
0006f5 0000
0006f6 0000
0006f7 0000      	.DB  0x0,0x0,0x0,0x0,0x0,0x0,0x0,0x0
                 _bus:
0006f8 0000
0006f9 0000
0006fa 0000
0006fb 0000      	.DB  0x0,0x0,0x0,0x0,0x0,0x0,0x0,0x0
0006fc 0000
0006fd 0000
0006fe 0000
0006ff 0000      	.DB  0x0,0x0,0x0,0x0,0x0,0x0,0x0,0x0
000700 0000
000701 0000
000702 0000
000703 0000      	.DB  0x0,0x0,0x0,0x0,0x0,0x0,0x0,0x0
000704 0000
000705 0000
000706 0000
000707 0000      	.DB  0x0,0x0,0x0,0x0,0x0,0x0,0x0,0x0
000708 0000
000709 0000
00070a 0000
00070b 0000      	.DB  0x0,0x0,0x0,0x0,0x0,0x0,0x0,0x0
00070c 0000
00070d 0000
00070e 0000
00070f 0000      	.DB  0x0,0x0,0x0,0x0,0x0,0x0,0x0,0x0
000710 0000
000711 0000
000712 0000
000713 0000      	.DB  0x0,0x0,0x0,0x0,0x0,0x0,0x0,0x0
000714 0000
000715 0000
000716 0000
000717 0000      	.DB  0x0,0x0,0x0,0x0,0x0,0x0,0x0,0x0
000718 0000
000719 0000
00071a 0000
00071b 0000      	.DB  0x0,0x0,0x0,0x0,0x0,0x0,0x0,0x0
00071c 0000
00071d 0000
00071e 0000
00071f 0000      	.DB  0x0,0x0,0x0,0x0,0x0,0x0,0x0,0x0
000720 0000
000721 0000
000722 0000
000723 0000      	.DB  0x0,0x0,0x0,0x0,0x0,0x0,0x0,0x0
000724 0000
000725 0000
000726 0000
000727 0000      	.DB  0x0,0x0,0x0,0x0,0x0,0x0,0x0,0x0
000728 0000
000729 0000
00072a 0000
00072b 0000      	.DB  0x0,0x0,0x0,0x0,0x0,0x0,0x0,0x0
00072c 0000
00072d 0000
00072e 0000
00072f 0000      	.DB  0x0,0x0,0x0,0x0,0x0,0x0,0x0,0x0
000730 0000
000731 0000
000732 0000
000733 0000      	.DB  0x0,0x0,0x0,0x0,0x0,0x0,0x0,0x0
000734 0000
000735 0000
000736 0000
000737 0000      	.DB  0x0,0x0,0x0,0x0,0x0,0x0,0x0,0x0
000738 0000
000739 0000
00073a c000
00073b f0e0      	.DB  0x0,0x0,0x0,0x0,0x0,0xC0,0xE0,0xF0
00073c f8f0
00073d f8f8
00073e f8f8
00073f fcfc      	.DB  0xF0,0xF8,0xF8,0xF8,0xF8,0xF8,0xFC,0xFC
000740 fcfc
000741 fcfc
000742 fcfc
000743 fcfc      	.DB  0xFC,0xFC,0xFC,0xFC,0xFC,0xFC,0xFC,0xFC
000744 fcfc
000745 fcfc
000746 fcfc
000747 fcfc      	.DB  0xFC,0xFC,0xFC,0xFC,0xFC,0xFC,0xFC,0xFC
000748 fcfc
000749 f8f8
00074a f8f8
00074b f0f8      	.DB  0xFC,0xFC,0xF8,0xF8,0xF8,0xF8,0xF8,0xF0
00074c e0e0
00074d 00c0
00074e 0000
00074f 0000      	.DB  0xE0,0xE0,0xC0,0x0,0x0,0x0,0x0,0x0
000750 0000
000751 0000
000752 0000
000753 0000      	.DB  0x0,0x0,0x0,0x0,0x0,0x0,0x0,0x0
000754 0000
000755 0000
000756 0000
000757 0000      	.DB  0x0,0x0,0x0,0x0,0x0,0x0,0x0,0x0
000758 0000
000759 0000
00075a 0000
00075b 0000      	.DB  0x0,0x0,0x0,0x0,0x0,0x0,0x0,0x0
00075c 0000
00075d 0000
00075e 0000
00075f 0000      	.DB  0x0,0x0,0x0,0x0,0x0,0x0,0x0,0x0
000760 0000
000761 0000
000762 0000
000763 0000      	.DB  0x0,0x0,0x0,0x0,0x0,0x0,0x0,0x0
000764 0000
000765 0000
000766 0000
000767 0000      	.DB  0x0,0x0,0x0,0x0,0x0,0x0,0x0,0x0
000768 0000
000769 0000
00076a 0000
00076b 0000      	.DB  0x0,0x0,0x0,0x0,0x0,0x0,0x0,0x0
00076c 0000
00076d 0000
00076e 0000
00076f 0000      	.DB  0x0,0x0,0x0,0x0,0x0,0x0,0x0,0x0
000770 0000
000771 0000
000772 0000
000773 0000      	.DB  0x0,0x0,0x0,0x0,0x0,0x0,0x0,0x0
000774 0000
000775 0000
000776 0000
000777 0000      	.DB  0x0,0x0,0x0,0x0,0x0,0x0,0x0,0x0
000778 0000
000779 0000
00077a fffe
00077b 03ff      	.DB  0x0,0x0,0x0,0x0,0xFE,0xFF,0xFF,0x3
00077c 0301
00077d 0303
00077e 0303
00077f 0303      	.DB  0x1,0x3,0x3,0x3,0x3,0x3,0x3,0x3
000780 0303
000781 0303
000782 0303
000783 ff03      	.DB  0x3,0x3,0x3,0x3,0x3,0x3,0x3,0xFF
000784 03ff
000785 0103
000786 0303
000787 0303      	.DB  0xFF,0x3,0x3,0x1,0x3,0x3,0x3,0x3
000788 0303
000789 0303
00078a 0303
00078b 0303      	.DB  0x3,0x3,0x3,0x3,0x3,0x3,0x3,0x3
00078c 0703
00078d feff
00078e 0000
00078f 0000      	.DB  0x3,0x7,0xFF,0xFE,0x0,0x0,0x0,0x0
000790 0000
000791 0000
000792 0000
000793 0000      	.DB  0x0,0x0,0x0,0x0,0x0,0x0,0x0,0x0
000794 0000
000795 0000
000796 0000
000797 0000      	.DB  0x0,0x0,0x0,0x0,0x0,0x0,0x0,0x0
000798 0000
000799 0000
00079a 0000
00079b 0000      	.DB  0x0,0x0,0x0,0x0,0x0,0x0,0x0,0x0
00079c 0000
00079d 0000
00079e 0000
00079f 0000      	.DB  0x0,0x0,0x0,0x0,0x0,0x0,0x0,0x0
0007a0 0000
0007a1 0000
0007a2 0000
0007a3 0000      	.DB  0x0,0x0,0x0,0x0,0x0,0x0,0x0,0x0
0007a4 0000
0007a5 0000
0007a6 0000
0007a7 0000      	.DB  0x0,0x0,0x0,0x0,0x0,0x0,0x0,0x0
0007a8 0000
0007a9 0000
0007aa 0000
0007ab 0000      	.DB  0x0,0x0,0x0,0x0,0x0,0x0,0x0,0x0
0007ac 0000
0007ad 0000
0007ae 0000
0007af 0000      	.DB  0x0,0x0,0x0,0x0,0x0,0x0,0x0,0x0
0007b0 0000
0007b1 0000
0007b2 0000
0007b3 0000      	.DB  0x0,0x0,0x0,0x0,0x0,0x0,0x0,0x0
0007b4 0000
0007b5 0000
0007b6 0000
0007b7 0000      	.DB  0x0,0x0,0x0,0x0,0x0,0x0,0x0,0x0
0007b8 0000
0007b9 0000
0007ba ffff
0007bb c0ff      	.DB  0x0,0x0,0x0,0x0,0xFF,0xFF,0xFF,0xC0
0007bc c0c0
0007bd c0c0
0007be c0c0
0007bf c0c0      	.DB  0xC0,0xC0,0xC0,0xC0,0xC0,0xC0,0xC0,0xC0
0007c0 c0c0
0007c1 c0c0
0007c2 c0c0
0007c3 ffe0      	.DB  0xC0,0xC0,0xC0,0xC0,0xC0,0xC0,0xE0,0xFF
0007c4 e0ff
0007c5 c0c0
0007c6 e0c0
0007c7 c8d0      	.DB  0xFF,0xE0,0xC0,0xC0,0xC0,0xE0,0xD0,0xC8
0007c8 c4c4
0007c9 c4c4
0007ca d0c8
0007cb c0e0      	.DB  0xC4,0xC4,0xC4,0xC4,0xC8,0xD0,0xE0,0xC0
0007cc f0e0
0007cd ffff
0007ce 0000
0007cf 0000      	.DB  0xE0,0xF0,0xFF,0xFF,0x0,0x0,0x0,0x0
0007d0 0000
0007d1 0000
0007d2 0000
0007d3 0000      	.DB  0x0,0x0,0x0,0x0,0x0,0x0,0x0,0x0
0007d4 0000
0007d5 0000
0007d6 0000
0007d7 0000      	.DB  0x0,0x0,0x0,0x0,0x0,0x0,0x0,0x0
0007d8 0000
0007d9 0000
0007da 0000
0007db 0000      	.DB  0x0,0x0,0x0,0x0,0x0,0x0,0x0,0x0
0007dc 0000
0007dd 0000
0007de 0000
0007df 0000      	.DB  0x0,0x0,0x0,0x0,0x0,0x0,0x0,0x0
0007e0 0000
0007e1 0000
0007e2 0000
0007e3 0000      	.DB  0x0,0x0,0x0,0x0,0x0,0x0,0x0,0x0
0007e4 0000
0007e5 0000
0007e6 0000
0007e7 0000      	.DB  0x0,0x0,0x0,0x0,0x0,0x0,0x0,0x0
0007e8 0000
0007e9 0000
0007ea 0000
0007eb 0000      	.DB  0x0,0x0,0x0,0x0,0x0,0x0,0x0,0x0
0007ec 0000
0007ed 0000
0007ee 0000
0007ef 0000      	.DB  0x0,0x0,0x0,0x0,0x0,0x0,0x0,0x0
0007f0 0000
0007f1 0000
0007f2 0000
0007f3 0000      	.DB  0x0,0x0,0x0,0x0,0x0,0x0,0x0,0x0
0007f4 0000
0007f5 0000
0007f6 0000
0007f7 0000      	.DB  0x0,0x0,0x0,0x0,0x0,0x0,0x0,0x0
0007f8 0000
0007f9 0000
0007fa ffff
0007fb ffff      	.DB  0x0,0x0,0x0,0x0,0xFF,0xFF,0xFF,0xFF
0007fc ffff
0007fd ffff
0007fe ffff
0007ff ffff      	.DB  0xFF,0xFF,0xFF,0xFF,0xFF,0xFF,0xFF,0xFF
000800 ffff
000801 ffff
000802 ffff
000803 ffff      	.DB  0xFF,0xFF,0xFF,0xFF,0xFF,0xFF,0xFF,0xFF
000804 ffff
000805 ffff
000806 ffff
000807 ffff      	.DB  0xFF,0xFF,0xFF,0xFF,0xFF,0xFF,0xFF,0xFF
000808 ffff
000809 ffff
00080a ffff
00080b ffff      	.DB  0xFF,0xFF,0xFF,0xFF,0xFF,0xFF,0xFF,0xFF
00080c ffff
00080d ffff
00080e 0000
00080f 0000      	.DB  0xFF,0xFF,0xFF,0xFF,0x0,0x0,0x0,0x0
000810 0000
000811 0000
000812 0000
000813 0000      	.DB  0x0,0x0,0x0,0x0,0x0,0x0,0x0,0x0
000814 0000
000815 0000
000816 0000
000817 0000      	.DB  0x0,0x0,0x0,0x0,0x0,0x0,0x0,0x0
000818 0000
000819 0000
00081a 0000
00081b 0000      	.DB  0x0,0x0,0x0,0x0,0x0,0x0,0x0,0x0
00081c 0000
00081d 0000
00081e 0000
00081f 0000      	.DB  0x0,0x0,0x0,0x0,0x0,0x0,0x0,0x0
000820 0000
000821 0000
000822 0000
000823 0000      	.DB  0x0,0x0,0x0,0x0,0x0,0x0,0x0,0x0
000824 0000
000825 0000
000826 0000
000827 0000      	.DB  0x0,0x0,0x0,0x0,0x0,0x0,0x0,0x0
000828 0000
000829 0000
00082a 0000
00082b 0000      	.DB  0x0,0x0,0x0,0x0,0x0,0x0,0x0,0x0
00082c 0000
00082d 0000
00082e 0000
00082f 0000      	.DB  0x0,0x0,0x0,0x0,0x0,0x0,0x0,0x0
000830 0000
000831 0000
000832 0000
000833 0000      	.DB  0x0,0x0,0x0,0x0,0x0,0x0,0x0,0x0
000834 0000
000835 0000
000836 0000
000837 0000      	.DB  0x0,0x0,0x0,0x0,0x0,0x0,0x0,0x0
000838 0000
000839 0000
00083a ff3f
00083b e1ff      	.DB  0x0,0x0,0x0,0x0,0x3F,0xFF,0xFF,0xE1
00083c e1e1
00083d ffe1
00083e ffff
00083f d9f9      	.DB  0xE1,0xE1,0xE1,0xFF,0xFF,0xFF,0xF9,0xD9
000840 d9d9
000841 d9d9
000842 d9d9
000843 d9d9      	.DB  0xD9,0xD9,0xD9,0xD9,0xD9,0xD9,0xD9,0xD9
000844 d9d9
000845 d9d9
000846 d9d9
000847 d9d9      	.DB  0xD9,0xD9,0xD9,0xD9,0xD9,0xD9,0xD9,0xD9
000848 fbc9
000849 ffff
00084a e1ff
00084b c1e1      	.DB  0xC9,0xFB,0xFF,0xFF,0xFF,0xE1,0xE1,0xC1
00084c f7e1
00084d 3fff
00084e 0000
00084f 0000      	.DB  0xE1,0xF7,0xFF,0x3F,0x0,0x0,0x0,0x0
000850 0000
000851 0000
000852 0000
000853 0000      	.DB  0x0,0x0,0x0,0x0,0x0,0x0,0x0,0x0
000854 0000
000855 0000
000856 0000
000857 0000      	.DB  0x0,0x0,0x0,0x0,0x0,0x0,0x0,0x0
000858 0000
000859 0000
00085a 0000
00085b 0000      	.DB  0x0,0x0,0x0,0x0,0x0,0x0,0x0,0x0
00085c 0000
00085d 0000
00085e 0000
00085f 0000      	.DB  0x0,0x0,0x0,0x0,0x0,0x0,0x0,0x0
000860 0000
000861 0000
000862 0000
000863 0000      	.DB  0x0,0x0,0x0,0x0,0x0,0x0,0x0,0x0
000864 0000
000865 0000
000866 0000
000867 0000      	.DB  0x0,0x0,0x0,0x0,0x0,0x0,0x0,0x0
000868 0000
000869 0000
00086a 0000
00086b 0000      	.DB  0x0,0x0,0x0,0x0,0x0,0x0,0x0,0x0
00086c 0000
00086d 0000
00086e 0000
00086f 0000      	.DB  0x0,0x0,0x0,0x0,0x0,0x0,0x0,0x0
000870 0000
000871 0000
000872 0000
000873 0000      	.DB  0x0,0x0,0x0,0x0,0x0,0x0,0x0,0x0
000874 0000
000875 0000
000876 0000
000877 0000      	.DB  0x0,0x0,0x0,0x0,0x0,0x0,0x0,0x0
000878 0000
000879 0000
00087a 0000
00087b 3f1f      	.DB  0x0,0x0,0x0,0x0,0x0,0x0,0x1F,0x3F
00087c 3f3f
00087d 3f3f
00087e 003f
00087f 0000      	.DB  0x3F,0x3F,0x3F,0x3F,0x3F,0x0,0x0,0x0
000880 0000
000881 0000
000882 0000
000883 0000      	.DB  0x0,0x0,0x0,0x0,0x0,0x0,0x0,0x0
000884 0000
000885 0000
000886 0000
000887 0000      	.DB  0x0,0x0,0x0,0x0,0x0,0x0,0x0,0x0
000888 0000
000889 3f1f
00088a 3f3f
00088b 3f3f      	.DB  0x0,0x0,0x1F,0x3F,0x3F,0x3F,0x3F,0x3F
00088c 1f3f
00088d 0000
00088e 0000
00088f 0000      	.DB  0x3F,0x1F,0x0,0x0,0x0,0x0,0x0,0x0
000890 0000
000891 0000
000892 0000
000893 0000      	.DB  0x0,0x0,0x0,0x0,0x0,0x0,0x0,0x0
000894 0000
000895 0000
000896 0000
000897 0000      	.DB  0x0,0x0,0x0,0x0,0x0,0x0,0x0,0x0
000898 0000
000899 0000
00089a 0000
00089b 0000      	.DB  0x0,0x0,0x0,0x0,0x0,0x0,0x0,0x0
00089c 0000
00089d 0000
00089e 0000
00089f 0000      	.DB  0x0,0x0,0x0,0x0,0x0,0x0,0x0,0x0
0008a0 0000
0008a1 0000
0008a2 0000
0008a3 0000      	.DB  0x0,0x0,0x0,0x0,0x0,0x0,0x0,0x0
0008a4 0000
0008a5 0000
0008a6 0000
0008a7 0000      	.DB  0x0,0x0,0x0,0x0,0x0,0x0,0x0,0x0
0008a8 0000
0008a9 0000
0008aa 0000
0008ab 0000      	.DB  0x0,0x0,0x0,0x0,0x0,0x0,0x0,0x0
0008ac 0000
0008ad 0000
0008ae 0000
0008af 0000      	.DB  0x0,0x0,0x0,0x0,0x0,0x0,0x0,0x0
0008b0 0000
0008b1 0000
0008b2 0000
0008b3 0000      	.DB  0x0,0x0,0x0,0x0,0x0,0x0,0x0,0x0
0008b4 0000
0008b5 0000
0008b6 0000
0008b7 0000      	.DB  0x0,0x0,0x0,0x0,0x0,0x0,0x0,0x0
0008b8 0000
0008b9 0000
0008ba 0000
0008bb 0000      	.DB  0x0,0x0,0x0,0x0,0x0,0x0,0x0,0x0
0008bc 0000
0008bd 0000
0008be 0000
0008bf 0000      	.DB  0x0,0x0,0x0,0x0,0x0,0x0,0x0,0x0
0008c0 0000
0008c1 0000
0008c2 0000
0008c3 0000      	.DB  0x0,0x0,0x0,0x0,0x0,0x0,0x0,0x0
0008c4 0000
0008c5 0000
0008c6 0000
0008c7 0000      	.DB  0x0,0x0,0x0,0x0,0x0,0x0,0x0,0x0
0008c8 0000
0008c9 0000
0008ca 0000
0008cb 0000      	.DB  0x0,0x0,0x0,0x0,0x0,0x0,0x0,0x0
0008cc 0000
0008cd 0000
0008ce 0000
0008cf 0000      	.DB  0x0,0x0,0x0,0x0,0x0,0x0,0x0,0x0
0008d0 0000
0008d1 0000
0008d2 0000
0008d3 0000      	.DB  0x0,0x0,0x0,0x0,0x0,0x0,0x0,0x0
0008d4 0000
0008d5 0000
0008d6 0000
0008d7 0000      	.DB  0x0,0x0,0x0,0x0,0x0,0x0,0x0,0x0
0008d8 0000
0008d9 0000
0008da 0000
0008db 0000      	.DB  0x0,0x0,0x0,0x0,0x0,0x0,0x0,0x0
0008dc 0000
0008dd 0000
0008de 0000
0008df 0000      	.DB  0x0,0x0,0x0,0x0,0x0,0x0,0x0,0x0
0008e0 0000
0008e1 0000
0008e2 0000
0008e3 0000      	.DB  0x0,0x0,0x0,0x0,0x0,0x0,0x0,0x0
0008e4 0000
0008e5 0000
0008e6 0000
0008e7 0000      	.DB  0x0,0x0,0x0,0x0,0x0,0x0,0x0,0x0
0008e8 0000
0008e9 0000
0008ea 0000
0008eb 0000      	.DB  0x0,0x0,0x0,0x0,0x0,0x0,0x0,0x0
0008ec 0000
0008ed 0000
0008ee 0000
0008ef 0000      	.DB  0x0,0x0,0x0,0x0,0x0,0x0,0x0,0x0
0008f0 0000
0008f1 0000
0008f2 0000
0008f3 0000      	.DB  0x0,0x0,0x0,0x0,0x0,0x0,0x0,0x0
0008f4 0000
0008f5 0000
0008f6 0000
0008f7 0000      	.DB  0x0,0x0,0x0,0x0,0x0,0x0,0x0,0x0
                 _vacio:
0008f8 0000
0008f9 0000
0008fa 0000
0008fb 0000      	.DB  0x0,0x0,0x0,0x0,0x0,0x0,0x0,0x0
0008fc 0000
0008fd 0000
0008fe 0000
0008ff 0000      	.DB  0x0,0x0,0x0,0x0,0x0,0x0,0x0,0x0
000900 0000
000901 0000
000902 0000
000903 0000      	.DB  0x0,0x0,0x0,0x0,0x0,0x0,0x0,0x0
000904 0000
000905 0000
000906 0000
000907 0000      	.DB  0x0,0x0,0x0,0x0,0x0,0x0,0x0,0x0
000908 0000
000909 0000
00090a 0000
00090b 0000      	.DB  0x0,0x0,0x0,0x0,0x0,0x0,0x0,0x0
00090c 0000
00090d 0000
00090e 0000
00090f 0000      	.DB  0x0,0x0,0x0,0x0,0x0,0x0,0x0,0x0
000910 0000
000911 0000
000912 0000
000913 0000      	.DB  0x0,0x0,0x0,0x0,0x0,0x0,0x0,0x0
000914 0000
000915 0000
000916 0000
000917 0000      	.DB  0x0,0x0,0x0,0x0,0x0,0x0,0x0,0x0
000918 0000
000919 0000
00091a 0000
00091b 0000      	.DB  0x0,0x0,0x0,0x0,0x0,0x0,0x0,0x0
00091c 0000
00091d 0000
00091e 0000
00091f 0000      	.DB  0x0,0x0,0x0,0x0,0x0,0x0,0x0,0x0
000920 0000
000921 0000
000922 0000
000923 0000      	.DB  0x0,0x0,0x0,0x0,0x0,0x0,0x0,0x0
000924 0000
000925 0000
000926 0000
000927 0000      	.DB  0x0,0x0,0x0,0x0,0x0,0x0,0x0,0x0
000928 0000
000929 0000
00092a 0000
00092b 0000      	.DB  0x0,0x0,0x0,0x0,0x0,0x0,0x0,0x0
00092c 0000
00092d 0000
00092e 0000
00092f 0000      	.DB  0x0,0x0,0x0,0x0,0x0,0x0,0x0,0x0
000930 0000
000931 0000
000932 0000
000933 0000      	.DB  0x0,0x0,0x0,0x0,0x0,0x0,0x0,0x0
000934 0000
000935 0000
000936 0000
000937 0000      	.DB  0x0,0x0,0x0,0x0,0x0,0x0,0x0,0x0
000938 0000
000939 0000
00093a 0000
00093b 0000      	.DB  0x0,0x0,0x0,0x0,0x0,0x0,0x0,0x0
00093c 0000
00093d 0000
00093e 0000
00093f 0000      	.DB  0x0,0x0,0x0,0x0,0x0,0x0,0x0,0x0
000940 0000
000941 0000
000942 0000
000943 0000      	.DB  0x0,0x0,0x0,0x0,0x0,0x0,0x0,0x0
000944 0000
000945 0000
000946 0000
000947 0000      	.DB  0x0,0x0,0x0,0x0,0x0,0x0,0x0,0x0
000948 0000
000949 0000
00094a 0000
00094b 0000      	.DB  0x0,0x0,0x0,0x0,0x0,0x0,0x0,0x0
00094c 0000
00094d 0000
00094e 0000
00094f 0000      	.DB  0x0,0x0,0x0,0x0,0x0,0x0,0x0,0x0
000950 0000
000951 0000
000952 0000
000953 0000      	.DB  0x0,0x0,0x0,0x0,0x0,0x0,0x0,0x0
000954 0000
000955 0000
000956 0000
000957 0000      	.DB  0x0,0x0,0x0,0x0,0x0,0x0,0x0,0x0
000958 0000
000959 0000
00095a 0000
00095b 0000      	.DB  0x0,0x0,0x0,0x0,0x0,0x0,0x0,0x0
00095c 0000
00095d 0000
00095e 0000
00095f 0000      	.DB  0x0,0x0,0x0,0x0,0x0,0x0,0x0,0x0
000960 0000
000961 0000
000962 0000
000963 0000      	.DB  0x0,0x0,0x0,0x0,0x0,0x0,0x0,0x0
000964 0000
000965 0000
000966 0000
000967 0000      	.DB  0x0,0x0,0x0,0x0,0x0,0x0,0x0,0x0
000968 0000
000969 0000
00096a 0000
00096b 0000      	.DB  0x0,0x0,0x0,0x0,0x0,0x0,0x0,0x0
00096c 0000
00096d 0000
00096e 0000
00096f 0000      	.DB  0x0,0x0,0x0,0x0,0x0,0x0,0x0,0x0
000970 0000
000971 0000
000972 0000
000973 0000      	.DB  0x0,0x0,0x0,0x0,0x0,0x0,0x0,0x0
000974 0000
000975 0000
000976 0000
000977 0000      	.DB  0x0,0x0,0x0,0x0,0x0,0x0,0x0,0x0
000978 0000
000979 0000
00097a 0000
00097b 0000      	.DB  0x0,0x0,0x0,0x0,0x0,0x0,0x0,0x0
00097c 0000
00097d 0000
00097e 0000
00097f 0000      	.DB  0x0,0x0,0x0,0x0,0x0,0x0,0x0,0x0
000980 0000
000981 0000
000982 0000
000983 0000      	.DB  0x0,0x0,0x0,0x0,0x0,0x0,0x0,0x0
000984 0000
000985 0000
000986 0000
000987 0000      	.DB  0x0,0x0,0x0,0x0,0x0,0x0,0x0,0x0
000988 0000
000989 0000
00098a 0000
00098b 0000      	.DB  0x0,0x0,0x0,0x0,0x0,0x0,0x0,0x0
00098c 0000
00098d 0000
00098e 0000
00098f 0000      	.DB  0x0,0x0,0x0,0x0,0x0,0x0,0x0,0x0
000990 0000
000991 0000
000992 0000
000993 0000      	.DB  0x0,0x0,0x0,0x0,0x0,0x0,0x0,0x0
000994 0000
000995 0000
000996 0000
000997 0000      	.DB  0x0,0x0,0x0,0x0,0x0,0x0,0x0,0x0
000998 0000
000999 0000
00099a 0000
00099b 0000      	.DB  0x0,0x0,0x0,0x0,0x0,0x0,0x0,0x0
00099c 0000
00099d 0000
00099e 0000
00099f 0000      	.DB  0x0,0x0,0x0,0x0,0x0,0x0,0x0,0x0
0009a0 0000
0009a1 0000
0009a2 0000
0009a3 0000      	.DB  0x0,0x0,0x0,0x0,0x0,0x0,0x0,0x0
0009a4 0000
0009a5 0000
0009a6 0000
0009a7 0000      	.DB  0x0,0x0,0x0,0x0,0x0,0x0,0x0,0x0
0009a8 0000
0009a9 0000
0009aa 0000
0009ab 0000      	.DB  0x0,0x0,0x0,0x0,0x0,0x0,0x0,0x0
0009ac 0000
0009ad 0000
0009ae 0000
0009af 0000      	.DB  0x0,0x0,0x0,0x0,0x0,0x0,0x0,0x0
0009b0 0000
0009b1 0000
0009b2 0000
0009b3 0000      	.DB  0x0,0x0,0x0,0x0,0x0,0x0,0x0,0x0
0009b4 0000
0009b5 0000
0009b6 0000
0009b7 0000      	.DB  0x0,0x0,0x0,0x0,0x0,0x0,0x0,0x0
0009b8 0000
0009b9 0000
0009ba 0000
0009bb 0000      	.DB  0x0,0x0,0x0,0x0,0x0,0x0,0x0,0x0
0009bc 0000
0009bd 0000
0009be 0000
0009bf 0000      	.DB  0x0,0x0,0x0,0x0,0x0,0x0,0x0,0x0
0009c0 0000
0009c1 0000
0009c2 0000
0009c3 0000      	.DB  0x0,0x0,0x0,0x0,0x0,0x0,0x0,0x0
0009c4 0000
0009c5 0000
0009c6 0000
0009c7 0000      	.DB  0x0,0x0,0x0,0x0,0x0,0x0,0x0,0x0
0009c8 0000
0009c9 0000
0009ca 0000
0009cb 0000      	.DB  0x0,0x0,0x0,0x0,0x0,0x0,0x0,0x0
0009cc 0000
0009cd 0000
0009ce 0000
0009cf 0000      	.DB  0x0,0x0,0x0,0x0,0x0,0x0,0x0,0x0
0009d0 0000
0009d1 0000
0009d2 0000
0009d3 0000      	.DB  0x0,0x0,0x0,0x0,0x0,0x0,0x0,0x0
0009d4 0000
0009d5 0000
0009d6 0000
0009d7 0000      	.DB  0x0,0x0,0x0,0x0,0x0,0x0,0x0,0x0
0009d8 0000
0009d9 0000
0009da 0000
0009db 0000      	.DB  0x0,0x0,0x0,0x0,0x0,0x0,0x0,0x0
0009dc 0000
0009dd 0000
0009de 0000
0009df 0000      	.DB  0x0,0x0,0x0,0x0,0x0,0x0,0x0,0x0
0009e0 0000
0009e1 0000
0009e2 0000
0009e3 0000      	.DB  0x0,0x0,0x0,0x0,0x0,0x0,0x0,0x0
0009e4 0000
0009e5 0000
0009e6 0000
0009e7 0000      	.DB  0x0,0x0,0x0,0x0,0x0,0x0,0x0,0x0
0009e8 0000
0009e9 0000
0009ea 0000
0009eb 0000      	.DB  0x0,0x0,0x0,0x0,0x0,0x0,0x0,0x0
0009ec 0000
0009ed 0000
0009ee 0000
0009ef 0000      	.DB  0x0,0x0,0x0,0x0,0x0,0x0,0x0,0x0
0009f0 0000
0009f1 0000
0009f2 0000
0009f3 0000      	.DB  0x0,0x0,0x0,0x0,0x0,0x0,0x0,0x0
0009f4 0000
0009f5 0000
0009f6 0000
0009f7 0000      	.DB  0x0,0x0,0x0,0x0,0x0,0x0,0x0,0x0
0009f8 0000
0009f9 0000
0009fa 0000
0009fb 0000      	.DB  0x0,0x0,0x0,0x0,0x0,0x0,0x0,0x0
0009fc 0000
0009fd 0000
0009fe 0000
0009ff 0000      	.DB  0x0,0x0,0x0,0x0,0x0,0x0,0x0,0x0
000a00 0000
000a01 0000
000a02 0000
000a03 0000      	.DB  0x0,0x0,0x0,0x0,0x0,0x0,0x0,0x0
000a04 0000
000a05 0000
000a06 0000
000a07 0000      	.DB  0x0,0x0,0x0,0x0,0x0,0x0,0x0,0x0
000a08 0000
000a09 0000
000a0a 0000
000a0b 0000      	.DB  0x0,0x0,0x0,0x0,0x0,0x0,0x0,0x0
000a0c 0000
000a0d 0000
000a0e 0000
000a0f 0000      	.DB  0x0,0x0,0x0,0x0,0x0,0x0,0x0,0x0
000a10 0000
000a11 0000
000a12 0000
000a13 0000      	.DB  0x0,0x0,0x0,0x0,0x0,0x0,0x0,0x0
000a14 0000
000a15 0000
000a16 0000
000a17 0000      	.DB  0x0,0x0,0x0,0x0,0x0,0x0,0x0,0x0
000a18 0000
000a19 0000
000a1a 0000
000a1b 0000      	.DB  0x0,0x0,0x0,0x0,0x0,0x0,0x0,0x0
000a1c 0000
000a1d 0000
000a1e 0000
000a1f 0000      	.DB  0x0,0x0,0x0,0x0,0x0,0x0,0x0,0x0
000a20 0000
000a21 0000
000a22 0000
000a23 0000      	.DB  0x0,0x0,0x0,0x0,0x0,0x0,0x0,0x0
000a24 0000
000a25 0000
000a26 0000
000a27 0000      	.DB  0x0,0x0,0x0,0x0,0x0,0x0,0x0,0x0
000a28 0000
000a29 0000
000a2a 0000
000a2b 0000      	.DB  0x0,0x0,0x0,0x0,0x0,0x0,0x0,0x0
000a2c 0000
000a2d 0000
000a2e 0000
000a2f 0000      	.DB  0x0,0x0,0x0,0x0,0x0,0x0,0x0,0x0
000a30 0000
000a31 0000
000a32 0000
000a33 0000      	.DB  0x0,0x0,0x0,0x0,0x0,0x0,0x0,0x0
000a34 0000
000a35 0000
000a36 0000
000a37 0000      	.DB  0x0,0x0,0x0,0x0,0x0,0x0,0x0,0x0
000a38 0000
000a39 0000
000a3a 0000
000a3b 0000      	.DB  0x0,0x0,0x0,0x0,0x0,0x0,0x0,0x0
000a3c 0000
000a3d 0000
000a3e 0000
000a3f 0000      	.DB  0x0,0x0,0x0,0x0,0x0,0x0,0x0,0x0
000a40 0000
000a41 0000
000a42 0000
000a43 0000      	.DB  0x0,0x0,0x0,0x0,0x0,0x0,0x0,0x0
000a44 0000
000a45 0000
000a46 0000
000a47 0000      	.DB  0x0,0x0,0x0,0x0,0x0,0x0,0x0,0x0
000a48 0000
000a49 0000
000a4a 0000
000a4b 0000      	.DB  0x0,0x0,0x0,0x0,0x0,0x0,0x0,0x0
000a4c 0000
000a4d 0000
000a4e 0000
000a4f 0000      	.DB  0x0,0x0,0x0,0x0,0x0,0x0,0x0,0x0
000a50 0000
000a51 0000
000a52 0000
000a53 0000      	.DB  0x0,0x0,0x0,0x0,0x0,0x0,0x0,0x0
000a54 0000
000a55 0000
000a56 0000
000a57 0000      	.DB  0x0,0x0,0x0,0x0,0x0,0x0,0x0,0x0
000a58 0000
000a59 0000
000a5a 0000
000a5b 0000      	.DB  0x0,0x0,0x0,0x0,0x0,0x0,0x0,0x0
000a5c 0000
000a5d 0000
000a5e 0000
000a5f 0000      	.DB  0x0,0x0,0x0,0x0,0x0,0x0,0x0,0x0
000a60 0000
000a61 0000
000a62 0000
000a63 0000      	.DB  0x0,0x0,0x0,0x0,0x0,0x0,0x0,0x0
000a64 0000
000a65 0000
000a66 0000
000a67 0000      	.DB  0x0,0x0,0x0,0x0,0x0,0x0,0x0,0x0
000a68 0000
000a69 0000
000a6a 0000
000a6b 0000      	.DB  0x0,0x0,0x0,0x0,0x0,0x0,0x0,0x0
000a6c 0000
000a6d 0000
000a6e 0000
000a6f 0000      	.DB  0x0,0x0,0x0,0x0,0x0,0x0,0x0,0x0
000a70 0000
000a71 0000
000a72 0000
000a73 0000      	.DB  0x0,0x0,0x0,0x0,0x0,0x0,0x0,0x0
000a74 0000
000a75 0000
000a76 0000
000a77 0000      	.DB  0x0,0x0,0x0,0x0,0x0,0x0,0x0,0x0
000a78 0000
000a79 0000
000a7a f800
000a7b c284      	.DB  0x0,0x0,0x0,0x0,0x0,0xF8,0x84,0xC2
000a7c 0202
000a7d 0202
000a7e 02fe
000a7f 0202      	.DB  0x2,0x2,0x2,0x2,0xFE,0x2,0x2,0x2
000a80 fec2
000a81 0202
000a82 0202
000a83 f8c4      	.DB  0xC2,0xFE,0x2,0x2,0x2,0x2,0xC4,0xF8
000a84 0000
000a85 0000
000a86 0000
000a87 0000      	.DB  0x0,0x0,0x0,0x0,0x0,0x0,0x0,0x0
000a88 0000
000a89 0000
000a8a 0000
000a8b 0000      	.DB  0x0,0x0,0x0,0x0,0x0,0x0,0x0,0x0
000a8c 0000
000a8d 0000
000a8e 0000
000a8f 0000      	.DB  0x0,0x0,0x0,0x0,0x0,0x0,0x0,0x0
000a90 0000
000a91 0000
000a92 0000
000a93 0000      	.DB  0x0,0x0,0x0,0x0,0x0,0x0,0x0,0x0
000a94 0000
000a95 0000
000a96 0000
000a97 0000      	.DB  0x0,0x0,0x0,0x0,0x0,0x0,0x0,0x0
000a98 0000
000a99 0000
000a9a 0000
000a9b 0000      	.DB  0x0,0x0,0x0,0x0,0x0,0x0,0x0,0x0
000a9c 0000
000a9d 0000
000a9e 0000
000a9f 0000      	.DB  0x0,0x0,0x0,0x0,0x0,0x0,0x0,0x0
000aa0 0000
000aa1 0000
000aa2 0000
000aa3 0000      	.DB  0x0,0x0,0x0,0x0,0x0,0x0,0x0,0x0
000aa4 0000
000aa5 0000
000aa6 0000
000aa7 0000      	.DB  0x0,0x0,0x0,0x0,0x0,0x0,0x0,0x0
000aa8 0000
000aa9 0000
000aaa 0000
000aab 0000      	.DB  0x0,0x0,0x0,0x0,0x0,0x0,0x0,0x0
000aac 0000
000aad 0000
000aae 0000
000aaf 0000      	.DB  0x0,0x0,0x0,0x0,0x0,0x0,0x0,0x0
000ab0 0000
000ab1 0000
000ab2 0000
000ab3 0000      	.DB  0x0,0x0,0x0,0x0,0x0,0x0,0x0,0x0
000ab4 0000
000ab5 0000
000ab6 0000
000ab7 0000      	.DB  0x0,0x0,0x0,0x0,0x0,0x0,0x0,0x0
000ab8 0000
000ab9 1e00
000aba 7f1f
000abb fdff      	.DB  0x0,0x0,0x0,0x1E,0x1F,0x7F,0xFF,0xFD
000abc 1c7c
000abd 1c1c
000abe 1c1f
000abf 1c1c      	.DB  0x7C,0x1C,0x1C,0x1C,0x1F,0x1C,0x1C,0x1C
000ac0 1f1f
000ac1 fc7c
000ac2 7cfc
000ac3 0f1f      	.DB  0x1F,0x1F,0x7C,0xFC,0xFC,0x7C,0x1F,0xF
000ac4 0000
000ac5 0000
000ac6 0000
000ac7 0000      	.DB  0x0,0x0,0x0,0x0,0x0,0x0,0x0,0x0
000ac8 0000
000ac9 0000
000aca 0000
000acb 0000      	.DB  0x0,0x0,0x0,0x0,0x0,0x0,0x0,0x0
000acc 0000
000acd 0000
000ace 0000
000acf 0000      	.DB  0x0,0x0,0x0,0x0,0x0,0x0,0x0,0x0
000ad0 0000
000ad1 0000
000ad2 0000
000ad3 0000      	.DB  0x0,0x0,0x0,0x0,0x0,0x0,0x0,0x0
000ad4 0000
000ad5 0000
000ad6 0000
000ad7 0000      	.DB  0x0,0x0,0x0,0x0,0x0,0x0,0x0,0x0
000ad8 0000
000ad9 0000
000ada 0000
000adb 0000      	.DB  0x0,0x0,0x0,0x0,0x0,0x0,0x0,0x0
000adc 0000
000add 0000
000ade 0000
000adf 0000      	.DB  0x0,0x0,0x0,0x0,0x0,0x0,0x0,0x0
000ae0 0000
000ae1 0000
000ae2 0000
000ae3 0000      	.DB  0x0,0x0,0x0,0x0,0x0,0x0,0x0,0x0
000ae4 0000
000ae5 0000
000ae6 0000
000ae7 0000      	.DB  0x0,0x0,0x0,0x0,0x0,0x0,0x0,0x0
000ae8 0000
000ae9 0000
000aea 0000
000aeb 0000      	.DB  0x0,0x0,0x0,0x0,0x0,0x0,0x0,0x0
000aec 0000
000aed 0000
000aee 0000
000aef 0000      	.DB  0x0,0x0,0x0,0x0,0x0,0x0,0x0,0x0
000af0 0000
000af1 0000
000af2 0000
000af3 0000      	.DB  0x0,0x0,0x0,0x0,0x0,0x0,0x0,0x0
000af4 0000
000af5 0000
000af6 0000
000af7 0000      	.DB  0x0,0x0,0x0,0x0,0x0,0x0,0x0,0x0
                 _frente:
000af8 0000
000af9 0000
000afa 0000
000afb 0000      	.DB  0x0,0x0,0x0,0x0,0x0,0x0,0x0,0x0
000afc 0000
000afd 0000
000afe 0000
000aff 0000      	.DB  0x0,0x0,0x0,0x0,0x0,0x0,0x0,0x0
000b00 0000
000b01 0000
000b02 0000
000b03 0000      	.DB  0x0,0x0,0x0,0x0,0x0,0x0,0x0,0x0
000b04 0000
000b05 0000
000b06 0000
000b07 0000      	.DB  0x0,0x0,0x0,0x0,0x0,0x0,0x0,0x0
000b08 0000
000b09 0000
000b0a 0000
000b0b 0000      	.DB  0x0,0x0,0x0,0x0,0x0,0x0,0x0,0x0
000b0c 0000
000b0d 0000
000b0e 0000
000b0f 0000      	.DB  0x0,0x0,0x0,0x0,0x0,0x0,0x0,0x0
000b10 0000
000b11 0000
000b12 0000
000b13 0000      	.DB  0x0,0x0,0x0,0x0,0x0,0x0,0x0,0x0
000b14 0000
000b15 0000
000b16 0000
000b17 0000      	.DB  0x0,0x0,0x0,0x0,0x0,0x0,0x0,0x0
000b18 0000
000b19 0000
000b1a 0000
000b1b 0000      	.DB  0x0,0x0,0x0,0x0,0x0,0x0,0x0,0x0
000b1c 0000
000b1d 0000
000b1e 0000
000b1f 0000      	.DB  0x0,0x0,0x0,0x0,0x0,0x0,0x0,0x0
000b20 0000
000b21 0000
000b22 0000
000b23 0000      	.DB  0x0,0x0,0x0,0x0,0x0,0x0,0x0,0x0
000b24 0000
000b25 0000
000b26 0000
000b27 0000      	.DB  0x0,0x0,0x0,0x0,0x0,0x0,0x0,0x0
000b28 0000
000b29 0000
000b2a 0000
000b2b 0000      	.DB  0x0,0x0,0x0,0x0,0x0,0x0,0x0,0x0
000b2c 0000
000b2d 0000
000b2e 0000
000b2f 0000      	.DB  0x0,0x0,0x0,0x0,0x0,0x0,0x0,0x0
000b30 0000
000b31 0000
000b32 0000
000b33 0000      	.DB  0x0,0x0,0x0,0x0,0x0,0x0,0x0,0x0
000b34 0000
000b35 0000
000b36 0000
000b37 0000      	.DB  0x0,0x0,0x0,0x0,0x0,0x0,0x0,0x0
000b38 0000
000b39 0000
000b3a 0000
000b3b 0000      	.DB  0x0,0x0,0x0,0x0,0x0,0x0,0x0,0x0
000b3c 0000
000b3d 0000
000b3e 0000
000b3f 0000      	.DB  0x0,0x0,0x0,0x0,0x0,0x0,0x0,0x0
000b40 0000
000b41 0000
000b42 0000
000b43 0000      	.DB  0x0,0x0,0x0,0x0,0x0,0x0,0x0,0x0
000b44 0000
000b45 0000
000b46 0000
000b47 0000      	.DB  0x0,0x0,0x0,0x0,0x0,0x0,0x0,0x0
000b48 0000
000b49 0000
000b4a 0000
000b4b 0000      	.DB  0x0,0x0,0x0,0x0,0x0,0x0,0x0,0x0
000b4c 0000
000b4d 0000
000b4e 0000
000b4f 0000      	.DB  0x0,0x0,0x0,0x0,0x0,0x0,0x0,0x0
000b50 0000
000b51 0000
000b52 0000
000b53 0000      	.DB  0x0,0x0,0x0,0x0,0x0,0x0,0x0,0x0
000b54 0000
000b55 0000
000b56 0000
000b57 0000      	.DB  0x0,0x0,0x0,0x0,0x0,0x0,0x0,0x0
000b58 0000
000b59 0000
000b5a 0000
000b5b 0000      	.DB  0x0,0x0,0x0,0x0,0x0,0x0,0x0,0x0
000b5c 0000
000b5d 0000
000b5e 0000
000b5f 0000      	.DB  0x0,0x0,0x0,0x0,0x0,0x0,0x0,0x0
000b60 0000
000b61 0000
000b62 0000
000b63 0000      	.DB  0x0,0x0,0x0,0x0,0x0,0x0,0x0,0x0
000b64 0000
000b65 0000
000b66 0000
000b67 0000      	.DB  0x0,0x0,0x0,0x0,0x0,0x0,0x0,0x0
000b68 0000
000b69 0000
000b6a 0000
000b6b 0000      	.DB  0x0,0x0,0x0,0x0,0x0,0x0,0x0,0x0
000b6c 0000
000b6d 0000
000b6e 0000
000b6f 0000      	.DB  0x0,0x0,0x0,0x0,0x0,0x0,0x0,0x0
000b70 0000
000b71 0000
000b72 0000
000b73 0000      	.DB  0x0,0x0,0x0,0x0,0x0,0x0,0x0,0x0
000b74 0000
000b75 0000
000b76 0000
000b77 0000      	.DB  0x0,0x0,0x0,0x0,0x0,0x0,0x0,0x0
000b78 0000
000b79 0000
000b7a 0000
000b7b 0000      	.DB  0x0,0x0,0x0,0x0,0x0,0x0,0x0,0x0
000b7c 0000
000b7d 0000
000b7e 0000
000b7f 0000      	.DB  0x0,0x0,0x0,0x0,0x0,0x0,0x0,0x0
000b80 0000
000b81 0000
000b82 0000
000b83 0000      	.DB  0x0,0x0,0x0,0x0,0x0,0x0,0x0,0x0
000b84 0000
000b85 0000
000b86 0000
000b87 0000      	.DB  0x0,0x0,0x0,0x0,0x0,0x0,0x0,0x0
000b88 0000
000b89 0000
000b8a 0000
000b8b 0000      	.DB  0x0,0x0,0x0,0x0,0x0,0x0,0x0,0x0
000b8c 0000
000b8d 0000
000b8e 0000
000b8f 0000      	.DB  0x0,0x0,0x0,0x0,0x0,0x0,0x0,0x0
000b90 0000
000b91 0000
000b92 0000
000b93 0000      	.DB  0x0,0x0,0x0,0x0,0x0,0x0,0x0,0x0
000b94 0000
000b95 0000
000b96 0000
000b97 0000      	.DB  0x0,0x0,0x0,0x0,0x0,0x0,0x0,0x0
000b98 0000
000b99 0000
000b9a 0000
000b9b 0000      	.DB  0x0,0x0,0x0,0x0,0x0,0x0,0x0,0x0
000b9c 0000
000b9d 0000
000b9e 0000
000b9f 0000      	.DB  0x0,0x0,0x0,0x0,0x0,0x0,0x0,0x0
000ba0 0000
000ba1 0000
000ba2 0000
000ba3 0000      	.DB  0x0,0x0,0x0,0x0,0x0,0x0,0x0,0x0
000ba4 0000
000ba5 0000
000ba6 0000
000ba7 0000      	.DB  0x0,0x0,0x0,0x0,0x0,0x0,0x0,0x0
000ba8 0000
000ba9 0000
000baa 0000
000bab 0000      	.DB  0x0,0x0,0x0,0x0,0x0,0x0,0x0,0x0
000bac 0000
000bad 0000
000bae 0000
000baf 0000      	.DB  0x0,0x0,0x0,0x0,0x0,0x0,0x0,0x0
000bb0 0000
000bb1 0000
000bb2 0000
000bb3 0000      	.DB  0x0,0x0,0x0,0x0,0x0,0x0,0x0,0x0
000bb4 0000
000bb5 0000
000bb6 0000
000bb7 0000      	.DB  0x0,0x0,0x0,0x0,0x0,0x0,0x0,0x0
000bb8 0000
000bb9 0000
000bba 0000
000bbb 0000      	.DB  0x0,0x0,0x0,0x0,0x0,0x0,0x0,0x0
000bbc 0000
000bbd 0000
000bbe 0000
000bbf 0000      	.DB  0x0,0x0,0x0,0x0,0x0,0x0,0x0,0x0
000bc0 0000
000bc1 0000
000bc2 0000
000bc3 0000      	.DB  0x0,0x0,0x0,0x0,0x0,0x0,0x0,0x0
000bc4 0000
000bc5 0000
000bc6 0000
000bc7 0000      	.DB  0x0,0x0,0x0,0x0,0x0,0x0,0x0,0x0
000bc8 0000
000bc9 0000
000bca 0000
000bcb 0000      	.DB  0x0,0x0,0x0,0x0,0x0,0x0,0x0,0x0
000bcc 0000
000bcd 0000
000bce 0000
000bcf 0000      	.DB  0x0,0x0,0x0,0x0,0x0,0x0,0x0,0x0
000bd0 0000
000bd1 0000
000bd2 0000
000bd3 0000      	.DB  0x0,0x0,0x0,0x0,0x0,0x0,0x0,0x0
000bd4 0000
000bd5 0000
000bd6 0000
000bd7 0000      	.DB  0x0,0x0,0x0,0x0,0x0,0x0,0x0,0x0
000bd8 0000
000bd9 0000
000bda 0000
000bdb 0000      	.DB  0x0,0x0,0x0,0x0,0x0,0x0,0x0,0x0
000bdc 0000
000bdd 0000
000bde 0000
000bdf 0000      	.DB  0x0,0x0,0x0,0x0,0x0,0x0,0x0,0x0
000be0 0000
000be1 0000
000be2 0000
000be3 0000      	.DB  0x0,0x0,0x0,0x0,0x0,0x0,0x0,0x0
000be4 0000
000be5 0000
000be6 0000
000be7 0000      	.DB  0x0,0x0,0x0,0x0,0x0,0x0,0x0,0x0
000be8 0000
000be9 0000
000bea 0000
000beb 0000      	.DB  0x0,0x0,0x0,0x0,0x0,0x0,0x0,0x0
000bec 0000
000bed 0000
000bee 0000
000bef 0000      	.DB  0x0,0x0,0x0,0x0,0x0,0x0,0x0,0x0
000bf0 0000
000bf1 0000
000bf2 0000
000bf3 0000      	.DB  0x0,0x0,0x0,0x0,0x0,0x0,0x0,0x0
000bf4 0000
000bf5 0000
000bf6 0000
000bf7 0000      	.DB  0x0,0x0,0x0,0x0,0x0,0x0,0x0,0x0
000bf8 0000
000bf9 0000
000bfa 0000
000bfb 0000      	.DB  0x0,0x0,0x0,0x0,0x0,0x0,0x0,0x0
000bfc 0000
000bfd 0000
000bfe 0000
000bff 0000      	.DB  0x0,0x0,0x0,0x0,0x0,0x0,0x0,0x0
000c00 0000
000c01 0000
000c02 0000
000c03 0000      	.DB  0x0,0x0,0x0,0x0,0x0,0x0,0x0,0x0
000c04 0000
000c05 0000
000c06 0000
000c07 0000      	.DB  0x0,0x0,0x0,0x0,0x0,0x0,0x0,0x0
000c08 0000
000c09 0000
000c0a 0000
000c0b 0000      	.DB  0x0,0x0,0x0,0x0,0x0,0x0,0x0,0x0
000c0c 0000
000c0d 0000
000c0e 0000
000c0f 0000      	.DB  0x0,0x0,0x0,0x0,0x0,0x0,0x0,0x0
000c10 0000
000c11 0000
000c12 0000
000c13 0000      	.DB  0x0,0x0,0x0,0x0,0x0,0x0,0x0,0x0
000c14 0000
000c15 0000
000c16 0000
000c17 0000      	.DB  0x0,0x0,0x0,0x0,0x0,0x0,0x0,0x0
000c18 0000
000c19 0000
000c1a 0000
000c1b 0000      	.DB  0x0,0x0,0x0,0x0,0x0,0x0,0x0,0x0
000c1c 0000
000c1d 0000
000c1e 0000
000c1f 0000      	.DB  0x0,0x0,0x0,0x0,0x0,0x0,0x0,0x0
000c20 0000
000c21 0000
000c22 0000
000c23 0000      	.DB  0x0,0x0,0x0,0x0,0x0,0x0,0x0,0x0
000c24 0000
000c25 0000
000c26 0000
000c27 0000      	.DB  0x0,0x0,0x0,0x0,0x0,0x0,0x0,0x0
000c28 0000
000c29 0000
000c2a 0000
000c2b 0000      	.DB  0x0,0x0,0x0,0x0,0x0,0x0,0x0,0x0
000c2c 0000
000c2d 0000
000c2e 0000
000c2f 0000      	.DB  0x0,0x0,0x0,0x0,0x0,0x0,0x0,0x0
000c30 0000
000c31 0000
000c32 0000
000c33 0000      	.DB  0x0,0x0,0x0,0x0,0x0,0x0,0x0,0x0
000c34 0000
000c35 0000
000c36 0000
000c37 0000      	.DB  0x0,0x0,0x0,0x0,0x0,0x0,0x0,0x0
000c38 0000
000c39 0000
000c3a 0000
000c3b 0000      	.DB  0x0,0x0,0x0,0x0,0x0,0x0,0x0,0x0
000c3c 0000
000c3d 0000
000c3e 0000
000c3f 0000      	.DB  0x0,0x0,0x0,0x0,0x0,0x0,0x0,0x0
000c40 0000
000c41 0000
000c42 0000
000c43 0000      	.DB  0x0,0x0,0x0,0x0,0x0,0x0,0x0,0x0
000c44 0000
000c45 0000
000c46 0000
000c47 0000      	.DB  0x0,0x0,0x0,0x0,0x0,0x0,0x0,0x0
000c48 0000
000c49 0000
000c4a 0000
000c4b 0000      	.DB  0x0,0x0,0x0,0x0,0x0,0x0,0x0,0x0
000c4c 0000
000c4d 0000
000c4e 0000
000c4f 0000      	.DB  0x0,0x0,0x0,0x0,0x0,0x0,0x0,0x0
000c50 0000
000c51 0000
000c52 0000
000c53 0000      	.DB  0x0,0x0,0x0,0x0,0x0,0x0,0x0,0x0
000c54 0000
000c55 0000
000c56 0000
000c57 0000      	.DB  0x0,0x0,0x0,0x0,0x0,0x0,0x0,0x0
000c58 0000
000c59 0000
000c5a 0000
000c5b 0000      	.DB  0x0,0x0,0x0,0x0,0x0,0x0,0x0,0x0
000c5c 0000
000c5d 0000
000c5e 0000
000c5f 0000      	.DB  0x0,0x0,0x0,0x0,0x0,0x0,0x0,0x0
000c60 0000
000c61 0000
000c62 0000
000c63 0000      	.DB  0x0,0x0,0x0,0x0,0x0,0x0,0x0,0x0
000c64 0000
000c65 0000
000c66 0000
000c67 0000      	.DB  0x0,0x0,0x0,0x0,0x0,0x0,0x0,0x0
000c68 0000
000c69 0000
000c6a 0000
000c6b 0000      	.DB  0x0,0x0,0x0,0x0,0x0,0x0,0x0,0x0
000c6c 0000
000c6d 0000
000c6e 0000
000c6f 0000      	.DB  0x0,0x0,0x0,0x0,0x0,0x0,0x0,0x0
000c70 0000
000c71 0000
000c72 0000
000c73 0000      	.DB  0x0,0x0,0x0,0x0,0x0,0x0,0x0,0x0
000c74 0000
000c75 0000
000c76 0000
000c77 0000      	.DB  0x0,0x0,0x0,0x0,0x0,0x0,0x0,0x0
000c78 0000
000c79 0000
000c7a 0000
000c7b 0000      	.DB  0x0,0x0,0x0,0x0,0x0,0x0,0x0,0x0
000c7c 0000
000c7d 0000
000c7e 0000
000c7f 0000      	.DB  0x0,0x0,0x0,0x0,0x0,0x0,0x0,0x0
000c80 0000
000c81 0000
000c82 0000
000c83 0000      	.DB  0x0,0x0,0x0,0x0,0x0,0x0,0x0,0x0
000c84 0000
000c85 0000
000c86 0000
000c87 0000      	.DB  0x0,0x0,0x0,0x0,0x0,0x0,0x0,0x0
000c88 0000
000c89 0000
000c8a 0000
000c8b 0000      	.DB  0x0,0x0,0x0,0x0,0x0,0x0,0x0,0x0
000c8c 0000
000c8d 0000
000c8e 0000
000c8f 0000      	.DB  0x0,0x0,0x0,0x0,0x0,0x0,0x0,0x0
000c90 0000
000c91 0000
000c92 0000
000c93 0000      	.DB  0x0,0x0,0x0,0x0,0x0,0x0,0x0,0x0
000c94 0000
000c95 0000
000c96 0000
000c97 0000      	.DB  0x0,0x0,0x0,0x0,0x0,0x0,0x0,0x0
000c98 0000
000c99 0000
000c9a 0000
000c9b 0000      	.DB  0x0,0x0,0x0,0x0,0x0,0x0,0x0,0x0
000c9c 0000
000c9d 0000
000c9e 0000
000c9f 0000      	.DB  0x0,0x0,0x0,0x0,0x0,0x0,0x0,0x0
000ca0 0000
000ca1 0000
000ca2 0000
000ca3 0000      	.DB  0x0,0x0,0x0,0x0,0x0,0x0,0x0,0x0
000ca4 0000
000ca5 0000
000ca6 0000
000ca7 0000      	.DB  0x0,0x0,0x0,0x0,0x0,0x0,0x0,0x0
000ca8 0000
000ca9 0000
000caa 0000
000cab 0000      	.DB  0x0,0x0,0x0,0x0,0x0,0x0,0x0,0x0
000cac 0000
000cad 0000
000cae 3800
000caf 02fc      	.DB  0x0,0x0,0x0,0x0,0x0,0x38,0xFC,0x2
000cb0 0202
000cb1 0202
000cb2 0606
000cb3 ba06      	.DB  0x2,0x2,0x2,0x2,0x6,0x6,0x6,0xBA
000cb4 bafa
000cb5 0202
000cb6 38fc
000cb7 0000      	.DB  0xFA,0xBA,0x2,0x2,0xFC,0x38,0x0,0x0
000cb8 0000
000cb9 0000
000cba 0000
000cbb 0000      	.DB  0x0,0x0,0x0,0x0,0x0,0x0,0x0,0x0
000cbc 0000
000cbd 0000
000cbe 0000
000cbf 0000      	.DB  0x0,0x0,0x0,0x0,0x0,0x0,0x0,0x0
000cc0 0000
000cc1 0000
000cc2 0000
000cc3 0000      	.DB  0x0,0x0,0x0,0x0,0x0,0x0,0x0,0x0
000cc4 0000
000cc5 0000
000cc6 0000
000cc7 0000      	.DB  0x0,0x0,0x0,0x0,0x0,0x0,0x0,0x0
000cc8 0000
000cc9 0000
000cca 0000
000ccb 0000      	.DB  0x0,0x0,0x0,0x0,0x0,0x0,0x0,0x0
000ccc 0000
000ccd 0000
000cce 0000
000ccf 0000      	.DB  0x0,0x0,0x0,0x0,0x0,0x0,0x0,0x0
000cd0 0000
000cd1 0000
000cd2 0000
000cd3 0000      	.DB  0x0,0x0,0x0,0x0,0x0,0x0,0x0,0x0
000cd4 0000
000cd5 0000
000cd6 0000
000cd7 0000      	.DB  0x0,0x0,0x0,0x0,0x0,0x0,0x0,0x0
000cd8 0000
000cd9 0000
000cda 0000
000cdb 0000      	.DB  0x0,0x0,0x0,0x0,0x0,0x0,0x0,0x0
000cdc 0000
000cdd 0000
000cde 0000
000cdf 0000      	.DB  0x0,0x0,0x0,0x0,0x0,0x0,0x0,0x0
000ce0 0000
000ce1 0000
000ce2 0000
000ce3 0000      	.DB  0x0,0x0,0x0,0x0,0x0,0x0,0x0,0x0
000ce4 0000
000ce5 0000
000ce6 0000
000ce7 0000      	.DB  0x0,0x0,0x0,0x0,0x0,0x0,0x0,0x0
000ce8 0000
000ce9 0000
000cea 0000
000ceb 0000      	.DB  0x0,0x0,0x0,0x0,0x0,0x0,0x0,0x0
000cec 0000
000ced 0000
000cee 0000
000cef 3e3f      	.DB  0x0,0x0,0x0,0x0,0x0,0x0,0x3F,0x3E
000cf0 f2fe
000cf1 3ef2
000cf2 3e3e
000cf3 3f3f      	.DB  0xFE,0xF2,0xF2,0x3E,0x3E,0x3E,0x3F,0x3F
000cf4 f3f3
000cf5 3eff
000cf6 003f
000cf7 0000      	.DB  0xF3,0xF3,0xFF,0x3E,0x3F,0x0,0x0,0x0
                 _chofer:
000cf8 0000
000cf9 0000
000cfa 0000
000cfb 0000      	.DB  0x0,0x0,0x0,0x0,0x0,0x0,0x0,0x0
000cfc 0000
000cfd 0000
000cfe 0000
000cff 0000      	.DB  0x0,0x0,0x0,0x0,0x0,0x0,0x0,0x0
000d00 0000
000d01 0000
000d02 0000
000d03 0000      	.DB  0x0,0x0,0x0,0x0,0x0,0x0,0x0,0x0
000d04 0000
000d05 0000
000d06 0000
000d07 0000      	.DB  0x0,0x0,0x0,0x0,0x0,0x0,0x0,0x0
000d08 0000
000d09 0000
000d0a 0000
000d0b 0000      	.DB  0x0,0x0,0x0,0x0,0x0,0x0,0x0,0x0
000d0c 0000
000d0d 0000
000d0e 0000
000d0f 0000      	.DB  0x0,0x0,0x0,0x0,0x0,0x0,0x0,0x0
000d10 0000
000d11 0000
000d12 0000
000d13 0000      	.DB  0x0,0x0,0x0,0x0,0x0,0x0,0x0,0x0
000d14 0000
000d15 0000
000d16 0000
000d17 0000      	.DB  0x0,0x0,0x0,0x0,0x0,0x0,0x0,0x0
000d18 0000
000d19 0000
000d1a 0000
000d1b 0000      	.DB  0x0,0x0,0x0,0x0,0x0,0x0,0x0,0x0
000d1c 0000
000d1d 0000
000d1e 0000
000d1f 0000      	.DB  0x0,0x0,0x0,0x0,0x0,0x0,0x0,0x0
000d20 0000
000d21 0000
000d22 0000
000d23 0000      	.DB  0x0,0x0,0x0,0x0,0x0,0x0,0x0,0x0
000d24 0000
000d25 0000
000d26 0000
000d27 0000      	.DB  0x0,0x0,0x0,0x0,0x0,0x0,0x0,0x0
000d28 0000
000d29 0000
000d2a 0000
000d2b 0000      	.DB  0x0,0x0,0x0,0x0,0x0,0x0,0x0,0x0
000d2c 0000
000d2d 0000
000d2e 0000
000d2f 0000      	.DB  0x0,0x0,0x0,0x0,0x0,0x0,0x0,0x0
000d30 0000
000d31 0000
000d32 0000
000d33 0000      	.DB  0x0,0x0,0x0,0x0,0x0,0x0,0x0,0x0
000d34 0000
000d35 0000
000d36 0000
000d37 0000      	.DB  0x0,0x0,0x0,0x0,0x0,0x0,0x0,0x0
000d38 0000
000d39 0000
000d3a 0000
000d3b 0000      	.DB  0x0,0x0,0x0,0x0,0x0,0x0,0x0,0x0
000d3c 0000
000d3d 0000
000d3e 0000
000d3f 0000      	.DB  0x0,0x0,0x0,0x0,0x0,0x0,0x0,0x0
000d40 0000
000d41 0000
000d42 0000
000d43 0000      	.DB  0x0,0x0,0x0,0x0,0x0,0x0,0x0,0x0
000d44 0000
000d45 0000
000d46 0000
000d47 0000      	.DB  0x0,0x0,0x0,0x0,0x0,0x0,0x0,0x0
000d48 0000
000d49 0000
000d4a 0000
000d4b 0000      	.DB  0x0,0x0,0x0,0x0,0x0,0x0,0x0,0x0
000d4c 0000
000d4d 0000
000d4e 0000
000d4f 0000      	.DB  0x0,0x0,0x0,0x0,0x0,0x0,0x0,0x0
000d50 0000
000d51 0000
000d52 0000
000d53 0000      	.DB  0x0,0x0,0x0,0x0,0x0,0x0,0x0,0x0
000d54 0000
000d55 0000
000d56 0000
000d57 0000      	.DB  0x0,0x0,0x0,0x0,0x0,0x0,0x0,0x0
000d58 0000
000d59 0000
000d5a 0000
000d5b 0000      	.DB  0x0,0x0,0x0,0x0,0x0,0x0,0x0,0x0
000d5c 0000
000d5d 0000
000d5e 0000
000d5f 0000      	.DB  0x0,0x0,0x0,0x0,0x0,0x0,0x0,0x0
000d60 0000
000d61 0000
000d62 0000
000d63 0000      	.DB  0x0,0x0,0x0,0x0,0x0,0x0,0x0,0x0
000d64 0000
000d65 0000
000d66 0000
000d67 0000      	.DB  0x0,0x0,0x0,0x0,0x0,0x0,0x0,0x0
000d68 0000
000d69 0000
000d6a 0000
000d6b 0000      	.DB  0x0,0x0,0x0,0x0,0x0,0x0,0x0,0x0
000d6c 0000
000d6d 0000
000d6e 0000
000d6f 0000      	.DB  0x0,0x0,0x0,0x0,0x0,0x0,0x0,0x0
000d70 0000
000d71 0000
000d72 0000
000d73 0000      	.DB  0x0,0x0,0x0,0x0,0x0,0x0,0x0,0x0
000d74 0000
000d75 0000
000d76 0000
000d77 0000      	.DB  0x0,0x0,0x0,0x0,0x0,0x0,0x0,0x0
000d78 0000
000d79 0000
000d7a 0000
000d7b 0000      	.DB  0x0,0x0,0x0,0x0,0x0,0x0,0x0,0x0
000d7c 0000
000d7d 0000
000d7e 0000
000d7f 0000      	.DB  0x0,0x0,0x0,0x0,0x0,0x0,0x0,0x0
000d80 0000
000d81 0000
000d82 0000
000d83 0000      	.DB  0x0,0x0,0x0,0x0,0x0,0x0,0x0,0x0
000d84 0000
000d85 0000
000d86 0000
000d87 0000      	.DB  0x0,0x0,0x0,0x0,0x0,0x0,0x0,0x0
000d88 0000
000d89 0000
000d8a 0000
000d8b 0000      	.DB  0x0,0x0,0x0,0x0,0x0,0x0,0x0,0x0
000d8c 0000
000d8d 0000
000d8e 0000
000d8f 0000      	.DB  0x0,0x0,0x0,0x0,0x0,0x0,0x0,0x0
000d90 0000
000d91 0000
000d92 0000
000d93 0000      	.DB  0x0,0x0,0x0,0x0,0x0,0x0,0x0,0x0
000d94 0000
000d95 0000
000d96 0000
000d97 0000      	.DB  0x0,0x0,0x0,0x0,0x0,0x0,0x0,0x0
000d98 0000
000d99 0000
000d9a 0000
000d9b 0000      	.DB  0x0,0x0,0x0,0x0,0x0,0x0,0x0,0x0
000d9c 0000
000d9d 0000
000d9e 0000
000d9f 0000      	.DB  0x0,0x0,0x0,0x0,0x0,0x0,0x0,0x0
000da0 0000
000da1 0000
000da2 0000
000da3 0000      	.DB  0x0,0x0,0x0,0x0,0x0,0x0,0x0,0x0
000da4 0000
000da5 0000
000da6 0000
000da7 0000      	.DB  0x0,0x0,0x0,0x0,0x0,0x0,0x0,0x0
000da8 0000
000da9 0000
000daa 0000
000dab 0000      	.DB  0x0,0x0,0x0,0x0,0x0,0x0,0x0,0x0
000dac 0000
000dad 0000
000dae 0000
000daf 0000      	.DB  0x0,0x0,0x0,0x0,0x0,0x0,0x0,0x0
000db0 0000
000db1 0000
000db2 0000
000db3 0000      	.DB  0x0,0x0,0x0,0x0,0x0,0x0,0x0,0x0
000db4 0000
000db5 0000
000db6 0000
000db7 0000      	.DB  0x0,0x0,0x0,0x0,0x0,0x0,0x0,0x0
000db8 0000
000db9 0000
000dba 0000
000dbb 0000      	.DB  0x0,0x0,0x0,0x0,0x0,0x0,0x0,0x0
000dbc 0000
000dbd 0000
000dbe 0000
000dbf 0000      	.DB  0x0,0x0,0x0,0x0,0x0,0x0,0x0,0x0
000dc0 0000
000dc1 0000
000dc2 0000
000dc3 0000      	.DB  0x0,0x0,0x0,0x0,0x0,0x0,0x0,0x0
000dc4 0000
000dc5 0000
000dc6 0000
000dc7 0000      	.DB  0x0,0x0,0x0,0x0,0x0,0x0,0x0,0x0
000dc8 0000
000dc9 0000
000dca 0000
000dcb 0000      	.DB  0x0,0x0,0x0,0x0,0x0,0x0,0x0,0x0
000dcc 0000
000dcd 0000
000dce 0000
000dcf 0000      	.DB  0x0,0x0,0x0,0x0,0x0,0x0,0x0,0x0
000dd0 0000
000dd1 0000
000dd2 0000
000dd3 0000      	.DB  0x0,0x0,0x0,0x0,0x0,0x0,0x0,0x0
000dd4 0000
000dd5 0000
000dd6 0000
000dd7 0000      	.DB  0x0,0x0,0x0,0x0,0x0,0x0,0x0,0x0
000dd8 0000
000dd9 0000
000dda 0000
000ddb 0000      	.DB  0x0,0x0,0x0,0x0,0x0,0x0,0x0,0x0
000ddc 0000
000ddd 0000
000dde 0000
000ddf 0000      	.DB  0x0,0x0,0x0,0x0,0x0,0x0,0x0,0x0
000de0 0000
000de1 0000
000de2 0000
000de3 0000      	.DB  0x0,0x0,0x0,0x0,0x0,0x0,0x0,0x0
000de4 0000
000de5 0000
000de6 0000
000de7 0000      	.DB  0x0,0x0,0x0,0x0,0x0,0x0,0x0,0x0
000de8 0000
000de9 0000
000dea 0000
000deb 0000      	.DB  0x0,0x0,0x0,0x0,0x0,0x0,0x0,0x0
000dec 0000
000ded 0000
000dee 0000
000def 0000      	.DB  0x0,0x0,0x0,0x0,0x0,0x0,0x0,0x0
000df0 0000
000df1 0000
000df2 0000
000df3 0000      	.DB  0x0,0x0,0x0,0x0,0x0,0x0,0x0,0x0
000df4 0000
000df5 0000
000df6 0000
000df7 0000      	.DB  0x0,0x0,0x0,0x0,0x0,0x0,0x0,0x0
000df8 0000
000df9 0000
000dfa 0000
000dfb 0000      	.DB  0x0,0x0,0x0,0x0,0x0,0x0,0x0,0x0
000dfc 0000
000dfd 0000
000dfe 0000
000dff 0000      	.DB  0x0,0x0,0x0,0x0,0x0,0x0,0x0,0x0
000e00 0000
000e01 0000
000e02 0000
000e03 0000      	.DB  0x0,0x0,0x0,0x0,0x0,0x0,0x0,0x0
000e04 0000
000e05 0000
000e06 0000
000e07 0000      	.DB  0x0,0x0,0x0,0x0,0x0,0x0,0x0,0x0
000e08 0000
000e09 0000
000e0a 0000
000e0b 0000      	.DB  0x0,0x0,0x0,0x0,0x0,0x0,0x0,0x0
000e0c 0000
000e0d 0000
000e0e 0000
000e0f 0000      	.DB  0x0,0x0,0x0,0x0,0x0,0x0,0x0,0x0
000e10 0000
000e11 0000
000e12 0000
000e13 0000      	.DB  0x0,0x0,0x0,0x0,0x0,0x0,0x0,0x0
000e14 0000
000e15 0000
000e16 0000
000e17 0000      	.DB  0x0,0x0,0x0,0x0,0x0,0x0,0x0,0x0
000e18 0000
000e19 0000
000e1a 0000
000e1b 0000      	.DB  0x0,0x0,0x0,0x0,0x0,0x0,0x0,0x0
000e1c 0000
000e1d 0000
000e1e 0000
000e1f 0000      	.DB  0x0,0x0,0x0,0x0,0x0,0x0,0x0,0x0
000e20 0000
000e21 0000
000e22 0000
000e23 0000      	.DB  0x0,0x0,0x0,0x0,0x0,0x0,0x0,0x0
000e24 0000
000e25 0000
000e26 0000
000e27 0000      	.DB  0x0,0x0,0x0,0x0,0x0,0x0,0x0,0x0
000e28 0000
000e29 0000
000e2a 0000
000e2b 0000      	.DB  0x0,0x0,0x0,0x0,0x0,0x0,0x0,0x0
000e2c 0000
000e2d 0000
000e2e 0000
000e2f 0000      	.DB  0x0,0x0,0x0,0x0,0x0,0x0,0x0,0x0
000e30 0000
000e31 0000
000e32 0000
000e33 0000      	.DB  0x0,0x0,0x0,0x0,0x0,0x0,0x0,0x0
000e34 0000
000e35 0000
000e36 0000
000e37 0000      	.DB  0x0,0x0,0x0,0x0,0x0,0x0,0x0,0x0
000e38 0000
000e39 0000
000e3a 0000
000e3b 0000      	.DB  0x0,0x0,0x0,0x0,0x0,0x0,0x0,0x0
000e3c 0000
000e3d 0000
000e3e 0000
000e3f 0000      	.DB  0x0,0x0,0x0,0x0,0x0,0x0,0x0,0x0
000e40 0000
000e41 0000
000e42 0000
000e43 0000      	.DB  0x0,0x0,0x0,0x0,0x0,0x0,0x0,0x0
000e44 0000
000e45 0000
000e46 0000
000e47 0000      	.DB  0x0,0x0,0x0,0x0,0x0,0x0,0x0,0x0
000e48 0000
000e49 0000
000e4a 0000
000e4b 0000      	.DB  0x0,0x0,0x0,0x0,0x0,0x0,0x0,0x0
000e4c 0000
000e4d 0000
000e4e 0000
000e4f 0000      	.DB  0x0,0x0,0x0,0x0,0x0,0x0,0x0,0x0
000e50 0000
000e51 0000
000e52 0000
000e53 0000      	.DB  0x0,0x0,0x0,0x0,0x0,0x0,0x0,0x0
000e54 0000
000e55 0000
000e56 0000
000e57 0000      	.DB  0x0,0x0,0x0,0x0,0x0,0x0,0x0,0x0
000e58 0000
000e59 0000
000e5a 0000
000e5b 0000      	.DB  0x0,0x0,0x0,0x0,0x0,0x0,0x0,0x0
000e5c 0000
000e5d 0000
000e5e 0000
000e5f 0000      	.DB  0x0,0x0,0x0,0x0,0x0,0x0,0x0,0x0
000e60 0000
000e61 0000
000e62 0000
000e63 0000      	.DB  0x0,0x0,0x0,0x0,0x0,0x0,0x0,0x0
000e64 0000
000e65 0000
000e66 0000
000e67 0000      	.DB  0x0,0x0,0x0,0x0,0x0,0x0,0x0,0x0
000e68 0000
000e69 0000
000e6a 0000
000e6b 0000      	.DB  0x0,0x0,0x0,0x0,0x0,0x0,0x0,0x0
000e6c 0000
000e6d 0000
000e6e 0000
000e6f 0000      	.DB  0x0,0x0,0x0,0x0,0x0,0x0,0x0,0x0
000e70 0000
000e71 0000
000e72 0000
000e73 0000      	.DB  0x0,0x0,0x0,0x0,0x0,0x0,0x0,0x0
000e74 0000
000e75 0000
000e76 0000
000e77 0000      	.DB  0x0,0x0,0x0,0x0,0x0,0x0,0x0,0x0
000e78 0000
000e79 0000
000e7a f800
000e7b c284      	.DB  0x0,0x0,0x0,0x0,0x0,0xF8,0x84,0xC2
000e7c da82
000e7d e2fa
000e7e 02fe
000e7f 0202      	.DB  0x82,0xDA,0xFA,0xE2,0xFE,0x2,0x2,0x2
000e80 fec2
000e81 0202
000e82 0202
000e83 f8c4      	.DB  0xC2,0xFE,0x2,0x2,0x2,0x2,0xC4,0xF8
000e84 0000
000e85 0000
000e86 0000
000e87 0000      	.DB  0x0,0x0,0x0,0x0,0x0,0x0,0x0,0x0
000e88 0000
000e89 0000
000e8a 0000
000e8b 0000      	.DB  0x0,0x0,0x0,0x0,0x0,0x0,0x0,0x0
000e8c 0000
000e8d 0000
000e8e 0000
000e8f 0000      	.DB  0x0,0x0,0x0,0x0,0x0,0x0,0x0,0x0
000e90 0000
000e91 0000
000e92 0000
000e93 0000      	.DB  0x0,0x0,0x0,0x0,0x0,0x0,0x0,0x0
000e94 0000
000e95 0000
000e96 0000
000e97 0000      	.DB  0x0,0x0,0x0,0x0,0x0,0x0,0x0,0x0
000e98 0000
000e99 0000
000e9a 0000
000e9b 0000      	.DB  0x0,0x0,0x0,0x0,0x0,0x0,0x0,0x0
000e9c 0000
000e9d 0000
000e9e 0000
000e9f 0000      	.DB  0x0,0x0,0x0,0x0,0x0,0x0,0x0,0x0
000ea0 0000
000ea1 0000
000ea2 0000
000ea3 0000      	.DB  0x0,0x0,0x0,0x0,0x0,0x0,0x0,0x0
000ea4 0000
000ea5 0000
000ea6 0000
000ea7 0000      	.DB  0x0,0x0,0x0,0x0,0x0,0x0,0x0,0x0
000ea8 0000
000ea9 0000
000eaa 0000
000eab 0000      	.DB  0x0,0x0,0x0,0x0,0x0,0x0,0x0,0x0
000eac 0000
000ead 0000
000eae 0000
000eaf 0000      	.DB  0x0,0x0,0x0,0x0,0x0,0x0,0x0,0x0
000eb0 0000
000eb1 0000
000eb2 0000
000eb3 0000      	.DB  0x0,0x0,0x0,0x0,0x0,0x0,0x0,0x0
000eb4 0000
000eb5 0000
000eb6 0000
000eb7 0000      	.DB  0x0,0x0,0x0,0x0,0x0,0x0,0x0,0x0
000eb8 0000
000eb9 1e00
000eba 7f1f
000ebb fdff      	.DB  0x0,0x0,0x0,0x1E,0x1F,0x7F,0xFF,0xFD
000ebc 1f7c
000ebd 1f1f
000ebe 1c1f
000ebf 1c1c      	.DB  0x7C,0x1F,0x1F,0x1F,0x1F,0x1C,0x1C,0x1C
000ec0 1f1f
000ec1 fc7c
000ec2 7cfc
000ec3 0f1f      	.DB  0x1F,0x1F,0x7C,0xFC,0xFC,0x7C,0x1F,0xF
000ec4 0000
000ec5 0000
000ec6 0000
000ec7 0000      	.DB  0x0,0x0,0x0,0x0,0x0,0x0,0x0,0x0
000ec8 0000
000ec9 0000
000eca 0000
000ecb 0000      	.DB  0x0,0x0,0x0,0x0,0x0,0x0,0x0,0x0
000ecc 0000
000ecd 0000
000ece 0000
000ecf 0000      	.DB  0x0,0x0,0x0,0x0,0x0,0x0,0x0,0x0
000ed0 0000
000ed1 0000
000ed2 0000
000ed3 0000      	.DB  0x0,0x0,0x0,0x0,0x0,0x0,0x0,0x0
000ed4 0000
000ed5 0000
000ed6 0000
000ed7 0000      	.DB  0x0,0x0,0x0,0x0,0x0,0x0,0x0,0x0
000ed8 0000
000ed9 0000
000eda 0000
000edb 0000      	.DB  0x0,0x0,0x0,0x0,0x0,0x0,0x0,0x0
000edc 0000
000edd 0000
000ede 0000
000edf 0000      	.DB  0x0,0x0,0x0,0x0,0x0,0x0,0x0,0x0
000ee0 0000
000ee1 0000
000ee2 0000
000ee3 0000      	.DB  0x0,0x0,0x0,0x0,0x0,0x0,0x0,0x0
000ee4 0000
000ee5 0000
000ee6 0000
000ee7 0000      	.DB  0x0,0x0,0x0,0x0,0x0,0x0,0x0,0x0
000ee8 0000
000ee9 0000
000eea 0000
000eeb 0000      	.DB  0x0,0x0,0x0,0x0,0x0,0x0,0x0,0x0
000eec 0000
000eed 0000
000eee 0000
000eef 0000      	.DB  0x0,0x0,0x0,0x0,0x0,0x0,0x0,0x0
000ef0 0000
000ef1 0000
000ef2 0000
000ef3 0000      	.DB  0x0,0x0,0x0,0x0,0x0,0x0,0x0,0x0
000ef4 0000
000ef5 0000
000ef6 0000
000ef7 0000      	.DB  0x0,0x0,0x0,0x0,0x0,0x0,0x0,0x0
                 _GPS1:
000ef8 0000
000ef9 0000
000efa 0000
000efb 0000      	.DB  0x0,0x0,0x0,0x0,0x0,0x0,0x0,0x0
000efc 0000
000efd 0000
000efe 0000
000eff 0000      	.DB  0x0,0x0,0x0,0x0,0x0,0x0,0x0,0x0
000f00 0000
000f01 0000
000f02 0000
000f03 0000      	.DB  0x0,0x0,0x0,0x0,0x0,0x0,0x0,0x0
000f04 0000
000f05 0000
000f06 0000
000f07 0000      	.DB  0x0,0x0,0x0,0x0,0x0,0x0,0x0,0x0
000f08 0000
000f09 0000
000f0a 0000
000f0b 0000      	.DB  0x0,0x0,0x0,0x0,0x0,0x0,0x0,0x0
000f0c 0000
000f0d 0000
000f0e 0000
000f0f 0000      	.DB  0x0,0x0,0x0,0x0,0x0,0x0,0x0,0x0
000f10 0000
000f11 0000
000f12 0000
000f13 0000      	.DB  0x0,0x0,0x0,0x0,0x0,0x0,0x0,0x0
000f14 0000
000f15 0000
000f16 0000
000f17 0000      	.DB  0x0,0x0,0x0,0x0,0x0,0x0,0x0,0x0
000f18 0000
000f19 0000
000f1a 0000
000f1b 0000      	.DB  0x0,0x0,0x0,0x0,0x0,0x0,0x0,0x0
000f1c 0000
000f1d 0000
000f1e 0000
000f1f 0000      	.DB  0x0,0x0,0x0,0x0,0x0,0x0,0x0,0x0
000f20 0000
000f21 0000
000f22 0000
000f23 0000      	.DB  0x0,0x0,0x0,0x0,0x0,0x0,0x0,0x0
000f24 0000
000f25 0000
000f26 0000
000f27 0000      	.DB  0x0,0x0,0x0,0x0,0x0,0x0,0x0,0x0
000f28 10e0
000f29 9090
000f2a 0080
000f2b 90f0      	.DB  0xE0,0x10,0x90,0x90,0x80,0x0,0xF0,0x90
000f2c 9090
000f2d 0060
000f2e 9060
000f2f 1090      	.DB  0x90,0x90,0x60,0x0,0x60,0x90,0x90,0x10
000f30 0000
000f31 0000
000f32 7020
000f33 70f8      	.DB  0x0,0x0,0x0,0x0,0x20,0x70,0xF8,0x70
000f34 0020
000f35 7880
000f36 fc00
000f37 0000      	.DB  0x20,0x0,0x80,0x78,0x0,0xFC,0x0,0x0
000f38 0000
000f39 0000
000f3a 0000
000f3b 0000      	.DB  0x0,0x0,0x0,0x0,0x0,0x0,0x0,0x0
000f3c 0000
000f3d 0000
000f3e 0000
000f3f 0000      	.DB  0x0,0x0,0x0,0x0,0x0,0x0,0x0,0x0
000f40 0000
000f41 0000
000f42 0000
000f43 0000      	.DB  0x0,0x0,0x0,0x0,0x0,0x0,0x0,0x0
000f44 0000
000f45 0000
000f46 0000
000f47 0000      	.DB  0x0,0x0,0x0,0x0,0x0,0x0,0x0,0x0
000f48 0000
000f49 0000
000f4a 0000
000f4b 0000      	.DB  0x0,0x0,0x0,0x0,0x0,0x0,0x0,0x0
000f4c 0000
000f4d 0000
000f4e 0000
000f4f 0000      	.DB  0x0,0x0,0x0,0x0,0x0,0x0,0x0,0x0
000f50 0000
000f51 0000
000f52 0000
000f53 0000      	.DB  0x0,0x0,0x0,0x0,0x0,0x0,0x0,0x0
000f54 0000
000f55 0000
000f56 0000
000f57 0000      	.DB  0x0,0x0,0x0,0x0,0x0,0x0,0x0,0x0
000f58 0000
000f59 0000
000f5a 0000
000f5b 0000      	.DB  0x0,0x0,0x0,0x0,0x0,0x0,0x0,0x0
000f5c 0000
000f5d 0000
000f5e 0000
000f5f 0000      	.DB  0x0,0x0,0x0,0x0,0x0,0x0,0x0,0x0
000f60 0000
000f61 0000
000f62 0000
000f63 0000      	.DB  0x0,0x0,0x0,0x0,0x0,0x0,0x0,0x0
000f64 0000
000f65 0000
000f66 0000
000f67 0000      	.DB  0x0,0x0,0x0,0x0,0x0,0x0,0x0,0x0
000f68 0403
000f69 0404
000f6a 0003
000f6b 0007      	.DB  0x3,0x4,0x4,0x4,0x3,0x0,0x7,0x0
000f6c 0000
000f6d 0000
000f6e 0404
000f6f 0304      	.DB  0x0,0x0,0x0,0x0,0x4,0x4,0x4,0x3
000f70 0000
000f71 1000
000f72 1414
000f73 1414      	.DB  0x0,0x0,0x0,0x10,0x14,0x14,0x14,0x14
000f74 0912
000f75 0a04
000f76 1835
000f77 0008      	.DB  0x12,0x9,0x4,0xA,0x35,0x18,0x8,0x0
000f78 0000
000f79 0000
000f7a 0000
000f7b 0000      	.DB  0x0,0x0,0x0,0x0,0x0,0x0,0x0,0x0
000f7c 0000
000f7d 0000
000f7e 0000
000f7f 0000      	.DB  0x0,0x0,0x0,0x0,0x0,0x0,0x0,0x0
000f80 0000
000f81 0000
000f82 0000
000f83 0000      	.DB  0x0,0x0,0x0,0x0,0x0,0x0,0x0,0x0
000f84 0000
000f85 0000
000f86 0000
000f87 0000      	.DB  0x0,0x0,0x0,0x0,0x0,0x0,0x0,0x0
000f88 0000
000f89 0000
000f8a 0000
000f8b 0000      	.DB  0x0,0x0,0x0,0x0,0x0,0x0,0x0,0x0
000f8c 0000
000f8d 0000
000f8e 0000
000f8f 0000      	.DB  0x0,0x0,0x0,0x0,0x0,0x0,0x0,0x0
000f90 0000
000f91 0000
000f92 0000
000f93 0000      	.DB  0x0,0x0,0x0,0x0,0x0,0x0,0x0,0x0
000f94 0000
000f95 0000
000f96 0000
000f97 0000      	.DB  0x0,0x0,0x0,0x0,0x0,0x0,0x0,0x0
000f98 0000
000f99 0000
000f9a 0000
000f9b 0000      	.DB  0x0,0x0,0x0,0x0,0x0,0x0,0x0,0x0
000f9c 0000
000f9d 0000
000f9e 0000
000f9f 0000      	.DB  0x0,0x0,0x0,0x0,0x0,0x0,0x0,0x0
000fa0 0000
000fa1 0000
000fa2 0000
000fa3 0000      	.DB  0x0,0x0,0x0,0x0,0x0,0x0,0x0,0x0
000fa4 0000
000fa5 0000
000fa6 0000
000fa7 0000      	.DB  0x0,0x0,0x0,0x0,0x0,0x0,0x0,0x0
000fa8 0000
000fa9 0000
000faa 0000
000fab 0000      	.DB  0x0,0x0,0x0,0x0,0x0,0x0,0x0,0x0
000fac 0000
000fad 0000
000fae 0000
000faf 0000      	.DB  0x0,0x0,0x0,0x0,0x0,0x0,0x0,0x0
000fb0 0000
000fb1 0000
000fb2 0000
000fb3 0000      	.DB  0x0,0x0,0x0,0x0,0x0,0x0,0x0,0x0
000fb4 0000
000fb5 0000
000fb6 0000
000fb7 0000      	.DB  0x0,0x0,0x0,0x0,0x0,0x0,0x0,0x0
000fb8 0000
000fb9 0000
000fba 0000
000fbb 0000      	.DB  0x0,0x0,0x0,0x0,0x0,0x0,0x0,0x0
000fbc 0000
000fbd 0000
000fbe 0000
000fbf 0000      	.DB  0x0,0x0,0x0,0x0,0x0,0x0,0x0,0x0
000fc0 0000
000fc1 0000
000fc2 0000
000fc3 0000      	.DB  0x0,0x0,0x0,0x0,0x0,0x0,0x0,0x0
000fc4 0000
000fc5 0000
000fc6 0000
000fc7 0000      	.DB  0x0,0x0,0x0,0x0,0x0,0x0,0x0,0x0
000fc8 0000
000fc9 0000
000fca 0000
000fcb 0000      	.DB  0x0,0x0,0x0,0x0,0x0,0x0,0x0,0x0
000fcc 0000
000fcd 0000
000fce 0000
000fcf 0000      	.DB  0x0,0x0,0x0,0x0,0x0,0x0,0x0,0x0
000fd0 0000
000fd1 0000
000fd2 0000
000fd3 0000      	.DB  0x0,0x0,0x0,0x0,0x0,0x0,0x0,0x0
000fd4 0000
000fd5 0000
000fd6 0000
000fd7 0000      	.DB  0x0,0x0,0x0,0x0,0x0,0x0,0x0,0x0
000fd8 0000
000fd9 0000
000fda 0000
000fdb 0000      	.DB  0x0,0x0,0x0,0x0,0x0,0x0,0x0,0x0
000fdc 0000
000fdd 0000
000fde 0000
000fdf 0000      	.DB  0x0,0x0,0x0,0x0,0x0,0x0,0x0,0x0
000fe0 0000
000fe1 0000
000fe2 0000
000fe3 0000      	.DB  0x0,0x0,0x0,0x0,0x0,0x0,0x0,0x0
000fe4 0000
000fe5 0000
000fe6 0000
000fe7 0000      	.DB  0x0,0x0,0x0,0x0,0x0,0x0,0x0,0x0
000fe8 0000
000fe9 0000
000fea 0000
000feb 0000      	.DB  0x0,0x0,0x0,0x0,0x0,0x0,0x0,0x0
000fec 0000
000fed 0000
000fee 0000
000fef 0000      	.DB  0x0,0x0,0x0,0x0,0x0,0x0,0x0,0x0
000ff0 0000
000ff1 0000
000ff2 0000
000ff3 0000      	.DB  0x0,0x0,0x0,0x0,0x0,0x0,0x0,0x0
000ff4 0000
000ff5 0000
000ff6 0000
000ff7 0000      	.DB  0x0,0x0,0x0,0x0,0x0,0x0,0x0,0x0
000ff8 0000
000ff9 0000
000ffa 0000
000ffb 0000      	.DB  0x0,0x0,0x0,0x0,0x0,0x0,0x0,0x0
000ffc 0000
000ffd 0000
000ffe 0000
000fff 0000      	.DB  0x0,0x0,0x0,0x0,0x0,0x0,0x0,0x0
001000 0000
001001 0000
001002 0000
001003 0000      	.DB  0x0,0x0,0x0,0x0,0x0,0x0,0x0,0x0
001004 0000
001005 0000
001006 0000
001007 0000      	.DB  0x0,0x0,0x0,0x0,0x0,0x0,0x0,0x0
001008 0000
001009 0000
00100a 0000
00100b 0000      	.DB  0x0,0x0,0x0,0x0,0x0,0x0,0x0,0x0
00100c 0000
00100d 0000
00100e 0000
00100f 0000      	.DB  0x0,0x0,0x0,0x0,0x0,0x0,0x0,0x0
001010 0000
001011 0000
001012 0000
001013 0000      	.DB  0x0,0x0,0x0,0x0,0x0,0x0,0x0,0x0
001014 0000
001015 0000
001016 0000
001017 0000      	.DB  0x0,0x0,0x0,0x0,0x0,0x0,0x0,0x0
001018 0000
001019 0000
00101a 0000
00101b 0000      	.DB  0x0,0x0,0x0,0x0,0x0,0x0,0x0,0x0
00101c 0000
00101d 0000
00101e 0000
00101f 0000      	.DB  0x0,0x0,0x0,0x0,0x0,0x0,0x0,0x0
001020 0000
001021 0000
001022 0000
001023 0000      	.DB  0x0,0x0,0x0,0x0,0x0,0x0,0x0,0x0
001024 0000
001025 0000
001026 0000
001027 0000      	.DB  0x0,0x0,0x0,0x0,0x0,0x0,0x0,0x0
001028 0000
001029 0000
00102a 0000
00102b 0000      	.DB  0x0,0x0,0x0,0x0,0x0,0x0,0x0,0x0
00102c 0000
00102d 0000
00102e 0000
00102f 0000      	.DB  0x0,0x0,0x0,0x0,0x0,0x0,0x0,0x0
001030 0000
001031 0000
001032 0000
001033 0000      	.DB  0x0,0x0,0x0,0x0,0x0,0x0,0x0,0x0
001034 0000
001035 0000
001036 0000
001037 0000      	.DB  0x0,0x0,0x0,0x0,0x0,0x0,0x0,0x0
001038 0000
001039 0000
00103a 0000
00103b 0000      	.DB  0x0,0x0,0x0,0x0,0x0,0x0,0x0,0x0
00103c 0000
00103d 0000
00103e 0000
00103f 0000      	.DB  0x0,0x0,0x0,0x0,0x0,0x0,0x0,0x0
001040 0000
001041 0000
001042 0000
001043 0000      	.DB  0x0,0x0,0x0,0x0,0x0,0x0,0x0,0x0
001044 0000
001045 0000
001046 0000
001047 0000      	.DB  0x0,0x0,0x0,0x0,0x0,0x0,0x0,0x0
001048 0000
001049 0000
00104a 0000
00104b 0000      	.DB  0x0,0x0,0x0,0x0,0x0,0x0,0x0,0x0
00104c 0000
00104d 0000
00104e 0000
00104f 0000      	.DB  0x0,0x0,0x0,0x0,0x0,0x0,0x0,0x0
001050 0000
001051 0000
001052 0000
001053 0000      	.DB  0x0,0x0,0x0,0x0,0x0,0x0,0x0,0x0
001054 0000
001055 0000
001056 0000
001057 0000      	.DB  0x0,0x0,0x0,0x0,0x0,0x0,0x0,0x0
001058 0000
001059 0000
00105a 0000
00105b 0000      	.DB  0x0,0x0,0x0,0x0,0x0,0x0,0x0,0x0
00105c 0000
00105d 0000
00105e 0000
00105f 0000      	.DB  0x0,0x0,0x0,0x0,0x0,0x0,0x0,0x0
001060 0000
001061 0000
001062 0000
001063 0000      	.DB  0x0,0x0,0x0,0x0,0x0,0x0,0x0,0x0
001064 0000
001065 0000
001066 0000
001067 0000      	.DB  0x0,0x0,0x0,0x0,0x0,0x0,0x0,0x0
001068 0000
001069 0000
00106a 0000
00106b 0000      	.DB  0x0,0x0,0x0,0x0,0x0,0x0,0x0,0x0
00106c 0000
00106d 0000
00106e 0000
00106f 0000      	.DB  0x0,0x0,0x0,0x0,0x0,0x0,0x0,0x0
001070 0000
001071 0000
001072 0000
001073 0000      	.DB  0x0,0x0,0x0,0x0,0x0,0x0,0x0,0x0
001074 0000
001075 0000
001076 0000
001077 0000      	.DB  0x0,0x0,0x0,0x0,0x0,0x0,0x0,0x0
001078 0000
001079 0000
00107a 0000
00107b 0000      	.DB  0x0,0x0,0x0,0x0,0x0,0x0,0x0,0x0
00107c 0000
00107d 0000
00107e 0000
00107f 0000      	.DB  0x0,0x0,0x0,0x0,0x0,0x0,0x0,0x0
001080 0000
001081 0000
001082 0000
001083 0000      	.DB  0x0,0x0,0x0,0x0,0x0,0x0,0x0,0x0
001084 0000
001085 0000
001086 0000
001087 0000      	.DB  0x0,0x0,0x0,0x0,0x0,0x0,0x0,0x0
001088 0000
001089 0000
00108a 0000
00108b 0000      	.DB  0x0,0x0,0x0,0x0,0x0,0x0,0x0,0x0
00108c 0000
00108d 0000
00108e 0000
00108f 0000      	.DB  0x0,0x0,0x0,0x0,0x0,0x0,0x0,0x0
001090 0000
001091 0000
001092 0000
001093 0000      	.DB  0x0,0x0,0x0,0x0,0x0,0x0,0x0,0x0
001094 0000
001095 0000
001096 0000
001097 0000      	.DB  0x0,0x0,0x0,0x0,0x0,0x0,0x0,0x0
001098 0000
001099 0000
00109a 0000
00109b 0000      	.DB  0x0,0x0,0x0,0x0,0x0,0x0,0x0,0x0
00109c 0000
00109d 0000
00109e 0000
00109f 0000      	.DB  0x0,0x0,0x0,0x0,0x0,0x0,0x0,0x0
0010a0 0000
0010a1 0000
0010a2 0000
0010a3 0000      	.DB  0x0,0x0,0x0,0x0,0x0,0x0,0x0,0x0
0010a4 0000
0010a5 0000
0010a6 0000
0010a7 0000      	.DB  0x0,0x0,0x0,0x0,0x0,0x0,0x0,0x0
0010a8 0000
0010a9 0000
0010aa 0000
0010ab 0000      	.DB  0x0,0x0,0x0,0x0,0x0,0x0,0x0,0x0
0010ac 0000
0010ad 0000
0010ae 0000
0010af 0000      	.DB  0x0,0x0,0x0,0x0,0x0,0x0,0x0,0x0
0010b0 0000
0010b1 0000
0010b2 0000
0010b3 0000      	.DB  0x0,0x0,0x0,0x0,0x0,0x0,0x0,0x0
0010b4 0000
0010b5 0000
0010b6 0000
0010b7 0000      	.DB  0x0,0x0,0x0,0x0,0x0,0x0,0x0,0x0
0010b8 0000
0010b9 0000
0010ba 0000
0010bb 0000      	.DB  0x0,0x0,0x0,0x0,0x0,0x0,0x0,0x0
0010bc 0000
0010bd 0000
0010be 0000
0010bf 0000      	.DB  0x0,0x0,0x0,0x0,0x0,0x0,0x0,0x0
0010c0 0000
0010c1 0000
0010c2 0000
0010c3 0000      	.DB  0x0,0x0,0x0,0x0,0x0,0x0,0x0,0x0
0010c4 0000
0010c5 0000
0010c6 0000
0010c7 0000      	.DB  0x0,0x0,0x0,0x0,0x0,0x0,0x0,0x0
0010c8 0000
0010c9 0000
0010ca 0000
0010cb 0000      	.DB  0x0,0x0,0x0,0x0,0x0,0x0,0x0,0x0
0010cc 0000
0010cd 0000
0010ce 0000
0010cf 0000      	.DB  0x0,0x0,0x0,0x0,0x0,0x0,0x0,0x0
0010d0 0000
0010d1 0000
0010d2 0000
0010d3 0000      	.DB  0x0,0x0,0x0,0x0,0x0,0x0,0x0,0x0
0010d4 0000
0010d5 0000
0010d6 0000
0010d7 0000      	.DB  0x0,0x0,0x0,0x0,0x0,0x0,0x0,0x0
0010d8 0000
0010d9 0000
0010da 0000
0010db 0000      	.DB  0x0,0x0,0x0,0x0,0x0,0x0,0x0,0x0
0010dc 0000
0010dd 0000
0010de 0000
0010df 0000      	.DB  0x0,0x0,0x0,0x0,0x0,0x0,0x0,0x0
0010e0 0000
0010e1 0000
0010e2 0000
0010e3 0000      	.DB  0x0,0x0,0x0,0x0,0x0,0x0,0x0,0x0
0010e4 0000
0010e5 0000
0010e6 0000
0010e7 0000      	.DB  0x0,0x0,0x0,0x0,0x0,0x0,0x0,0x0
0010e8 0000
0010e9 0000
0010ea 0000
0010eb 0000      	.DB  0x0,0x0,0x0,0x0,0x0,0x0,0x0,0x0
0010ec 0000
0010ed 0000
0010ee 0000
0010ef 0000      	.DB  0x0,0x0,0x0,0x0,0x0,0x0,0x0,0x0
0010f0 0000
0010f1 0000
0010f2 0000
0010f3 0000      	.DB  0x0,0x0,0x0,0x0,0x0,0x0,0x0,0x0
0010f4 0000
0010f5 0000
0010f6 0000
0010f7 0000      	.DB  0x0,0x0,0x0,0x0,0x0,0x0,0x0,0x0
                 _GPS2:
0010f8 0000
0010f9 0000
0010fa 0000
0010fb 0000      	.DB  0x0,0x0,0x0,0x0,0x0,0x0,0x0,0x0
0010fc 0000
0010fd 0000
0010fe 0000
0010ff 0000      	.DB  0x0,0x0,0x0,0x0,0x0,0x0,0x0,0x0
001100 0000
001101 0000
001102 0000
001103 0000      	.DB  0x0,0x0,0x0,0x0,0x0,0x0,0x0,0x0
001104 0000
001105 0000
001106 0000
001107 0000      	.DB  0x0,0x0,0x0,0x0,0x0,0x0,0x0,0x0
001108 0000
001109 0000
00110a 0000
00110b 0000      	.DB  0x0,0x0,0x0,0x0,0x0,0x0,0x0,0x0
00110c 0000
00110d 0000
00110e 0000
00110f 0000      	.DB  0x0,0x0,0x0,0x0,0x0,0x0,0x0,0x0
001110 0000
001111 0000
001112 0000
001113 0000      	.DB  0x0,0x0,0x0,0x0,0x0,0x0,0x0,0x0
001114 0000
001115 0000
001116 0000
001117 0000      	.DB  0x0,0x0,0x0,0x0,0x0,0x0,0x0,0x0
001118 0000
001119 0000
00111a 0000
00111b 0000      	.DB  0x0,0x0,0x0,0x0,0x0,0x0,0x0,0x0
00111c 0000
00111d 0000
00111e 0000
00111f 0000      	.DB  0x0,0x0,0x0,0x0,0x0,0x0,0x0,0x0
001120 0000
001121 0000
001122 0000
001123 0000      	.DB  0x0,0x0,0x0,0x0,0x0,0x0,0x0,0x0
001124 0000
001125 0000
001126 0000
001127 0000      	.DB  0x0,0x0,0x0,0x0,0x0,0x0,0x0,0x0
001128 10e0
001129 9090
00112a 0080
00112b 90f0      	.DB  0xE0,0x10,0x90,0x90,0x80,0x0,0xF0,0x90
00112c 9090
00112d 0060
00112e 9060
00112f 1090      	.DB  0x90,0x90,0x60,0x0,0x60,0x90,0x90,0x10
001130 0000
001131 0000
001132 0000
001133 0000      	.DB  0x0,0x0,0x0,0x0,0x0,0x0,0x0,0x0
001134 0000
001135 7880
001136 fc00
001137 0000      	.DB  0x0,0x0,0x80,0x78,0x0,0xFC,0x0,0x0
001138 0000
001139 0000
00113a 0000
00113b 0000      	.DB  0x0,0x0,0x0,0x0,0x0,0x0,0x0,0x0
00113c 0000
00113d 0000
00113e 0000
00113f 0000      	.DB  0x0,0x0,0x0,0x0,0x0,0x0,0x0,0x0
001140 0000
001141 0000
001142 0000
001143 0000      	.DB  0x0,0x0,0x0,0x0,0x0,0x0,0x0,0x0
001144 0000
001145 0000
001146 0000
001147 0000      	.DB  0x0,0x0,0x0,0x0,0x0,0x0,0x0,0x0
001148 0000
001149 0000
00114a 0000
00114b 0000      	.DB  0x0,0x0,0x0,0x0,0x0,0x0,0x0,0x0
00114c 0000
00114d 0000
00114e 0000
00114f 0000      	.DB  0x0,0x0,0x0,0x0,0x0,0x0,0x0,0x0
001150 0000
001151 0000
001152 0000
001153 0000      	.DB  0x0,0x0,0x0,0x0,0x0,0x0,0x0,0x0
001154 0000
001155 0000
001156 0000
001157 0000      	.DB  0x0,0x0,0x0,0x0,0x0,0x0,0x0,0x0
001158 0000
001159 0000
00115a 0000
00115b 0000      	.DB  0x0,0x0,0x0,0x0,0x0,0x0,0x0,0x0
00115c 0000
00115d 0000
00115e 0000
00115f 0000      	.DB  0x0,0x0,0x0,0x0,0x0,0x0,0x0,0x0
001160 0000
001161 0000
001162 0000
001163 0000      	.DB  0x0,0x0,0x0,0x0,0x0,0x0,0x0,0x0
001164 0000
001165 0000
001166 0000
001167 0000      	.DB  0x0,0x0,0x0,0x0,0x0,0x0,0x0,0x0
001168 0403
001169 0404
00116a 0003
00116b 0007      	.DB  0x3,0x4,0x4,0x4,0x3,0x0,0x7,0x0
00116c 0000
00116d 0000
00116e 0404
00116f 0304      	.DB  0x0,0x0,0x0,0x0,0x4,0x4,0x4,0x3
001170 0000
001171 1000
001172 1414
001173 1414      	.DB  0x0,0x0,0x0,0x10,0x14,0x14,0x14,0x14
001174 0912
001175 0a04
001176 1835
001177 0008      	.DB  0x12,0x9,0x4,0xA,0x35,0x18,0x8,0x0
001178 0000
001179 0000
00117a 0000
00117b 0000      	.DB  0x0,0x0,0x0,0x0,0x0,0x0,0x0,0x0
00117c 0000
00117d 0000
00117e 0000
00117f 0000      	.DB  0x0,0x0,0x0,0x0,0x0,0x0,0x0,0x0
001180 0000
001181 0000
001182 0000
001183 0000      	.DB  0x0,0x0,0x0,0x0,0x0,0x0,0x0,0x0
001184 0000
001185 0000
001186 0000
001187 0000      	.DB  0x0,0x0,0x0,0x0,0x0,0x0,0x0,0x0
001188 0000
001189 0000
00118a 0000
00118b 0000      	.DB  0x0,0x0,0x0,0x0,0x0,0x0,0x0,0x0
00118c 0000
00118d 0000
00118e 0000
00118f 0000      	.DB  0x0,0x0,0x0,0x0,0x0,0x0,0x0,0x0
001190 0000
001191 0000
001192 0000
001193 0000      	.DB  0x0,0x0,0x0,0x0,0x0,0x0,0x0,0x0
001194 0000
001195 0000
001196 0000
001197 0000      	.DB  0x0,0x0,0x0,0x0,0x0,0x0,0x0,0x0
001198 0000
001199 0000
00119a 0000
00119b 0000      	.DB  0x0,0x0,0x0,0x0,0x0,0x0,0x0,0x0
00119c 0000
00119d 0000
00119e 0000
00119f 0000      	.DB  0x0,0x0,0x0,0x0,0x0,0x0,0x0,0x0
0011a0 0000
0011a1 0000
0011a2 0000
0011a3 0000      	.DB  0x0,0x0,0x0,0x0,0x0,0x0,0x0,0x0
0011a4 0000
0011a5 0000
0011a6 0000
0011a7 0000      	.DB  0x0,0x0,0x0,0x0,0x0,0x0,0x0,0x0
0011a8 0000
0011a9 0000
0011aa 0000
0011ab 0000      	.DB  0x0,0x0,0x0,0x0,0x0,0x0,0x0,0x0
0011ac 0000
0011ad 0000
0011ae 0000
0011af 0000      	.DB  0x0,0x0,0x0,0x0,0x0,0x0,0x0,0x0
0011b0 0000
0011b1 0000
0011b2 0000
0011b3 0000      	.DB  0x0,0x0,0x0,0x0,0x0,0x0,0x0,0x0
0011b4 0000
0011b5 0000
0011b6 0000
0011b7 0000      	.DB  0x0,0x0,0x0,0x0,0x0,0x0,0x0,0x0
0011b8 0000
0011b9 0000
0011ba 0000
0011bb 0000      	.DB  0x0,0x0,0x0,0x0,0x0,0x0,0x0,0x0
0011bc 0000
0011bd 0000
0011be 0000
0011bf 0000      	.DB  0x0,0x0,0x0,0x0,0x0,0x0,0x0,0x0
0011c0 0000
0011c1 0000
0011c2 0000
0011c3 0000      	.DB  0x0,0x0,0x0,0x0,0x0,0x0,0x0,0x0
0011c4 0000
0011c5 0000
0011c6 0000
0011c7 0000      	.DB  0x0,0x0,0x0,0x0,0x0,0x0,0x0,0x0
0011c8 0000
0011c9 0000
0011ca 0000
0011cb 0000      	.DB  0x0,0x0,0x0,0x0,0x0,0x0,0x0,0x0
0011cc 0000
0011cd 0000
0011ce 0000
0011cf 0000      	.DB  0x0,0x0,0x0,0x0,0x0,0x0,0x0,0x0
0011d0 0000
0011d1 0000
0011d2 0000
0011d3 0000      	.DB  0x0,0x0,0x0,0x0,0x0,0x0,0x0,0x0
0011d4 0000
0011d5 0000
0011d6 0000
0011d7 0000      	.DB  0x0,0x0,0x0,0x0,0x0,0x0,0x0,0x0
0011d8 0000
0011d9 0000
0011da 0000
0011db 0000      	.DB  0x0,0x0,0x0,0x0,0x0,0x0,0x0,0x0
0011dc 0000
0011dd 0000
0011de 0000
0011df 0000      	.DB  0x0,0x0,0x0,0x0,0x0,0x0,0x0,0x0
0011e0 0000
0011e1 0000
0011e2 0000
0011e3 0000      	.DB  0x0,0x0,0x0,0x0,0x0,0x0,0x0,0x0
0011e4 0000
0011e5 0000
0011e6 0000
0011e7 0000      	.DB  0x0,0x0,0x0,0x0,0x0,0x0,0x0,0x0
0011e8 0000
0011e9 0000
0011ea 0000
0011eb 0000      	.DB  0x0,0x0,0x0,0x0,0x0,0x0,0x0,0x0
0011ec 0000
0011ed 0000
0011ee 0000
0011ef 0000      	.DB  0x0,0x0,0x0,0x0,0x0,0x0,0x0,0x0
0011f0 0000
0011f1 0000
0011f2 0000
0011f3 0000      	.DB  0x0,0x0,0x0,0x0,0x0,0x0,0x0,0x0
0011f4 0000
0011f5 0000
0011f6 0000
0011f7 0000      	.DB  0x0,0x0,0x0,0x0,0x0,0x0,0x0,0x0
0011f8 0000
0011f9 0000
0011fa 0000
0011fb 0000      	.DB  0x0,0x0,0x0,0x0,0x0,0x0,0x0,0x0
0011fc 0000
0011fd 0000
0011fe 0000
0011ff 0000      	.DB  0x0,0x0,0x0,0x0,0x0,0x0,0x0,0x0
001200 0000
001201 0000
001202 0000
001203 0000      	.DB  0x0,0x0,0x0,0x0,0x0,0x0,0x0,0x0
001204 0000
001205 0000
001206 0000
001207 0000      	.DB  0x0,0x0,0x0,0x0,0x0,0x0,0x0,0x0
001208 0000
001209 0000
00120a 0000
00120b 0000      	.DB  0x0,0x0,0x0,0x0,0x0,0x0,0x0,0x0
00120c 0000
00120d 0000
00120e 0000
00120f 0000      	.DB  0x0,0x0,0x0,0x0,0x0,0x0,0x0,0x0
001210 0000
001211 0000
001212 0000
001213 0000      	.DB  0x0,0x0,0x0,0x0,0x0,0x0,0x0,0x0
001214 0000
001215 0000
001216 0000
001217 0000      	.DB  0x0,0x0,0x0,0x0,0x0,0x0,0x0,0x0
001218 0000
001219 0000
00121a 0000
00121b 0000      	.DB  0x0,0x0,0x0,0x0,0x0,0x0,0x0,0x0
00121c 0000
00121d 0000
00121e 0000
00121f 0000      	.DB  0x0,0x0,0x0,0x0,0x0,0x0,0x0,0x0
001220 0000
001221 0000
001222 0000
001223 0000      	.DB  0x0,0x0,0x0,0x0,0x0,0x0,0x0,0x0
001224 0000
001225 0000
001226 0000
001227 0000      	.DB  0x0,0x0,0x0,0x0,0x0,0x0,0x0,0x0
001228 0000
001229 0000
00122a 0000
00122b 0000      	.DB  0x0,0x0,0x0,0x0,0x0,0x0,0x0,0x0
00122c 0000
00122d 0000
00122e 0000
00122f 0000      	.DB  0x0,0x0,0x0,0x0,0x0,0x0,0x0,0x0
001230 0000
001231 0000
001232 0000
001233 0000      	.DB  0x0,0x0,0x0,0x0,0x0,0x0,0x0,0x0
001234 0000
001235 0000
001236 0000
001237 0000      	.DB  0x0,0x0,0x0,0x0,0x0,0x0,0x0,0x0
001238 0000
001239 0000
00123a 0000
00123b 0000      	.DB  0x0,0x0,0x0,0x0,0x0,0x0,0x0,0x0
00123c 0000
00123d 0000
00123e 0000
00123f 0000      	.DB  0x0,0x0,0x0,0x0,0x0,0x0,0x0,0x0
001240 0000
001241 0000
001242 0000
001243 0000      	.DB  0x0,0x0,0x0,0x0,0x0,0x0,0x0,0x0
001244 0000
001245 0000
001246 0000
001247 0000      	.DB  0x0,0x0,0x0,0x0,0x0,0x0,0x0,0x0
001248 0000
001249 0000
00124a 0000
00124b 0000      	.DB  0x0,0x0,0x0,0x0,0x0,0x0,0x0,0x0
00124c 0000
00124d 0000
00124e 0000
00124f 0000      	.DB  0x0,0x0,0x0,0x0,0x0,0x0,0x0,0x0
001250 0000
001251 0000
001252 0000
001253 0000      	.DB  0x0,0x0,0x0,0x0,0x0,0x0,0x0,0x0
001254 0000
001255 0000
001256 0000
001257 0000      	.DB  0x0,0x0,0x0,0x0,0x0,0x0,0x0,0x0
001258 0000
001259 0000
00125a 0000
00125b 0000      	.DB  0x0,0x0,0x0,0x0,0x0,0x0,0x0,0x0
00125c 0000
00125d 0000
00125e 0000
00125f 0000      	.DB  0x0,0x0,0x0,0x0,0x0,0x0,0x0,0x0
001260 0000
001261 0000
001262 0000
001263 0000      	.DB  0x0,0x0,0x0,0x0,0x0,0x0,0x0,0x0
001264 0000
001265 0000
001266 0000
001267 0000      	.DB  0x0,0x0,0x0,0x0,0x0,0x0,0x0,0x0
001268 0000
001269 0000
00126a 0000
00126b 0000      	.DB  0x0,0x0,0x0,0x0,0x0,0x0,0x0,0x0
00126c 0000
00126d 0000
00126e 0000
00126f 0000      	.DB  0x0,0x0,0x0,0x0,0x0,0x0,0x0,0x0
001270 0000
001271 0000
001272 0000
001273 0000      	.DB  0x0,0x0,0x0,0x0,0x0,0x0,0x0,0x0
001274 0000
001275 0000
001276 0000
001277 0000      	.DB  0x0,0x0,0x0,0x0,0x0,0x0,0x0,0x0
001278 0000
001279 0000
00127a 0000
00127b 0000      	.DB  0x0,0x0,0x0,0x0,0x0,0x0,0x0,0x0
00127c 0000
00127d 0000
00127e 0000
00127f 0000      	.DB  0x0,0x0,0x0,0x0,0x0,0x0,0x0,0x0
001280 0000
001281 0000
001282 0000
001283 0000      	.DB  0x0,0x0,0x0,0x0,0x0,0x0,0x0,0x0
001284 0000
001285 0000
001286 0000
001287 0000      	.DB  0x0,0x0,0x0,0x0,0x0,0x0,0x0,0x0
001288 0000
001289 0000
00128a 0000
00128b 0000      	.DB  0x0,0x0,0x0,0x0,0x0,0x0,0x0,0x0
00128c 0000
00128d 0000
00128e 0000
00128f 0000      	.DB  0x0,0x0,0x0,0x0,0x0,0x0,0x0,0x0
001290 0000
001291 0000
001292 0000
001293 0000      	.DB  0x0,0x0,0x0,0x0,0x0,0x0,0x0,0x0
001294 0000
001295 0000
001296 0000
001297 0000      	.DB  0x0,0x0,0x0,0x0,0x0,0x0,0x0,0x0
001298 0000
001299 0000
00129a 0000
00129b 0000      	.DB  0x0,0x0,0x0,0x0,0x0,0x0,0x0,0x0
00129c 0000
00129d 0000
00129e 0000
00129f 0000      	.DB  0x0,0x0,0x0,0x0,0x0,0x0,0x0,0x0
0012a0 0000
0012a1 0000
0012a2 0000
0012a3 0000      	.DB  0x0,0x0,0x0,0x0,0x0,0x0,0x0,0x0
0012a4 0000
0012a5 0000
0012a6 0000
0012a7 0000      	.DB  0x0,0x0,0x0,0x0,0x0,0x0,0x0,0x0
0012a8 0000
0012a9 0000
0012aa 0000
0012ab 0000      	.DB  0x0,0x0,0x0,0x0,0x0,0x0,0x0,0x0
0012ac 0000
0012ad 0000
0012ae 0000
0012af 0000      	.DB  0x0,0x0,0x0,0x0,0x0,0x0,0x0,0x0
0012b0 0000
0012b1 0000
0012b2 0000
0012b3 0000      	.DB  0x0,0x0,0x0,0x0,0x0,0x0,0x0,0x0
0012b4 0000
0012b5 0000
0012b6 0000
0012b7 0000      	.DB  0x0,0x0,0x0,0x0,0x0,0x0,0x0,0x0
0012b8 0000
0012b9 0000
0012ba 0000
0012bb 0000      	.DB  0x0,0x0,0x0,0x0,0x0,0x0,0x0,0x0
0012bc 0000
0012bd 0000
0012be 0000
0012bf 0000      	.DB  0x0,0x0,0x0,0x0,0x0,0x0,0x0,0x0
0012c0 0000
0012c1 0000
0012c2 0000
0012c3 0000      	.DB  0x0,0x0,0x0,0x0,0x0,0x0,0x0,0x0
0012c4 0000
0012c5 0000
0012c6 0000
0012c7 0000      	.DB  0x0,0x0,0x0,0x0,0x0,0x0,0x0,0x0
0012c8 0000
0012c9 0000
0012ca 0000
0012cb 0000      	.DB  0x0,0x0,0x0,0x0,0x0,0x0,0x0,0x0
0012cc 0000
0012cd 0000
0012ce 0000
0012cf 0000      	.DB  0x0,0x0,0x0,0x0,0x0,0x0,0x0,0x0
0012d0 0000
0012d1 0000
0012d2 0000
0012d3 0000      	.DB  0x0,0x0,0x0,0x0,0x0,0x0,0x0,0x0
0012d4 0000
0012d5 0000
0012d6 0000
0012d7 0000      	.DB  0x0,0x0,0x0,0x0,0x0,0x0,0x0,0x0
0012d8 0000
0012d9 0000
0012da 0000
0012db 0000      	.DB  0x0,0x0,0x0,0x0,0x0,0x0,0x0,0x0
0012dc 0000
0012dd 0000
0012de 0000
0012df 0000      	.DB  0x0,0x0,0x0,0x0,0x0,0x0,0x0,0x0
0012e0 0000
0012e1 0000
0012e2 0000
0012e3 0000      	.DB  0x0,0x0,0x0,0x0,0x0,0x0,0x0,0x0
0012e4 0000
0012e5 0000
0012e6 0000
0012e7 0000      	.DB  0x0,0x0,0x0,0x0,0x0,0x0,0x0,0x0
0012e8 0000
0012e9 0000
0012ea 0000
0012eb 0000      	.DB  0x0,0x0,0x0,0x0,0x0,0x0,0x0,0x0
0012ec 0000
0012ed 0000
0012ee 0000
0012ef 0000      	.DB  0x0,0x0,0x0,0x0,0x0,0x0,0x0,0x0
0012f0 0000
0012f1 0000
0012f2 0000
0012f3 0000      	.DB  0x0,0x0,0x0,0x0,0x0,0x0,0x0,0x0
0012f4 0000
0012f5 0000
0012f6 0000
0012f7 0000      	.DB  0x0,0x0,0x0,0x0,0x0,0x0,0x0,0x0
                 _GSM1:
0012f8 0000
0012f9 0000
0012fa 0000
0012fb 8000      	.DB  0x0,0x0,0x0,0x0,0x0,0x0,0x0,0x80
0012fc 0080
0012fd e0e0
0012fe f800
0012ff 00f8      	.DB  0x80,0x0,0xE0,0xE0,0x0,0xF8,0xF8,0x0
001300 fefe
001301 0000
001302 0000
001303 0000      	.DB  0xFE,0xFE,0x0,0x0,0x0,0x0,0x0,0x0
001304 0000
001305 0000
001306 0000
001307 0000      	.DB  0x0,0x0,0x0,0x0,0x0,0x0,0x0,0x0
001308 0000
001309 0000
00130a 0000
00130b 0000      	.DB  0x0,0x0,0x0,0x0,0x0,0x0,0x0,0x0
00130c 0000
00130d 0000
00130e 0000
00130f 0000      	.DB  0x0,0x0,0x0,0x0,0x0,0x0,0x0,0x0
001310 0000
001311 0000
001312 0000
001313 0000      	.DB  0x0,0x0,0x0,0x0,0x0,0x0,0x0,0x0
001314 0000
001315 0000
001316 0000
001317 0000      	.DB  0x0,0x0,0x0,0x0,0x0,0x0,0x0,0x0
001318 0000
001319 0000
00131a 0000
00131b 0000      	.DB  0x0,0x0,0x0,0x0,0x0,0x0,0x0,0x0
00131c 0000
00131d 0000
00131e 0000
00131f 0000      	.DB  0x0,0x0,0x0,0x0,0x0,0x0,0x0,0x0
001320 0000
001321 0000
001322 0000
001323 0000      	.DB  0x0,0x0,0x0,0x0,0x0,0x0,0x0,0x0
001324 0000
001325 0000
001326 0000
001327 0000      	.DB  0x0,0x0,0x0,0x0,0x0,0x0,0x0,0x0
001328 0000
001329 0000
00132a 0000
00132b 0000      	.DB  0x0,0x0,0x0,0x0,0x0,0x0,0x0,0x0
00132c 0000
00132d 0000
00132e 0000
00132f 0000      	.DB  0x0,0x0,0x0,0x0,0x0,0x0,0x0,0x0
001330 0000
001331 0000
001332 0000
001333 0000      	.DB  0x0,0x0,0x0,0x0,0x0,0x0,0x0,0x0
001334 0000
001335 0000
001336 0000
001337 0000      	.DB  0x0,0x0,0x0,0x0,0x0,0x0,0x0,0x0
001338 0600
001339 0006
00133a 0707
00133b 0700      	.DB  0x0,0x6,0x6,0x0,0x7,0x7,0x0,0x7
00133c 0007
00133d 0707
00133e 0700
00133f 0007      	.DB  0x7,0x0,0x7,0x7,0x0,0x7,0x7,0x0
001340 0707
001341 0000
001342 0000
001343 0000      	.DB  0x7,0x7,0x0,0x0,0x0,0x0,0x0,0x0
001344 0000
001345 0000
001346 0000
001347 0000      	.DB  0x0,0x0,0x0,0x0,0x0,0x0,0x0,0x0
001348 0000
001349 0000
00134a 0000
00134b 0000      	.DB  0x0,0x0,0x0,0x0,0x0,0x0,0x0,0x0
00134c 0000
00134d 0000
00134e 0000
00134f 0000      	.DB  0x0,0x0,0x0,0x0,0x0,0x0,0x0,0x0
001350 0000
001351 0000
001352 0000
001353 0000      	.DB  0x0,0x0,0x0,0x0,0x0,0x0,0x0,0x0
001354 0000
001355 0000
001356 0000
001357 0000      	.DB  0x0,0x0,0x0,0x0,0x0,0x0,0x0,0x0
001358 0000
001359 0000
00135a 0000
00135b 0000      	.DB  0x0,0x0,0x0,0x0,0x0,0x0,0x0,0x0
00135c 0000
00135d 0000
00135e 0000
00135f 0000      	.DB  0x0,0x0,0x0,0x0,0x0,0x0,0x0,0x0
001360 0000
001361 0000
001362 0000
001363 0000      	.DB  0x0,0x0,0x0,0x0,0x0,0x0,0x0,0x0
001364 0000
001365 0000
001366 0000
001367 0000      	.DB  0x0,0x0,0x0,0x0,0x0,0x0,0x0,0x0
001368 0000
001369 0000
00136a 0000
00136b 0000      	.DB  0x0,0x0,0x0,0x0,0x0,0x0,0x0,0x0
00136c 0000
00136d 0000
00136e 0000
00136f 0000      	.DB  0x0,0x0,0x0,0x0,0x0,0x0,0x0,0x0
001370 0000
001371 0000
001372 0000
001373 0000      	.DB  0x0,0x0,0x0,0x0,0x0,0x0,0x0,0x0
001374 0000
001375 0000
001376 0000
001377 0000      	.DB  0x0,0x0,0x0,0x0,0x0,0x0,0x0,0x0
001378 0000
001379 0000
00137a 0000
00137b 0000      	.DB  0x0,0x0,0x0,0x0,0x0,0x0,0x0,0x0
00137c 0000
00137d 0000
00137e 0000
00137f 0000      	.DB  0x0,0x0,0x0,0x0,0x0,0x0,0x0,0x0
001380 0000
001381 0000
001382 0000
001383 0000      	.DB  0x0,0x0,0x0,0x0,0x0,0x0,0x0,0x0
001384 0000
001385 0000
001386 0000
001387 0000      	.DB  0x0,0x0,0x0,0x0,0x0,0x0,0x0,0x0
001388 0000
001389 0000
00138a 0000
00138b 0000      	.DB  0x0,0x0,0x0,0x0,0x0,0x0,0x0,0x0
00138c 0000
00138d 0000
00138e 0000
00138f 0000      	.DB  0x0,0x0,0x0,0x0,0x0,0x0,0x0,0x0
001390 0000
001391 0000
001392 0000
001393 0000      	.DB  0x0,0x0,0x0,0x0,0x0,0x0,0x0,0x0
001394 0000
001395 0000
001396 0000
001397 0000      	.DB  0x0,0x0,0x0,0x0,0x0,0x0,0x0,0x0
001398 0000
001399 0000
00139a 0000
00139b 0000      	.DB  0x0,0x0,0x0,0x0,0x0,0x0,0x0,0x0
00139c 0000
00139d 0000
00139e 0000
00139f 0000      	.DB  0x0,0x0,0x0,0x0,0x0,0x0,0x0,0x0
0013a0 0000
0013a1 0000
0013a2 0000
0013a3 0000      	.DB  0x0,0x0,0x0,0x0,0x0,0x0,0x0,0x0
0013a4 0000
0013a5 0000
0013a6 0000
0013a7 0000      	.DB  0x0,0x0,0x0,0x0,0x0,0x0,0x0,0x0
0013a8 0000
0013a9 0000
0013aa 0000
0013ab 0000      	.DB  0x0,0x0,0x0,0x0,0x0,0x0,0x0,0x0
0013ac 0000
0013ad 0000
0013ae 0000
0013af 0000      	.DB  0x0,0x0,0x0,0x0,0x0,0x0,0x0,0x0
0013b0 0000
0013b1 0000
0013b2 0000
0013b3 0000      	.DB  0x0,0x0,0x0,0x0,0x0,0x0,0x0,0x0
0013b4 0000
0013b5 0000
0013b6 0000
0013b7 0000      	.DB  0x0,0x0,0x0,0x0,0x0,0x0,0x0,0x0
0013b8 0000
0013b9 0000
0013ba 0000
0013bb 0000      	.DB  0x0,0x0,0x0,0x0,0x0,0x0,0x0,0x0
0013bc 0000
0013bd 0000
0013be 0000
0013bf 0000      	.DB  0x0,0x0,0x0,0x0,0x0,0x0,0x0,0x0
0013c0 0000
0013c1 0000
0013c2 0000
0013c3 0000      	.DB  0x0,0x0,0x0,0x0,0x0,0x0,0x0,0x0
0013c4 0000
0013c5 0000
0013c6 0000
0013c7 0000      	.DB  0x0,0x0,0x0,0x0,0x0,0x0,0x0,0x0
0013c8 0000
0013c9 0000
0013ca 0000
0013cb 0000      	.DB  0x0,0x0,0x0,0x0,0x0,0x0,0x0,0x0
0013cc 0000
0013cd 0000
0013ce 0000
0013cf 0000      	.DB  0x0,0x0,0x0,0x0,0x0,0x0,0x0,0x0
0013d0 0000
0013d1 0000
0013d2 0000
0013d3 0000      	.DB  0x0,0x0,0x0,0x0,0x0,0x0,0x0,0x0
0013d4 0000
0013d5 0000
0013d6 0000
0013d7 0000      	.DB  0x0,0x0,0x0,0x0,0x0,0x0,0x0,0x0
0013d8 0000
0013d9 0000
0013da 0000
0013db 0000      	.DB  0x0,0x0,0x0,0x0,0x0,0x0,0x0,0x0
0013dc 0000
0013dd 0000
0013de 0000
0013df 0000      	.DB  0x0,0x0,0x0,0x0,0x0,0x0,0x0,0x0
0013e0 0000
0013e1 0000
0013e2 0000
0013e3 0000      	.DB  0x0,0x0,0x0,0x0,0x0,0x0,0x0,0x0
0013e4 0000
0013e5 0000
0013e6 0000
0013e7 0000      	.DB  0x0,0x0,0x0,0x0,0x0,0x0,0x0,0x0
0013e8 0000
0013e9 0000
0013ea 0000
0013eb 0000      	.DB  0x0,0x0,0x0,0x0,0x0,0x0,0x0,0x0
0013ec 0000
0013ed 0000
0013ee 0000
0013ef 0000      	.DB  0x0,0x0,0x0,0x0,0x0,0x0,0x0,0x0
0013f0 0000
0013f1 0000
0013f2 0000
0013f3 0000      	.DB  0x0,0x0,0x0,0x0,0x0,0x0,0x0,0x0
0013f4 0000
0013f5 0000
0013f6 0000
0013f7 0000      	.DB  0x0,0x0,0x0,0x0,0x0,0x0,0x0,0x0
0013f8 0000
0013f9 0000
0013fa 0000
0013fb 0000      	.DB  0x0,0x0,0x0,0x0,0x0,0x0,0x0,0x0
0013fc 0000
0013fd 0000
0013fe 0000
0013ff 0000      	.DB  0x0,0x0,0x0,0x0,0x0,0x0,0x0,0x0
001400 0000
001401 0000
001402 0000
001403 0000      	.DB  0x0,0x0,0x0,0x0,0x0,0x0,0x0,0x0
001404 0000
001405 0000
001406 0000
001407 0000      	.DB  0x0,0x0,0x0,0x0,0x0,0x0,0x0,0x0
001408 0000
001409 0000
00140a 0000
00140b 0000      	.DB  0x0,0x0,0x0,0x0,0x0,0x0,0x0,0x0
00140c 0000
00140d 0000
00140e 0000
00140f 0000      	.DB  0x0,0x0,0x0,0x0,0x0,0x0,0x0,0x0
001410 0000
001411 0000
001412 0000
001413 0000      	.DB  0x0,0x0,0x0,0x0,0x0,0x0,0x0,0x0
001414 0000
001415 0000
001416 0000
001417 0000      	.DB  0x0,0x0,0x0,0x0,0x0,0x0,0x0,0x0
001418 0000
001419 0000
00141a 0000
00141b 0000      	.DB  0x0,0x0,0x0,0x0,0x0,0x0,0x0,0x0
00141c 0000
00141d 0000
00141e 0000
00141f 0000      	.DB  0x0,0x0,0x0,0x0,0x0,0x0,0x0,0x0
001420 0000
001421 0000
001422 0000
001423 0000      	.DB  0x0,0x0,0x0,0x0,0x0,0x0,0x0,0x0
001424 0000
001425 0000
001426 0000
001427 0000      	.DB  0x0,0x0,0x0,0x0,0x0,0x0,0x0,0x0
001428 0000
001429 0000
00142a 0000
00142b 0000      	.DB  0x0,0x0,0x0,0x0,0x0,0x0,0x0,0x0
00142c 0000
00142d 0000
00142e 0000
00142f 0000      	.DB  0x0,0x0,0x0,0x0,0x0,0x0,0x0,0x0
001430 0000
001431 0000
001432 0000
001433 0000      	.DB  0x0,0x0,0x0,0x0,0x0,0x0,0x0,0x0
001434 0000
001435 0000
001436 0000
001437 0000      	.DB  0x0,0x0,0x0,0x0,0x0,0x0,0x0,0x0
001438 0000
001439 0000
00143a 0000
00143b 0000      	.DB  0x0,0x0,0x0,0x0,0x0,0x0,0x0,0x0
00143c 0000
00143d 0000
00143e 0000
00143f 0000      	.DB  0x0,0x0,0x0,0x0,0x0,0x0,0x0,0x0
001440 0000
001441 0000
001442 0000
001443 0000      	.DB  0x0,0x0,0x0,0x0,0x0,0x0,0x0,0x0
001444 0000
001445 0000
001446 0000
001447 0000      	.DB  0x0,0x0,0x0,0x0,0x0,0x0,0x0,0x0
001448 0000
001449 0000
00144a 0000
00144b 0000      	.DB  0x0,0x0,0x0,0x0,0x0,0x0,0x0,0x0
00144c 0000
00144d 0000
00144e 0000
00144f 0000      	.DB  0x0,0x0,0x0,0x0,0x0,0x0,0x0,0x0
001450 0000
001451 0000
001452 0000
001453 0000      	.DB  0x0,0x0,0x0,0x0,0x0,0x0,0x0,0x0
001454 0000
001455 0000
001456 0000
001457 0000      	.DB  0x0,0x0,0x0,0x0,0x0,0x0,0x0,0x0
001458 0000
001459 0000
00145a 0000
00145b 0000      	.DB  0x0,0x0,0x0,0x0,0x0,0x0,0x0,0x0
00145c 0000
00145d 0000
00145e 0000
00145f 0000      	.DB  0x0,0x0,0x0,0x0,0x0,0x0,0x0,0x0
001460 0000
001461 0000
001462 0000
001463 0000      	.DB  0x0,0x0,0x0,0x0,0x0,0x0,0x0,0x0
001464 0000
001465 0000
001466 0000
001467 0000      	.DB  0x0,0x0,0x0,0x0,0x0,0x0,0x0,0x0
001468 0000
001469 0000
00146a 0000
00146b 0000      	.DB  0x0,0x0,0x0,0x0,0x0,0x0,0x0,0x0
00146c 0000
00146d 0000
00146e 0000
00146f 0000      	.DB  0x0,0x0,0x0,0x0,0x0,0x0,0x0,0x0
001470 0000
001471 0000
001472 0000
001473 0000      	.DB  0x0,0x0,0x0,0x0,0x0,0x0,0x0,0x0
001474 0000
001475 0000
001476 0000
001477 0000      	.DB  0x0,0x0,0x0,0x0,0x0,0x0,0x0,0x0
001478 0000
001479 0000
00147a 0000
00147b 0000      	.DB  0x0,0x0,0x0,0x0,0x0,0x0,0x0,0x0
00147c 0000
00147d 0000
00147e 0000
00147f 0000      	.DB  0x0,0x0,0x0,0x0,0x0,0x0,0x0,0x0
001480 0000
001481 0000
001482 0000
001483 0000      	.DB  0x0,0x0,0x0,0x0,0x0,0x0,0x0,0x0
001484 0000
001485 0000
001486 0000
001487 0000      	.DB  0x0,0x0,0x0,0x0,0x0,0x0,0x0,0x0
001488 0000
001489 0000
00148a 0000
00148b 0000      	.DB  0x0,0x0,0x0,0x0,0x0,0x0,0x0,0x0
00148c 0000
00148d 0000
00148e 0000
00148f 0000      	.DB  0x0,0x0,0x0,0x0,0x0,0x0,0x0,0x0
001490 0000
001491 0000
001492 0000
001493 0000      	.DB  0x0,0x0,0x0,0x0,0x0,0x0,0x0,0x0
001494 0000
001495 0000
001496 0000
001497 0000      	.DB  0x0,0x0,0x0,0x0,0x0,0x0,0x0,0x0
001498 0000
001499 0000
00149a 0000
00149b 0000      	.DB  0x0,0x0,0x0,0x0,0x0,0x0,0x0,0x0
00149c 0000
00149d 0000
00149e 0000
00149f 0000      	.DB  0x0,0x0,0x0,0x0,0x0,0x0,0x0,0x0
0014a0 0000
0014a1 0000
0014a2 0000
0014a3 0000      	.DB  0x0,0x0,0x0,0x0,0x0,0x0,0x0,0x0
0014a4 0000
0014a5 0000
0014a6 0000
0014a7 0000      	.DB  0x0,0x0,0x0,0x0,0x0,0x0,0x0,0x0
0014a8 0000
0014a9 0000
0014aa 0000
0014ab 0000      	.DB  0x0,0x0,0x0,0x0,0x0,0x0,0x0,0x0
0014ac 0000
0014ad 0000
0014ae 0000
0014af 0000      	.DB  0x0,0x0,0x0,0x0,0x0,0x0,0x0,0x0
0014b0 0000
0014b1 0000
0014b2 0000
0014b3 0000      	.DB  0x0,0x0,0x0,0x0,0x0,0x0,0x0,0x0
0014b4 0000
0014b5 0000
0014b6 0000
0014b7 0000      	.DB  0x0,0x0,0x0,0x0,0x0,0x0,0x0,0x0
0014b8 0000
0014b9 0000
0014ba 0000
0014bb 0000      	.DB  0x0,0x0,0x0,0x0,0x0,0x0,0x0,0x0
0014bc 0000
0014bd 0000
0014be 0000
0014bf 0000      	.DB  0x0,0x0,0x0,0x0,0x0,0x0,0x0,0x0
0014c0 0000
0014c1 0000
0014c2 0000
0014c3 0000      	.DB  0x0,0x0,0x0,0x0,0x0,0x0,0x0,0x0
0014c4 0000
0014c5 0000
0014c6 0000
0014c7 0000      	.DB  0x0,0x0,0x0,0x0,0x0,0x0,0x0,0x0
0014c8 0000
0014c9 0000
0014ca 0000
0014cb 0000      	.DB  0x0,0x0,0x0,0x0,0x0,0x0,0x0,0x0
0014cc 0000
0014cd 0000
0014ce 0000
0014cf 0000      	.DB  0x0,0x0,0x0,0x0,0x0,0x0,0x0,0x0
0014d0 0000
0014d1 0000
0014d2 0000
0014d3 0000      	.DB  0x0,0x0,0x0,0x0,0x0,0x0,0x0,0x0
0014d4 0000
0014d5 0000
0014d6 0000
0014d7 0000      	.DB  0x0,0x0,0x0,0x0,0x0,0x0,0x0,0x0
0014d8 0000
0014d9 0000
0014da 0000
0014db 0000      	.DB  0x0,0x0,0x0,0x0,0x0,0x0,0x0,0x0
0014dc 0000
0014dd 0000
0014de 0000
0014df 0000      	.DB  0x0,0x0,0x0,0x0,0x0,0x0,0x0,0x0
0014e0 0000
0014e1 0000
0014e2 0000
0014e3 0000      	.DB  0x0,0x0,0x0,0x0,0x0,0x0,0x0,0x0
0014e4 0000
0014e5 0000
0014e6 0000
0014e7 0000      	.DB  0x0,0x0,0x0,0x0,0x0,0x0,0x0,0x0
0014e8 0000
0014e9 0000
0014ea 0000
0014eb 0000      	.DB  0x0,0x0,0x0,0x0,0x0,0x0,0x0,0x0
0014ec 0000
0014ed 0000
0014ee 0000
0014ef 0000      	.DB  0x0,0x0,0x0,0x0,0x0,0x0,0x0,0x0
0014f0 0000
0014f1 0000
0014f2 0000
0014f3 0000      	.DB  0x0,0x0,0x0,0x0,0x0,0x0,0x0,0x0
0014f4 0000
0014f5 0000
0014f6 0000
0014f7 0000      	.DB  0x0,0x0,0x0,0x0,0x0,0x0,0x0,0x0
                 _GSM2:
0014f8 0000
0014f9 0000
0014fa 0000
0014fb 8000      	.DB  0x0,0x0,0x0,0x0,0x0,0x0,0x0,0x80
0014fc 0080
0014fd e0e0
0014fe 0000
0014ff 0000      	.DB  0x80,0x0,0xE0,0xE0,0x0,0x0,0x0,0x0
001500 0000
001501 0000
001502 0000
001503 0000      	.DB  0x0,0x0,0x0,0x0,0x0,0x0,0x0,0x0
001504 0000
001505 0000
001506 0000
001507 0000      	.DB  0x0,0x0,0x0,0x0,0x0,0x0,0x0,0x0
001508 0000
001509 0000
00150a 0000
00150b 0000      	.DB  0x0,0x0,0x0,0x0,0x0,0x0,0x0,0x0
00150c 0000
00150d 0000
00150e 0000
00150f 0000      	.DB  0x0,0x0,0x0,0x0,0x0,0x0,0x0,0x0
001510 0000
001511 0000
001512 0000
001513 0000      	.DB  0x0,0x0,0x0,0x0,0x0,0x0,0x0,0x0
001514 0000
001515 0000
001516 0000
001517 0000      	.DB  0x0,0x0,0x0,0x0,0x0,0x0,0x0,0x0
001518 0000
001519 0000
00151a 0000
00151b 0000      	.DB  0x0,0x0,0x0,0x0,0x0,0x0,0x0,0x0
00151c 0000
00151d 0000
00151e 0000
00151f 0000      	.DB  0x0,0x0,0x0,0x0,0x0,0x0,0x0,0x0
001520 0000
001521 0000
001522 0000
001523 0000      	.DB  0x0,0x0,0x0,0x0,0x0,0x0,0x0,0x0
001524 0000
001525 0000
001526 0000
001527 0000      	.DB  0x0,0x0,0x0,0x0,0x0,0x0,0x0,0x0
001528 0000
001529 0000
00152a 0000
00152b 0000      	.DB  0x0,0x0,0x0,0x0,0x0,0x0,0x0,0x0
00152c 0000
00152d 0000
00152e 0000
00152f 0000      	.DB  0x0,0x0,0x0,0x0,0x0,0x0,0x0,0x0
001530 0000
001531 0000
001532 0000
001533 0000      	.DB  0x0,0x0,0x0,0x0,0x0,0x0,0x0,0x0
001534 0000
001535 0000
001536 0000
001537 0000      	.DB  0x0,0x0,0x0,0x0,0x0,0x0,0x0,0x0
001538 0600
001539 0006
00153a 0707
00153b 0700      	.DB  0x0,0x6,0x6,0x0,0x7,0x7,0x0,0x7
00153c 0007
00153d 0707
00153e 0000
00153f 0000      	.DB  0x7,0x0,0x7,0x7,0x0,0x0,0x0,0x0
001540 0000
001541 0000
001542 0000
001543 0000      	.DB  0x0,0x0,0x0,0x0,0x0,0x0,0x0,0x0
001544 0000
001545 0000
001546 0000
001547 0000      	.DB  0x0,0x0,0x0,0x0,0x0,0x0,0x0,0x0
001548 0000
001549 0000
00154a 0000
00154b 0000      	.DB  0x0,0x0,0x0,0x0,0x0,0x0,0x0,0x0
00154c 0000
00154d 0000
00154e 0000
00154f 0000      	.DB  0x0,0x0,0x0,0x0,0x0,0x0,0x0,0x0
001550 0000
001551 0000
001552 0000
001553 0000      	.DB  0x0,0x0,0x0,0x0,0x0,0x0,0x0,0x0
001554 0000
001555 0000
001556 0000
001557 0000      	.DB  0x0,0x0,0x0,0x0,0x0,0x0,0x0,0x0
001558 0000
001559 0000
00155a 0000
00155b 0000      	.DB  0x0,0x0,0x0,0x0,0x0,0x0,0x0,0x0
00155c 0000
00155d 0000
00155e 0000
00155f 0000      	.DB  0x0,0x0,0x0,0x0,0x0,0x0,0x0,0x0
001560 0000
001561 0000
001562 0000
001563 0000      	.DB  0x0,0x0,0x0,0x0,0x0,0x0,0x0,0x0
001564 0000
001565 0000
001566 0000
001567 0000      	.DB  0x0,0x0,0x0,0x0,0x0,0x0,0x0,0x0
001568 0000
001569 0000
00156a 0000
00156b 0000      	.DB  0x0,0x0,0x0,0x0,0x0,0x0,0x0,0x0
00156c 0000
00156d 0000
00156e 0000
00156f 0000      	.DB  0x0,0x0,0x0,0x0,0x0,0x0,0x0,0x0
001570 0000
001571 0000
001572 0000
001573 0000      	.DB  0x0,0x0,0x0,0x0,0x0,0x0,0x0,0x0
001574 0000
001575 0000
001576 0000
001577 0000      	.DB  0x0,0x0,0x0,0x0,0x0,0x0,0x0,0x0
001578 0000
001579 0000
00157a 0000
00157b 0000      	.DB  0x0,0x0,0x0,0x0,0x0,0x0,0x0,0x0
00157c 0000
00157d 0000
00157e 0000
00157f 0000      	.DB  0x0,0x0,0x0,0x0,0x0,0x0,0x0,0x0
001580 0000
001581 0000
001582 0000
001583 0000      	.DB  0x0,0x0,0x0,0x0,0x0,0x0,0x0,0x0
001584 0000
001585 0000
001586 0000
001587 0000      	.DB  0x0,0x0,0x0,0x0,0x0,0x0,0x0,0x0
001588 0000
001589 0000
00158a 0000
00158b 0000      	.DB  0x0,0x0,0x0,0x0,0x0,0x0,0x0,0x0
00158c 0000
00158d 0000
00158e 0000
00158f 0000      	.DB  0x0,0x0,0x0,0x0,0x0,0x0,0x0,0x0
                 _GSM3:
001590 0000
001591 0000
001592 0000
001593 0000      	.DB  0x0,0x0,0x0,0x0,0x0,0x0,0x0,0x0
001594 0000
001595 0000
001596 0000
001597 0000      	.DB  0x0,0x0,0x0,0x0,0x0,0x0,0x0,0x0
001598 0000
001599 0000
00159a 0000
00159b 0000      	.DB  0x0,0x0,0x0,0x0,0x0,0x0,0x0,0x0
00159c 0000
00159d 0000
00159e 0000
00159f 0000      	.DB  0x0,0x0,0x0,0x0,0x0,0x0,0x0,0x0
0015a0 0000
0015a1 0000
0015a2 0000
0015a3 0000      	.DB  0x0,0x0,0x0,0x0,0x0,0x0,0x0,0x0
0015a4 0000
0015a5 0000
0015a6 0000
0015a7 0000      	.DB  0x0,0x0,0x0,0x0,0x0,0x0,0x0,0x0
0015a8 0000
0015a9 0000
0015aa 0000
0015ab 0000      	.DB  0x0,0x0,0x0,0x0,0x0,0x0,0x0,0x0
0015ac 0000
0015ad 0000
0015ae 0000
0015af 0000      	.DB  0x0,0x0,0x0,0x0,0x0,0x0,0x0,0x0
0015b0 0000
0015b1 0000
0015b2 0000
0015b3 0000      	.DB  0x0,0x0,0x0,0x0,0x0,0x0,0x0,0x0
0015b4 0000
0015b5 0000
0015b6 0000
0015b7 0000      	.DB  0x0,0x0,0x0,0x0,0x0,0x0,0x0,0x0
0015b8 0000
0015b9 0000
0015ba 0000
0015bb 0000      	.DB  0x0,0x0,0x0,0x0,0x0,0x0,0x0,0x0
0015bc 0000
0015bd 0000
0015be 0000
0015bf 0000      	.DB  0x0,0x0,0x0,0x0,0x0,0x0,0x0,0x0
0015c0 0000
0015c1 0000
0015c2 0000
0015c3 0000      	.DB  0x0,0x0,0x0,0x0,0x0,0x0,0x0,0x0
0015c4 0000
0015c5 0000
0015c6 0000
0015c7 0000      	.DB  0x0,0x0,0x0,0x0,0x0,0x0,0x0,0x0
0015c8 0000
0015c9 0000
0015ca 0000
0015cb 0000      	.DB  0x0,0x0,0x0,0x0,0x0,0x0,0x0,0x0
0015cc 0000
0015cd 0000
0015ce 0000
0015cf 0000      	.DB  0x0,0x0,0x0,0x0,0x0,0x0,0x0,0x0
0015d0 0600
0015d1 0006
0015d2 0707
0015d3 0000      	.DB  0x0,0x6,0x6,0x0,0x7,0x7,0x0,0x0
0015d4 0000
0015d5 0000
0015d6 0000
0015d7 0000      	.DB  0x0,0x0,0x0,0x0,0x0,0x0,0x0,0x0
0015d8 0000
0015d9 0000
0015da 0000
0015db 0000      	.DB  0x0,0x0,0x0,0x0,0x0,0x0,0x0,0x0
0015dc 0000
0015dd 0000
0015de 0000
0015df 0000      	.DB  0x0,0x0,0x0,0x0,0x0,0x0,0x0,0x0
0015e0 0000
0015e1 0000
0015e2 0000
0015e3 0000      	.DB  0x0,0x0,0x0,0x0,0x0,0x0,0x0,0x0
0015e4 0000
0015e5 0000
0015e6 0000
0015e7 0000      	.DB  0x0,0x0,0x0,0x0,0x0,0x0,0x0,0x0
0015e8 0000
0015e9 0000
0015ea 0000
0015eb 0000      	.DB  0x0,0x0,0x0,0x0,0x0,0x0,0x0,0x0
0015ec 0000
0015ed 0000
0015ee 0000
0015ef 0000      	.DB  0x0,0x0,0x0,0x0,0x0,0x0,0x0,0x0
0015f0 0000
0015f1 0000
0015f2 0000
0015f3 0000      	.DB  0x0,0x0,0x0,0x0,0x0,0x0,0x0,0x0
0015f4 0000
0015f5 0000
0015f6 0000
0015f7 0000      	.DB  0x0,0x0,0x0,0x0,0x0,0x0,0x0,0x0
0015f8 0000
0015f9 0000
0015fa 0000
0015fb 0000      	.DB  0x0,0x0,0x0,0x0,0x0,0x0,0x0,0x0
0015fc 0000
0015fd 0000
0015fe 0000
0015ff 0000      	.DB  0x0,0x0,0x0,0x0,0x0,0x0,0x0,0x0
001600 0000
001601 0000
001602 0000
001603 0000      	.DB  0x0,0x0,0x0,0x0,0x0,0x0,0x0,0x0
001604 0000
001605 0000
001606 0000
001607 0000      	.DB  0x0,0x0,0x0,0x0,0x0,0x0,0x0,0x0
001608 0000
001609 0000
00160a 0000
00160b 0000      	.DB  0x0,0x0,0x0,0x0,0x0,0x0,0x0,0x0
00160c 0000
00160d 0000
00160e 0000
00160f 0000      	.DB  0x0,0x0,0x0,0x0,0x0,0x0,0x0,0x0
001610 0000
001611 0000
001612 0000
001613 0000      	.DB  0x0,0x0,0x0,0x0,0x0,0x0,0x0,0x0
001614 0000
001615 0000
001616 0000
001617 0000      	.DB  0x0,0x0,0x0,0x0,0x0,0x0,0x0,0x0
001618 0000
001619 0000
00161a 0000
00161b 0000      	.DB  0x0,0x0,0x0,0x0,0x0,0x0,0x0,0x0
00161c 0000
00161d 0000
00161e 0000
00161f 0000      	.DB  0x0,0x0,0x0,0x0,0x0,0x0,0x0,0x0
001620 0000
001621 0000
001622 0000
001623 0000      	.DB  0x0,0x0,0x0,0x0,0x0,0x0,0x0,0x0
001624 0000
001625 0000
001626 0000
001627 0000      	.DB  0x0,0x0,0x0,0x0,0x0,0x0,0x0,0x0
                 _GSM4:
001628 0000
001629 0000
00162a 0000
00162b 0000      	.DB  0x0,0x0,0x0,0x0,0x0,0x0,0x0,0x0
00162c 0000
00162d 0000
00162e 0000
00162f 0000      	.DB  0x0,0x0,0x0,0x0,0x0,0x0,0x0,0x0
001630 0000
001631 0000
001632 0000
001633 0000      	.DB  0x0,0x0,0x0,0x0,0x0,0x0,0x0,0x0
001634 0000
001635 0000
001636 0000
001637 0000      	.DB  0x0,0x0,0x0,0x0,0x0,0x0,0x0,0x0
001638 0000
001639 0000
00163a 0000
00163b 0000      	.DB  0x0,0x0,0x0,0x0,0x0,0x0,0x0,0x0
00163c 0000
00163d 0000
00163e 0000
00163f 0000      	.DB  0x0,0x0,0x0,0x0,0x0,0x0,0x0,0x0
001640 0000
001641 0000
001642 0000
001643 0000      	.DB  0x0,0x0,0x0,0x0,0x0,0x0,0x0,0x0
001644 0000
001645 0000
001646 0000
001647 0000      	.DB  0x0,0x0,0x0,0x0,0x0,0x0,0x0,0x0
001648 0000
001649 0000
00164a 0000
00164b 0000      	.DB  0x0,0x0,0x0,0x0,0x0,0x0,0x0,0x0
00164c 0000
00164d 0000
00164e 0000
00164f 0000      	.DB  0x0,0x0,0x0,0x0,0x0,0x0,0x0,0x0
001650 0000
001651 0000
001652 0000
001653 0000      	.DB  0x0,0x0,0x0,0x0,0x0,0x0,0x0,0x0
001654 0000
001655 0000
001656 0000
001657 0000      	.DB  0x0,0x0,0x0,0x0,0x0,0x0,0x0,0x0
001658 0000
001659 0000
00165a 0000
00165b 0000      	.DB  0x0,0x0,0x0,0x0,0x0,0x0,0x0,0x0
00165c 0000
00165d 0000
00165e 0000
00165f 0000      	.DB  0x0,0x0,0x0,0x0,0x0,0x0,0x0,0x0
001660 0000
001661 0000
001662 0000
001663 0000      	.DB  0x0,0x0,0x0,0x0,0x0,0x0,0x0,0x0
001664 0000
001665 0000
001666 0000
001667 0000      	.DB  0x0,0x0,0x0,0x0,0x0,0x0,0x0,0x0
001668 0600
001669 0006
00166a 0404
00166b 0404      	.DB  0x0,0x6,0x6,0x0,0x4,0x4,0x4,0x4
00166c 0404
00166d 0404
00166e 0404
00166f 0404      	.DB  0x4,0x4,0x4,0x4,0x4,0x4,0x4,0x4
001670 0404
001671 0000
001672 0000
001673 0000      	.DB  0x4,0x4,0x0,0x0,0x0,0x0,0x0,0x0
001674 0000
001675 0000
001676 0000
001677 0000      	.DB  0x0,0x0,0x0,0x0,0x0,0x0,0x0,0x0
001678 0000
001679 0000
00167a 0000
00167b 0000      	.DB  0x0,0x0,0x0,0x0,0x0,0x0,0x0,0x0
00167c 0000
00167d 0000
00167e 0000
00167f 0000      	.DB  0x0,0x0,0x0,0x0,0x0,0x0,0x0,0x0
001680 0000
001681 0000
001682 0000
001683 0000      	.DB  0x0,0x0,0x0,0x0,0x0,0x0,0x0,0x0
001684 0000
001685 0000
001686 0000
001687 0000      	.DB  0x0,0x0,0x0,0x0,0x0,0x0,0x0,0x0
001688 0000
001689 0000
00168a 0000
00168b 0000      	.DB  0x0,0x0,0x0,0x0,0x0,0x0,0x0,0x0
00168c 0000
00168d 0000
00168e 0000
00168f 0000      	.DB  0x0,0x0,0x0,0x0,0x0,0x0,0x0,0x0
001690 0000
001691 0000
001692 0000
001693 0000      	.DB  0x0,0x0,0x0,0x0,0x0,0x0,0x0,0x0
001694 0000
001695 0000
001696 0000
001697 0000      	.DB  0x0,0x0,0x0,0x0,0x0,0x0,0x0,0x0
001698 0000
001699 0000
00169a 0000
00169b 0000      	.DB  0x0,0x0,0x0,0x0,0x0,0x0,0x0,0x0
00169c 0000
00169d 0000
00169e 0000
00169f 0000      	.DB  0x0,0x0,0x0,0x0,0x0,0x0,0x0,0x0
                 _tbl10_G100:
0016a0 2710
0016a1 03e8
0016a2 0064
0016a3 000a      	.DB  0x10,0x27,0xE8,0x3,0x64,0x0,0xA,0x0
0016a4 0001      	.DB  0x1,0x0
                 _tbl16_G100:
0016a5 1000
0016a6 0100
0016a7 0010
0016a8 0001      	.DB  0x0,0x10,0x0,0x1,0x10,0x0,0x1,0x0
                 
                 _0x3:
C:\Users\DELL\GIT\glcd_bus\List\disp.asm(2555): warning: .cseg .db misalignment - padding zero byte
0016a9 00c1      	.DB  0xC1
                 _0xC7:
0016aa 4953
0016ab 5554      	.DB  0x53,0x49,0x54,0x55
                 _0xC8:
0016ac 3838
0016ad 3838      	.DB  0x38,0x38,0x38,0x38
                 _0x1F6:
0016ae 0000
0016af 0000
0016b0 0020
0016b1 2000      	.DB  0x0,0x0,0x0,0x0,0x20,0x0,0x0,0x20
0016b2 0000
0016b3 0000      	.DB  0x0,0x0,0x0,0x0
                 _0x0:
0016b4 5441
0016b5 5424
0016b6 4454
0016b7 5645      	.DB  0x41,0x54,0x24,0x54,0x54,0x44,0x45,0x56
0016b8 4449
0016b9 0a3f
0016ba 000d
0016bb 5441      	.DB  0x49,0x44,0x3F,0xA,0xD,0x0,0x41,0x54
0016bc 432b
0016bd 5153
0016be 0d0a
0016bf 4100      	.DB  0x2B,0x43,0x53,0x51,0xA,0xD,0x0,0x41
0016c0 2454
0016c1 5454
0016c2 454e
0016c3 4954      	.DB  0x54,0x24,0x54,0x54,0x4E,0x45,0x54,0x49
0016c4 3f50
0016c5 0d0a
0016c6 4100
0016c7 2454      	.DB  0x50,0x3F,0xA,0xD,0x0,0x41,0x54,0x24
0016c8 5454
0016c9 5047
0016ca 5153
0016cb 5952      	.DB  0x54,0x54,0x47,0x50,0x53,0x51,0x52,0x59
0016cc 313d
0016cd 2c30
0016ce 0a30
0016cf 000d      	.DB  0x3D,0x31,0x30,0x2C,0x30,0xA,0xD,0x0
0016d0 5441
0016d1 5424
0016d2 5354
0016d3 444e      	.DB  0x41,0x54,0x24,0x54,0x54,0x53,0x4E,0x44
0016d4 474d
0016d5 343d
0016d6 222c
0016d7 2424      	.DB  0x4D,0x47,0x3D,0x34,0x2C,0x22,0x24,0x24
0016d8 4c42
0016d9 7325
0016da 252c
0016db 2564      	.DB  0x42,0x4C,0x25,0x73,0x2C,0x25,0x64,0x25
0016dc 2564
0016dd 2564
0016de 3264
0016df 2530      	.DB  0x64,0x25,0x64,0x25,0x64,0x32,0x30,0x25
0016e0 2564
0016e1 2c64
0016e2 6425
0016e3 6425      	.DB  0x64,0x25,0x64,0x2C,0x25,0x64,0x25,0x64
0016e4 6425
0016e5 6425
0016e6 6425
0016e7 6425      	.DB  0x25,0x64,0x25,0x64,0x25,0x64,0x25,0x64
0016e8 522c
0016e9 2c32
0016ea 6425
0016eb 252c      	.DB  0x2C,0x52,0x32,0x2C,0x25,0x64,0x2C,0x25
0016ec 3a64
0016ed 5858
0016ee 2323
0016ef 0d22      	.DB  0x64,0x3A,0x58,0x58,0x23,0x23,0x22,0xD
0016f0 000a
0016f1 5441
0016f2 5424
0016f3 5354      	.DB  0xA,0x0,0x41,0x54,0x24,0x54,0x54,0x53
0016f4 444e
0016f5 474d
0016f6 343d
0016f7 222c      	.DB  0x4E,0x44,0x4D,0x47,0x3D,0x34,0x2C,0x22
0016f8 2424
0016f9 4c42
0016fa 7325
0016fb 252c      	.DB  0x24,0x24,0x42,0x4C,0x25,0x73,0x2C,0x25
0016fc 2564
0016fd 2564
0016fe 2564
0016ff 3264      	.DB  0x64,0x25,0x64,0x25,0x64,0x25,0x64,0x32
001700 2530
001701 2564
001702 2c64
001703 6425      	.DB  0x30,0x25,0x64,0x25,0x64,0x2C,0x25,0x64
001704 6425
001705 6425
001706 6425
001707 6425      	.DB  0x25,0x64,0x25,0x64,0x25,0x64,0x25,0x64
001708 6425
001709 532c
00170a 2c32
00170b 3231      	.DB  0x25,0x64,0x2C,0x53,0x32,0x2C,0x31,0x32
00170c 3433
00170d 252c
00170e 3a64
00170f 5858      	.DB  0x33,0x34,0x2C,0x25,0x64,0x3A,0x58,0x58
001710 2323
001711 0d22
001712 000a
001713 5552      	.DB  0x23,0x23,0x22,0xD,0xA,0x0,0x52,0x55
001714 4154
001715 003a
001716 2020
001717 2020      	.DB  0x54,0x41,0x3A,0x0,0x20,0x20,0x20,0x20
001718 2020
001719 5000
00171a 6425
00171b 2500      	.DB  0x20,0x20,0x0,0x50,0x25,0x64,0x0,0x25
00171c 0063
00171d 5542
00171e 0053
00171f 4556      	.DB  0x63,0x0,0x42,0x55,0x53,0x0,0x56,0x45
001720 5f52
001721 2e30
001722 2e39
001723 0030      	.DB  0x52,0x5F,0x30,0x2E,0x39,0x2E,0x30,0x0
001724 6425
001725 6425
001726 253a
001727 2564      	.DB  0x25,0x64,0x25,0x64,0x3A,0x25,0x64,0x25
001728 3a64
001729 6425
00172a 6425
00172b 4900      	.DB  0x64,0x3A,0x25,0x64,0x25,0x64,0x0,0x49
00172c 494e
00172d 4943
00172e 204f
00172f 4544      	.DB  0x4E,0x49,0x43,0x49,0x4F,0x20,0x44,0x45
001730 5320
001731 5345
001732 4f49
001733 004e      	.DB  0x20,0x53,0x45,0x53,0x49,0x4F,0x4E,0x0
001734 002a
001735 4946
001736 204e
001737 5552      	.DB  0x2A,0x0,0x46,0x49,0x4E,0x20,0x52,0x55
001738 4154
001739 4900
00173a 494e
00173b 4943      	.DB  0x54,0x41,0x0,0x49,0x4E,0x49,0x43,0x49
00173c 204f
00173d 5552
00173e 4154
00173f 2000      	.DB  0x4F,0x20,0x52,0x55,0x54,0x41,0x0,0x20
001740 4148
001741 5320
001742 4c41
001743 4449      	.DB  0x48,0x41,0x20,0x53,0x41,0x4C,0x49,0x44
001744 004f
001745 4544
001746 204c
001747 4953      	.DB  0x4F,0x0,0x44,0x45,0x4C,0x20,0x53,0x49
001748 5453
001749 4d45
00174a 0041
00174b 454e      	.DB  0x53,0x54,0x45,0x4D,0x41,0x0,0x4E,0x45
00174c 4543
00174d 4953
00174e 4154
00174f 4920      	.DB  0x43,0x45,0x53,0x49,0x54,0x41,0x20,0x49
001750 494e
001751 4943
001752 5241
001753 4a20      	.DB  0x4E,0x49,0x43,0x49,0x41,0x52,0x20,0x4A
001754 524f
001755 414e
001756 4144
001757 4d00      	.DB  0x4F,0x52,0x4E,0x41,0x44,0x41,0x0,0x4D
001758 4e45
001759 4153
00175a 454a
00175b 003a      	.DB  0x45,0x4E,0x53,0x41,0x4A,0x45,0x3A,0x0
00175c 3032
00175d 6425
00175e 6425
00175f 252d      	.DB  0x32,0x30,0x25,0x64,0x25,0x64,0x2D,0x25
001760 2564
001761 2d64
001762 6425
001763 6425      	.DB  0x64,0x25,0x64,0x2D,0x25,0x64,0x25,0x64
001764 5000
001765 6e61
001766 6174
001767 6c6c      	.DB  0x0,0x50,0x61,0x6E,0x74,0x61,0x6C,0x6C
001768 0061
001769 6f4e
00176a 4120
00176b 7475      	.DB  0x61,0x0,0x4E,0x6F,0x20,0x41,0x75,0x74
00176c 726f
00176d 7a69
00176e 6461
00176f 0061      	.DB  0x6F,0x72,0x69,0x7A,0x61,0x64,0x61,0x0
                 _0x202005F:
C:\Users\DELL\GIT\glcd_bus\List\disp.asm(2612): warning: .cseg .db misalignment - padding zero byte
001770 0001      	.DB  0x1
                 _0x2020000:
001771 4e2d
001772 4e41
C:\Users\DELL\GIT\glcd_bus\List\disp.asm(2614): warning: .cseg .db misalignment - padding zero byte
001773 0000      	.DB  0x2D,0x4E,0x41,0x4E,0x0
                 
                 __GLOBAL_INI_TBL:
001774 0001      	.DW  0x01
001775 03a6      	.DW  _prevLet_G000
001776 2d52      	.DW  _0x3*2
                 
001777 0004      	.DW  0x04
001778 0513      	.DW  _NOMBRE_DISP
001779 2d54      	.DW  _0xC7*2
                 
00177a 0004      	.DW  0x04
00177b 0518      	.DW  _NUM_DISP
00177c 2d58      	.DW  _0xC8*2
                 
00177d 0006      	.DW  0x06
00177e 0300      	.DW  _0xFA
00177f 2e26      	.DW  _0x0*2+190
                 
001780 0007      	.DW  0x07
001781 0306      	.DW  _0xFA+6
001782 2e2c      	.DW  _0x0*2+196
                 
001783 0004      	.DW  0x04
001784 030d      	.DW  _0x1B2
001785 2e3a      	.DW  _0x0*2+210
                 
001786 000a      	.DW  0x0A
001787 0311      	.DW  _0x1B2+4
001788 2e3e      	.DW  _0x0*2+214
                 
001789 0011      	.DW  0x11
00178a 031b      	.DW  _0x1B2+14
00178b 2e57      	.DW  _0x0*2+239
                 
00178c 0002      	.DW  0x02
00178d 032c      	.DW  _0x1B2+31
00178e 2e68      	.DW  _0x0*2+256
                 
00178f 0002      	.DW  0x02
001790 032e      	.DW  _0x1B2+33
001791 2e68      	.DW  _0x0*2+256
                 
001792 0002      	.DW  0x02
001793 0330      	.DW  _0x1B2+35
001794 2e68      	.DW  _0x0*2+256
                 
001795 0002      	.DW  0x02
001796 0332      	.DW  _0x1B2+37
001797 2e68      	.DW  _0x0*2+256
                 
001798 0009      	.DW  0x09
001799 0334      	.DW  _0x1B2+39
00179a 2e6a      	.DW  _0x0*2+258
                 
00179b 000c      	.DW  0x0C
00179c 033d      	.DW  _0x1B2+48
00179d 2e73      	.DW  _0x0*2+267
                 
00179e 000b      	.DW  0x0B
00179f 0349      	.DW  _0x1B2+60
0017a0 2e7f      	.DW  _0x0*2+279
                 
0017a1 000c      	.DW  0x0C
0017a2 0354      	.DW  _0x1B2+71
0017a3 2e8a      	.DW  _0x0*2+290
                 
0017a4 0019      	.DW  0x19
0017a5 0360      	.DW  _0x1B2+83
0017a6 2e96      	.DW  _0x0*2+302
                 
0017a7 0009      	.DW  0x09
0017a8 0379      	.DW  _0x1B2+108
0017a9 2eaf      	.DW  _0x0*2+327
                 
0017aa 0006      	.DW  0x06
0017ab 0382      	.DW  _0x1B2+117
0017ac 2eb2      	.DW  _0x0*2+330
                 
0017ad 0007      	.DW  0x07
0017ae 0388      	.DW  _0x1B2+123
0017af 2eb1      	.DW  _0x0*2+329
                 
0017b0 0009      	.DW  0x09
0017b1 038f      	.DW  _0x1B2+130
0017b2 2ec9      	.DW  _0x0*2+353
                 
0017b3 000e      	.DW  0x0E
0017b4 0398      	.DW  _0x1B2+139
0017b5 2ed2      	.DW  _0x0*2+362
                 
0017b6 000c      	.DW  0x0C
0017b7 0003      	.DW  0x03
0017b8 2d5c      	.DW  _0x1F6*2
                 
0017b9 0001      	.DW  0x01
0017ba 0559      	.DW  __seed_G101
0017bb 2ee0      	.DW  _0x202005F*2
                 
                 _0xFFFFFFFF:
0017bc 0000      	.DW  0
                 
                 __RESET:
0017bd 94f8      	CLI
0017be 27ee      	CLR  R30
0017bf bbef      	OUT  EECR,R30
                 
                 ;INTERRUPT VECTORS ARE PLACED
                 ;AT THE START OF FLASH
0017c0 e0f1      	LDI  R31,1
0017c1 bff5      	OUT  MCUCR,R31
0017c2 bfe5      	OUT  MCUCR,R30
                 
                 ;DISABLE WATCHDOG
0017c3 e1f8      	LDI  R31,0x18
0017c4 95a8      	WDR
0017c5 b7a4      	IN   R26,MCUSR
0017c6 7fa7      	CBR  R26,8
0017c7 bfa4      	OUT  MCUSR,R26
0017c8 93f0 0060 	STS  WDTCSR,R31
0017ca 93e0 0060 	STS  WDTCSR,R30
                 
                 ;CLEAR R2-R14
0017cc e08d      	LDI  R24,(14-2)+1
0017cd e0a2      	LDI  R26,2
0017ce 27bb      	CLR  R27
                 __CLEAR_REG:
0017cf 93ed      	ST   X+,R30
0017d0 958a      	DEC  R24
0017d1 f7e9      	BRNE __CLEAR_REG
                 
                 ;CLEAR SRAM
0017d2 e080      	LDI  R24,LOW(0x800)
0017d3 e098      	LDI  R25,HIGH(0x800)
0017d4 e0a0      	LDI  R26,LOW(0x100)
0017d5 e0b1      	LDI  R27,HIGH(0x100)
                 __CLEAR_SRAM:
0017d6 93ed      	ST   X+,R30
0017d7 9701      	SBIW R24,1
0017d8 f7e9      	BRNE __CLEAR_SRAM
                 
                 ;GLOBAL VARIABLES INITIALIZATION
0017d9 eee8      	LDI  R30,LOW(__GLOBAL_INI_TBL*2)
0017da e2fe      	LDI  R31,HIGH(__GLOBAL_INI_TBL*2)
                 __GLOBAL_INI_NEXT:
0017db 9185      	LPM  R24,Z+
0017dc 9195      	LPM  R25,Z+
0017dd 9700      	SBIW R24,0
0017de f061      	BREQ __GLOBAL_INI_END
0017df 91a5      	LPM  R26,Z+
0017e0 91b5      	LPM  R27,Z+
0017e1 9005      	LPM  R0,Z+
0017e2 9015      	LPM  R1,Z+
0017e3 01bf      	MOVW R22,R30
0017e4 01f0      	MOVW R30,R0
                 __GLOBAL_INI_LOOP:
0017e5 9005      	LPM  R0,Z+
0017e6 920d      	ST   X+,R0
0017e7 9701      	SBIW R24,1
0017e8 f7e1      	BRNE __GLOBAL_INI_LOOP
0017e9 01fb      	MOVW R30,R22
0017ea cff0      	RJMP __GLOBAL_INI_NEXT
                 __GLOBAL_INI_END:
                 
                 ;GPIOR0 INITIALIZATION
0017eb e0e0      	LDI  R30,0x00
0017ec bbee      	OUT  GPIOR0,R30
                 
                 ;STACK POINTER INITIALIZATION
0017ed efef      	LDI  R30,LOW(0x8FF)
0017ee bfed      	OUT  SPL,R30
0017ef e0e8      	LDI  R30,HIGH(0x8FF)
0017f0 bfee      	OUT  SPH,R30
                 
                 ;DATA STACK POINTER INITIALIZATION
0017f1 e0c0      	LDI  R28,LOW(0x300)
0017f2 e0d3      	LDI  R29,HIGH(0x300)
                 
0017f3 940c 20c4 	JMP  _main
                 
                 	.ESEG
                 	.ORG 0
                 
                 	.DSEG
                 	.ORG 0x300
                 
                 	.CSEG
                 ;/**********************************************\
                 ; *       Kradac Robotics & Electronics        *
                 ; *                                            *
                 ; *  Proyecto:       GLCD BUS LOJA             *
                 ; *  Programadores:  Vicente Q &&              *
                 ; *                  Ernesto P &&              *
                 ; *                  David Novillo             *
                 ; *                  Jeferson C                *
                 ; *  version:        0.9.1.0                   *
                 ; *  Fecha:          11/08/2014                *
                 ; *                                            *
                 ; **********************************************
                 ; *
                 ; *
                 ; *  uC:             ATmega324PA
                 ; *  Compilador:     CodeVision 2.x
                 ; *  Cryst:          11.092 MHz
                 ; *
                 ; *
                 ; */
                 ;
                 ;//////////////////  SE AGREGAN LAS LIBRERIAS QUE SE VAN A UTILIZAR ////////////////////
                 ;#include <mega324.h>
                 	#ifndef __SLEEP_DEFINED__
                 	#define __SLEEP_DEFINED__
                 	.EQU __se_bit=0x01
                 	.EQU __sm_mask=0x0E
                 	.EQU __sm_powerdown=0x04
                 	.EQU __sm_powersave=0x06
                 	.EQU __sm_standby=0x0C
                 	.EQU __sm_ext_standby=0x0E
                 	.EQU __sm_adc_noise_red=0x02
                 	.SET power_ctrl_reg=smcr
                 	#endif
                 ;#include <delay.h>
                 ;#include <stdio.h>
                 ;#include <stdlib.h>
                 ;#include "Includes/GLCD.h"
                 
                 	.DSEG
                 
                 	.CSEG
                 _trigger:
0017f5 9a5f      	SBI  0xB,7
                +
0017f6 e387     +LDI R24 , LOW ( 55 )
                +__DELAY_USB_LOOP :
0017f7 958a     +DEC R24
0017f8 f7f1     +BRNE __DELAY_USB_LOOP
                 	__DELAY_USB 55
0017f9 985f      	CBI  0xB,7
                +
0017fa e387     +LDI R24 , LOW ( 55 )
                +__DELAY_USB_LOOP :
0017fb 958a     +DEC R24
0017fc f7f1     +BRNE __DELAY_USB_LOOP
                 	__DELAY_USB 55
0017fd 9508      	RET
                 _glcd_on:
0017fe 9a16      	SBI  0x2,6
0017ff 9a17      	SBI  0x2,7
001800 985e      	CBI  0xB,6
001801 985d      	CBI  0xB,5
001802 e3ef      	LDI  R30,LOW(63)
001803 b9e8      	OUT  0x8,R30
001804 dff0      	RCALL _trigger
001805 9508      	RET
                 ;	line -> Y+0
                 _goto_col:
001806 931a      	ST   -Y,R17
                 ;	x -> Y+1
                 ;	pattern -> R17
001807 985e      	CBI  0xB,6
001808 985d      	CBI  0xB,5
001809 81a9      	LDD  R26,Y+1
00180a 81ba      	LDD  R27,Y+1+1
00180b 34a0      	CPI  R26,LOW(0x40)
00180c e0e0      	LDI  R30,HIGH(0x40)
00180d 07be      	CPC  R27,R30
00180e f420      	BRSH _0x24
00180f 9a16      	SBI  0x2,6
001810 9817      	CBI  0x2,7
001811 8119      	LDD  R17,Y+1
001812 c007      	RJMP _0x29
                 _0x24:
001813 9a17      	SBI  0x2,7
001814 9816      	CBI  0x2,6
001815 81e9      	LDD  R30,Y+1
001816 81fa      	LDD  R31,Y+1+1
001817 54e0      	SUBI R30,LOW(64)
001818 40f0      	SBCI R31,HIGH(64)
001819 2f1e      	MOV  R17,R30
                 _0x29:
00181a 2fe1      	MOV  R30,R17
00181b 64e0      	ORI  R30,0x40
00181c 77ef      	ANDI R30,0x7F
00181d 2f1e      	MOV  R17,R30
00181e b918      	OUT  0x8,R17
00181f dfd5      	RCALL _trigger
001820 8118      	LDD  R17,Y+0
001821 c03b      	RJMP _0x20A0004
                 _goto_row:
001822 931a      	ST   -Y,R17
                 ;	y -> Y+1
                 ;	pattern -> R17
001823 985e      	CBI  0xB,6
001824 985d      	CBI  0xB,5
001825 81e9      	LDD  R30,Y+1
001826 6be8      	ORI  R30,LOW(0xB8)
001827 7bef      	ANDI R30,0xBF
001828 2f1e      	MOV  R17,R30
001829 b918      	OUT  0x8,R17
00182a dfca      	RCALL _trigger
00182b 8118      	LDD  R17,Y+0
00182c c030      	RJMP _0x20A0004
                 _goto_xy:
                 ;	x -> Y+2
                 ;	y -> Y+0
00182d 81ea      	LDD  R30,Y+2
00182e 81fb      	LDD  R31,Y+2+1
00182f 940e 25e7 	CALL SUBOPT_0x0
001831 81e8      	LD   R30,Y
001832 81f9      	LDD  R31,Y+1
001833 940e 25eb 	CALL SUBOPT_0x1
001835 9624      	ADIW R28,4
001836 9508      	RET
                 _glcd_write:
                 ;	b -> Y+0
001837 9a5e      	SBI  0xB,6
001838 985d      	CBI  0xB,5
001839 81e8      	LD   R30,Y
00183a b9e8      	OUT  0x8,R30
                +
00183b ed8d     +LDI R24 , LOW ( 221 )
00183c e090     +LDI R25 , HIGH ( 221 )
                +__DELAY_USW_LOOP :
00183d 9701     +SBIW R24 , 1
00183e f7f1     +BRNE __DELAY_USW_LOOP
                 	__DELAY_USW 221
00183f dfb5      	RCALL _trigger
001840 9621      	ADIW R28,1
001841 9508      	RET
                 _glcd_clrln:
001842 931a      	ST   -Y,R17
001843 930a      	ST   -Y,R16
                 ;	ln -> Y+2
                 ;	i -> R16,R17
001844 940e 25ef 	CALL SUBOPT_0x2
001846 940e 25f4 	CALL SUBOPT_0x3
001848 e4e0      	LDI  R30,LOW(64)
001849 e0f0      	LDI  R31,HIGH(64)
00184a 93fa      	ST   -Y,R31
00184b 93ea      	ST   -Y,R30
00184c 940e 25f4 	CALL SUBOPT_0x3
00184e 9a16      	SBI  0x2,6
                +
00184f e000     +LDI R16 , LOW ( 0 )
001850 e010     +LDI R17 , HIGH ( 0 )
                 	__GETWRN 16,17,0
                 _0x39:
                +
001851 3401     +CPI R16 , LOW ( 65 )
001852 e0e0     +LDI R30 , HIGH ( 65 )
001853 071e     +CPC R17 , R30
                 	__CPWRN 16,17,65
001854 f434      	BRGE _0x3A
001855 e0e0      	LDI  R30,LOW(0)
001856 93ea      	ST   -Y,R30
001857 dfdf      	RCALL _glcd_write
                +
001858 5f0f     +SUBI R16 , LOW ( - 1 )
001859 4f1f     +SBCI R17 , HIGH ( - 1 )
                 	__ADDWRN 16,17,1
00185a cff6      	RJMP _0x39
                 _0x3A:
00185b 8119      	LDD  R17,Y+1
00185c 8108      	LDD  R16,Y+0
                 _0x20A0004:
00185d 9623      	ADIW R28,3
00185e 9508      	RET
                 _glcd_clear:
00185f 931a      	ST   -Y,R17
001860 930a      	ST   -Y,R16
                 ;	i -> R16,R17
                +
001861 e000     +LDI R16 , LOW ( 0 )
001862 e010     +LDI R17 , HIGH ( 0 )
                 	__GETWRN 16,17,0
                 _0x3C:
                +
001863 3008     +CPI R16 , LOW ( 8 )
001864 e0e0     +LDI R30 , HIGH ( 8 )
001865 071e     +CPC R17 , R30
                 	__CPWRN 16,17,8
001866 f42c      	BRGE _0x3D
001867 930a      	ST   -Y,R16
001868 dfd9      	RCALL _glcd_clrln
                +
001869 5f0f     +SUBI R16 , LOW ( - 1 )
00186a 4f1f     +SBCI R17 , HIGH ( - 1 )
                 	__ADDWRN 16,17,1
00186b cff7      	RJMP _0x3C
                 _0x3D:
00186c 9109      	LD   R16,Y+
00186d 9119      	LD   R17,Y+
00186e 9508      	RET
                 ;	status -> R17
                 ;	column -> Y+1
                 ;	read_data -> R17
                 ;	x -> Y+4
                 ;	y -> Y+2
                 ;	color -> Y+1
                 ;	pattern -> R17
                 ;	x -> Y+7
                 ;	y -> Y+5
                 ;	l -> Y+4
                 ;	s -> Y+3
                 ;	c -> Y+2
                 ;	i -> R16,R17
                 ;	x -> Y+8
                 ;	y -> Y+6
                 ;	l -> Y+4
                 ;	s -> Y+3
                 ;	c -> Y+2
                 ;	i -> R16,R17
                 ;	x1 -> Y+22
                 ;	y1 -> Y+20
                 ;	x2 -> Y+18
                 ;	y2 -> Y+16
                 ;	s -> Y+15
                 ;	c -> Y+14
                 ;	i -> R17
                 ;	y01 -> R16
                 ;	temp -> R19
                 ;	a -> Y+10
                 ;	b -> Y+6
                 ;	y00 -> R18
                 ;	y010 -> R21
                 ;	x1 -> Y+8
                 ;	y1 -> Y+6
                 ;	x2 -> Y+4
                 ;	y2 -> Y+2
                 ;	s -> Y+1
                 ;	c -> Y+0
                 ;	x11 -> Y+16
                 ;	y11 -> Y+14
                 ;	x12 -> Y+12
                 ;	y12 -> Y+10
                 ;	x21 -> Y+8
                 ;	y21 -> Y+6
                 ;	x22 -> Y+4
                 ;	y22 -> Y+2
                 ;	s -> Y+1
                 ;	c -> Y+0
                 ;	x1 -> Y+9
                 ;	y1 -> Y+7
                 ;	x2 -> Y+5
                 ;	y2 -> Y+3
                 ;	l -> Y+2
                 ;	s -> Y+1
                 ;	c -> Y+0
                 ;	x1 -> Y+9
                 ;	y1 -> Y+7
                 ;	x2 -> Y+5
                 ;	y2 -> Y+3
                 ;	l -> Y+2
                 ;	s -> Y+1
                 ;	c -> Y+0
                 ;	x11 -> Y+18
                 ;	y11 -> Y+16
                 ;	x12 -> Y+14
                 ;	y12 -> Y+12
                 ;	l1 -> Y+11
                 ;	x21 -> Y+9
                 ;	y21 -> Y+7
                 ;	x22 -> Y+5
                 ;	y22 -> Y+3
                 ;	l2 -> Y+2
                 ;	s -> Y+1
                 ;	c -> Y+0
                 ;	x11 -> Y+18
                 ;	y11 -> Y+16
                 ;	x12 -> Y+14
                 ;	y12 -> Y+12
                 ;	l1 -> Y+11
                 ;	x21 -> Y+9
                 ;	y21 -> Y+7
                 ;	x22 -> Y+5
                 ;	y22 -> Y+3
                 ;	l2 -> Y+2
                 ;	s -> Y+1
                 ;	c -> Y+0
                 ;	x0 -> Y+10
                 ;	y0 -> Y+8
                 ;	r -> Y+6
                 ;	s -> Y+5
                 ;	c -> Y+4
                 ;	i -> R17
                 ;	y -> R16
                 ;	y00 -> R19
                 _putIt:
00186f 931a      	ST   -Y,R17
                 ;	c -> Y+5
                 ;	x -> Y+3
                 ;	y -> Y+1
                 ;	i -> R17
001870 81eb      	LDD  R30,Y+3
001871 81fc      	LDD  R31,Y+3+1
001872 940e 25e7 	CALL SUBOPT_0x0
001874 81e9      	LDD  R30,Y+1
001875 81fa      	LDD  R31,Y+1+1
001876 940e 25eb 	CALL SUBOPT_0x1
001878 e010      	LDI  R17,LOW(0)
                 _0x7B:
001879 3018      	CPI  R17,8
00187a f480      	BRSH _0x7C
00187b 81ed      	LDD  R30,Y+5
00187c 81fe      	LDD  R31,Y+5+1
00187d 940e 28df 	CALL __LSLW3
00187f 01df      	MOVW R26,R30
001880 940e 25fa 	CALL SUBOPT_0x4
001882 0fea      	ADD  R30,R26
001883 1ffb      	ADC  R31,R27
001884 58e4      	SUBI R30,LOW(-_font*2)
001885 4fff      	SBCI R31,HIGH(-_font*2)
001886 91e4      	LPM  R30,Z
001887 93ea      	ST   -Y,R30
001888 dfae      	RCALL _glcd_write
001889 5f1f      	SUBI R17,-1
00188a cfee      	RJMP _0x7B
                 _0x7C:
00188b 8118      	LDD  R17,Y+0
00188c c141      	RJMP _0x20A0003
                 _enlarge:
00188d 940e 295f 	CALL __SAVELOCR4
                 ;	*large -> Y+6
                 ;	c -> Y+5
                 ;	size -> Y+4
                 ;	i -> R17
                 ;	j -> R16
                 ;	temp -> R19
                 ;	k -> R18
00188f e020      	LDI  R18,0
001890 e010      	LDI  R17,LOW(0)
                 _0x7E:
001891 81ec      	LDD  R30,Y+4
001892 171e      	CP   R17,R30
001893 f500      	BRSH _0x7F
001894 e000      	LDI  R16,LOW(0)
                 _0x81:
001895 3008      	CPI  R16,8
001896 f4d8      	BRSH _0x82
001897 940e 25fd 	CALL SUBOPT_0x5
001899 e0f0      	LDI  R31,0
00189a 95f5      	ASR  R31
00189b 95e7      	ROR  R30
00189c 93ec      	ST   X,R30
00189d 81ed      	LDD  R30,Y+5
00189e 70e1      	ANDI R30,LOW(0x1)
00189f 2f3e      	MOV  R19,R30
0018a0 3030      	CPI  R19,0
0018a1 f021      	BREQ _0x83
0018a2 940e 25fd 	CALL SUBOPT_0x5
0018a4 68e0      	ORI  R30,0x80
0018a5 93ec      	ST   X,R30
                 _0x83:
0018a6 5f2f      	SUBI R18,-LOW(1)
0018a7 81ec      	LDD  R30,Y+4
0018a8 17e2      	CP   R30,R18
0018a9 f431      	BRNE _0x84
0018aa 81ed      	LDD  R30,Y+5
0018ab e0f0      	LDI  R31,0
0018ac 95f5      	ASR  R31
0018ad 95e7      	ROR  R30
0018ae 83ed      	STD  Y+5,R30
0018af e020      	LDI  R18,LOW(0)
                 _0x84:
0018b0 5f0f      	SUBI R16,-1
0018b1 cfe3      	RJMP _0x81
                 _0x82:
0018b2 5f1f      	SUBI R17,-1
0018b3 cfdd      	RJMP _0x7E
                 _0x7F:
0018b4 940e 2966 	CALL __LOADLOCR4
0018b6 9628      	ADIW R28,8
0018b7 9508      	RET
                 _putItSz:
0018b8 97ef      	SBIW R28,63
0018b9 9721      	SBIW R28,1
0018ba 940e 295f 	CALL __SAVELOCR4
                 ;	c -> Y+73
                 ;	x -> Y+71
                 ;	y -> Y+69
                 ;	sz -> Y+68
                 ;	i -> R17
                 ;	j -> R16
                 ;	k -> R19
                 ;	large -> Y+4
0018bc 940e 2604 	CALL SUBOPT_0x6
0018be 940e 25e7 	CALL SUBOPT_0x0
                +
0018c0 01fe     +MOVW R30 , R28
0018c1 5beb     +SUBI R30 , LOW ( - 69 )
0018c2 4fff     +SBCI R31 , HIGH ( - 69 )
0018c3 9001     +LD R0 , Z +
0018c4 81f0     +LD R31 , Z
0018c5 2de0     +MOV R30 , R0
                 	__GETW1SX 69
0018c6 940e 25eb 	CALL SUBOPT_0x1
0018c8 e010      	LDI  R17,LOW(0)
                 _0x86:
0018c9 3018      	CPI  R17,8
0018ca f508      	BRSH _0x87
0018cb 940e 25fa 	CALL SUBOPT_0x4
0018cd 01bf      	MOVW R22,R30
0018ce 940e 28df 	CALL __LSLW3
0018d0 01de      	MOVW R26,R28
0018d1 9614      	ADIW R26,4
0018d2 0fea      	ADD  R30,R26
0018d3 1ffb      	ADC  R31,R27
0018d4 93fa      	ST   -Y,R31
0018d5 93ea      	ST   -Y,R30
                +
0018d6 01fe     +MOVW R30 , R28
0018d7 5be5     +SUBI R30 , LOW ( - 75 )
0018d8 4fff     +SBCI R31 , HIGH ( - 75 )
0018d9 9001     +LD R0 , Z +
0018da 81f0     +LD R31 , Z
0018db 2de0     +MOV R30 , R0
                 	__GETW1SX 75
0018dc 940e 28df 	CALL __LSLW3
0018de 0fe6      	ADD  R30,R22
0018df 1ff7      	ADC  R31,R23
0018e0 58e4      	SUBI R30,LOW(-_font*2)
0018e1 4fff      	SBCI R31,HIGH(-_font*2)
0018e2 91e4      	LPM  R30,Z
0018e3 93ea      	ST   -Y,R30
                +
0018e4 01fe     +MOVW R30 , R28
0018e5 5be9     +SUBI R30 , LOW ( - 71 )
0018e6 4fff     +SBCI R31 , HIGH ( - 71 )
0018e7 81e0     +LD R30 , Z
                 	__GETB1SX 71
0018e8 93ea      	ST   -Y,R30
0018e9 dfa3      	RCALL _enlarge
0018ea 5f1f      	SUBI R17,-1
0018eb cfdd      	RJMP _0x86
                 _0x87:
0018ec e000      	LDI  R16,LOW(0)
                 _0x89:
                +
0018ed 01fe     +MOVW R30 , R28
0018ee 5bec     +SUBI R30 , LOW ( - 68 )
0018ef 4fff     +SBCI R31 , HIGH ( - 68 )
0018f0 81e0     +LD R30 , Z
                 	__GETB1SX 68
0018f1 170e      	CP   R16,R30
0018f2 f010      	BRLO PC+3
0018f3 940c 1945 	JMP _0x8A
0018f5 e010      	LDI  R17,LOW(0)
                 _0x8C:
0018f6 3018      	CPI  R17,8
0018f7 f010      	BRLO PC+3
0018f8 940c 1937 	JMP _0x8D
0018fa e030      	LDI  R19,LOW(0)
                 _0x8F:
                +
0018fb 01fe     +MOVW R30 , R28
0018fc 5bec     +SUBI R30 , LOW ( - 68 )
0018fd 4fff     +SBCI R31 , HIGH ( - 68 )
0018fe 81e0     +LD R30 , Z
                 	__GETB1SX 68
0018ff 173e      	CP   R19,R30
001900 f5a0      	BRSH _0x90
001901 2fe3      	MOV  R30,R19
001902 e0f0      	LDI  R31,0
                +
001903 01de     +MOVW R26 , R28
001904 5ba9     +SUBI R26 , LOW ( - 71 )
001905 4fbf     +SBCI R27 , HIGH ( - 71 )
001906 900d     +LD R0 , X +
001907 91bc     +LD R27 , X
001908 2da0     +MOV R26 , R0
                 	__GETW2SX 71
001909 0fea      	ADD  R30,R26
00190a 1ffb      	ADC  R31,R27
00190b 01bf      	MOVW R22,R30
                +
00190c 01de     +MOVW R26 , R28
00190d 5bac     +SUBI R26 , LOW ( - 68 )
00190e 4fbf     +SBCI R27 , HIGH ( - 68 )
00190f 91ac     +LD R26 , X
                 	__GETB2SX 68
001910 27bb      	CLR  R27
001911 940e 25fa 	CALL SUBOPT_0x4
001913 940e 28f3 	CALL __MULW12
001915 01db      	MOVW R26,R22
001916 0fae      	ADD  R26,R30
001917 1fbf      	ADC  R27,R31
001918 34a0      	CPI  R26,LOW(0x40)
001919 e0e0      	LDI  R30,HIGH(0x40)
00191a 07be      	CPC  R27,R30
00191b f449      	BRNE _0x91
00191c e4e0      	LDI  R30,LOW(64)
00191d e0f0      	LDI  R31,HIGH(64)
00191e 93fa      	ST   -Y,R31
00191f 93ea      	ST   -Y,R30
001920 940e 2604 	CALL SUBOPT_0x6
001922 93fa      	ST   -Y,R31
001923 93ea      	ST   -Y,R30
001924 df08      	RCALL _goto_xy
                 _0x91:
001925 940e 25fa 	CALL SUBOPT_0x4
001927 940e 28df 	CALL __LSLW3
001929 01de      	MOVW R26,R28
00192a 9614      	ADIW R26,4
00192b 0fae      	ADD  R26,R30
00192c 1fbf      	ADC  R27,R31
00192d 27ee      	CLR  R30
00192e 0fa0      	ADD  R26,R16
00192f 1fbe      	ADC  R27,R30
001930 91ec      	LD   R30,X
001931 93ea      	ST   -Y,R30
001932 df04      	RCALL _glcd_write
001933 5f3f      	SUBI R19,-1
001934 cfc6      	RJMP _0x8F
                 _0x90:
001935 5f1f      	SUBI R17,-1
001936 cfbf      	RJMP _0x8C
                 _0x8D:
001937 940e 2604 	CALL SUBOPT_0x6
001939 93fa      	ST   -Y,R31
00193a 93ea      	ST   -Y,R30
00193b 01de      	MOVW R26,R28
00193c 5ba9      	SUBI R26,LOW(-(71))
00193d 4fbf      	SBCI R27,HIGH(-(71))
00193e 940e 260b 	CALL SUBOPT_0x7
001940 93fa      	ST   -Y,R31
001941 93ea      	ST   -Y,R30
001942 deea      	RCALL _goto_xy
001943 5f0f      	SUBI R16,-1
001944 cfa8      	RJMP _0x89
                 _0x8A:
001945 940e 2966 	CALL __LOADLOCR4
001947 96ef      	ADIW R28,63
001948 962c      	ADIW R28,12
001949 9508      	RET
                 _glcd_putchar:
                 ;	c -> Y+6
                 ;	x -> Y+4
                 ;	y -> Y+2
                 ;	l -> Y+1
                 ;	sz -> Y+0
00194a 81a9      	LDD  R26,Y+1
00194b 30a1      	CPI  R26,LOW(0x1)
00194c f011      	BREQ PC+3
00194d 940c 19c6 	JMP _0x92
00194f 940e 2611 	CALL SUBOPT_0x8
001951 38e1      	CPI  R30,LOW(0x81)
001952 e0a0      	LDI  R26,HIGH(0x81)
001953 07fa      	CPC  R31,R26
001954 f411      	BRNE _0x96
001955 efea      	LDI  R30,LOW(250)
001956 c017      	RJMP _0x1E9
                 _0x96:
001957 39e0      	CPI  R30,LOW(0x90)
001958 e0a0      	LDI  R26,HIGH(0x90)
001959 07fa      	CPC  R31,R26
00195a f411      	BRNE _0x97
00195b efeb      	LDI  R30,LOW(251)
00195c c011      	RJMP _0x1E9
                 _0x97:
00195d 39e8      	CPI  R30,LOW(0x98)
00195e e0a0      	LDI  R26,HIGH(0x98)
00195f 07fa      	CPC  R31,R26
001960 f411      	BRNE _0x98
001961 efec      	LDI  R30,LOW(252)
001962 c00b      	RJMP _0x1E9
                 _0x98:
001963 38ee      	CPI  R30,LOW(0x8E)
001964 e0a0      	LDI  R26,HIGH(0x8E)
001965 07fa      	CPC  R31,R26
001966 f411      	BRNE _0x99
001967 efed      	LDI  R30,LOW(253)
001968 c005      	RJMP _0x1E9
                 _0x99:
001969 38ed      	CPI  R30,LOW(0x8D)
00196a e0a0      	LDI  R26,HIGH(0x8D)
00196b 07fa      	CPC  R31,R26
00196c f411      	BRNE _0x95
00196d efee      	LDI  R30,LOW(254)
                 _0x1E9:
00196e 83ee      	STD  Y+6,R30
                 _0x95:
00196f 81ae      	LDD  R26,Y+6
001970 3ca1      	CPI  R26,LOW(0xC1)
001971 f0b0      	BRLO _0x9C
001972 91a0 03a6 	LDS  R26,_prevLet_G000
001974 91b0 03a7 	LDS  R27,_prevLet_G000+1
001976 3ca1      	CPI  R26,LOW(0xC1)
001977 e0e0      	LDI  R30,HIGH(0xC1)
001978 07be      	CPC  R27,R30
001979 f074      	BRLT _0x9C
00197a 940e 2614 	CALL SUBOPT_0x9
00197c 9635      	ADIW R30,5
00197d 91e4      	LPM  R30,Z
00197e 30e0      	CPI  R30,0
00197f f041      	BREQ _0x9C
001980 940e 2611 	CALL SUBOPT_0x8
001982 940e 2621 	CALL SUBOPT_0xA
001984 9634      	ADIW R30,4
001985 91e4      	LPM  R30,Z
001986 30e0      	CPI  R30,0
001987 f409      	BRNE _0x9D
                 _0x9C:
001988 c017      	RJMP _0x9B
                 _0x9D:
001989 940e 2614 	CALL SUBOPT_0x9
00198b 01df      	MOVW R26,R30
00198c 91e0 03a8 	LDS  R30,_stat_G000
00198e e0f0      	LDI  R31,0
00198f 9631      	ADIW R30,1
001990 0fea      	ADD  R30,R26
001991 1ffb      	ADC  R31,R27
001992 91e4      	LPM  R30,Z
001993 940e 262a 	CALL SUBOPT_0xB
001995 91e0 03a9 	LDS  R30,_prevX_G000
001997 940e 262a 	CALL SUBOPT_0xB
001999 91e0 03aa 	LDS  R30,_prevY_G000
00199b 940e 262a 	CALL SUBOPT_0xB
00199d ded1      	RCALL _putIt
00199e e0e2      	LDI  R30,LOW(2)
00199f c001      	RJMP _0x1EA
                 _0x9B:
0019a0 e0e0      	LDI  R30,LOW(0)
                 _0x1EA:
0019a1 93e0 03a8 	STS  _stat_G000,R30
0019a3 81ae      	LDD  R26,Y+6
0019a4 3ca1      	CPI  R26,LOW(0xC1)
0019a5 f058      	BRLO _0x9F
0019a6 940e 2611 	CALL SUBOPT_0x8
0019a8 940e 2621 	CALL SUBOPT_0xA
0019aa 01df      	MOVW R26,R30
0019ab 91e0 03a8 	LDS  R30,_stat_G000
0019ad 940e 262e 	CALL SUBOPT_0xC
0019af 91e4      	LPM  R30,Z
0019b0 c001      	RJMP _0x1EB
                 _0x9F:
0019b1 81ee      	LDD  R30,Y+6
                 _0x1EB:
0019b2 e0f0      	LDI  R31,0
0019b3 940e 2632 	CALL SUBOPT_0xD
0019b5 940e 2632 	CALL SUBOPT_0xD
0019b7 940e 2637 	CALL SUBOPT_0xE
0019b9 940e 2611 	CALL SUBOPT_0x8
0019bb 93e0 03a6 	STS  _prevLet_G000,R30
0019bd 93f0 03a7 	STS  _prevLet_G000+1,R31
0019bf 81ec      	LDD  R30,Y+4
0019c0 93e0 03a9 	STS  _prevX_G000,R30
0019c2 81ea      	LDD  R30,Y+2
0019c3 93e0 03aa 	STS  _prevY_G000,R30
0019c5 c008      	RJMP _0xA1
                 _0x92:
0019c6 940e 2611 	CALL SUBOPT_0x8
0019c8 940e 2632 	CALL SUBOPT_0xD
0019ca 940e 2632 	CALL SUBOPT_0xD
0019cc 940e 2637 	CALL SUBOPT_0xE
                 _0xA1:
                 _0x20A0003:
0019ce 9627      	ADIW R28,7
0019cf 9508      	RET
                 _glcd_puts:
0019d0 931a      	ST   -Y,R17
0019d1 930a      	ST   -Y,R16
                 ;	*c -> Y+9
                 ;	x -> Y+7
                 ;	y -> Y+5
                 ;	l -> Y+4
                 ;	sz -> Y+3
                 ;	space -> Y+2
                 ;	i -> R17
                 ;	special -> R16
0019d2 e010      	LDI  R17,0
0019d3 e000      	LDI  R16,0
                 _0xA2:
0019d4 940e 263d 	CALL SUBOPT_0xF
0019d6 f418      	BRSH _0xA5
0019d7 81ac      	LDD  R26,Y+4
0019d8 30a0      	CPI  R26,LOW(0x0)
0019d9 f009      	BREQ _0xA6
                 _0xA5:
0019da c029      	RJMP _0xA4
                 _0xA6:
0019db 940e 25fa 	CALL SUBOPT_0x4
0019dd 940e 2648 	CALL SUBOPT_0x10
0019df 91ec      	LD   R30,X
0019e0 93ea      	ST   -Y,R30
0019e1 940e 264d 	CALL SUBOPT_0x11
0019e3 940e 264d 	CALL SUBOPT_0x11
0019e5 e0e0      	LDI  R30,LOW(0)
0019e6 940e 2652 	CALL SUBOPT_0x12
0019e8 940e 2657 	CALL SUBOPT_0x13
0019ea 81af      	LDD  R26,Y+7
0019eb 85b8      	LDD  R27,Y+7+1
0019ec 0fea      	ADD  R30,R26
0019ed 1ffb      	ADC  R31,R27
0019ee 83ef      	STD  Y+7,R30
0019ef 87f8      	STD  Y+7+1,R31
0019f0 940e 2662 	CALL SUBOPT_0x14
0019f2 e8a0      	LDI  R26,LOW(128)
0019f3 e0b0      	LDI  R27,HIGH(128)
0019f4 940e 2939 	CALL __SWAPW12
0019f6 1bea      	SUB  R30,R26
0019f7 0bfb      	SBC  R31,R27
0019f8 81af      	LDD  R26,Y+7
0019f9 85b8      	LDD  R27,Y+7+1
0019fa 17ea      	CP   R30,R26
0019fb 07fb      	CPC  R31,R27
0019fc f42c      	BRGE _0xA7
0019fd e0e0      	LDI  R30,LOW(0)
0019fe 83ef      	STD  Y+7,R30
0019ff 87e8      	STD  Y+7+1,R30
001a00 940e 2667 	CALL SUBOPT_0x15
                 _0xA7:
001a02 5f1f      	SUBI R17,-1
001a03 cfd0      	RJMP _0xA2
                 _0xA4:
                 _0xA8:
001a04 940e 263d 	CALL SUBOPT_0xF
001a06 f418      	BRSH _0xAB
001a07 81ac      	LDD  R26,Y+4
001a08 30a1      	CPI  R26,LOW(0x1)
001a09 f009      	BREQ _0xAC
                 _0xAB:
001a0a c075      	RJMP _0xAA
                 _0xAC:
001a0b 940e 25fa 	CALL SUBOPT_0x4
001a0d 940e 2648 	CALL SUBOPT_0x10
001a0f 91ac      	LD   R26,X
001a10 3ea1      	CPI  R26,LOW(0xE1)
001a11 f421      	BRNE _0xAE
001a12 940e 2670 	CALL SUBOPT_0x16
001a14 3ca7      	CPI  R26,LOW(0xC7)
001a15 f009      	BREQ _0xAF
                 _0xAE:
001a16 c002      	RJMP _0xAD
                 _0xAF:
001a17 ef09      	LDI  R16,LOW(249)
001a18 c029      	RJMP _0xB0
                 _0xAD:
001a19 940e 25fa 	CALL SUBOPT_0x4
001a1b 940e 2648 	CALL SUBOPT_0x10
001a1d 91ac      	LD   R26,X
001a1e 3ea1      	CPI  R26,LOW(0xE1)
001a1f f421      	BRNE _0xB2
001a20 940e 2670 	CALL SUBOPT_0x16
001a22 3ca3      	CPI  R26,LOW(0xC3)
001a23 f009      	BREQ _0xB3
                 _0xB2:
001a24 c002      	RJMP _0xB1
                 _0xB3:
001a25 ee07      	LDI  R16,LOW(231)
001a26 c01b      	RJMP _0xB4
                 _0xB1:
001a27 940e 25fa 	CALL SUBOPT_0x4
001a29 940e 2648 	CALL SUBOPT_0x10
001a2b 91ac      	LD   R26,X
001a2c 3ea1      	CPI  R26,LOW(0xE1)
001a2d f421      	BRNE _0xB6
001a2e 940e 2670 	CALL SUBOPT_0x16
001a30 3ca2      	CPI  R26,LOW(0xC2)
001a31 f009      	BREQ _0xB7
                 _0xB6:
001a32 c002      	RJMP _0xB5
                 _0xB7:
001a33 ee08      	LDI  R16,LOW(232)
001a34 c00d      	RJMP _0xB8
                 _0xB5:
001a35 940e 25fa 	CALL SUBOPT_0x4
001a37 940e 2648 	CALL SUBOPT_0x10
001a39 91ac      	LD   R26,X
001a3a 3ea1      	CPI  R26,LOW(0xE1)
001a3b f421      	BRNE _0xBA
001a3c 940e 2670 	CALL SUBOPT_0x16
001a3e 3ca5      	CPI  R26,LOW(0xC5)
001a3f f009      	BREQ _0xBB
                 _0xBA:
001a40 c001      	RJMP _0xB9
                 _0xBB:
001a41 ee09      	LDI  R16,LOW(233)
                 _0xB9:
                 _0xB8:
                 _0xB4:
                 _0xB0:
001a42 3000      	CPI  R16,0
001a43 f079      	BREQ _0xBC
001a44 930a      	ST   -Y,R16
001a45 940e 2676 	CALL SUBOPT_0x17
001a47 e0e1      	LDI  R30,LOW(1)
001a48 940e 2652 	CALL SUBOPT_0x12
001a4a 5f1e      	SUBI R17,-LOW(2)
001a4b 940e 2662 	CALL SUBOPT_0x14
001a4d 81af      	LDD  R26,Y+7
001a4e 85b8      	LDD  R27,Y+7+1
001a4f 940e 2681 	CALL SUBOPT_0x18
001a51 e000      	LDI  R16,LOW(0)
001a52 c01c      	RJMP _0xBD
                 _0xBC:
001a53 940e 25fa 	CALL SUBOPT_0x4
001a55 940e 2648 	CALL SUBOPT_0x10
001a57 91ec      	LD   R30,X
001a58 93ea      	ST   -Y,R30
001a59 940e 2676 	CALL SUBOPT_0x17
001a5b 85e9      	LDD  R30,Y+9
001a5c 940e 2652 	CALL SUBOPT_0x12
001a5e 940e 25fa 	CALL SUBOPT_0x4
001a60 940e 2648 	CALL SUBOPT_0x10
001a62 91ac      	LD   R26,X
001a63 32a0      	CPI  R26,LOW(0x20)
001a64 f419      	BRNE _0xBE
001a65 940e 2657 	CALL SUBOPT_0x13
001a67 c002      	RJMP _0x1EC
                 _0xBE:
001a68 940e 2662 	CALL SUBOPT_0x14
                 _0x1EC:
001a6a 81af      	LDD  R26,Y+7
001a6b 85b8      	LDD  R27,Y+7+1
001a6c 940e 2681 	CALL SUBOPT_0x18
001a6e 5f1f      	SUBI R17,-1
                 _0xBD:
001a6f 940e 2662 	CALL SUBOPT_0x14
001a71 9631      	ADIW R30,1
001a72 81af      	LDD  R26,Y+7
001a73 85b8      	LDD  R27,Y+7+1
001a74 17ae      	CP   R26,R30
001a75 07bf      	CPC  R27,R31
001a76 f444      	BRGE _0xC0
001a77 940e 2662 	CALL SUBOPT_0x14
001a79 e8a0      	LDI  R26,LOW(128)
001a7a e0b0      	LDI  R27,HIGH(128)
001a7b 940e 2681 	CALL SUBOPT_0x18
001a7d 940e 2667 	CALL SUBOPT_0x15
                 _0xC0:
001a7f cf84      	RJMP _0xA8
                 _0xAA:
001a80 ece1      	LDI  R30,LOW(193)
001a81 e0f0      	LDI  R31,HIGH(193)
001a82 93e0 03a6 	STS  _prevLet_G000,R30
001a84 93f0 03a7 	STS  _prevLet_G000+1,R31
001a86 8119      	LDD  R17,Y+1
001a87 8108      	LDD  R16,Y+0
001a88 962b      	ADIW R28,11
001a89 9508      	RET
                 _bmp_disp:
001a8a 940e 295f 	CALL __SAVELOCR4
                 ;	*bmp -> Y+12
                 ;	x1 -> Y+10
                 ;	y1 -> Y+8
                 ;	x2 -> Y+6
                 ;	y2 -> Y+4
                 ;	i -> R16,R17
                 ;	j -> R18,R19
                +
001a8c 8508     +LDD R16 , Y + 8
001a8d 8519     +LDD R17 , Y + 8 + 1
                 	__GETWRS 16,17,8
                 _0xC2:
001a8e 81ec      	LDD  R30,Y+4
001a8f 81fd      	LDD  R31,Y+4+1
001a90 17e0      	CP   R30,R16
001a91 07f1      	CPC  R31,R17
001a92 f100      	BRLO _0xC3
                +
001a93 852a     +LDD R18 , Y + 10
001a94 853b     +LDD R19 , Y + 10 + 1
                 	__GETWRS 18,19,10
                 _0xC5:
001a95 81ee      	LDD  R30,Y+6
001a96 81ff      	LDD  R31,Y+6+1
001a97 17e2      	CP   R30,R18
001a98 07f3      	CPC  R31,R19
001a99 f0b0      	BRLO _0xC6
001a9a 933a      	ST   -Y,R19
001a9b 932a      	ST   -Y,R18
001a9c 931a      	ST   -Y,R17
001a9d 930a      	ST   -Y,R16
001a9e dd8e      	RCALL _goto_xy
                +
001a9f e8a0     +LDI R26 , 128
001aa0 9fa0     +MUL R26 , R16
001aa1 01f0     +MOVW R30 , R0
001aa2 9fa1     +MUL R26 , R17
001aa3 0df0     +ADD R31 , R0
                 	__MULBNWRU 16,17,128
001aa4 0fe2      	ADD  R30,R18
001aa5 1ff3      	ADC  R31,R19
001aa6 85ac      	LDD  R26,Y+12
001aa7 85bd      	LDD  R27,Y+12+1
001aa8 0fea      	ADD  R30,R26
001aa9 1ffb      	ADC  R31,R27
001aaa 91e4      	LPM  R30,Z
001aab 93ea      	ST   -Y,R30
001aac dd8a      	RCALL _glcd_write
                +
001aad 5f2f     +SUBI R18 , LOW ( - 1 )
001aae 4f3f     +SBCI R19 , HIGH ( - 1 )
                 	__ADDWRN 18,19,1
001aaf cfe5      	RJMP _0xC5
                 _0xC6:
                +
001ab0 5f0f     +SUBI R16 , LOW ( - 1 )
001ab1 4f1f     +SBCI R17 , HIGH ( - 1 )
                 	__ADDWRN 16,17,1
001ab2 cfdb      	RJMP _0xC2
                 _0xC3:
001ab3 940e 2966 	CALL __LOADLOCR4
001ab5 962e      	ADIW R28,14
001ab6 9508      	RET
                 ;#include "Includes/bus.h"
                 ;
                 ;
                 ;//////////////////////////////// INTERRUPCION SERIAL //////////////////////////////////
                 ;   #ifndef RXB8
                 ;   #define RXB8 1
                 ;   #endif
                 ;   #ifndef TXB8
                 ;   #define TXB8 0
                 ;   #endif
                 ;   #ifndef UPE
                 ;   #define UPE 2
                 ;   #endif
                 ;   #ifndef DOR
                 ;   #define DOR 3
                 ;   #endif
                 ;   #ifndef FE
                 ;   #define FE 4
                 ;   #endif
                 ;   #ifndef UDRE
                 ;   #define UDRE 5
                 ;   #endif
                 ;   #ifndef RXC
                 ;   #define RXC 7
                 ;   #endif
                 ;
                 ;   #define FRAMING_ERROR (1<<FE)
                 ;   #define PARITY_ERROR (1<<UPE)
                 ;   #define DATA_OVERRUN (1<<DOR)
                 ;   #define DATA_REGISTER_EMPTY (1<<UDRE)
                 ;   #define RX_COMPLETE (1<<RXC)
                 ;//---------------------------------------------------------------------------------------
                 ;
                 ;/////////////////////////  CONFIGURACIONES GLOBALES DEL PROGRAMA //////////////////////
                 ;
                 ;   typedef char int8;    //sirve para definir enteros consigno de 8
                 ;
                 ;   #define VERSION               "VER_0.9.0"
                 ;   #define NOMBRE_PANTALLA       "SITU"
                 ;   #define NUMERO_PANTALLA       "8888"
                 ;   #define DELAY_BUZZER_MS          100
                 ;   #define DELAY_BOTONES_MS         200
                 ;   #define INIT_DELAY_GLCD_MS        10
                 ;   #define DELAY_PANTALLA_INI      2000
                 ;   #define DELAY_TXT_SERVIDOR      3000
                 ;   #define TOTAL_RUTAS              100  //Nmero total de rutas
                 ;   #define MOSTRAR_NUM_RUTA_MS     2000  // Tiempo que se muestra el nombre de la Geocerca
                 ;   #define MOSTRAR_MSN_ENV_MS      1000  // Tiempo que muestra MENSAJE ENVIADO
                 ;
                 ;   #define RX_BUFFER_SIZE0 200             //BUFFER DE 200 CARACTERES
                 ;   char rx_b0 [RX_BUFFER_SIZE0];           //nombre del buffer
                 ;
                 ;   # define TXT_BUF_SZ 160
                 ;   char txt_glcd_b0[ TXT_BUF_SZ ];            // Buffer para almacenar los caracteres a mostrarse en la GLCD
                 ;   char i_txt_glcd = 0;             // contador para recorrer el arreglo del buffer
                 ;   char i_txt_overflow = 0;        // Si los caracteres son mas de 100 ignora los demas caracteres
                 ;
                 ;   /////////////////////////  DEFINIR PUERTOS BOTONES - BUZZER  //////////////////////////
                 ;   #define BT5 PINA.0
                 ;   #define BT4 PINA.1
                 ;   #define BT3 PINA.2
                 ;   #define BT2 PINA.3
                 ;   #define BT1 PINA.4
                 ;   #define buzzer PORTD.4
                 ;//----------------------------------------------------------------------------------------
                 ;
                 ;/////////////////////////////// DEFINICIONES DE PUERTO SERIAL   //////////////////////////
                 ;
                 ;   #if RX_BUFFER_SIZE0 <= 256
                 ;   unsigned char rx_wr_index0,rx_rd_index0,rx_counter0;
                 ;   #else
                 ;   unsigned int rx_wr_index0,rx_rd_index0,rx_counter0;
                 ;   #endif
                 ;
                 ;   // This flag is set on USART0 Receiver buffer overflow
                 ;   bit rx_buffer_overflow0;
                 ;   bit BIT_UART;
                 ;//----------------------------------------------------------------------------------------
                 ;
                 ;
                 ;
                 ;
                 ;///////////////////////////////////////////////// VARIABLES  GLOBALES   /////////////////////////////////////////
                 ;
                 ;   char NOMBRE_DISP[] = NOMBRE_PANTALLA;       // variable
                 
                 	.DSEG
                 ;   char NUM_DISP[] = NUMERO_PANTALLA;          // variable
                 ;   char ruta= ' ';                             // variable donde se almacena la ruta que se enviarA al servidor
                 ;   char ruta_aux = ' ';                        // variable auxiliar para almacenar la ruta a seleccionar
                 ;   char bandera1 = 0;                          // variable auxiliar para evitar el rebote al oprimir el boton 1
                 ;   char bandera2 = 0;                          // variable auxiliar para evitar el rebote al oprimir el boton 2
                 ;   char bandera3 = 0;                          // variable auxiliar para evitar el rebote al oprimir el boton 3
                 ;   char bandera4 = 0;                          // variable auxiliar para evitar el rebote al oprimir el boton 4
                 ;   char bandera5 = 0;                          // variable auxiliar para evitar el rebote al oprimir el boton 4
                 ;   char aceptar  = 0;                          // variable que permite enviar ruta de trabajo al servidor
                 ;
                 ;   // Contadores de las presiones de botones
                 ;   char btn1=0;          //  Cuenta entre 1 y 2 = 1 Inicia Sesion, 2 Cierra sesion
                 ;   char btn2=0;         // Cuentra entre 1 y 12 =  Ruta seleccionada. Boton 2 aumenta el contador
                 ;   char btn3=0;        // No se usa, Boton 3 disminuye el contador btn2
                 ;   char btn4=0;       // Cuenta entre 1 y 2 = 1 Acepta Ruta, 2 Cancela Carrera
                 ;   char btn5=0;      // Cuenta entre 1 y 5 = Cambia los estados mecanicos del bus.
                 ;
                 ;   int gsm, gps, ind_sen;     //indicadores de seal
                 ;   char reloj[8], fecha[8];  //vectores para imprmir GLCD
                 ;
                 ;   char punto[4], pt=0, no_pt[4], nombre_pt[20];        // variables para reconocer geocercas
                 ;   int unidades_ruta, decenas_ruta, centenas_ruta;
                 ;
                 ;
                 ;
                 ;//-----------------------------------------     VARIABLES EEPROM     --------------------------------------//
                 ;
                 ;   static unsigned int time_count;    // Contador del timer para los segundos
                 ;   static unsigned int act;           // Variable que guarda si la pantalla es autorizada
                 ;
                 ;   eeprom int8 seg   @0x80;
                 ;   eeprom int8 seg1  @0x82;           // segundos en unidades y decenas
                 ;   eeprom int8 minu  @0x84;
                 ;   eeprom int8 min1  @0x86;           // minutos en unidades y decenas
                 ;   eeprom int8 hora  @0x88;
                 ;   eeprom int8 hora1 @0x8A;           // hora en unidades y decenas
                 ;   eeprom int8 dia   @0x8C;
                 ;   eeprom int8 dia1  @0x8E;           // dias en unidades y decenas
                 ;   eeprom int8 mes   @0x90;
                 ;   eeprom int8 mes1  @0x92;           // mes en unidades y decenas
                 ;   eeprom int8 an    @0x94;
                 ;   eeprom int8 an1   @0x96;           // anos en unidades y decenas
                 ;
                 ;   eeprom int8 num_ruta   @0x28;      // Transforma la letra de la ruta a un nmero
                 ;                                      // Si su valor es de CERO no tiene ruta asignada
                 ;                                      // No este en recorrido
                 ;
                 ;   eeprom int8 laborando  @0x2A;      // Sabe si el chofer ha iniciado sesion o no.
                 ;                                      // Para poder escoger la ruta debe iniciar sesion
                 ;
                 ;   //----------------------------------   VARIABLES EERPOM EN LA FLASH  ------------------------------------//
                 ;
                 ;   int8 _seg  = 0;
                 ;   int8 _seg1 = 0;    // segundos en unidades y decenas
                 ;   int8 _minu = 0;
                 ;   int8 _min1 = 0;    // minutos en unidades y decenas
                 ;   int8 _hora = 0;
                 ;   int8 _hora1= 0;    // hora en unidades y decenas
                 ;   int8 _dia  = 0;
                 ;   int8 _dia1 = 0;    // dias en unidades y decenas
                 ;   int8 _mes  = 0;
                 ;   int8 _mes1 = 0;    // mes en unidades y decenas
                 ;   int8 _an   = 0;
                 ;   int8 _an1  = 0;    // anos en unidades y decenas
                 ;
                 ;   int8 _num_ruta  = 0;
                 ;   int8 _laborando = 0;
                 ;
                 ;
                 ;
                 ;
                 ;////////////////////////////  RUTINA DE INTERRUPCION SERIAL   ////////////////////////////
                 ;/** \brief USART0 Receiver interrupt service routine
                 ; *
                 ; * Captura datos desde el puerto serial UART0
                 ; */
                 ;   interrupt [USART0_RXC] void usart0_rx_isr(void)
                 ; 0000 00BE    {
                 
                 	.CSEG
                 _usart0_rx_isr:
001ab7 93ea      	ST   -Y,R30
001ab8 93fa      	ST   -Y,R31
001ab9 b7ef      	IN   R30,SREG
001aba 93ea      	ST   -Y,R30
                 ; 0000 00BF       char status,data;
                 ; 0000 00C0       status = UCSR0A;
001abb 931a      	ST   -Y,R17
001abc 930a      	ST   -Y,R16
                 ;	status -> R17
                 ;	data -> R16
001abd 9110 00c0 	LDS  R17,192
                 ; 0000 00C1       data   = UDR0;
001abf 9100 00c6 	LDS  R16,198
                 ; 0000 00C2       BIT_UART = UCSR0A & 0b10000000;
001ac1 91e0 00c0 	LDS  R30,192
001ac3 78e0      	ANDI R30,LOW(0x80)
001ac4 f411      	BRNE _0xC9
001ac5 98f1      	CBI  0x1E,1
001ac6 c001      	RJMP _0xCA
                 _0xC9:
001ac7 9af1      	SBI  0x1E,1
                 _0xCA:
                 ; 0000 00C3 
                 ; 0000 00C4       if ((status & (FRAMING_ERROR | PARITY_ERROR | DATA_OVERRUN)) == 0)
001ac8 2fe1      	MOV  R30,R17
001ac9 71ec      	ANDI R30,LOW(0x1C)
001aca f481      	BRNE _0xCB
                 ; 0000 00C5       {
                 ; 0000 00C6          rx_b0 [rx_wr_index0++] = data;
001acb 2de6      	MOV  R30,R6
001acc 9463      	INC  R6
001acd e0f0      	LDI  R31,0
001ace 55e5      	SUBI R30,LOW(-_rx_b0)
001acf 4ffc      	SBCI R31,HIGH(-_rx_b0)
001ad0 8300      	ST   Z,R16
                 ; 0000 00C7          #if RX_BUFFER_SIZE0 == 256
                 ; 0000 00C8             // special case for receiver buffer size=256
                 ; 0000 00C9             if (++rx_counter0 == 0) rx_buffer_overflow0=1;
                 ; 0000 00CA 
                 ; 0000 00CB          #else
                 ; 0000 00CC             if (rx_wr_index0 == RX_BUFFER_SIZE0) rx_wr_index0=0;
001ad1 ece8      	LDI  R30,LOW(200)
001ad2 15e6      	CP   R30,R6
001ad3 f409      	BRNE _0xCC
001ad4 2466      	CLR  R6
                 ; 0000 00CD             if (++rx_counter0 == RX_BUFFER_SIZE0)
                 _0xCC:
001ad5 9483      	INC  R8
001ad6 ece8      	LDI  R30,LOW(200)
001ad7 15e8      	CP   R30,R8
001ad8 f411      	BRNE _0xCD
                 ; 0000 00CE             {
                 ; 0000 00CF                rx_counter0=0;
001ad9 2488      	CLR  R8
                 ; 0000 00D0                rx_buffer_overflow0=1;
001ada 9af0      	SBI  0x1E,0
                 ; 0000 00D1             }
                 ; 0000 00D2          #endif
                 ; 0000 00D3       }
                 _0xCD:
                 ; 0000 00D4    }
                 _0xCB:
001adb 9109      	LD   R16,Y+
001adc 9119      	LD   R17,Y+
001add 91e9      	LD   R30,Y+
001ade bfef      	OUT  SREG,R30
001adf 91f9      	LD   R31,Y+
001ae0 91e9      	LD   R30,Y+
001ae1 9518      	RETI
                 ;//-----------------------------------------------------------------------------------------
                 ;
                 ;
                 ;/////////////////////////////////////////////// INTERRUPCION DEL TIMER0 (CUENTA CADA SEGUNDO) /////////////////////////////////////////////////
                 ;interrupt [TIM0_OVF] void timer0_ovf_isr(void)
                 ; 0000 00DA {
                 _timer0_ovf_isr:
001ae2 920a      	ST   -Y,R0
001ae3 921a      	ST   -Y,R1
001ae4 92fa      	ST   -Y,R15
001ae5 936a      	ST   -Y,R22
001ae6 937a      	ST   -Y,R23
001ae7 938a      	ST   -Y,R24
001ae8 939a      	ST   -Y,R25
001ae9 93aa      	ST   -Y,R26
001aea 93ba      	ST   -Y,R27
001aeb 93ea      	ST   -Y,R30
001aec 93fa      	ST   -Y,R31
001aed b7ef      	IN   R30,SREG
001aee 93ea      	ST   -Y,R30
                 ; 0000 00DB    TCNT0 = 6;
001aef e0e6      	LDI  R30,LOW(6)
001af0 bde6      	OUT  0x26,R30
                 ; 0000 00DC    ++time_count;
001af1 e4a7      	LDI  R26,LOW(_time_count_G000)
001af2 e0b5      	LDI  R27,HIGH(_time_count_G000)
001af3 940e 260b 	CALL SUBOPT_0x7
                 ; 0000 00DD 
                 ; 0000 00DE    if ( time_count == 43 )
001af5 91a0 0547 	LDS  R26,_time_count_G000
001af7 91b0 0548 	LDS  R27,_time_count_G000+1
001af9 979b      	SBIW R26,43
001afa f011      	BREQ PC+3
001afb 940c 1b9a 	JMP _0xD0
                 ; 0000 00DF    {
                 ; 0000 00E0       seg++;
001afd 940e 2686 	CALL SUBOPT_0x19
001aff 940e 268b 	CALL SUBOPT_0x1A
                 ; 0000 00E1       time_count = 0;  //reiniciar contador
001b01 e0e0      	LDI  R30,LOW(0)
001b02 93e0 0547 	STS  _time_count_G000,R30
001b04 93e0 0548 	STS  _time_count_G000+1,R30
                 ; 0000 00E2 
                 ; 0000 00E3       //Envia las tramas para validar el nombre y la seal del equipo - cada segundo
                 ; 0000 00E4          if(seg==1 && seg1==1) printf("AT$TTDEVID?\n\r");  // Pregunta el ID del equipo
001b06 940e 2686 	CALL SUBOPT_0x19
001b08 30e1      	CPI  R30,LOW(0x1)
001b09 f421      	BRNE _0xD2
001b0a 940e 2690 	CALL SUBOPT_0x1B
001b0c 30e1      	CPI  R30,LOW(0x1)
001b0d f009      	BREQ _0xD3
                 _0xD2:
001b0e c002      	RJMP _0xD1
                 _0xD3:
001b0f 940e 2695 	CALL SUBOPT_0x1C
                 ; 0000 00E5          if(seg==1 && seg1==2) printf("AT+CSQ\n\r");      // Pregunta la intensidad de senal
                 _0xD1:
001b11 940e 2686 	CALL SUBOPT_0x19
001b13 30e1      	CPI  R30,LOW(0x1)
001b14 f421      	BRNE _0xD5
001b15 940e 2690 	CALL SUBOPT_0x1B
001b17 30e2      	CPI  R30,LOW(0x2)
001b18 f009      	BREQ _0xD6
                 _0xD5:
001b19 c002      	RJMP _0xD4
                 _0xD6:
001b1a 940e 269e 	CALL SUBOPT_0x1D
                 ; 0000 00E6       //Envio pra ver antenas, igualar hora y fecha...
                 ; 0000 00E7          // Envio cada 20 segundos
                 ; 0000 00E8          if (seg==1 && seg1==3) printf("AT$TTNETIP?\n\r");
                 _0xD4:
001b1c 940e 2686 	CALL SUBOPT_0x19
001b1e 30e1      	CPI  R30,LOW(0x1)
001b1f f421      	BRNE _0xD8
001b20 940e 2690 	CALL SUBOPT_0x1B
001b22 30e3      	CPI  R30,LOW(0x3)
001b23 f009      	BREQ _0xD9
                 _0xD8:
001b24 c004      	RJMP _0xD7
                 _0xD9:
                +
001b25 e7ef     +LDI R30 , LOW ( 2 * _0x0 + ( 23 ) )
001b26 e2fd     +LDI R31 , HIGH ( 2 * _0x0 + ( 23 ) )
                 	__POINTW1FN _0x0,23
001b27 940e 26a7 	CALL SUBOPT_0x1E
                 ; 0000 00E9          if (seg==1 && seg1==4) printf("AT$TTGPSQRY=10,0\n\r");   // Igualar la hora
                 _0xD7:
001b29 940e 2686 	CALL SUBOPT_0x19
001b2b 30e1      	CPI  R30,LOW(0x1)
001b2c f421      	BRNE _0xDB
001b2d 940e 2690 	CALL SUBOPT_0x1B
001b2f 30e4      	CPI  R30,LOW(0x4)
001b30 f009      	BREQ _0xDC
                 _0xDB:
001b31 c004      	RJMP _0xDA
                 _0xDC:
                +
001b32 e8ed     +LDI R30 , LOW ( 2 * _0x0 + ( 37 ) )
001b33 e2fd     +LDI R31 , HIGH ( 2 * _0x0 + ( 37 ) )
                 	__POINTW1FN _0x0,37
001b34 940e 26a7 	CALL SUBOPT_0x1E
                 ; 0000 00EA 
                 ; 0000 00EB 
                 ; 0000 00EC       if (seg>9)
                 _0xDA:
001b36 940e 2686 	CALL SUBOPT_0x19
001b38 30ea      	CPI  R30,LOW(0xA)
001b39 f410      	BRSH PC+3
001b3a 940c 1b9a 	JMP _0xDD
                 ; 0000 00ED       {
                 ; 0000 00EE          seg=0; seg1++;
001b3c 940e 26ae 	CALL SUBOPT_0x1F
001b3e 940e 2690 	CALL SUBOPT_0x1B
001b40 940e 268b 	CALL SUBOPT_0x1A
                 ; 0000 00EF 
                 ; 0000 00F0          if(seg1>5)  // Cambio de minuto
001b42 940e 2690 	CALL SUBOPT_0x1B
001b44 30e6      	CPI  R30,LOW(0x6)
001b45 f410      	BRSH PC+3
001b46 940c 1b9a 	JMP _0xDE
                 ; 0000 00F1          {
                 ; 0000 00F2             seg1=0; minu++;
001b48 940e 26b4 	CALL SUBOPT_0x20
001b4a 940e 26ba 	CALL SUBOPT_0x21
001b4c 940e 268b 	CALL SUBOPT_0x1A
                 ; 0000 00F3             if(minu>9)
001b4e 940e 26ba 	CALL SUBOPT_0x21
001b50 30ea      	CPI  R30,LOW(0xA)
001b51 f410      	BRSH PC+3
001b52 940c 1b9a 	JMP _0xDF
                 ; 0000 00F4             {
                 ; 0000 00F5                minu=0; min1++;
001b54 940e 26bf 	CALL SUBOPT_0x22
001b56 940e 26c5 	CALL SUBOPT_0x23
001b58 940e 268b 	CALL SUBOPT_0x1A
                 ; 0000 00F6                if(min1>5)
001b5a 940e 26c5 	CALL SUBOPT_0x23
001b5c 30e6      	CPI  R30,LOW(0x6)
001b5d f1e0      	BRLO _0xE0
                 ; 0000 00F7                {
                 ; 0000 00F8                   min1=0; hora++;
001b5e 940e 26ca 	CALL SUBOPT_0x24
001b60 940e 26d0 	CALL SUBOPT_0x25
001b62 940e 268b 	CALL SUBOPT_0x1A
                 ; 0000 00F9                   if(hora>9)
001b64 940e 26d0 	CALL SUBOPT_0x25
001b66 30ea      	CPI  R30,LOW(0xA)
001b67 f190      	BRLO _0xE1
                 ; 0000 00FA                   {
                 ; 0000 00FB                      hora=0; hora1++;
001b68 940e 26d5 	CALL SUBOPT_0x26
001b6a 940e 26db 	CALL SUBOPT_0x27
001b6c 940e 268b 	CALL SUBOPT_0x1A
                 ; 0000 00FC                      if((hora1==2 && hora==3)&&(min1==5 && minu==9)&&(seg1==5 && seg==9))
001b6e 940e 26db 	CALL SUBOPT_0x27
001b70 30e2      	CPI  R30,LOW(0x2)
001b71 f421      	BRNE _0xE3
001b72 940e 26d0 	CALL SUBOPT_0x25
001b74 30e3      	CPI  R30,LOW(0x3)
001b75 f009      	BREQ _0xE4
                 _0xE3:
001b76 c013      	RJMP _0xE5
                 _0xE4:
001b77 940e 26c5 	CALL SUBOPT_0x23
001b79 30e5      	CPI  R30,LOW(0x5)
001b7a f421      	BRNE _0xE6
001b7b 940e 26ba 	CALL SUBOPT_0x21
001b7d 30e9      	CPI  R30,LOW(0x9)
001b7e f009      	BREQ _0xE7
                 _0xE6:
001b7f c00a      	RJMP _0xE5
                 _0xE7:
001b80 940e 2690 	CALL SUBOPT_0x1B
001b82 30e5      	CPI  R30,LOW(0x5)
001b83 f421      	BRNE _0xE8
001b84 940e 2686 	CALL SUBOPT_0x19
001b86 30e9      	CPI  R30,LOW(0x9)
001b87 f009      	BREQ _0xE9
                 _0xE8:
001b88 c001      	RJMP _0xE5
                 _0xE9:
001b89 c001      	RJMP _0xEA
                 _0xE5:
001b8a c00f      	RJMP _0xE2
                 _0xEA:
                 ; 0000 00FD                      {
                 ; 0000 00FE                         hora1=0; hora=0; min1=0; minu=0;seg1=0;seg=0;
001b8b e8aa      	LDI  R26,LOW(_hora1)
001b8c e0b0      	LDI  R27,HIGH(_hora1)
001b8d e0e0      	LDI  R30,LOW(0)
001b8e 940e 294c 	CALL __EEPROMWRB
001b90 940e 26d5 	CALL SUBOPT_0x26
001b92 940e 26ca 	CALL SUBOPT_0x24
001b94 940e 26bf 	CALL SUBOPT_0x22
001b96 940e 26b4 	CALL SUBOPT_0x20
001b98 940e 26ae 	CALL SUBOPT_0x1F
                 ; 0000 00FF                      }
                 ; 0000 0100                   }
                 _0xE2:
                 ; 0000 0101                }
                 _0xE1:
                 ; 0000 0102             }
                 _0xE0:
                 ; 0000 0103          }
                 _0xDF:
                 ; 0000 0104       }
                 _0xDE:
                 ; 0000 0105    }
                 _0xDD:
                 ; 0000 0106 }
                 _0xD0:
001b9a 91e9      	LD   R30,Y+
001b9b bfef      	OUT  SREG,R30
001b9c 91f9      	LD   R31,Y+
001b9d 91e9      	LD   R30,Y+
001b9e 91b9      	LD   R27,Y+
001b9f 91a9      	LD   R26,Y+
001ba0 9199      	LD   R25,Y+
001ba1 9189      	LD   R24,Y+
001ba2 9179      	LD   R23,Y+
001ba3 9169      	LD   R22,Y+
001ba4 90f9      	LD   R15,Y+
001ba5 9019      	LD   R1,Y+
001ba6 9009      	LD   R0,Y+
001ba7 9518      	RETI
                 ;//-------------------------------------------------------------------------------------------------------------------------------------------//
                 ;
                 ;
                 ;
                 ;//***********************************************************************************************************************************//
                 ;//////////////////////////////////////////////////////////// FUNCIONES ////////////////////////////////////////////////////////////////
                 ;//***********************************************************************************************************************************//
                 ;
                 ;   ////////////////// FUNCIN PARA EL SONIDO DEL BUZZER /////////////////////
                 ;      /** \brief Genera el sonido del buffer
                 ;       *
                 ;       * El tiempo que suena depende del Macro: DELAY BUZZER
                 ;       */
                 ;      void buzz()
                 ; 0000 0115       {       //Sonido de Buzzer
                 _buzz:
                 ; 0000 0116          buzzer=1; delay_ms( DELAY_BUZZER_MS );
001ba8 9a5c      	SBI  0xB,4
001ba9 940e 26e0 	CALL SUBOPT_0x28
                 ; 0000 0117          buzzer=0; delay_ms( DELAY_BUZZER_MS );
001bab 985c      	CBI  0xB,4
001bac 940e 26e0 	CALL SUBOPT_0x28
                 ; 0000 0118       }
001bae 9508      	RET
                 ;   //---------------------------------------------------------------------------//
                 ;
                 ;   ////////////////// FUNCIN PARA CALCULAR NUMERO DE RUTA //////////////////
                 ;      /** \brief Transforma el caracter de ruta a un nmero
                 ;       *
                 ;       * Cambia de A -> 1; B->2 ...  etc, en caso de que el caracter pasado no
                 ;       * Corresponda a una letra devolvera -1
                 ;       *
                 ;       * Solo soporta un carcater, mximo se puede tener 35 rutas.
                 ;       */
                 ;      int8 calcuar_ruta( char ruta )
                 ; 0000 0124       {
                 _calcuar_ruta:
                 ; 0000 0125          int8 numero_ruta = ruta - 0x40;
                 ; 0000 0126 
                 ; 0000 0127          // Verificar que la letra corresponde a un nmero de ruta
                 ; 0000 0128          if ( numero_ruta > 0 && numero_ruta <= TOTAL_RUTAS )
001baf 931a      	ST   -Y,R17
                 ;	ruta -> Y+1
                 ;	numero_ruta -> R17
001bb0 81e9      	LDD  R30,Y+1
001bb1 e0f0      	LDI  R31,0
001bb2 54e0      	SUBI R30,LOW(64)
001bb3 40f0      	SBCI R31,HIGH(64)
001bb4 2f1e      	MOV  R17,R30
001bb5 3011      	CPI  R17,1
001bb6 f010      	BRLO _0xF0
001bb7 3615      	CPI  R17,101
001bb8 f008      	BRLO _0xF1
                 _0xF0:
001bb9 c002      	RJMP _0xEF
                 _0xF1:
                 ; 0000 0129             return numero_ruta;
001bba 2fe1      	MOV  R30,R17
001bbb c001      	RJMP _0x20A0002
                 ; 0000 012A          else
                 _0xEF:
                 ; 0000 012B             return 0; // El caracter no corresponde a una ruta.
001bbc e0e0      	LDI  R30,LOW(0)
                 ; 0000 012C 
                 ; 0000 012D       }
                 _0x20A0002:
001bbd 8118      	LDD  R17,Y+0
001bbe 9622      	ADIW R28,2
001bbf 9508      	RET
                 ;   //---------------------------------------------------------------------------//
                 ;
                 ;   ////////////////// FUNCION PARA ENVIAR RUTA AL SERVIDOR //////////////////
                 ;      /** \brief Envia inicio o fin de ruta para el calulo del recorrido
                 ;       *
                 ;       * Para el inicio de trama envia un numero que representa la ruta y luego
                 ;       * envia el estado de esa ruta: ej R2,2,0. Fin de Ruta dos
                 ;       *
                 ;       */
                 ;      void enviar_estado_ruta(){
                 ; 0000 0137 void enviar_estado_ruta(){
                 _enviar_estado_ruta:
                 ; 0000 0138 
                 ; 0000 0139          _num_ruta = calcuar_ruta( ruta );
001bc0 927a      	ST   -Y,R7
001bc1 dfed      	RCALL _calcuar_ruta
001bc2 93e0 0557 	STS  __num_ruta,R30
                 ; 0000 013A          printf("AT$TTSNDMG=4,\"$$BL%s,%d%d%d%d20%d%d,%d%d%d%d%d%d,R2,%d,%d:XX##\"\r\n",
                 ; 0000 013B                                           NUM_DISP,
                 ; 0000 013C                                                _dia1,_dia,
                 ; 0000 013D                                                _mes1,_mes,
                 ; 0000 013E                                                _an1,_an,
                 ; 0000 013F                                                    _hora1,hora,
                 ; 0000 0140                                                    _min1 ,minu,
                 ; 0000 0141                                                    _seg1 ,seg,
                 ; 0000 0142                                                       _num_ruta,aceptar  );
                +
001bc4 eae0     +LDI R30 , LOW ( 2 * _0x0 + ( 56 ) )
001bc5 e2fd     +LDI R31 , HIGH ( 2 * _0x0 + ( 56 ) )
                 	__POINTW1FN _0x0,56
001bc6 940e 26e6 	CALL SUBOPT_0x29
001bc8 940e 2720 	CALL SUBOPT_0x2A
001bca 91e0 054e 	LDS  R30,__min1
001bcc 940e 2720 	CALL SUBOPT_0x2A
001bce 940e 26ba 	CALL SUBOPT_0x21
001bd0 940e 2720 	CALL SUBOPT_0x2A
001bd2 91e0 054c 	LDS  R30,__seg1
001bd4 940e 2720 	CALL SUBOPT_0x2A
001bd6 940e 2686 	CALL SUBOPT_0x19
001bd8 940e 2720 	CALL SUBOPT_0x2A
001bda 91e0 0557 	LDS  R30,__num_ruta
001bdc 940e 2720 	CALL SUBOPT_0x2A
001bde 91e0 051d 	LDS  R30,_aceptar
001be0 940e 2720 	CALL SUBOPT_0x2A
001be2 e38c      	LDI  R24,60
001be3 940e 25b1 	CALL _printf
001be5 96ee      	ADIW R28,62
                 ; 0000 0143       }
001be6 9508      	RET
                 ;   //---------------------------------------------------------------------------//
                 ;
                 ;
                 ;   ////////////////// FUNCION PARA ENVIAR LOGIN AL SERVIDOR /////////////////
                 ;      /** \brief Envia inicio o fin de LOGIN del chofer para el calulo del recorrido
                 ;       *
                 ;       * Para el inicio de trama envia un numero que representa el ID del chofer
                 ;       * luego el estado. LOGIN/LOGOUT
                 ;       *
                 ;       */
                 ;      void envia_estado_login(){
                 ; 0000 014E void envia_estado_login(){
                 _envia_estado_login:
                 ; 0000 014F          printf("AT$TTSNDMG=4,\"$$BL%s,%d%d%d%d20%d%d,%d%d%d%d%d%d,S2,1234,%d:XX##\"\r\n",
                 ; 0000 0150                                        NUM_DISP,
                 ; 0000 0151                                             _dia1,_dia,
                 ; 0000 0152                                             _mes1,_mes,
                 ; 0000 0153                                             _an1,_an,
                 ; 0000 0154                                                 _hora1,hora,
                 ; 0000 0155                                                 _min1 ,minu,
                 ; 0000 0156                                                 _seg1 ,seg,
                 ; 0000 0157                                                   // id_conductor, 1234 temporalmente
                 ; 0000 0158                                                      _laborando  );
                +
001be7 eee2     +LDI R30 , LOW ( 2 * _0x0 + ( 122 ) )
001be8 e2fd     +LDI R31 , HIGH ( 2 * _0x0 + ( 122 ) )
                 	__POINTW1FN _0x0,122
001be9 940e 26e6 	CALL SUBOPT_0x29
001beb 940e 2720 	CALL SUBOPT_0x2A
001bed 91e0 054e 	LDS  R30,__min1
001bef 940e 2720 	CALL SUBOPT_0x2A
001bf1 940e 26ba 	CALL SUBOPT_0x21
001bf3 940e 2720 	CALL SUBOPT_0x2A
001bf5 91e0 054c 	LDS  R30,__seg1
001bf7 940e 2720 	CALL SUBOPT_0x2A
001bf9 940e 2686 	CALL SUBOPT_0x19
001bfb 940e 2720 	CALL SUBOPT_0x2A
001bfd 91e0 0558 	LDS  R30,__laborando
001bff 940e 2720 	CALL SUBOPT_0x2A
001c01 e388      	LDI  R24,56
001c02 940e 25b1 	CALL _printf
001c04 96ea      	ADIW R28,58
                 ; 0000 0159       }
001c05 9508      	RET
                 ;   //---------------------------------------------------------------------------//
                 ;
                 ;
                 ;   ////////////////// FUNCION DEL BOTON 1 (INICIO/FIN DE JORNADA) ///////////
                 ;      void boton1()
                 ; 0000 015F       {
                 _boton1:
                 ; 0000 0160          // Primera presion del botn
                 ; 0000 0161          if( BT1 == 0 && bandera1==0)
001c06 e0a0      	LDI  R26,0
001c07 9904      	SBIC 0x0,4
001c08 e0a1      	LDI  R26,1
001c09 30a0      	CPI  R26,LOW(0x0)
001c0a f419      	BRNE _0xF4
001c0b e0e0      	LDI  R30,LOW(0)
001c0c 15e9      	CP   R30,R9
001c0d f009      	BREQ _0xF5
                 _0xF4:
001c0e c046      	RJMP _0xF3
                 _0xF5:
                 ; 0000 0162          {
                 ; 0000 0163             btn1++;                          // Aumenta el contador del boton
001c0f 91e0 051e 	LDS  R30,_btn1
001c11 5fef      	SUBI R30,-LOW(1)
001c12 93e0 051e 	STS  _btn1,R30
                 ; 0000 0164             bandera1=1;                     // Evita que vuelva a entrar al mismo boton
001c14 e0e1      	LDI  R30,LOW(1)
001c15 2e9e      	MOV  R9,R30
                 ; 0000 0165 
                 ; 0000 0166             buzz();
001c16 940e 2726 	CALL SUBOPT_0x2B
                 ; 0000 0167             delay_ms( DELAY_BOTONES_MS );
                 ; 0000 0168 
                 ; 0000 0169             switch (btn1)
001c18 91e0 051e 	LDS  R30,_btn1
001c1a 940e 272e 	CALL SUBOPT_0x2C
                 ; 0000 016A             {
                 ; 0000 016B                // PRIMERA PRESION DEL BOTON
                 ; 0000 016C                case 1:
001c1c f4a9      	BRNE _0xF9
                 ; 0000 016D 
                 ; 0000 016E                   // Envia Inicio de sesion al servidor
                 ; 0000 016F                   pt=2;                             // Para q muestre en la glcd MENSAJE ENVIADO
001c1d e0e2      	LDI  R30,LOW(2)
001c1e 93e0 053c 	STS  _pt,R30
                 ; 0000 0170                   _laborando = 1;                  // INICIA SESION  ***
001c20 e0e1      	LDI  R30,LOW(1)
001c21 93e0 0558 	STS  __laborando,R30
                 ; 0000 0171                   envia_estado_login();
001c23 dfc3      	RCALL _envia_estado_login
                 ; 0000 0172                   // DEBE HABILITAR EL BOTON 4
                 ; 0000 0173 
                 ; 0000 0174                   // Muestra la RUTA A: primero y por defecto
                 ; 0000 0175                   btn2 = 1;
001c24 e0e1      	LDI  R30,LOW(1)
001c25 93e0 051f 	STS  _btn2,R30
                 ; 0000 0176 
                 ; 0000 0177                   //Muestra el chofer
                 ; 0000 0178                   bmp_disp(chofer,0,5,35,7);
001c27 940e 2733 	CALL SUBOPT_0x2D
001c29 940e 2738 	CALL SUBOPT_0x2E
001c2b 940e 273d 	CALL SUBOPT_0x2F
                 ; 0000 0179 
                 ; 0000 017A                   // Muestra la ruta
                 ; 0000 017B                   glcd_puts("RUTA:",44,7,0,1,-1);
                +
001c2d e0e0     +LDI R30 , LOW ( _0xFA + ( 0 ) )
001c2e e0f3     +LDI R31 , HIGH ( _0xFA + ( 0 ) )
                 	__POINTW1MN _0xFA,0
001c2f 940e 2747 	CALL SUBOPT_0x30
                 ; 0000 017C 
                 ; 0000 017D                break;
001c31 c022      	RJMP _0xF8
                 ; 0000 017E 
                 ; 0000 017F                // SEGUNDA PRESION DEL BOTON
                 ; 0000 0180                //solamente quita la ruta de la pantalla
                 ; 0000 0181                //no cierra sesion de la ruta actual
                 ; 0000 0182                case 2:
                 _0xF9:
001c32 30e2      	CPI  R30,LOW(0x2)
001c33 e0a0      	LDI  R26,HIGH(0x2)
001c34 07fa      	CPC  R31,R26
001c35 f4f1      	BRNE _0xF8
                 ; 0000 0183 
                 ; 0000 0184                   // Si esta en ruta no puede salir,
                 ; 0000 0185                   // Primero debe terminar la jornada
                 ; 0000 0186                   if( aceptar == 1)
001c36 91a0 051d 	LDS  R26,_aceptar
001c38 30a1      	CPI  R26,LOW(0x1)
001c39 f421      	BRNE _0xFC
                 ; 0000 0187                   {
                 ; 0000 0188                      btn1--;  // Como si an no lo hubiera presionado
001c3a 91e0 051e 	LDS  R30,_btn1
001c3c 50e1      	SUBI R30,LOW(1)
001c3d c014      	RJMP _0x1ED
                 ; 0000 0189                      break;
                 ; 0000 018A 
                 ; 0000 018B                      // Muestra mensaje que primero termine la carrera
                 ; 0000 018C 
                 ; 0000 018D                   }else{
                 _0xFC:
                 ; 0000 018E 
                 ; 0000 018F                      bmp_disp( vacio, 0, 5, 25, 7);   // Borra el chofer
001c3e 940e 2759 	CALL SUBOPT_0x31
001c40 940e 2738 	CALL SUBOPT_0x2E
001c42 940e 275e 	CALL SUBOPT_0x32
                 ; 0000 0190 
                 ; 0000 0191                      _laborando = 0;     // No se encuentra en laborando.
001c44 e0e0      	LDI  R30,LOW(0)
001c45 93e0 0558 	STS  __laborando,R30
                 ; 0000 0192                      pt=5;             // Muestra mensaje de FIN JORNADA  ***
001c47 e0e5      	LDI  R30,LOW(5)
001c48 93e0 053c 	STS  _pt,R30
                 ; 0000 0193                      envia_estado_login();
001c4a df9c      	RCALL _envia_estado_login
                 ; 0000 0194 
                 ; 0000 0195 
                 ; 0000 0196                      // Borra el caracter de la carrera
                 ; 0000 0197                      glcd_putchar(' ',79,7,0,1);
001c4b 940e 2768 	CALL SUBOPT_0x33
                 ; 0000 0198                      // Borra una trama de caracteres RUTA:
                 ; 0000 0199                      glcd_puts("      ",44,7,0,1,-1);
                +
001c4d e0e6     +LDI R30 , LOW ( _0xFA + ( 6 ) )
001c4e e0f3     +LDI R31 , HIGH ( _0xFA + ( 6 ) )
                 	__POINTW1MN _0xFA,6
001c4f 940e 2747 	CALL SUBOPT_0x30
                 ; 0000 019A 
                 ; 0000 019B                      // Reiniciliza el contador, siguiente presion btn = 1;
                 ; 0000 019C                      btn1 = 0;
001c51 e0e0      	LDI  R30,LOW(0)
                 _0x1ED:
001c52 93e0 051e 	STS  _btn1,R30
                 ; 0000 019D                   }
                 ; 0000 019E 
                 ; 0000 019F                break;
                 ; 0000 01A0 
                 ; 0000 01A1             }
                 _0xF8:
                 ; 0000 01A2          }
                 ; 0000 01A3 
                 ; 0000 01A4          // Cuando se levanta el boton del dedo levant la bandera
                 ; 0000 01A5          else if( BT1 == 1 && bandera1 == 1 )
001c54 c007      	RJMP _0xFE
                 _0xF3:
001c55 9b04      	SBIS 0x0,4
001c56 c003      	RJMP _0x100
001c57 e0e1      	LDI  R30,LOW(1)
001c58 15e9      	CP   R30,R9
001c59 f009      	BREQ _0x101
                 _0x100:
001c5a c001      	RJMP _0xFF
                 _0x101:
                 ; 0000 01A6          {
                 ; 0000 01A7             bandera1=0;
001c5b 2499      	CLR  R9
                 ; 0000 01A8          }
                 ; 0000 01A9       }
                 _0xFF:
                 _0xFE:
001c5c 9508      	RET
                 
                 	.DSEG
                 _0xFA:
000300           	.BYTE 0xD
                 ;   //---------------------------------------------------------------------------//
                 ;
                 ;
                 ;   ////////////////// FUNCION DEL BOTON 2 (ESCOGER RUTA AUMENTAR LETRA) /////
                 ;      void boton2(){
                 ; 0000 01AE void boton2(){
                 
                 	.CSEG
                 _boton2:
                 ; 0000 01AF 
                 ; 0000 01B0          // Si se presiona el boton dos, luego de haber presionado el boton
                 ; 0000 01B1          // uno, una vez. Y an no se ha aceptado carrera
                 ; 0000 01B2          if( BT2 == 0 && bandera2==0 && aceptar == 0 && _laborando == 1 )
001c5d e0a0      	LDI  R26,0
001c5e 9903      	SBIC 0x0,3
001c5f e0a1      	LDI  R26,1
001c60 30a0      	CPI  R26,LOW(0x0)
001c61 f459      	BRNE _0x103
001c62 e0e0      	LDI  R30,LOW(0)
001c63 15ec      	CP   R30,R12
001c64 f441      	BRNE _0x103
001c65 91a0 051d 	LDS  R26,_aceptar
001c67 30a0      	CPI  R26,LOW(0x0)
001c68 f421      	BRNE _0x103
001c69 91a0 0558 	LDS  R26,__laborando
001c6b 30a1      	CPI  R26,LOW(0x1)
001c6c f009      	BREQ _0x104
                 _0x103:
001c6d c015      	RJMP _0x102
                 _0x104:
                 ; 0000 01B3          {
                 ; 0000 01B4             btn2++;
001c6e 91e0 051f 	LDS  R30,_btn2
001c70 5fef      	SUBI R30,-LOW(1)
001c71 93e0 051f 	STS  _btn2,R30
                 ; 0000 01B5             buzz();
001c73 df34      	RCALL _buzz
                 ; 0000 01B6             bandera2 = 1;
001c74 e0e1      	LDI  R30,LOW(1)
001c75 2ece      	MOV  R12,R30
                 ; 0000 01B7 
                 ; 0000 01B8             if( btn2 > 12 && btn2 != 15)
001c76 91a0 051f 	LDS  R26,_btn2
001c78 30ad      	CPI  R26,LOW(0xD)
001c79 f010      	BRLO _0x106
001c7a 30af      	CPI  R26,LOW(0xF)
001c7b f409      	BRNE _0x107
                 _0x106:
001c7c c003      	RJMP _0x105
                 _0x107:
                 ; 0000 01B9                btn2 = 1;
001c7d e0e1      	LDI  R30,LOW(1)
001c7e 93e0 051f 	STS  _btn2,R30
                 ; 0000 01BA 
                 ; 0000 01BB             delay_ms(DELAY_BOTONES_MS);
                 _0x105:
001c80 940e 2778 	CALL SUBOPT_0x34
                 ; 0000 01BC          }
                 ; 0000 01BD 
                 ; 0000 01BE 
                 ; 0000 01BF          // Luego de presionar el boton, puede volver a presionarlo.
                 ; 0000 01C0          else if(BT2==1 && bandera2==1)
001c82 c007      	RJMP _0x108
                 _0x102:
001c83 9b03      	SBIS 0x0,3
001c84 c003      	RJMP _0x10A
001c85 e0e1      	LDI  R30,LOW(1)
001c86 15ec      	CP   R30,R12
001c87 f009      	BREQ _0x10B
                 _0x10A:
001c88 c001      	RJMP _0x109
                 _0x10B:
                 ; 0000 01C1          {
                 ; 0000 01C2             bandera2=0;
001c89 24cc      	CLR  R12
                 ; 0000 01C3          }
                 ; 0000 01C4 
                 ; 0000 01C5 
                 ; 0000 01C6          // El switch lo hace constantemente, ya que esta en el main y
                 ; 0000 01C7          // no depende de ningun IF
                 ; 0000 01C8 
                 ; 0000 01C9          switch (btn2){
                 _0x109:
                 _0x108:
001c8a 91e0 051f 	LDS  R30,_btn2
001c8c 940e 272e 	CALL SUBOPT_0x2C
                 ; 0000 01CA             case 1:
001c8e f411      	BRNE _0x10F
                 ; 0000 01CB               ruta_aux='A';
001c8f e4e1      	LDI  R30,LOW(65)
001c90 c047      	RJMP _0x1EE
                 ; 0000 01CC 
                 ; 0000 01CD               break;
                 ; 0000 01CE             case 2:
                 _0x10F:
001c91 30e2      	CPI  R30,LOW(0x2)
001c92 e0a0      	LDI  R26,HIGH(0x2)
001c93 07fa      	CPC  R31,R26
001c94 f411      	BRNE _0x110
                 ; 0000 01CF               ruta_aux='B';
001c95 e4e2      	LDI  R30,LOW(66)
001c96 c041      	RJMP _0x1EE
                 ; 0000 01D0 
                 ; 0000 01D1             break;
                 ; 0000 01D2             case 3:
                 _0x110:
001c97 30e3      	CPI  R30,LOW(0x3)
001c98 e0a0      	LDI  R26,HIGH(0x3)
001c99 07fa      	CPC  R31,R26
001c9a f411      	BRNE _0x111
                 ; 0000 01D3               ruta_aux='C';
001c9b e4e3      	LDI  R30,LOW(67)
001c9c c03b      	RJMP _0x1EE
                 ; 0000 01D4 
                 ; 0000 01D5             break;
                 ; 0000 01D6             case 4:
                 _0x111:
001c9d 30e4      	CPI  R30,LOW(0x4)
001c9e e0a0      	LDI  R26,HIGH(0x4)
001c9f 07fa      	CPC  R31,R26
001ca0 f411      	BRNE _0x112
                 ; 0000 01D7               ruta_aux='D';
001ca1 e4e4      	LDI  R30,LOW(68)
001ca2 c035      	RJMP _0x1EE
                 ; 0000 01D8 
                 ; 0000 01D9             break;
                 ; 0000 01DA             case 5:
                 _0x112:
001ca3 30e5      	CPI  R30,LOW(0x5)
001ca4 e0a0      	LDI  R26,HIGH(0x5)
001ca5 07fa      	CPC  R31,R26
001ca6 f411      	BRNE _0x113
                 ; 0000 01DB               ruta_aux='E';
001ca7 e4e5      	LDI  R30,LOW(69)
001ca8 c02f      	RJMP _0x1EE
                 ; 0000 01DC             break;
                 ; 0000 01DD             case 6:
                 _0x113:
001ca9 30e6      	CPI  R30,LOW(0x6)
001caa e0a0      	LDI  R26,HIGH(0x6)
001cab 07fa      	CPC  R31,R26
001cac f411      	BRNE _0x114
                 ; 0000 01DE               ruta_aux='F';
001cad e4e6      	LDI  R30,LOW(70)
001cae c029      	RJMP _0x1EE
                 ; 0000 01DF 
                 ; 0000 01E0             break;
                 ; 0000 01E1             case 7:
                 _0x114:
001caf 30e7      	CPI  R30,LOW(0x7)
001cb0 e0a0      	LDI  R26,HIGH(0x7)
001cb1 07fa      	CPC  R31,R26
001cb2 f411      	BRNE _0x115
                 ; 0000 01E2               ruta_aux='G';
001cb3 e4e7      	LDI  R30,LOW(71)
001cb4 c023      	RJMP _0x1EE
                 ; 0000 01E3 
                 ; 0000 01E4             break;
                 ; 0000 01E5             case 8:
                 _0x115:
001cb5 30e8      	CPI  R30,LOW(0x8)
001cb6 e0a0      	LDI  R26,HIGH(0x8)
001cb7 07fa      	CPC  R31,R26
001cb8 f411      	BRNE _0x116
                 ; 0000 01E6               ruta_aux='H';
001cb9 e4e8      	LDI  R30,LOW(72)
001cba c01d      	RJMP _0x1EE
                 ; 0000 01E7 
                 ; 0000 01E8             break;
                 ; 0000 01E9             case 9:
                 _0x116:
001cbb 30e9      	CPI  R30,LOW(0x9)
001cbc e0a0      	LDI  R26,HIGH(0x9)
001cbd 07fa      	CPC  R31,R26
001cbe f411      	BRNE _0x117
                 ; 0000 01EA               ruta_aux='I';
001cbf e4e9      	LDI  R30,LOW(73)
001cc0 c017      	RJMP _0x1EE
                 ; 0000 01EB 
                 ; 0000 01EC             break;
                 ; 0000 01ED             case 10:
                 _0x117:
001cc1 30ea      	CPI  R30,LOW(0xA)
001cc2 e0a0      	LDI  R26,HIGH(0xA)
001cc3 07fa      	CPC  R31,R26
001cc4 f411      	BRNE _0x118
                 ; 0000 01EE               ruta_aux='J';
001cc5 e4ea      	LDI  R30,LOW(74)
001cc6 c011      	RJMP _0x1EE
                 ; 0000 01EF 
                 ; 0000 01F0             break;
                 ; 0000 01F1             case 11:
                 _0x118:
001cc7 30eb      	CPI  R30,LOW(0xB)
001cc8 e0a0      	LDI  R26,HIGH(0xB)
001cc9 07fa      	CPC  R31,R26
001cca f411      	BRNE _0x119
                 ; 0000 01F2               ruta_aux='K';
001ccb e4eb      	LDI  R30,LOW(75)
001ccc c00b      	RJMP _0x1EE
                 ; 0000 01F3 
                 ; 0000 01F4             break;
                 ; 0000 01F5             case 12:
                 _0x119:
001ccd 30ec      	CPI  R30,LOW(0xC)
001cce e0a0      	LDI  R26,HIGH(0xC)
001ccf 07fa      	CPC  R31,R26
001cd0 f411      	BRNE _0x11A
                 ; 0000 01F6               ruta_aux='L';
001cd1 e4ec      	LDI  R30,LOW(76)
001cd2 c005      	RJMP _0x1EE
                 ; 0000 01F7 
                 ; 0000 01F8             break;
                 ; 0000 01F9             case 15:
                 _0x11A:
001cd3 30ef      	CPI  R30,LOW(0xF)
001cd4 e0a0      	LDI  R26,HIGH(0xF)
001cd5 07fa      	CPC  R31,R26
001cd6 f411      	BRNE _0x10E
                 ; 0000 01FA               ruta_aux=' ';  // Carrera vacia
001cd7 e2e0      	LDI  R30,LOW(32)
                 _0x1EE:
001cd8 2eae      	MOV  R10,R30
                 ; 0000 01FB             break;
                 ; 0000 01FC          }
                 _0x10E:
                 ; 0000 01FD       }
001cd9 9508      	RET
                 ;   //---------------------------------------------------------------------------//
                 ;
                 ;
                 ;   ////////////////// FUNCION DEL BOTON 3 (ESCOGER RUTA DECREMENTAR LETRA) //
                 ;      void boton3()
                 ; 0000 0203       {     //Boton 3
                 _boton3:
                 ; 0000 0204          if( BT3 == 0 && bandera3 == 0 && aceptar == 0 && _laborando == 1)
001cda e0a0      	LDI  R26,0
001cdb 9902      	SBIC 0x0,2
001cdc e0a1      	LDI  R26,1
001cdd 30a0      	CPI  R26,LOW(0x0)
001cde f459      	BRNE _0x11D
001cdf e0e0      	LDI  R30,LOW(0)
001ce0 15eb      	CP   R30,R11
001ce1 f441      	BRNE _0x11D
001ce2 91a0 051d 	LDS  R26,_aceptar
001ce4 30a0      	CPI  R26,LOW(0x0)
001ce5 f421      	BRNE _0x11D
001ce6 91a0 0558 	LDS  R26,__laborando
001ce8 30a1      	CPI  R26,LOW(0x1)
001ce9 f009      	BREQ _0x11E
                 _0x11D:
001cea c015      	RJMP _0x11C
                 _0x11E:
                 ; 0000 0205          {
                 ; 0000 0206             btn2--;
001ceb 91e0 051f 	LDS  R30,_btn2
001ced 50e1      	SUBI R30,LOW(1)
001cee 93e0 051f 	STS  _btn2,R30
                 ; 0000 0207             buzz();
001cf0 deb7      	RCALL _buzz
                 ; 0000 0208             bandera3=1;
001cf1 e0e1      	LDI  R30,LOW(1)
001cf2 2ebe      	MOV  R11,R30
                 ; 0000 0209             if(btn2<=0 && btn2!=15)
001cf3 91a0 051f 	LDS  R26,_btn2
001cf5 30a0      	CPI  R26,0
001cf6 f411      	BRNE _0x120
001cf7 30af      	CPI  R26,LOW(0xF)
001cf8 f409      	BRNE _0x121
                 _0x120:
001cf9 c003      	RJMP _0x11F
                 _0x121:
                 ; 0000 020A                btn2=12;
001cfa e0ec      	LDI  R30,LOW(12)
001cfb 93e0 051f 	STS  _btn2,R30
                 ; 0000 020B             delay_ms(200);
                 _0x11F:
001cfd 940e 2778 	CALL SUBOPT_0x34
                 ; 0000 020C          }
                 ; 0000 020D          else if(BT3==1 && bandera3==1){
001cff c007      	RJMP _0x122
                 _0x11C:
001d00 9b02      	SBIS 0x0,2
001d01 c003      	RJMP _0x124
001d02 e0e1      	LDI  R30,LOW(1)
001d03 15eb      	CP   R30,R11
001d04 f009      	BREQ _0x125
                 _0x124:
001d05 c001      	RJMP _0x123
                 _0x125:
                 ; 0000 020E             bandera3=0;
001d06 24bb      	CLR  R11
                 ; 0000 020F          }
                 ; 0000 0210       }
                 _0x123:
                 _0x122:
001d07 9508      	RET
                 ;   //---------------------------------------------------------------------------//
                 ;
                 ;
                 ;   ////////////////// FUNCION DEL BOTON 4 (INICIO/FIN DE RUTA) //////////////
                 ;      void boton4()
                 ; 0000 0216       {     //Boton 4
                 _boton4:
                 ; 0000 0217 
                 ; 0000 0218          // Primera presinn del boton 4. Acepta la carrera.
                 ; 0000 0219          if ( BT4 == 0 && bandera4 == 0 && _laborando == 1  )
001d08 e0a0      	LDI  R26,0
001d09 9901      	SBIC 0x0,1
001d0a e0a1      	LDI  R26,1
001d0b 30a0      	CPI  R26,LOW(0x0)
001d0c f439      	BRNE _0x127
001d0d e0e0      	LDI  R30,LOW(0)
001d0e 15ee      	CP   R30,R14
001d0f f421      	BRNE _0x127
001d10 91a0 0558 	LDS  R26,__laborando
001d12 30a1      	CPI  R26,LOW(0x1)
001d13 f009      	BREQ _0x128
                 _0x127:
001d14 c02a      	RJMP _0x126
                 _0x128:
                 ; 0000 021A          {
                 ; 0000 021B             bandera4++;           // Evita reentrada
001d15 94e3      	INC  R14
                 ; 0000 021C             btn4++;              // Incrementa conteo de presiones del boton
001d16 91e0 0520 	LDS  R30,_btn4
001d18 5fef      	SUBI R30,-LOW(1)
001d19 93e0 0520 	STS  _btn4,R30
                 ; 0000 021D             ruta = ruta_aux;    // Actualiza la ruta
001d1b 2c7a      	MOV  R7,R10
                 ; 0000 021E 
                 ; 0000 021F             buzz();
001d1c 940e 2726 	CALL SUBOPT_0x2B
                 ; 0000 0220             delay_ms(200);
                 ; 0000 0221 
                 ; 0000 0222             switch(btn4){
001d1e 91e0 0520 	LDS  R30,_btn4
001d20 940e 272e 	CALL SUBOPT_0x2C
                 ; 0000 0223 
                 ; 0000 0224                case 1:
001d22 f441      	BRNE _0x12C
                 ; 0000 0225                   aceptar = 1;        //Ha aceptado la carrera
001d23 e0e1      	LDI  R30,LOW(1)
001d24 93e0 051d 	STS  _aceptar,R30
                 ; 0000 0226                   pt=4;              // Muestra RUTA ACPETADA
001d26 e0e4      	LDI  R30,LOW(4)
001d27 93e0 053c 	STS  _pt,R30
                 ; 0000 0227                   enviar_estado_ruta();
001d29 de96      	RCALL _enviar_estado_ruta
                 ; 0000 0228 
                 ; 0000 0229                break;
001d2a c013      	RJMP _0x12B
                 ; 0000 022A 
                 ; 0000 022B                case 2:
                 _0x12C:
001d2b 30e2      	CPI  R30,LOW(0x2)
001d2c e0a0      	LDI  R26,HIGH(0x2)
001d2d 07fa      	CPC  R31,R26
001d2e f479      	BRNE _0x12B
                 ; 0000 022C                   btn2    = 15;     // Borra el caracter de ruta
001d2f e0ef      	LDI  R30,LOW(15)
001d30 93e0 051f 	STS  _btn2,R30
                 ; 0000 022D                   aceptar = 0;     // Fin de la ruta
001d32 e0e0      	LDI  R30,LOW(0)
001d33 93e0 051d 	STS  _aceptar,R30
                 ; 0000 022E                   pt=3;           // Muestra FIN RUTA
001d35 e0e3      	LDI  R30,LOW(3)
001d36 93e0 053c 	STS  _pt,R30
                 ; 0000 022F                   enviar_estado_ruta();
001d38 de87      	RCALL _enviar_estado_ruta
                 ; 0000 0230                   ruta=' ';      // Cambia la ruta a Vacia
001d39 e2e0      	LDI  R30,LOW(32)
001d3a 2e7e      	MOV  R7,R30
                 ; 0000 0231 
                 ; 0000 0232                   btn4 = 0;     // Reinicializa el cntador
001d3b e0e0      	LDI  R30,LOW(0)
001d3c 93e0 0520 	STS  _btn4,R30
                 ; 0000 0233                break;
                 ; 0000 0234             }
                 _0x12B:
                 ; 0000 0235          }
                 ; 0000 0236 
                 ; 0000 0237 
                 ; 0000 0238          // si se ha presionado el boton cuatro por tercera vez
                 ; 0000 0239          else if(BT4 == 1 && bandera4 == 1)
001d3e c007      	RJMP _0x12E
                 _0x126:
001d3f 9b01      	SBIS 0x0,1
001d40 c003      	RJMP _0x130
001d41 e0e1      	LDI  R30,LOW(1)
001d42 15ee      	CP   R30,R14
001d43 f009      	BREQ _0x131
                 _0x130:
001d44 c001      	RJMP _0x12F
                 _0x131:
                 ; 0000 023A          {
                 ; 0000 023B             bandera4 = 0;
001d45 24ee      	CLR  R14
                 ; 0000 023C          }
                 ; 0000 023D       }
                 _0x12F:
                 _0x12E:
001d46 9508      	RET
                 ;   //---------------------------------------------------------------------------//
                 ;
                 ;
                 ;   ////////////////// FUNCION DEL BOTON 5 (ESTADO MECANICO) /////////////////
                 ;      void boton5(){
                 ; 0000 0242 void boton5(){
                 ; 0000 0243 
                 ; 0000 0244          btn5++;
                 ; 0000 0245          bandera5++;
                 ; 0000 0246 
                 ; 0000 0247          buzz();
                 ; 0000 0248          delay_ms( DELAY_BOTONES_MS );
                 ; 0000 0249 
                 ; 0000 024A          switch( btn5 ){
                 ; 0000 024B 
                 ; 0000 024C             case 1:
                 ; 0000 024D                //envia estado mecanico 1:
                 ; 0000 024E             break;
                 ; 0000 024F 
                 ; 0000 0250             case 2:
                 ; 0000 0251                //envia estado mecanico 1:
                 ; 0000 0252             break;
                 ; 0000 0253 
                 ; 0000 0254             case 3:
                 ; 0000 0255                //envia estado mecanico 1:
                 ; 0000 0256             break;
                 ; 0000 0257 
                 ; 0000 0258             case 4:
                 ; 0000 0259                //envia estado mecanico 1:
                 ; 0000 025A             break;
                 ; 0000 025B 
                 ; 0000 025C             case 5:
                 ; 0000 025D                //envia estado mecanico 1:
                 ; 0000 025E             break;
                 ; 0000 025F 
                 ; 0000 0260             case 6:
                 ; 0000 0261                //envia estado mecanico 1:
                 ; 0000 0262             break;
                 ; 0000 0263 
                 ; 0000 0264             case 7:
                 ; 0000 0265                //envia estado mecanico 1:
                 ; 0000 0266             break;
                 ; 0000 0267 
                 ; 0000 0268             case 8:
                 ; 0000 0269                //envia estado mecanico 1:
                 ; 0000 026A             break;
                 ; 0000 026B 
                 ; 0000 026C             case 9:
                 ; 0000 026D                //envia estado mecanico 1:
                 ; 0000 026E             break;
                 ; 0000 026F 
                 ; 0000 0270             case 10:
                 ; 0000 0271                //envia estado mecanico 1:
                 ; 0000 0272             break;
                 ; 0000 0273 
                 ; 0000 0274             case 11:
                 ; 0000 0275                //envia estado mecanico 1:
                 ; 0000 0276                btn5 = 0;
                 ; 0000 0277             break;
                 ; 0000 0278          }
                 ; 0000 0279 
                 ; 0000 027A       }
                 ;   //---------------------------------------------------------------------------//
                 ;
                 ;
                 ;   ////////////////// DIBUJAR BARRAS DE SENAL GPRS //////////////////////////
                 ;      void dibujar_senal(void)
                 ; 0000 0280       {
                 _dibujar_senal:
                 ; 0000 0281           switch (ind_sen){
001d47 91e0 0526 	LDS  R30,_ind_sen
001d49 91f0 0527 	LDS  R31,_ind_sen+1
                 ; 0000 0282           case 1:
001d4b 30e1      	CPI  R30,LOW(0x1)
001d4c e0a0      	LDI  R26,HIGH(0x1)
001d4d 07fa      	CPC  R31,R26
001d4e f419      	BRNE _0x143
                 ; 0000 0283           bmp_disp(GSM3,0,0,20,1);
001d4f e2e0      	LDI  R30,LOW(_GSM3*2)
001d50 e2fb      	LDI  R31,HIGH(_GSM3*2)
001d51 c014      	RJMP _0x1EF
                 ; 0000 0284           break;
                 ; 0000 0285           case 2:
                 _0x143:
001d52 30e2      	CPI  R30,LOW(0x2)
001d53 e0a0      	LDI  R26,HIGH(0x2)
001d54 07fa      	CPC  R31,R26
001d55 f419      	BRNE _0x144
                 ; 0000 0286           bmp_disp(GSM2,0,0,20,1);
001d56 efe0      	LDI  R30,LOW(_GSM2*2)
001d57 e2f9      	LDI  R31,HIGH(_GSM2*2)
001d58 c00d      	RJMP _0x1EF
                 ; 0000 0287           break;
                 ; 0000 0288           case 3:
                 _0x144:
001d59 30e3      	CPI  R30,LOW(0x3)
001d5a e0a0      	LDI  R26,HIGH(0x3)
001d5b 07fa      	CPC  R31,R26
001d5c f419      	BRNE _0x145
                 ; 0000 0289           bmp_disp(GSM1,0,0,20,1);
001d5d efe0      	LDI  R30,LOW(_GSM1*2)
001d5e e2f5      	LDI  R31,HIGH(_GSM1*2)
001d5f c006      	RJMP _0x1EF
                 ; 0000 028A           break;
                 ; 0000 028B           case 4:
                 _0x145:
001d60 30e4      	CPI  R30,LOW(0x4)
001d61 e0a0      	LDI  R26,HIGH(0x4)
001d62 07fa      	CPC  R31,R26
001d63 f469      	BRNE _0x142
                 ; 0000 028C           bmp_disp(GSM4,0,0,20,1);
001d64 e5e0      	LDI  R30,LOW(_GSM4*2)
001d65 e2fc      	LDI  R31,HIGH(_GSM4*2)
                 _0x1EF:
001d66 93fa      	ST   -Y,R31
001d67 93ea      	ST   -Y,R30
001d68 940e 25ef 	CALL SUBOPT_0x2
001d6a 940e 25ef 	CALL SUBOPT_0x2
001d6c 940e 277e 	CALL SUBOPT_0x35
001d6e 940e 2783 	CALL SUBOPT_0x36
001d70 dd19      	RCALL _bmp_disp
                 ; 0000 028D           break;
                 ; 0000 028E           };
                 _0x142:
                 ; 0000 028F 
                 ; 0000 0290       }
001d71 9508      	RET
                 ;   //---------------------------------------------------------------------------//
                 ;
                 ;
                 ;   //////////////// FUNCION PARA OBTENER LA TRAMA DEL GPS SKYPATROL+ ///////////////////////////
                 ;      void obt(void)
                 ; 0000 0296       {
                 _obt:
                 ; 0000 0297 
                 ; 0000 0298          int i;                        // Contador de lazo FOR() buffer serial
                 ; 0000 0299          int j;                       // Contador de ??
                 ; 0000 029A          int n=0;                    //
                 ; 0000 029B          int ini;
                 ; 0000 029C          int coma=0;
                 ; 0000 029D          int pos1=0;
                 ; 0000 029E          int pos2=0;
                 ; 0000 029F          int pos3=0;
                 ; 0000 02A0          int barras;
                 ; 0000 02A1          int n1,n2,n3,n4; // Variables para Hora, sirven para -5 UTC de Ecuador
                 ; 0000 02A2 
                 ; 0000 02A3          char digito_hora_temp; //Variable temporal para la hora y fecha
                 ; 0000 02A4 
                 ; 0000 02A5          for (i=0; i<RX_BUFFER_SIZE0 ;i++)
001d72 9765      	SBIW R28,21
001d73 e0e0      	LDI  R30,LOW(0)
001d74 87eb      	STD  Y+11,R30
001d75 87ec      	STD  Y+12,R30
001d76 87ed      	STD  Y+13,R30
001d77 87ee      	STD  Y+14,R30
001d78 87ef      	STD  Y+15,R30
001d79 8be8      	STD  Y+16,R30
001d7a 8be9      	STD  Y+17,R30
001d7b 8bea      	STD  Y+18,R30
001d7c 940e 295d 	CALL __SAVELOCR6
                 ;	i -> R16,R17
                 ;	j -> R18,R19
                 ;	n -> R20,R21
                 ;	ini -> Y+25
                 ;	coma -> Y+23
                 ;	pos1 -> Y+21
                 ;	pos2 -> Y+19
                 ;	pos3 -> Y+17
                 ;	barras -> Y+15
                 ;	n1 -> Y+13
                 ;	n2 -> Y+11
                 ;	n3 -> Y+9
                 ;	n4 -> Y+7
                 ;	digito_hora_temp -> Y+6
                +
001d7e e040     +LDI R20 , LOW ( 0 )
001d7f e050     +LDI R21 , HIGH ( 0 )
                 	__GETWRN 20,21,0
                +
001d80 e000     +LDI R16 , LOW ( 0 )
001d81 e010     +LDI R17 , HIGH ( 0 )
                 	__GETWRN 16,17,0
                 _0x148:
                +
001d82 3c08     +CPI R16 , LOW ( 200 )
001d83 e0e0     +LDI R30 , HIGH ( 200 )
001d84 071e     +CPC R17 , R30
                 	__CPWRN 16,17,200
001d85 f014      	BRLT PC+3
001d86 940c 20b0 	JMP _0x149
                 ; 0000 02A6          {
                 ; 0000 02A7 
                 ; 0000 02A8             // $$Txt,   Mensaje para mostrar en la GLCD.
                 ; 0000 02A9             if ( rx_b0[i+0]== '$' &&
                 ; 0000 02AA                   rx_b0[i+1]== '$' &&
                 ; 0000 02AB                    rx_b0[i+2]== 'T' &&
                 ; 0000 02AC                     rx_b0[i+3]== 'x' &&
                 ; 0000 02AD                      rx_b0[i+4]== 't' &&
                 ; 0000 02AE                       rx_b0[i+5]== ',')
001d88 940e 2788 	CALL SUBOPT_0x37
001d8a 32a4      	CPI  R26,LOW(0x24)
001d8b f4b1      	BRNE _0x14B
001d8c 940e 278d 	CALL SUBOPT_0x38
001d8e 32a4      	CPI  R26,LOW(0x24)
001d8f f491      	BRNE _0x14B
001d90 940e 2792 	CALL SUBOPT_0x39
001d92 35a4      	CPI  R26,LOW(0x54)
001d93 f471      	BRNE _0x14B
001d94 940e 2797 	CALL SUBOPT_0x3A
001d96 37a8      	CPI  R26,LOW(0x78)
001d97 f451      	BRNE _0x14B
001d98 940e 279c 	CALL SUBOPT_0x3B
001d9a 37a4      	CPI  R26,LOW(0x74)
001d9b f431      	BRNE _0x14B
001d9c 01f8      	MOVW R30,R16
                +
001d9d 55e0     +SUBI R30 , LOW ( - _rx_b0 - ( 5 ) )
001d9e 4ffc     +SBCI R31 , HIGH ( - _rx_b0 - ( 5 ) )
                 	__ADDW1MN _rx_b0,5
001d9f 81a0      	LD   R26,Z
001da0 32ac      	CPI  R26,LOW(0x2C)
001da1 f009      	BREQ _0x14C
                 _0x14B:
001da2 c02e      	RJMP _0x14A
                 _0x14C:
                 ; 0000 02AF             {
                 ; 0000 02B0                // Guarda lo que hay entre las comillas en el
                 ; 0000 02B1                // buffer txt_glcd
                 ; 0000 02B2                i_txt_glcd = 0;
001da3 2444      	CLR  R4
                 ; 0000 02B3 
                 ; 0000 02B4                do
                 _0x14E:
                 ; 0000 02B5                {
                 ; 0000 02B6                   if (i_txt_glcd <= TXT_BUF_SZ )
001da4 eae0      	LDI  R30,LOW(160)
001da5 15e4      	CP   R30,R4
001da6 f090      	BRLO _0x150
                 ; 0000 02B7                   {
                 ; 0000 02B8 
                 ; 0000 02B9                      txt_glcd_b0[ i_txt_glcd ] = rx_b0[ i+6 + i_txt_glcd ];
001da7 2de4      	MOV  R30,R4
001da8 e0f0      	LDI  R31,0
001da9 01bf      	MOVW R22,R30
001daa 58ed      	SUBI R30,LOW(-_txt_glcd_b0)
001dab 4ffb      	SBCI R31,HIGH(-_txt_glcd_b0)
001dac 010f      	MOVW R0,R30
001dad 01d8      	MOVW R26,R16
001dae 9616      	ADIW R26,6
001daf 01fb      	MOVW R30,R22
001db0 0fea      	ADD  R30,R26
001db1 1ffb      	ADC  R31,R27
001db2 55e5      	SUBI R30,LOW(-_rx_b0)
001db3 4ffc      	SBCI R31,HIGH(-_rx_b0)
001db4 81e0      	LD   R30,Z
001db5 01d0      	MOVW R26,R0
001db6 93ec      	ST   X,R30
                 ; 0000 02BA                      i_txt_glcd++;
001db7 9443      	INC  R4
                 ; 0000 02BB 
                 ; 0000 02BC                   }else{  // Mas de 100 caracteres recibidos. Romper el while
001db8 c00b      	RJMP _0x151
                 _0x150:
                 ; 0000 02BD 
                 ; 0000 02BE                      i_txt_overflow = 1;  //Legaron mas de 100 Caracteres
001db9 e0e1      	LDI  R30,LOW(1)
001dba 2e3e      	MOV  R3,R30
                 ; 0000 02BF 
                 ; 0000 02C0                      rx_b0[ i+6 + i_txt_glcd ] = ',';//Obliga a salir del while:
001dbb 01d8      	MOVW R26,R16
001dbc 9616      	ADIW R26,6
001dbd 2de4      	MOV  R30,R4
001dbe 940e 262e 	CALL SUBOPT_0xC
001dc0 55e5      	SUBI R30,LOW(-_rx_b0)
001dc1 4ffc      	SBCI R31,HIGH(-_rx_b0)
001dc2 e2ac      	LDI  R26,LOW(44)
001dc3 83a0      	STD  Z+0,R26
                 ; 0000 02C1                   }
                 _0x151:
                 ; 0000 02C2 
                 ; 0000 02C3                }while( rx_b0[ i+6 + i_txt_glcd ] != ',' ); // Mientras el caracter no sea com
001dc4 01d8      	MOVW R26,R16
001dc5 9616      	ADIW R26,6
001dc6 2de4      	MOV  R30,R4
001dc7 940e 262e 	CALL SUBOPT_0xC
001dc9 55e5      	SUBI R30,LOW(-_rx_b0)
001dca 4ffc      	SBCI R31,HIGH(-_rx_b0)
001dcb 81a0      	LD   R26,Z
001dcc 32ac      	CPI  R26,LOW(0x2C)
001dcd f6b1      	BRNE _0x14E
                 ; 0000 02C4 
                 ; 0000 02C5                pt = 7;          // Muestra en mensaje en main()
001dce e0e7      	LDI  R30,LOW(7)
001dcf 93e0 053c 	STS  _pt,R30
                 ; 0000 02C6             }
                 ; 0000 02C7 
                 ; 0000 02C8             //+CSQ:
                 ; 0000 02C9             if ( rx_b0[i+0]== '+' &&    //43d
                 _0x14A:
                 ; 0000 02CA                   rx_b0[i+1]== 'C' &&     //67d
                 ; 0000 02CB                    rx_b0[i+2]== 'S' &&    //83d
                 ; 0000 02CC                     rx_b0[i+3]== 'Q' &&   //81d
                 ; 0000 02CD                      rx_b0[i+4]== ':')    //58d
001dd1 940e 2788 	CALL SUBOPT_0x37
001dd3 32ab      	CPI  R26,LOW(0x2B)
001dd4 f481      	BRNE _0x153
001dd5 940e 278d 	CALL SUBOPT_0x38
001dd7 34a3      	CPI  R26,LOW(0x43)
001dd8 f461      	BRNE _0x153
001dd9 940e 2792 	CALL SUBOPT_0x39
001ddb 35a3      	CPI  R26,LOW(0x53)
001ddc f441      	BRNE _0x153
001ddd 940e 2797 	CALL SUBOPT_0x3A
001ddf 35a1      	CPI  R26,LOW(0x51)
001de0 f421      	BRNE _0x153
001de1 940e 279c 	CALL SUBOPT_0x3B
001de3 33aa      	CPI  R26,LOW(0x3A)
001de4 f009      	BREQ _0x154
                 _0x153:
001de5 c046      	RJMP _0x152
                 _0x154:
                 ; 0000 02CE             {
                 ; 0000 02CF               // Valor decimal de la intensidad de la seal
                 ; 0000 02D0               barras = ((rx_b0[i+6]-48)*10)+(rx_b0[i+7]-48);
001de6 01f8      	MOVW R30,R16
001de7 940e 27a1 	CALL SUBOPT_0x3C
001de9 e0aa      	LDI  R26,LOW(10)
001dea e0b0      	LDI  R27,HIGH(10)
001deb 940e 28f3 	CALL __MULW12
001ded 01df      	MOVW R26,R30
001dee 01f8      	MOVW R30,R16
001def 940e 27a7 	CALL SUBOPT_0x3D
001df1 0fea      	ADD  R30,R26
001df2 1ffb      	ADC  R31,R27
001df3 87ef      	STD  Y+15,R30
001df4 8bf8      	STD  Y+15+1,R31
                 ; 0000 02D1 
                 ; 0000 02D2               // Dibuja las barras en la panalla de acuerdo a la intensidad
                 ; 0000 02D3               // de la seal
                 ; 0000 02D4               if( barras > 10 && barras < 15 ){
001df5 85af      	LDD  R26,Y+15
001df6 89b8      	LDD  R27,Y+15+1
001df7 971b      	SBIW R26,11
001df8 f024      	BRLT _0x156
001df9 85af      	LDD  R26,Y+15
001dfa 89b8      	LDD  R27,Y+15+1
001dfb 971f      	SBIW R26,15
001dfc f00c      	BRLT _0x157
                 _0x156:
001dfd c005      	RJMP _0x155
                 _0x157:
                 ; 0000 02D5               ind_sen=1;
001dfe e0e1      	LDI  R30,LOW(1)
001dff e0f0      	LDI  R31,HIGH(1)
001e00 940e 27ad 	CALL SUBOPT_0x3E
                 ; 0000 02D6               }
                 ; 0000 02D7 
                 ; 0000 02D8               else if( barras >= 15 && barras < 18){
001e02 c029      	RJMP _0x158
                 _0x155:
001e03 85af      	LDD  R26,Y+15
001e04 89b8      	LDD  R27,Y+15+1
001e05 971f      	SBIW R26,15
001e06 f024      	BRLT _0x15A
001e07 85af      	LDD  R26,Y+15
001e08 89b8      	LDD  R27,Y+15+1
001e09 9752      	SBIW R26,18
001e0a f00c      	BRLT _0x15B
                 _0x15A:
001e0b c005      	RJMP _0x159
                 _0x15B:
                 ; 0000 02D9               ind_sen=2;
001e0c e0e2      	LDI  R30,LOW(2)
001e0d e0f0      	LDI  R31,HIGH(2)
001e0e 940e 27ad 	CALL SUBOPT_0x3E
                 ; 0000 02DA               }
                 ; 0000 02DB 
                 ; 0000 02DC               else if( barras >= 18 && barras < 31){
001e10 c01b      	RJMP _0x15C
                 _0x159:
001e11 85af      	LDD  R26,Y+15
001e12 89b8      	LDD  R27,Y+15+1
001e13 9752      	SBIW R26,18
001e14 f024      	BRLT _0x15E
001e15 85af      	LDD  R26,Y+15
001e16 89b8      	LDD  R27,Y+15+1
001e17 975f      	SBIW R26,31
001e18 f00c      	BRLT _0x15F
                 _0x15E:
001e19 c005      	RJMP _0x15D
                 _0x15F:
                 ; 0000 02DD               ind_sen=3;
001e1a e0e3      	LDI  R30,LOW(3)
001e1b e0f0      	LDI  R31,HIGH(3)
001e1c 940e 27ad 	CALL SUBOPT_0x3E
                 ; 0000 02DE               }
                 ; 0000 02DF 
                 ; 0000 02E0               else if( barras > 31 && barras < 50){
001e1e c00d      	RJMP _0x160
                 _0x15D:
001e1f 85af      	LDD  R26,Y+15
001e20 89b8      	LDD  R27,Y+15+1
001e21 9790      	SBIW R26,32
001e22 f024      	BRLT _0x162
001e23 85af      	LDD  R26,Y+15
001e24 89b8      	LDD  R27,Y+15+1
001e25 97d2      	SBIW R26,50
001e26 f00c      	BRLT _0x163
                 _0x162:
001e27 c004      	RJMP _0x161
                 _0x163:
                 ; 0000 02E1               ind_sen=4;
001e28 e0e4      	LDI  R30,LOW(4)
001e29 e0f0      	LDI  R31,HIGH(4)
001e2a 940e 27ad 	CALL SUBOPT_0x3E
                 ; 0000 02E2               }
                 ; 0000 02E3 
                 ; 0000 02E4               // En caso de que el valor en barras
                 ; 0000 02E5               // no sea ninguno de los anteriores, es posible
                 ; 0000 02E6               // que la trama recibida no sea valida.
                 ; 0000 02E7               else{   }
                 _0x161:
                 _0x160:
                 _0x15C:
                 _0x158:
                 ; 0000 02E8 
                 ; 0000 02E9             }
                 ; 0000 02EA 
                 ; 0000 02EB 
                 ; 0000 02EC                 //________________________
                 ; 0000 02ED            //PARA PUNTO DE CONTROL:
                 ; 0000 02EE             //por ahora detecto el encabezado "BUS" para tener de referencia en las posiciones del vector
                 ; 0000 02EF             if ( rx_b0[i+0]== 'B' &&
                 _0x152:
                 ; 0000 02F0                   rx_b0[i+1]== 'U' &&
                 ; 0000 02F1                    rx_b0[i+2]== 'S')
001e2c 940e 2788 	CALL SUBOPT_0x37
001e2e 34a2      	CPI  R26,LOW(0x42)
001e2f f441      	BRNE _0x166
001e30 940e 278d 	CALL SUBOPT_0x38
001e32 35a5      	CPI  R26,LOW(0x55)
001e33 f421      	BRNE _0x166
001e34 940e 2792 	CALL SUBOPT_0x39
001e36 35a3      	CPI  R26,LOW(0x53)
001e37 f009      	BREQ _0x167
                 _0x166:
001e38 c087      	RJMP _0x165
                 _0x167:
                 ; 0000 02F2             {
                 ; 0000 02F3               // Datos de punto de control, en cada posicion del vector guardo una letra, luego hay que procesar para obtener el numero correcto.
                 ; 0000 02F4                                        //010A
                 ; 0000 02F5                punto[0] = rx_b0[i+16]-48;  //   1
001e39 01f8      	MOVW R30,R16
                +
001e3a 54e5     +SUBI R30 , LOW ( - _rx_b0 - ( 16 ) )
001e3b 4ffc     +SBCI R31 , HIGH ( - _rx_b0 - ( 16 ) )
                 	__ADDW1MN _rx_b0,16
001e3c 940e 27b2 	CALL SUBOPT_0x3F
001e3e 93e0 0538 	STS  _punto,R30
                 ; 0000 02F6                punto[1] = rx_b0[i+17]-48;  //   F
001e40 01f8      	MOVW R30,R16
                +
001e41 54e4     +SUBI R30 , LOW ( - _rx_b0 - ( 17 ) )
001e42 4ffc     +SBCI R31 , HIGH ( - _rx_b0 - ( 17 ) )
                 	__ADDW1MN _rx_b0,17
001e43 940e 27b2 	CALL SUBOPT_0x3F
                +
001e45 93e0 0539+STS _punto + ( 1 ) , R30
                 	__PUTB1MN _punto,1
                 ; 0000 02F7                punto[2] = rx_b0[i+18]-48;  //   0
001e47 01f8      	MOVW R30,R16
                +
001e48 54e3     +SUBI R30 , LOW ( - _rx_b0 - ( 18 ) )
001e49 4ffc     +SBCI R31 , HIGH ( - _rx_b0 - ( 18 ) )
                 	__ADDW1MN _rx_b0,18
001e4a 940e 27b2 	CALL SUBOPT_0x3F
                +
001e4c 93e0 053a+STS _punto + ( 2 ) , R30
                 	__PUTB1MN _punto,2
                 ; 0000 02F8                punto[3] = rx_b0[i+19]-48;  //   A
001e4e 01f8      	MOVW R30,R16
                +
001e4f 54e2     +SUBI R30 , LOW ( - _rx_b0 - ( 19 ) )
001e50 4ffc     +SBCI R31 , HIGH ( - _rx_b0 - ( 19 ) )
                 	__ADDW1MN _rx_b0,19
001e51 940e 27b2 	CALL SUBOPT_0x3F
                +
001e53 93e0 053b+STS _punto + ( 3 ) , R30
                 	__PUTB1MN _punto,3
                 ; 0000 02F9 
                 ; 0000 02FA                if(punto[3]==17){
                +
001e55 91a0 053b+LDS R26 , _punto + ( 3 )
                 	__GETB2MN _punto,3
001e57 31a1      	CPI  R26,LOW(0x11)
001e58 f419      	BRNE _0x168
                 ; 0000 02FB                   punto[3]=10;
001e59 e0ea      	LDI  R30,LOW(10)
                +
001e5a 93e0 053b+STS _punto + ( 3 ) , R30
                 	__PUTB1MN _punto,3
                 ; 0000 02FC                }
                 ; 0000 02FD 
                 ; 0000 02FE                if(punto[0]>=17){
                 _0x168:
001e5c 91a0 0538 	LDS  R26,_punto
001e5e 31a1      	CPI  R26,LOW(0x11)
001e5f f030      	BRLO _0x169
                 ; 0000 02FF                   punto[0]=punto[0]-7;
001e60 91e0 0538 	LDS  R30,_punto
001e62 e0f0      	LDI  R31,0
001e63 9737      	SBIW R30,7
001e64 93e0 0538 	STS  _punto,R30
                 ; 0000 0300                }
                 ; 0000 0301 
                 ; 0000 0302                if(punto[1]>=17){
                 _0x169:
                +
001e66 91a0 0539+LDS R26 , _punto + ( 1 )
                 	__GETB2MN _punto,1
001e68 31a1      	CPI  R26,LOW(0x11)
001e69 f030      	BRLO _0x16A
                 ; 0000 0303                   punto[1]=punto[1]-7;
                +
001e6a 91e0 0539+LDS R30 , _punto + ( 1 )
                 	__GETB1MN _punto,1
001e6c e0f0      	LDI  R31,0
001e6d 9737      	SBIW R30,7
                +
001e6e 93e0 0539+STS _punto + ( 1 ) , R30
                 	__PUTB1MN _punto,1
                 ; 0000 0304                }
                 ; 0000 0305 
                 ; 0000 0306                //El 18 es el numero de evento, lo identifico para determinar si es geocerca, si esta bien se pone en 1 la variable "pt"
                 ; 0000 0307                if( rx_b0[i+22]=='1' &&  rx_b0[i+23]=='8'){
                 _0x16A:
001e70 01f8      	MOVW R30,R16
                +
001e71 53ef     +SUBI R30 , LOW ( - _rx_b0 - ( 22 ) )
001e72 4ffc     +SBCI R31 , HIGH ( - _rx_b0 - ( 22 ) )
                 	__ADDW1MN _rx_b0,22
001e73 81a0      	LD   R26,Z
001e74 33a1      	CPI  R26,LOW(0x31)
001e75 f431      	BRNE _0x16C
001e76 01f8      	MOVW R30,R16
                +
001e77 53ee     +SUBI R30 , LOW ( - _rx_b0 - ( 23 ) )
001e78 4ffc     +SBCI R31 , HIGH ( - _rx_b0 - ( 23 ) )
                 	__ADDW1MN _rx_b0,23
001e79 81a0      	LD   R26,Z
001e7a 33a8      	CPI  R26,LOW(0x38)
001e7b f009      	BREQ _0x16D
                 _0x16C:
001e7c c043      	RJMP _0x16B
                 _0x16D:
                 ; 0000 0308 
                 ; 0000 0309                   pt = 1;
001e7d e0e1      	LDI  R30,LOW(1)
001e7e 93e0 053c 	STS  _pt,R30
                 ; 0000 030A 
                 ; 0000 030B                   unidades_ruta= (punto[2]*10) + punto[3];
                +
001e80 91a0 053a+LDS R26 , _punto + ( 2 )
                 	__GETB2MN _punto,2
001e82 e0ea      	LDI  R30,LOW(10)
001e83 02ea      	MULS R30,R26
001e84 01f0      	MOVW R30,R0
001e85 01df      	MOVW R26,R30
                +
001e86 91e0 053b+LDS R30 , _punto + ( 3 )
                 	__GETB1MN _punto,3
001e88 940e 262e 	CALL SUBOPT_0xC
001e8a 93e0 0541 	STS  _unidades_ruta,R30
001e8c 93f0 0542 	STS  _unidades_ruta+1,R31
                 ; 0000 030C                   decenas_ruta = (((punto[0]*16)-1)+ punto[1])*10;
001e8e 91a0 0538 	LDS  R26,_punto
001e90 e1e0      	LDI  R30,LOW(16)
001e91 02ea      	MULS R30,R26
001e92 01f0      	MOVW R30,R0
001e93 9731      	SBIW R30,1
001e94 01df      	MOVW R26,R30
                +
001e95 91e0 0539+LDS R30 , _punto + ( 1 )
                 	__GETB1MN _punto,1
001e97 e0f0      	LDI  R31,0
001e98 0fae      	ADD  R26,R30
001e99 1fbf      	ADC  R27,R31
001e9a e0ea      	LDI  R30,LOW(10)
001e9b e0f0      	LDI  R31,HIGH(10)
001e9c 940e 28f3 	CALL __MULW12
001e9e 93e0 0543 	STS  _decenas_ruta,R30
001ea0 93f0 0544 	STS  _decenas_ruta+1,R31
                 ; 0000 030D                   centenas_ruta=     unidades_ruta  +decenas_ruta;
001ea2 91a0 0541 	LDS  R26,_unidades_ruta
001ea4 91b0 0542 	LDS  R27,_unidades_ruta+1
001ea6 0fea      	ADD  R30,R26
001ea7 1ffb      	ADC  R31,R27
001ea8 93e0 0545 	STS  _centenas_ruta,R30
001eaa 93f0 0546 	STS  _centenas_ruta+1,R31
                 ; 0000 030E 
                 ; 0000 030F                   sprintf(no_pt,"P%d", centenas_ruta);
001eac e3ed      	LDI  R30,LOW(_no_pt)
001ead e0f5      	LDI  R31,HIGH(_no_pt)
001eae 93fa      	ST   -Y,R31
001eaf 93ea      	ST   -Y,R30
                +
001eb0 e3e3     +LDI R30 , LOW ( 2 * _0x0 + ( 203 ) )
001eb1 e2fe     +LDI R31 , HIGH ( 2 * _0x0 + ( 203 ) )
                 	__POINTW1FN _0x0,203
001eb2 93fa      	ST   -Y,R31
001eb3 93ea      	ST   -Y,R30
001eb4 91e0 0545 	LDS  R30,_centenas_ruta
001eb6 91f0 0546 	LDS  R31,_centenas_ruta+1
001eb8 940e 28e6 	CALL __CWD1
001eba 940e 2934 	CALL __PUTPARD1
001ebc e084      	LDI  R24,4
001ebd 940e 2581 	CALL _sprintf
001ebf 9628      	ADIW R28,8
                 ; 0000 0310                }
                 ; 0000 0311 
                 ; 0000 0312             }
                 _0x16B:
                 ; 0000 0313 
                 ; 0000 0314 
                 ; 0000 0315             //NETIP
                 ; 0000 0316             if ( rx_b0[i+0]== 'N' &&
                 _0x165:
                 ; 0000 0317                   rx_b0[i+1]== 'E' &&
                 ; 0000 0318                    rx_b0[i+2]== 'T' &&
                 ; 0000 0319                     rx_b0[i+3]== 'I' &&
                 ; 0000 031A                      rx_b0[i+4]== 'P')
001ec0 940e 2788 	CALL SUBOPT_0x37
001ec2 34ae      	CPI  R26,LOW(0x4E)
001ec3 f481      	BRNE _0x16F
001ec4 940e 278d 	CALL SUBOPT_0x38
001ec6 34a5      	CPI  R26,LOW(0x45)
001ec7 f461      	BRNE _0x16F
001ec8 940e 2792 	CALL SUBOPT_0x39
001eca 35a4      	CPI  R26,LOW(0x54)
001ecb f441      	BRNE _0x16F
001ecc 940e 2797 	CALL SUBOPT_0x3A
001ece 34a9      	CPI  R26,LOW(0x49)
001ecf f421      	BRNE _0x16F
001ed0 940e 279c 	CALL SUBOPT_0x3B
001ed2 35a0      	CPI  R26,LOW(0x50)
001ed3 f009      	BREQ _0x170
                 _0x16F:
001ed4 c049      	RJMP _0x16E
                 _0x170:
                 ; 0000 031B             {
                 ; 0000 031C                ini = i + 4;
001ed5 940e 27b6 	CALL SUBOPT_0x40
                 ; 0000 031D 
                 ; 0000 031E                for (n=0; n<201; n++)
                +
001ed7 e040     +LDI R20 , LOW ( 0 )
001ed8 e050     +LDI R21 , HIGH ( 0 )
                 	__GETWRN 20,21,0
                 _0x172:
                +
001ed9 3c49     +CPI R20 , LOW ( 201 )
001eda e0e0     +LDI R30 , HIGH ( 201 )
001edb 075e     +CPC R21 , R30
                 	__CPWRN 20,21,201
001edc f45c      	BRGE _0x173
                 ; 0000 031F                {
                 ; 0000 0320                   // Busca el caracter ':'
                 ; 0000 0321                   if(rx_b0[ ini + n + 1 ] == ':' )
001edd 940e 27bb 	CALL SUBOPT_0x41
001edf f429      	BRNE _0x174
                 ; 0000 0322                   {
                 ; 0000 0323                      coma++;
001ee0 940e 27c5 	CALL SUBOPT_0x42
                 ; 0000 0324                      if(coma == 1) pos1 = n + ini + 1; // Guarda la posicion de la primera trama
001ee2 f411      	BRNE _0x175
001ee3 940e 27ce 	CALL SUBOPT_0x43
                 ; 0000 0325                   }
                 _0x175:
                 ; 0000 0326                }
                 _0x174:
                +
001ee5 5f4f     +SUBI R20 , LOW ( - 1 )
001ee6 4f5f     +SBCI R21 , HIGH ( - 1 )
                 	__ADDWRN 20,21,1
001ee7 cff1      	RJMP _0x172
                 _0x173:
                 ; 0000 0327 
                 ; 0000 0328                // Verifica si despues del primer ':' Hay comillas
                 ; 0000 0329                if( rx_b0[ pos1 + 2] == 34 )
001ee8 89ed      	LDD  R30,Y+21
001ee9 89fe      	LDD  R31,Y+21+1
                +
001eea 55e3     +SUBI R30 , LOW ( - _rx_b0 - ( 2 ) )
001eeb 4ffc     +SBCI R31 , HIGH ( - _rx_b0 - ( 2 ) )
                 	__ADDW1MN _rx_b0,2
001eec 81a0      	LD   R26,Z
001eed 32a2      	CPI  R26,LOW(0x22)
001eee f579      	BRNE _0x176
                 ; 0000 032A                {
                 ; 0000 032B                   if( (rx_b0[pos1+3] - 48) == 0 &&
                 ; 0000 032C                       (rx_b0[pos1+4] - 48) == 0 &&
                 ; 0000 032D                       (rx_b0[pos1+5] - 48) == 0 &&
                 ; 0000 032E                       (rx_b0[pos1+7] - 48) == 0 &&
                 ; 0000 032F                       (rx_b0[pos1+8] - 48) == 0 &&
                 ; 0000 0330                       (rx_b0[pos1+9] - 48) == 0)
001eef 940e 27d6 	CALL SUBOPT_0x44
001ef1 940e 27b2 	CALL SUBOPT_0x3F
001ef3 f4e9      	BRNE _0x178
001ef4 940e 27db 	CALL SUBOPT_0x45
001ef6 940e 27b2 	CALL SUBOPT_0x3F
001ef8 f4c1      	BRNE _0x178
001ef9 940e 27e0 	CALL SUBOPT_0x46
001efb 940e 27b2 	CALL SUBOPT_0x3F
001efd f499      	BRNE _0x178
001efe 89ed      	LDD  R30,Y+21
001eff 89fe      	LDD  R31,Y+21+1
001f00 940e 27a7 	CALL SUBOPT_0x3D
001f02 f471      	BRNE _0x178
001f03 89ed      	LDD  R30,Y+21
001f04 89fe      	LDD  R31,Y+21+1
                +
001f05 54ed     +SUBI R30 , LOW ( - _rx_b0 - ( 8 ) )
001f06 4ffc     +SBCI R31 , HIGH ( - _rx_b0 - ( 8 ) )
                 	__ADDW1MN _rx_b0,8
001f07 940e 27b2 	CALL SUBOPT_0x3F
001f09 f439      	BRNE _0x178
001f0a 89ed      	LDD  R30,Y+21
001f0b 89fe      	LDD  R31,Y+21+1
                +
001f0c 54ec     +SUBI R30 , LOW ( - _rx_b0 - ( 9 ) )
001f0d 4ffc     +SBCI R31 , HIGH ( - _rx_b0 - ( 9 ) )
                 	__ADDW1MN _rx_b0,9
001f0e 940e 27b2 	CALL SUBOPT_0x3F
001f10 f009      	BREQ _0x179
                 _0x178:
001f11 c006      	RJMP _0x177
                 _0x179:
                 ; 0000 0331                   {
                 ; 0000 0332                      gsm=0;   // Sin seal GSM
001f12 e0e0      	LDI  R30,LOW(0)
001f13 93e0 0522 	STS  _gsm,R30
001f15 93e0 0523 	STS  _gsm+1,R30
                 ; 0000 0333 
                 ; 0000 0334                   }else
001f17 c006      	RJMP _0x17A
                 _0x177:
                 ; 0000 0335                      gsm=1;
001f18 e0e1      	LDI  R30,LOW(1)
001f19 e0f0      	LDI  R31,HIGH(1)
001f1a 93e0 0522 	STS  _gsm,R30
001f1c 93f0 0523 	STS  _gsm+1,R31
                 ; 0000 0336                }
                 _0x17A:
                 ; 0000 0337             }
                 _0x176:
                 ; 0000 0338 
                 ; 0000 0339             //DEVID
                 ; 0000 033A             if ( rx_b0[i+0] == 'D' &&
                 _0x16E:
                 ; 0000 033B                   rx_b0[i+1] == 'E' &&
                 ; 0000 033C                    rx_b0[i+2] == 'V' &&
                 ; 0000 033D                     rx_b0[i+3] == 'I' &&
                 ; 0000 033E                      rx_b0[i+4] == 'D')
001f1e 940e 2788 	CALL SUBOPT_0x37
001f20 34a4      	CPI  R26,LOW(0x44)
001f21 f481      	BRNE _0x17C
001f22 940e 278d 	CALL SUBOPT_0x38
001f24 34a5      	CPI  R26,LOW(0x45)
001f25 f461      	BRNE _0x17C
001f26 940e 2792 	CALL SUBOPT_0x39
001f28 35a6      	CPI  R26,LOW(0x56)
001f29 f441      	BRNE _0x17C
001f2a 940e 2797 	CALL SUBOPT_0x3A
001f2c 34a9      	CPI  R26,LOW(0x49)
001f2d f421      	BRNE _0x17C
001f2e 940e 279c 	CALL SUBOPT_0x3B
001f30 34a4      	CPI  R26,LOW(0x44)
001f31 f009      	BREQ _0x17D
                 _0x17C:
001f32 c041      	RJMP _0x17B
                 _0x17D:
                 ; 0000 033F             {
                 ; 0000 0340                ini = i+4;
001f33 940e 27b6 	CALL SUBOPT_0x40
                 ; 0000 0341 
                 ; 0000 0342                // Limpia las lineas 2,3,4,5
                 ; 0000 0343                glcd_clrln(2);
001f35 940e 27e5 	CALL SUBOPT_0x47
                 ; 0000 0344                glcd_clrln(3);
                 ; 0000 0345                glcd_clrln(4);
                 ; 0000 0346                glcd_clrln(5);
                 ; 0000 0347 
                 ; 0000 0348                for (n=0;n<201;n++)
                +
001f37 e040     +LDI R20 , LOW ( 0 )
001f38 e050     +LDI R21 , HIGH ( 0 )
                 	__GETWRN 20,21,0
                 _0x17F:
                +
001f39 3c49     +CPI R20 , LOW ( 201 )
001f3a e0e0     +LDI R30 , HIGH ( 201 )
001f3b 075e     +CPC R21 , R30
                 	__CPWRN 20,21,201
001f3c f45c      	BRGE _0x180
                 ; 0000 0349                {
                 ; 0000 034A                   if( rx_b0[ini+n+1] == ':')
001f3d 940e 27bb 	CALL SUBOPT_0x41
001f3f f429      	BRNE _0x181
                 ; 0000 034B                   {
                 ; 0000 034C                      coma++;
001f40 940e 27c5 	CALL SUBOPT_0x42
                 ; 0000 034D                      if(coma==1) pos1 = n+ini+1;
001f42 f411      	BRNE _0x182
001f43 940e 27ce 	CALL SUBOPT_0x43
                 ; 0000 034E                   }
                 _0x182:
                 ; 0000 034F                }
                 _0x181:
                +
001f45 5f4f     +SUBI R20 , LOW ( - 1 )
001f46 4f5f     +SBCI R21 , HIGH ( - 1 )
                 	__ADDWRN 20,21,1
001f47 cff1      	RJMP _0x17F
                 _0x180:
                 ; 0000 0350 
                 ; 0000 0351                //Comprobar nombre
                 ; 0000 0352                if(rx_b0[pos1+1]==34)
001f48 940e 27f5 	CALL SUBOPT_0x48
001f4a 81a0      	LD   R26,Z
001f4b 32a2      	CPI  R26,LOW(0x22)
001f4c f539      	BRNE _0x183
                 ; 0000 0353                {
                 ; 0000 0354                   if( rx_b0[pos1+2] == NUM_DISP[0] &&
                 ; 0000 0355                       rx_b0[pos1+3] == NUM_DISP[1] &&
                 ; 0000 0356                       rx_b0[pos1+4] == NUM_DISP[2] &&
                 ; 0000 0357                       rx_b0[pos1+5] == NUM_DISP[3] )
001f4d 89ed      	LDD  R30,Y+21
001f4e 89fe      	LDD  R31,Y+21+1
                +
001f4f 55e3     +SUBI R30 , LOW ( - _rx_b0 - ( 2 ) )
001f50 4ffc     +SBCI R31 , HIGH ( - _rx_b0 - ( 2 ) )
                 	__ADDW1MN _rx_b0,2
001f51 81a0      	LD   R26,Z
001f52 91e0 0518 	LDS  R30,_NUM_DISP
001f54 17ea      	CP   R30,R26
001f55 f4a9      	BRNE _0x185
001f56 940e 27d6 	CALL SUBOPT_0x44
001f58 81a0      	LD   R26,Z
                +
001f59 91e0 0519+LDS R30 , _NUM_DISP + ( 1 )
                 	__GETB1MN _NUM_DISP,1
001f5b 17ea      	CP   R30,R26
001f5c f471      	BRNE _0x185
001f5d 940e 27db 	CALL SUBOPT_0x45
001f5f 81a0      	LD   R26,Z
                +
001f60 91e0 051a+LDS R30 , _NUM_DISP + ( 2 )
                 	__GETB1MN _NUM_DISP,2
001f62 17ea      	CP   R30,R26
001f63 f439      	BRNE _0x185
001f64 940e 27e0 	CALL SUBOPT_0x46
001f66 81a0      	LD   R26,Z
                +
001f67 91e0 051b+LDS R30 , _NUM_DISP + ( 3 )
                 	__GETB1MN _NUM_DISP,3
001f69 17ea      	CP   R30,R26
001f6a f009      	BREQ _0x186
                 _0x185:
001f6b c003      	RJMP _0x184
                 _0x186:
                 ; 0000 0358                   {
                 ; 0000 0359 
                 ; 0000 035A                   act=1;  // PANTALLA Y EQUIPO CORRECTA !!!
001f6c 940e 27fa 	CALL SUBOPT_0x49
                 ; 0000 035B 
                 ; 0000 035C                   }
                 ; 0000 035D                   else {
001f6e c005      	RJMP _0x187
                 _0x184:
                 ; 0000 035E 
                 ; 0000 035F                   act=0;  // PANTALLA INCORRECTA !!!
001f6f e0e0      	LDI  R30,LOW(0)
001f70 93e0 0549 	STS  _act_G000,R30
001f72 93e0 054a 	STS  _act_G000+1,R30
                 ; 0000 0360                   }
                 _0x187:
                 ; 0000 0361 
                 ; 0000 0362                }
                 ; 0000 0363             }
                 _0x183:
                 ; 0000 0364 
                 ; 0000 0365             //Encabezado: GPRMC para igualar el reloj desde trama GPS
                 ; 0000 0366             if ( rx_b0[i+0] == 'G' &&
                 _0x17B:
                 ; 0000 0367                   rx_b0[i+1] == 'P' &&
                 ; 0000 0368                    rx_b0[i+2] == 'R' &&
                 ; 0000 0369                     rx_b0[i+3] == 'M' &&
                 ; 0000 036A                      rx_b0[i+4] == 'C')
001f74 940e 2788 	CALL SUBOPT_0x37
001f76 34a7      	CPI  R26,LOW(0x47)
001f77 f481      	BRNE _0x189
001f78 940e 278d 	CALL SUBOPT_0x38
001f7a 35a0      	CPI  R26,LOW(0x50)
001f7b f461      	BRNE _0x189
001f7c 940e 2792 	CALL SUBOPT_0x39
001f7e 35a2      	CPI  R26,LOW(0x52)
001f7f f441      	BRNE _0x189
001f80 940e 2797 	CALL SUBOPT_0x3A
001f82 34ad      	CPI  R26,LOW(0x4D)
001f83 f421      	BRNE _0x189
001f84 940e 279c 	CALL SUBOPT_0x3B
001f86 34a3      	CPI  R26,LOW(0x43)
001f87 f009      	BREQ _0x18A
                 _0x189:
001f88 c124      	RJMP _0x188
                 _0x18A:
                 ; 0000 036B             {
                 ; 0000 036C 
                 ; 0000 036D                ini=i+4;
001f89 940e 27b6 	CALL SUBOPT_0x40
                 ; 0000 036E                for (n=0;n<201;n++)
                +
001f8b e040     +LDI R20 , LOW ( 0 )
001f8c e050     +LDI R21 , HIGH ( 0 )
                 	__GETWRN 20,21,0
                 _0x18C:
                +
001f8d 3c49     +CPI R20 , LOW ( 201 )
001f8e e0e0     +LDI R30 , HIGH ( 201 )
001f8f 075e     +CPC R21 , R30
                 	__CPWRN 20,21,201
001f90 f544      	BRGE _0x18D
                 ; 0000 036F                {
                 ; 0000 0370                   if(rx_b0[ini+n+1]==44)
001f91 01fa      	MOVW R30,R20
001f92 8da9      	LDD  R26,Y+25
001f93 8dba      	LDD  R27,Y+25+1
001f94 0fea      	ADD  R30,R26
001f95 1ffb      	ADC  R31,R27
                +
001f96 55e4     +SUBI R30 , LOW ( - _rx_b0 - ( 1 ) )
001f97 4ffc     +SBCI R31 , HIGH ( - _rx_b0 - ( 1 ) )
                 	__ADDW1MN _rx_b0,1
001f98 81a0      	LD   R26,Z
001f99 32ac      	CPI  R26,LOW(0x2C)
001f9a f4d9      	BRNE _0x18E
                 ; 0000 0371                   {
                 ; 0000 0372                      coma++;
001f9b 940e 27c5 	CALL SUBOPT_0x42
                 ; 0000 0373                      if(coma==1) pos1=n+ini+1;
001f9d f411      	BRNE _0x18F
001f9e 940e 27ce 	CALL SUBOPT_0x43
                 ; 0000 0374                      if(coma==2) pos2=n+ini+1;
                 _0x18F:
001fa0 89af      	LDD  R26,Y+23
001fa1 8db8      	LDD  R27,Y+23+1
001fa2 9712      	SBIW R26,2
001fa3 f439      	BRNE _0x190
001fa4 8de9      	LDD  R30,Y+25
001fa5 8dfa      	LDD  R31,Y+25+1
001fa6 0fe4      	ADD  R30,R20
001fa7 1ff5      	ADC  R31,R21
001fa8 9631      	ADIW R30,1
001fa9 8beb      	STD  Y+19,R30
001faa 8bfc      	STD  Y+19+1,R31
                 ; 0000 0375                      if(coma==9) pos3=n+ini+1;
                 _0x190:
001fab 89af      	LDD  R26,Y+23
001fac 8db8      	LDD  R27,Y+23+1
001fad 9719      	SBIW R26,9
001fae f439      	BRNE _0x191
001faf 8de9      	LDD  R30,Y+25
001fb0 8dfa      	LDD  R31,Y+25+1
001fb1 0fe4      	ADD  R30,R20
001fb2 1ff5      	ADC  R31,R21
001fb3 9631      	ADIW R30,1
001fb4 8be9      	STD  Y+17,R30
001fb5 8bfa      	STD  Y+17+1,R31
                 ; 0000 0376                   }
                 _0x191:
                 ; 0000 0377                }
                 _0x18E:
                +
001fb6 5f4f     +SUBI R20 , LOW ( - 1 )
001fb7 4f5f     +SBCI R21 , HIGH ( - 1 )
                 	__ADDWRN 20,21,1
001fb8 cfd4      	RJMP _0x18C
                 _0x18D:
                 ; 0000 0378 
                 ; 0000 0379                glcd_clrln(3);
001fb9 e0e3      	LDI  R30,LOW(3)
001fba 93ea      	ST   -Y,R30
001fbb d886      	RCALL _glcd_clrln
                 ; 0000 037A                glcd_clrln(4);
001fbc e0e4      	LDI  R30,LOW(4)
001fbd 93ea      	ST   -Y,R30
001fbe d883      	RCALL _glcd_clrln
                 ; 0000 037B                glcd_clrln(5);
001fbf e0e5      	LDI  R30,LOW(5)
001fc0 93ea      	ST   -Y,R30
001fc1 d880      	RCALL _glcd_clrln
                 ; 0000 037C 
                 ; 0000 037D 
                 ; 0000 037E                // Comprueba que las comas no esten seguidas
                 ; 0000 037F                // en caso de no haber senial gps.
                 ; 0000 0380                if( (rx_b0[ pos1+1 ]-48)>= 0 &&
                 ; 0000 0381                    (rx_b0[ pos1+1 ]-48)< 10 &&
                 ; 0000 0382                     pos2 != (pos1 +1)
                 ; 0000 0383                  )
001fc2 940e 27f5 	CALL SUBOPT_0x48
001fc4 940e 27b2 	CALL SUBOPT_0x3F
001fc6 23ff      	TST  R31
001fc7 f052      	BRMI _0x193
001fc8 973a      	SBIW R30,10
001fc9 f444      	BRGE _0x193
001fca 89ed      	LDD  R30,Y+21
001fcb 89fe      	LDD  R31,Y+21+1
001fcc 9631      	ADIW R30,1
001fcd 89ab      	LDD  R26,Y+19
001fce 89bc      	LDD  R27,Y+19+1
001fcf 17ea      	CP   R30,R26
001fd0 07fb      	CPC  R31,R27
001fd1 f409      	BRNE _0x194
                 _0x193:
001fd2 c081      	RJMP _0x192
                 _0x194:
                 ; 0000 0384                {
                 ; 0000 0385 
                 ; 0000 0386                   digito_hora_temp = rx_b0[pos1 + 6 ] - 48;
001fd3 89ed      	LDD  R30,Y+21
001fd4 89fe      	LDD  R31,Y+21+1
001fd5 940e 27a1 	CALL SUBOPT_0x3C
001fd7 83ee      	STD  Y+6,R30
                 ; 0000 0387                   if ( digito_hora_temp >= 0 && digito_hora_temp <= 9)
001fd8 81ae      	LDD  R26,Y+6
001fd9 30a0      	CPI  R26,0
001fda f010      	BRLO _0x196
001fdb 30aa      	CPI  R26,LOW(0xA)
001fdc f008      	BRLO _0x197
                 _0x196:
001fdd c005      	RJMP _0x195
                 _0x197:
                 ; 0000 0388                      seg = digito_hora_temp;
001fde 81ee      	LDD  R30,Y+6
001fdf e8a0      	LDI  R26,LOW(_seg)
001fe0 e0b0      	LDI  R27,HIGH(_seg)
001fe1 940e 294c 	CALL __EEPROMWRB
                 ; 0000 0389 
                 ; 0000 038A                   digito_hora_temp = rx_b0[pos1 + 5 ] - 48;
                 _0x195:
001fe3 940e 27e0 	CALL SUBOPT_0x46
001fe5 940e 27b2 	CALL SUBOPT_0x3F
001fe7 83ee      	STD  Y+6,R30
                 ; 0000 038B                   if ( digito_hora_temp >= 0 && digito_hora_temp <= 9)
001fe8 81ae      	LDD  R26,Y+6
001fe9 30a0      	CPI  R26,0
001fea f010      	BRLO _0x199
001feb 30aa      	CPI  R26,LOW(0xA)
001fec f008      	BRLO _0x19A
                 _0x199:
001fed c005      	RJMP _0x198
                 _0x19A:
                 ; 0000 038C                      seg1 = digito_hora_temp;
001fee 81ee      	LDD  R30,Y+6
001fef e8a2      	LDI  R26,LOW(_seg1)
001ff0 e0b0      	LDI  R27,HIGH(_seg1)
001ff1 940e 294c 	CALL __EEPROMWRB
                 ; 0000 038D 
                 ; 0000 038E                   digito_hora_temp = rx_b0[pos1 + 4 ] - 48;
                 _0x198:
001ff3 940e 27db 	CALL SUBOPT_0x45
001ff5 940e 27b2 	CALL SUBOPT_0x3F
001ff7 83ee      	STD  Y+6,R30
                 ; 0000 038F                   if ( digito_hora_temp >= 0 && digito_hora_temp <= 9)
001ff8 81ae      	LDD  R26,Y+6
001ff9 30a0      	CPI  R26,0
001ffa f010      	BRLO _0x19C
001ffb 30aa      	CPI  R26,LOW(0xA)
001ffc f008      	BRLO _0x19D
                 _0x19C:
001ffd c005      	RJMP _0x19B
                 _0x19D:
                 ; 0000 0390                      minu = digito_hora_temp;
001ffe 81ee      	LDD  R30,Y+6
001fff e8a4      	LDI  R26,LOW(_minu)
002000 e0b0      	LDI  R27,HIGH(_minu)
002001 940e 294c 	CALL __EEPROMWRB
                 ; 0000 0391 
                 ; 0000 0392                   digito_hora_temp = rx_b0[pos1 + 3 ] - 48;
                 _0x19B:
002003 940e 27d6 	CALL SUBOPT_0x44
002005 940e 27b2 	CALL SUBOPT_0x3F
002007 83ee      	STD  Y+6,R30
                 ; 0000 0393                   if ( digito_hora_temp >= 0 && digito_hora_temp <= 9)
002008 81ae      	LDD  R26,Y+6
002009 30a0      	CPI  R26,0
00200a f010      	BRLO _0x19F
00200b 30aa      	CPI  R26,LOW(0xA)
00200c f008      	BRLO _0x1A0
                 _0x19F:
00200d c005      	RJMP _0x19E
                 _0x1A0:
                 ; 0000 0394                      min1  = digito_hora_temp;
00200e 81ee      	LDD  R30,Y+6
00200f e8a6      	LDI  R26,LOW(_min1)
002010 e0b0      	LDI  R27,HIGH(_min1)
002011 940e 294c 	CALL __EEPROMWRB
                 ; 0000 0395 
                 ; 0000 0396                   digito_hora_temp = rx_b0[pos1 + 2 ] - 48;
                 _0x19E:
002013 89ed      	LDD  R30,Y+21
002014 89fe      	LDD  R31,Y+21+1
                +
002015 55e3     +SUBI R30 , LOW ( - _rx_b0 - ( 2 ) )
002016 4ffc     +SBCI R31 , HIGH ( - _rx_b0 - ( 2 ) )
                 	__ADDW1MN _rx_b0,2
002017 940e 27b2 	CALL SUBOPT_0x3F
002019 83ee      	STD  Y+6,R30
                 ; 0000 0397                   if ( digito_hora_temp >= 0 && digito_hora_temp <= 9)
00201a 81ae      	LDD  R26,Y+6
00201b 30a0      	CPI  R26,0
00201c f010      	BRLO _0x1A2
00201d 30aa      	CPI  R26,LOW(0xA)
00201e f008      	BRLO _0x1A3
                 _0x1A2:
00201f c004      	RJMP _0x1A1
                 _0x1A3:
                 ; 0000 0398                      n2 = digito_hora_temp;
002020 940e 2611 	CALL SUBOPT_0x8
002022 87eb      	STD  Y+11,R30
002023 87fc      	STD  Y+11+1,R31
                 ; 0000 0399 
                 ; 0000 039A                   digito_hora_temp = rx_b0[pos1 + 1 ] - 48;
                 _0x1A1:
002024 940e 27f5 	CALL SUBOPT_0x48
002026 940e 27b2 	CALL SUBOPT_0x3F
002028 83ee      	STD  Y+6,R30
                 ; 0000 039B                   if ( digito_hora_temp >= 0 && digito_hora_temp <= 9)
002029 81ae      	LDD  R26,Y+6
00202a 30a0      	CPI  R26,0
00202b f010      	BRLO _0x1A5
00202c 30aa      	CPI  R26,LOW(0xA)
00202d f008      	BRLO _0x1A6
                 _0x1A5:
00202e c004      	RJMP _0x1A4
                 _0x1A6:
                 ; 0000 039C                      n1  = digito_hora_temp;
00202f 940e 2611 	CALL SUBOPT_0x8
002031 87ed      	STD  Y+13,R30
002032 87fe      	STD  Y+13+1,R31
                 ; 0000 039D 
                 ; 0000 039E 
                 ; 0000 039F                   n3 = ( n1*10 ) + n2;   // Hora total suma unidades y decenas
                 _0x1A4:
002033 85ed      	LDD  R30,Y+13
002034 85fe      	LDD  R31,Y+13+1
002035 e0aa      	LDI  R26,LOW(10)
002036 e0b0      	LDI  R27,HIGH(10)
002037 940e 28f3 	CALL __MULW12
002039 85ab      	LDD  R26,Y+11
00203a 85bc      	LDD  R27,Y+11+1
00203b 0fea      	ADD  R30,R26
00203c 1ffb      	ADC  R31,R27
00203d 87e9      	STD  Y+9,R30
00203e 87fa      	STD  Y+9+1,R31
                 ; 0000 03A0                   n4 = n3 - 5;  // Zona horaria
00203f 9735      	SBIW R30,5
002040 83ef      	STD  Y+7,R30
002041 87f8      	STD  Y+7+1,R31
                 ; 0000 03A1 
                 ; 0000 03A2                   if( n4 < 0 )
002042 85a8      	LDD  R26,Y+8
002043 23aa      	TST  R26
002044 f44a      	BRPL _0x1A7
                 ; 0000 03A3                   {
                 ; 0000 03A4                      n4    = n4 + 24;
002045 9678      	ADIW R30,24
002046 83ef      	STD  Y+7,R30
002047 87f8      	STD  Y+7+1,R31
                 ; 0000 03A5                      hora  = n4 % 10;
002048 940e 2801 	CALL SUBOPT_0x4A
00204a 940e 2806 	CALL SUBOPT_0x4B
                 ; 0000 03A6                      hora1 = n4 / 10;
00204c 940e 280d 	CALL SUBOPT_0x4C
                 ; 0000 03A7                   }
                 ; 0000 03A8 
                 ; 0000 03A9                   hora = n4 % 10;
                 _0x1A7:
00204e 940e 2801 	CALL SUBOPT_0x4A
002050 940e 2806 	CALL SUBOPT_0x4B
                 ; 0000 03AA                   hora1= n4 / 10;
002052 940e 280d 	CALL SUBOPT_0x4C
                 ; 0000 03AB 
                 ; 0000 03AC                }
                 ; 0000 03AD 
                 ; 0000 03AE                // Comprueva la conexin de GPS
                 ; 0000 03AF                gps = rx_b0 [ pos2 + 1 ];
                 _0x192:
002054 89eb      	LDD  R30,Y+19
002055 89fc      	LDD  R31,Y+19+1
                +
002056 55e4     +SUBI R30 , LOW ( - _rx_b0 - ( 1 ) )
002057 4ffc     +SBCI R31 , HIGH ( - _rx_b0 - ( 1 ) )
                 	__ADDW1MN _rx_b0,1
002058 81e0      	LD   R30,Z
002059 e0f0      	LDI  R31,0
00205a 93e0 0524 	STS  _gps,R30
00205c 93f0 0525 	STS  _gps+1,R31
                 ; 0000 03B0                printf( "%c", gps);  //Herramienta de DEBUG
                +
00205e e3e7     +LDI R30 , LOW ( 2 * _0x0 + ( 207 ) )
00205f e2fe     +LDI R31 , HIGH ( 2 * _0x0 + ( 207 ) )
                 	__POINTW1FN _0x0,207
002060 93fa      	ST   -Y,R31
002061 93ea      	ST   -Y,R30
002062 91e0 0524 	LDS  R30,_gps
002064 91f0 0525 	LDS  R31,_gps+1
002066 940e 28e6 	CALL __CWD1
002068 940e 2934 	CALL __PUTPARD1
00206a e084      	LDI  R24,4
00206b 940e 25b1 	CALL _printf
00206d 9626      	ADIW R28,6
                 ; 0000 03B1 
                 ; 0000 03B2                //Obtener Hora y dia
                 ; 0000 03B3                if( (rx_b0[pos3+1]-48) >= 0 &&
                 ; 0000 03B4                    (rx_b0[pos3+1]-48) < 10 )
00206e 940e 2814 	CALL SUBOPT_0x4D
002070 23ff      	TST  R31
002071 f012      	BRMI _0x1A9
002072 973a      	SBIW R30,10
002073 f00c      	BRLT _0x1AA
                 _0x1A9:
002074 c038      	RJMP _0x1A8
                 _0x1AA:
                 ; 0000 03B5                {
                 ; 0000 03B6 
                 ; 0000 03B7                   dia1 = rx_b0[pos3+1]-48;
002075 940e 2814 	CALL SUBOPT_0x4D
002077 e8ae      	LDI  R26,LOW(_dia1)
002078 e0b0      	LDI  R27,HIGH(_dia1)
002079 940e 2819 	CALL SUBOPT_0x4E
                 ; 0000 03B8                   dia  = rx_b0[pos3+2]-48;
                +
00207b 55e3     +SUBI R30 , LOW ( - _rx_b0 - ( 2 ) )
00207c 4ffc     +SBCI R31 , HIGH ( - _rx_b0 - ( 2 ) )
                 	__ADDW1MN _rx_b0,2
00207d 940e 27b2 	CALL SUBOPT_0x3F
00207f e8ac      	LDI  R26,LOW(_dia)
002080 e0b0      	LDI  R27,HIGH(_dia)
002081 940e 2819 	CALL SUBOPT_0x4E
                 ; 0000 03B9                   mes1 = rx_b0[pos3+3]-48;
                +
002083 55e2     +SUBI R30 , LOW ( - _rx_b0 - ( 3 ) )
002084 4ffc     +SBCI R31 , HIGH ( - _rx_b0 - ( 3 ) )
                 	__ADDW1MN _rx_b0,3
002085 940e 27b2 	CALL SUBOPT_0x3F
002087 e9a2      	LDI  R26,LOW(_mes1)
002088 e0b0      	LDI  R27,HIGH(_mes1)
002089 940e 2819 	CALL SUBOPT_0x4E
                 ; 0000 03BA                   mes  = rx_b0[pos3+4]-48;
                +
00208b 55e1     +SUBI R30 , LOW ( - _rx_b0 - ( 4 ) )
00208c 4ffc     +SBCI R31 , HIGH ( - _rx_b0 - ( 4 ) )
                 	__ADDW1MN _rx_b0,4
00208d 940e 27b2 	CALL SUBOPT_0x3F
00208f e9a0      	LDI  R26,LOW(_mes)
002090 e0b0      	LDI  R27,HIGH(_mes)
002091 940e 2819 	CALL SUBOPT_0x4E
                 ; 0000 03BB                   an1  = rx_b0[pos3+5]-48;
                +
002093 55e0     +SUBI R30 , LOW ( - _rx_b0 - ( 5 ) )
002094 4ffc     +SBCI R31 , HIGH ( - _rx_b0 - ( 5 ) )
                 	__ADDW1MN _rx_b0,5
002095 940e 27b2 	CALL SUBOPT_0x3F
002097 e9a6      	LDI  R26,LOW(_an1)
002098 e0b0      	LDI  R27,HIGH(_an1)
002099 940e 2819 	CALL SUBOPT_0x4E
                 ; 0000 03BC                   an   = rx_b0[pos3+6]-48;
00209b 940e 27a1 	CALL SUBOPT_0x3C
00209d e9a4      	LDI  R26,LOW(_an)
00209e e0b0      	LDI  R27,HIGH(_an)
00209f 940e 294c 	CALL __EEPROMWRB
                 ; 0000 03BD 
                 ; 0000 03BE                   if( n4 > 18)
0020a1 81af      	LDD  R26,Y+7
0020a2 85b8      	LDD  R27,Y+7+1
0020a3 9753      	SBIW R26,19
0020a4 f044      	BRLT _0x1AB
                 ; 0000 03BF                      dia = dia-1;  // Por la zona horaria de EC-5GTM
0020a5 940e 281e 	CALL SUBOPT_0x4F
0020a7 e0f0      	LDI  R31,0
0020a8 9731      	SBIW R30,1
0020a9 e8ac      	LDI  R26,LOW(_dia)
0020aa e0b0      	LDI  R27,HIGH(_dia)
0020ab 940e 294c 	CALL __EEPROMWRB
                 ; 0000 03C0 
                 ; 0000 03C1                }else{
                 _0x1AB:
                 _0x1A8:
                 ; 0000 03C2 
                 ; 0000 03C3                 // No actualizar la hora, continuar con la anterior
                 ; 0000 03C4                }
                 ; 0000 03C5             }
                 ; 0000 03C6          }
                 _0x188:
                +
0020ad 5f0f     +SUBI R16 , LOW ( - 1 )
0020ae 4f1f     +SBCI R17 , HIGH ( - 1 )
                 	__ADDWRN 16,17,1
0020af ccd2      	RJMP _0x148
                 _0x149:
                 ; 0000 03C7 
                 ; 0000 03C8          rx_counter0  = 0;
0020b0 2488      	CLR  R8
                 ; 0000 03C9          rx_wr_index0 = 0;
0020b1 2466      	CLR  R6
                 ; 0000 03CA 
                 ; 0000 03CB          BIT_UART=1;
0020b2 9af1      	SBI  0x1E,1
                 ; 0000 03CC 
                 ; 0000 03CD          // Limpia el buffer
                 ; 0000 03CE          for( i=0; i<RX_BUFFER_SIZE0; i++ )
                +
0020b3 e000     +LDI R16 , LOW ( 0 )
0020b4 e010     +LDI R17 , HIGH ( 0 )
                 	__GETWRN 16,17,0
                 _0x1B0:
                +
0020b5 3c08     +CPI R16 , LOW ( 200 )
0020b6 e0e0     +LDI R30 , HIGH ( 200 )
0020b7 071e     +CPC R17 , R30
                 	__CPWRN 16,17,200
0020b8 f43c      	BRGE _0x1B1
                 ; 0000 03CF          {
                 ; 0000 03D0             rx_b0[i]=0;
0020b9 eaab      	LDI  R26,LOW(_rx_b0)
0020ba e0b3      	LDI  R27,HIGH(_rx_b0)
0020bb 940e 2823 	CALL SUBOPT_0x50
                 ; 0000 03D1          }
                +
0020bd 5f0f     +SUBI R16 , LOW ( - 1 )
0020be 4f1f     +SBCI R17 , HIGH ( - 1 )
                 	__ADDWRN 16,17,1
0020bf cff5      	RJMP _0x1B0
                 _0x1B1:
                 ; 0000 03D2       }
0020c0 940e 2964 	CALL __LOADLOCR6
0020c2 966b      	ADIW R28,27
0020c3 9508      	RET
                 ;   //---------------------------------------------------------------------------------------------//
                 ;
                 ;
                 ;
                 ;
                 ;/////////////////////////////////////////////////////////////////////////////////////////////////////////////////////
                 ;//******************************************** PROGRAMA PRINCIPAL *************************************************//
                 ;/////////////////////////////////////////////////////////////////////////////////////////////////////////////////////
                 ;void main(void)
                 ; 0000 03DC {
                 _main:
                 ; 0000 03DD 
                 ; 0000 03DE    int j = 0;
                 ; 0000 03DF    // CODIGO GENERADO CON EL COMPILADOR CODEVISION
                 ; 0000 03E0       #pragma optsize-
                 ; 0000 03E1       CLKPR=0x80;
                 ;	j -> R16,R17
                +
0020c4 e000     +LDI R16 , LOW ( 0 )
0020c5 e010     +LDI R17 , HIGH ( 0 )
                 	__GETWRN 16,17,0
0020c6 e8e0      	LDI  R30,LOW(128)
0020c7 93e0 0061 	STS  97,R30
                 ; 0000 03E2       CLKPR=0x00;
0020c9 e0e0      	LDI  R30,LOW(0)
0020ca 93e0 0061 	STS  97,R30
                 ; 0000 03E3       #ifdef _OPTIMIZE_SIZE_
                 ; 0000 03E4          #pragma optsize+
                 ; 0000 03E5       #endif
                 ; 0000 03E6 
                 ; 0000 03E7       DATADDR = 0xff;
0020cc efef      	LDI  R30,LOW(255)
0020cd b9e7      	OUT  0x7,R30
                 ; 0000 03E8 
                 ; 0000 03E9       PORTA=0xFF;
0020ce b9e2      	OUT  0x2,R30
                 ; 0000 03EA       DDRA=0xF0;
0020cf efe0      	LDI  R30,LOW(240)
0020d0 b9e1      	OUT  0x1,R30
                 ; 0000 03EB 
                 ; 0000 03EC       PORTB=0x00;
0020d1 e0e0      	LDI  R30,LOW(0)
0020d2 b9e5      	OUT  0x5,R30
                 ; 0000 03ED       DDRB=0xFF;
0020d3 efef      	LDI  R30,LOW(255)
0020d4 b9e4      	OUT  0x4,R30
                 ; 0000 03EE 
                 ; 0000 03EF       PORTD=0x00;
0020d5 e0e0      	LDI  R30,LOW(0)
0020d6 b9eb      	OUT  0xB,R30
                 ; 0000 03F0       DDRD=0b11110000;
0020d7 efe0      	LDI  R30,LOW(240)
0020d8 b9ea      	OUT  0xA,R30
                 ; 0000 03F1 
                 ; 0000 03F2       // USART0 initialization
                 ; 0000 03F3       // Communication Parameters: 8 Data, 1 Stop, No Parity
                 ; 0000 03F4       // USART0 Receiver: On
                 ; 0000 03F5       // USART0 Transmitter: On
                 ; 0000 03F6       // USART0 Mode: Asynchronous
                 ; 0000 03F7       //// USART0 Baud Rate: 9600 11.0592 MHz
                 ; 0000 03F8       //UCSR0A=0x00;
                 ; 0000 03F9       //UCSR0B=0x98;
                 ; 0000 03FA       //UCSR0C=0x06;
                 ; 0000 03FB       //UBRR0H=0x00;
                 ; 0000 03FC       //UBRR0L=0x47;
                 ; 0000 03FD 
                 ; 0000 03FE       // USART0 Baud Rate: 115200
                 ; 0000 03FF       UCSR0A=0x00;
0020d9 e0e0      	LDI  R30,LOW(0)
0020da 93e0 00c0 	STS  192,R30
                 ; 0000 0400       UCSR0B=0x98;
0020dc e9e8      	LDI  R30,LOW(152)
0020dd 93e0 00c1 	STS  193,R30
                 ; 0000 0401       UCSR0C=0x06;
0020df e0e6      	LDI  R30,LOW(6)
0020e0 93e0 00c2 	STS  194,R30
                 ; 0000 0402       UBRR0H=0x00;
0020e2 e0e0      	LDI  R30,LOW(0)
0020e3 93e0 00c5 	STS  197,R30
                 ; 0000 0403       UBRR0L=0x05;
0020e5 e0e5      	LDI  R30,LOW(5)
0020e6 93e0 00c4 	STS  196,R30
                 ; 0000 0404 
                 ; 0000 0405       //USART0 Baud Rate: 9600 8 MHz
                 ; 0000 0406       //UCSR0A=0x00;
                 ; 0000 0407       //UCSR0B=0x18;
                 ; 0000 0408       //UCSR0C=0x06;
                 ; 0000 0409       //UBRR0H=0x00;
                 ; 0000 040A       //UBRR0L=0x33;
                 ; 0000 040B 
                 ; 0000 040C       // Timer/Counter 0 initialization
                 ; 0000 040D       // Clock source: System Clock
                 ; 0000 040E       // Clock value: 10,800 kHz
                 ; 0000 040F       // Mode: Normal top=0xFF
                 ; 0000 0410       // OC0A output: Disconnected
                 ; 0000 0411       // OC0B output: Disconnected
                 ; 0000 0412       TCCR0A=0x00;
0020e8 e0e0      	LDI  R30,LOW(0)
0020e9 bde4      	OUT  0x24,R30
                 ; 0000 0413       TCCR0B=0x05;
0020ea e0e5      	LDI  R30,LOW(5)
0020eb bde5      	OUT  0x25,R30
                 ; 0000 0414       TCNT0=0x00;
0020ec e0e0      	LDI  R30,LOW(0)
0020ed bde6      	OUT  0x26,R30
                 ; 0000 0415       OCR0A=0x00;
0020ee bde7      	OUT  0x27,R30
                 ; 0000 0416       OCR0B=0x00;
0020ef bde8      	OUT  0x28,R30
                 ; 0000 0417 
                 ; 0000 0418       // Timer/Counter 0 Interrupt(s) initialization
                 ; 0000 0419       TIMSK0=0x01;
0020f0 e0e1      	LDI  R30,LOW(1)
0020f1 93e0 006e 	STS  110,R30
                 ; 0000 041A 
                 ; 0000 041B    // Inicilizar GLCD
                 ; 0000 041C       glcd_on();
0020f3 940e 17fe 	CALL _glcd_on
                 ; 0000 041D       delay_ms(INIT_DELAY_GLCD_MS);
0020f5 e0ea      	LDI  R30,LOW(10)
0020f6 e0f0      	LDI  R31,HIGH(10)
0020f7 940e 2828 	CALL SUBOPT_0x51
                 ; 0000 041E       glcd_clear();
                 ; 0000 041F 
                 ; 0000 0420       buzz();
0020f9 940e 282e 	CALL SUBOPT_0x52
                 ; 0000 0421       buzz();
                 ; 0000 0422 
                 ; 0000 0423       // Dibuja KRADAC
                 ; 0000 0424       bmp_disp(arr,0,0,127,7);
0020fb efe0      	LDI  R30,LOW(_arr*2)
0020fc e0f9      	LDI  R31,HIGH(_arr*2)
0020fd 940e 2832 	CALL SUBOPT_0x53
0020ff 940e 25ef 	CALL SUBOPT_0x2
002101 940e 2835 	CALL SUBOPT_0x54
002103 940e 283a 	CALL SUBOPT_0x55
                 ; 0000 0425       delay_ms( DELAY_PANTALLA_INI );
002105 ede0      	LDI  R30,LOW(2000)
002106 e0f7      	LDI  R31,HIGH(2000)
002107 940e 2828 	CALL SUBOPT_0x51
                 ; 0000 0426       glcd_clear();
                 ; 0000 0427 
                 ; 0000 0428       // Dibuja BUS
                 ; 0000 0429       bmp_disp(bus,0,0,45,7);
002109 efe0      	LDI  R30,LOW(_bus*2)
00210a e0fd      	LDI  R31,HIGH(_bus*2)
00210b 940e 2832 	CALL SUBOPT_0x53
00210d 940e 25ef 	CALL SUBOPT_0x2
00210f e2ed      	LDI  R30,LOW(45)
002110 e0f0      	LDI  R31,HIGH(45)
002111 93fa      	ST   -Y,R31
002112 93ea      	ST   -Y,R30
002113 940e 283a 	CALL SUBOPT_0x55
                 ; 0000 042A 
                 ; 0000 042B       // Escribe NOMBRE_PANTALLA "SITU"
                 ; 0000 042C       glcd_puts(NOMBRE_DISP,55,2,0,2,-1);
002115 e1e3      	LDI  R30,LOW(_NOMBRE_DISP)
002116 e0f5      	LDI  R31,HIGH(_NOMBRE_DISP)
002117 93fa      	ST   -Y,R31
002118 93ea      	ST   -Y,R30
002119 e3e7      	LDI  R30,LOW(55)
00211a e0f0      	LDI  R31,HIGH(55)
00211b 940e 2840 	CALL SUBOPT_0x56
                 ; 0000 042D 
                 ; 0000 042E       // Escribe NUMERO_PANTALLA "BUS####"
                 ; 0000 042F       glcd_puts("BUS",59,5,0,1,-1);
                +
00211d e0ed     +LDI R30 , LOW ( _0x1B2 + ( 0 ) )
00211e e0f3     +LDI R31 , HIGH ( _0x1B2 + ( 0 ) )
                 	__POINTW1MN _0x1B2,0
00211f 93fa      	ST   -Y,R31
002120 93ea      	ST   -Y,R30
002121 e3eb      	LDI  R30,LOW(59)
002122 e0f0      	LDI  R31,HIGH(59)
002123 940e 284e 	CALL SUBOPT_0x57
002125 940e 2851 	CALL SUBOPT_0x58
                 ; 0000 0430       glcd_puts(NUM_DISP,82,5,0,1,-1);
002127 e1e8      	LDI  R30,LOW(_NUM_DISP)
002128 e0f5      	LDI  R31,HIGH(_NUM_DISP)
002129 93fa      	ST   -Y,R31
00212a 93ea      	ST   -Y,R30
00212b e5e2      	LDI  R30,LOW(82)
00212c e0f0      	LDI  R31,HIGH(82)
00212d 940e 284e 	CALL SUBOPT_0x57
00212f 940e 2851 	CALL SUBOPT_0x58
                 ; 0000 0431       glcd_puts(VERSION,40,7,0,1,-1);
                +
002131 e1e1     +LDI R30 , LOW ( _0x1B2 + ( 4 ) )
002132 e0f3     +LDI R31 , HIGH ( _0x1B2 + ( 4 ) )
                 	__POINTW1MN _0x1B2,4
002133 93fa      	ST   -Y,R31
002134 93ea      	ST   -Y,R30
002135 e2e8      	LDI  R30,LOW(40)
002136 e0f0      	LDI  R31,HIGH(40)
002137 940e 2859 	CALL SUBOPT_0x59
002139 940e 2851 	CALL SUBOPT_0x58
                 ; 0000 0432 
                 ; 0000 0433       //Tiempo q muestra la pantalla de inicio
                 ; 0000 0434       delay_ms( DELAY_PANTALLA_INI );
00213b ede0      	LDI  R30,LOW(2000)
00213c e0f7      	LDI  R31,HIGH(2000)
00213d 940e 2828 	CALL SUBOPT_0x51
                 ; 0000 0435       glcd_clear();
                 ; 0000 0436 
                 ; 0000 0437 
                 ; 0000 0438    ////////////  VALORES INICIALES PARA VARIABLES DE LA EEPROM ///////////
                 ; 0000 0439 
                 ; 0000 043A       // En caso de que no haya recibido tramas del sky
                 ; 0000 043B       // previene que muestre valores de -1 en la hora y fecha
                 ; 0000 043C       if (hora1 == 0xff )
00213f 940e 26db 	CALL SUBOPT_0x27
002141 3fef      	CPI  R30,LOW(0xFF)
002142 f479      	BRNE _0x1B3
                 ; 0000 043D       {
                 ; 0000 043E          hora1 = 0; min1 = 0; seg1 = 0;
002143 e8aa      	LDI  R26,LOW(_hora1)
002144 e0b0      	LDI  R27,HIGH(_hora1)
002145 e0e0      	LDI  R30,LOW(0)
002146 940e 294c 	CALL __EEPROMWRB
002148 940e 26ca 	CALL SUBOPT_0x24
00214a 940e 26b4 	CALL SUBOPT_0x20
                 ; 0000 043F            hora = 0; minu = 0;  seg = 0;
00214c 940e 26d5 	CALL SUBOPT_0x26
00214e 940e 26bf 	CALL SUBOPT_0x22
002150 940e 26ae 	CALL SUBOPT_0x1F
                 ; 0000 0440       }
                 ; 0000 0441 
                 ; 0000 0442       // En caso de que no haya fecha
                 ; 0000 0443       if (mes == 0xff && dia == 0xff && an == 0xff)
                 _0x1B3:
002152 940e 2860 	CALL SUBOPT_0x5A
002154 3fef      	CPI  R30,LOW(0xFF)
002155 f441      	BRNE _0x1B5
002156 940e 281e 	CALL SUBOPT_0x4F
002158 3fef      	CPI  R30,LOW(0xFF)
002159 f421      	BRNE _0x1B5
00215a 940e 2865 	CALL SUBOPT_0x5B
00215c 3fef      	CPI  R30,LOW(0xFF)
00215d f009      	BREQ _0x1B6
                 _0x1B5:
00215e c019      	RJMP _0x1B4
                 _0x1B6:
                 ; 0000 0444       {
                 ; 0000 0445          dia = 0; dia1 = 0;
00215f e8ac      	LDI  R26,LOW(_dia)
002160 e0b0      	LDI  R27,HIGH(_dia)
002161 e0e0      	LDI  R30,LOW(0)
002162 940e 294c 	CALL __EEPROMWRB
002164 e8ae      	LDI  R26,LOW(_dia1)
002165 e0b0      	LDI  R27,HIGH(_dia1)
002166 940e 294c 	CALL __EEPROMWRB
                 ; 0000 0446           mes = 0; mes1 = 0;
002168 e9a0      	LDI  R26,LOW(_mes)
002169 e0b0      	LDI  R27,HIGH(_mes)
00216a 940e 294c 	CALL __EEPROMWRB
00216c e9a2      	LDI  R26,LOW(_mes1)
00216d e0b0      	LDI  R27,HIGH(_mes1)
00216e 940e 294c 	CALL __EEPROMWRB
                 ; 0000 0447            an = 0;  an1 = 0;
002170 e9a4      	LDI  R26,LOW(_an)
002171 e0b0      	LDI  R27,HIGH(_an)
002172 940e 294c 	CALL __EEPROMWRB
002174 e9a6      	LDI  R26,LOW(_an1)
002175 e0b0      	LDI  R27,HIGH(_an1)
002176 940e 294c 	CALL __EEPROMWRB
                 ; 0000 0448       }
                 ; 0000 0449 
                 ; 0000 044A       // Iniciala la eeprom.
                 ; 0000 044B       if (num_ruta  == 0xff)
                 _0x1B4:
002178 e2a8      	LDI  R26,LOW(_num_ruta)
002179 e0b0      	LDI  R27,HIGH(_num_ruta)
00217a 940e 2940 	CALL __EEPROMRDB
00217c 3fef      	CPI  R30,LOW(0xFF)
00217d f431      	BRNE _0x1B7
                 ; 0000 044C       {
                 ; 0000 044D          num_ruta  = 0;
00217e e2a8      	LDI  R26,LOW(_num_ruta)
00217f e0b0      	LDI  R27,HIGH(_num_ruta)
002180 e0e0      	LDI  R30,LOW(0)
002181 940e 294c 	CALL __EEPROMWRB
                 ; 0000 044E          _num_ruta = 0;
002183 c004      	RJMP _0x1F0
                 ; 0000 044F       }
                 ; 0000 0450       else
                 _0x1B7:
                 ; 0000 0451          _num_ruta = num_ruta;
002184 e2a8      	LDI  R26,LOW(_num_ruta)
002185 e0b0      	LDI  R27,HIGH(_num_ruta)
002186 940e 2940 	CALL __EEPROMRDB
                 _0x1F0:
002188 93e0 0557 	STS  __num_ruta,R30
                 ; 0000 0452 
                 ; 0000 0453       if (laborando > 2)
00218a e2aa      	LDI  R26,LOW(_laborando)
00218b e0b0      	LDI  R27,HIGH(_laborando)
00218c 940e 2940 	CALL __EEPROMRDB
00218e 30e3      	CPI  R30,LOW(0x3)
00218f f038      	BRLO _0x1B9
                 ; 0000 0454       {
                 ; 0000 0455          laborando = 0;
002190 e2aa      	LDI  R26,LOW(_laborando)
002191 e0b0      	LDI  R27,HIGH(_laborando)
002192 e0e0      	LDI  R30,LOW(0)
002193 940e 294c 	CALL __EEPROMWRB
                 ; 0000 0456          _laborando= 0;
002195 93e0 0558 	STS  __laborando,R30
                 ; 0000 0457       }
                 ; 0000 0458       //else
                 ; 0000 0459       //   _laborando = laborando;
                 ; 0000 045A 
                 ; 0000 045B       // Limpia el buffer de mensaje recibido
                 ; 0000 045C       for( j = 0; j < TXT_BUF_SZ; j++ )
                 _0x1B9:
                +
002197 e000     +LDI R16 , LOW ( 0 )
002198 e010     +LDI R17 , HIGH ( 0 )
                 	__GETWRN 16,17,0
                 _0x1BB:
                +
002199 3a00     +CPI R16 , LOW ( 160 )
00219a e0e0     +LDI R30 , HIGH ( 160 )
00219b 071e     +CPC R17 , R30
                 	__CPWRN 16,17,160
00219c f43c      	BRGE _0x1BC
                 ; 0000 045D               txt_glcd_b0[j] = 0x00;
00219d e7a3      	LDI  R26,LOW(_txt_glcd_b0)
00219e e0b4      	LDI  R27,HIGH(_txt_glcd_b0)
00219f 940e 2823 	CALL SUBOPT_0x50
                +
0021a1 5f0f     +SUBI R16 , LOW ( - 1 )
0021a2 4f1f     +SBCI R17 , HIGH ( - 1 )
                 	__ADDWRN 16,17,1
0021a3 cff5      	RJMP _0x1BB
                 _0x1BC:
                 ; 0000 0462 #asm("sei")
0021a4 9478      	sei
                 ; 0000 0463 
                 ; 0000 0464    // Muestra vacio
                 ; 0000 0465    bmp_disp(vacio,0,5,25,7);
0021a5 940e 2759 	CALL SUBOPT_0x31
0021a7 940e 2738 	CALL SUBOPT_0x2E
0021a9 940e 275e 	CALL SUBOPT_0x32
                 ; 0000 0466 
                 ; 0000 0467    // Pide el ID del Skypatrol para verificar la pantalla
                 ; 0000 0468    printf("AT$TTDEVID?\n\r");
0021ab 940e 2695 	CALL SUBOPT_0x1C
                 ; 0000 0469    delay_us( 500 );
                +
0021ad e686     +LDI R24 , LOW ( 1382 )
0021ae e095     +LDI R25 , HIGH ( 1382 )
                +__DELAY_USW_LOOP :
0021af 9701     +SBIW R24 , 1
0021b0 f7f1     +BRNE __DELAY_USW_LOOP
                 	__DELAY_USW 1382
                 ; 0000 046A    obt();
0021b1 dbc0      	RCALL _obt
                 ; 0000 046B 
                 ; 0000 046C    // Estados iniciales de los botones
                 ; 0000 046D    bandera1 = 0;
0021b2 2499      	CLR  R9
                 ; 0000 046E    bandera2 = 0;
0021b3 24cc      	CLR  R12
                 ; 0000 046F    bandera3 = 0;
0021b4 24bb      	CLR  R11
                 ; 0000 0470 
                 ; 0000 0471     // Forza la autorizacion de la pantalla
                 ; 0000 0472     act =1;
0021b5 940e 27fa 	CALL SUBOPT_0x49
                 ; 0000 0473 
                 ; 0000 0474    while (1)
                 _0x1BD:
                 ; 0000 0475    {
                 ; 0000 0476 
                 ; 0000 0477       // Verifica la bandera de interrupcion serial
                 ; 0000 0478       if( BIT_UART == 0 )
0021b7 99f1      	SBIC 0x1E,1
0021b8 c002      	RJMP _0x1C0
                 ; 0000 0479       {
                 ; 0000 047A          obt();
0021b9 dbb8      	RCALL _obt
                 ; 0000 047B          BIT_UART=1;
0021ba 9af1      	SBI  0x1E,1
                 ; 0000 047C       }
                 ; 0000 047D 
                 ; 0000 047E       // GRAFICA LA RUTA ACTUAL.
                 ; 0000 047F       glcd_putchar(ruta_aux,79,7,0,1);
                 _0x1C0:
0021bb 92aa      	ST   -Y,R10
0021bc e4ef      	LDI  R30,LOW(79)
0021bd e0f0      	LDI  R31,HIGH(79)
0021be 940e 2859 	CALL SUBOPT_0x59
0021c0 e0e0      	LDI  R30,LOW(0)
0021c1 93ea      	ST   -Y,R30
0021c2 e0e1      	LDI  R30,LOW(1)
0021c3 93ea      	ST   -Y,R30
0021c4 940e 194a 	CALL _glcd_putchar
                 ; 0000 0480 
                 ; 0000 0481       boton1();
0021c6 da3f      	RCALL _boton1
                 ; 0000 0482 
                 ; 0000 0483       boton2();
0021c7 da95      	RCALL _boton2
                 ; 0000 0484 
                 ; 0000 0485       boton3();
0021c8 db11      	RCALL _boton3
                 ; 0000 0486 
                 ; 0000 0487       boton4();
0021c9 db3e      	RCALL _boton4
                 ; 0000 0488 
                 ; 0000 0489       dibujar_senal();
0021ca db7c      	RCALL _dibujar_senal
                 ; 0000 048A 
                 ; 0000 048B 
                 ; 0000 048C       // act = autoirzado
                 ; 0000 048D       if(act==1)
0021cb 91a0 0549 	LDS  R26,_act_G000
0021cd 91b0 054a 	LDS  R27,_act_G000+1
0021cf 9711      	SBIW R26,1
0021d0 f011      	BREQ PC+3
0021d1 940c 23e2 	JMP _0x1C3
                 ; 0000 048E       {
                 ; 0000 048F          if( gsm == 1)
0021d3 91a0 0522 	LDS  R26,_gsm
0021d5 91b0 0523 	LDS  R27,_gsm+1
0021d7 9711      	SBIW R26,1
0021d8 f411      	BRNE _0x1C4
                 ; 0000 0490          {
                 ; 0000 0491             glcd_putchar('E',19,0,1,1);
0021d9 e4e5      	LDI  R30,LOW(69)
0021da c001      	RJMP _0x1F1
                 ; 0000 0492          }else{
                 _0x1C4:
                 ; 0000 0493             glcd_putchar(' ',19,0,1,1);
0021db e2e0      	LDI  R30,LOW(32)
                 _0x1F1:
0021dc 93ea      	ST   -Y,R30
0021dd e1e3      	LDI  R30,LOW(19)
0021de e0f0      	LDI  R31,HIGH(19)
0021df 940e 2832 	CALL SUBOPT_0x53
0021e1 e0e1      	LDI  R30,LOW(1)
0021e2 93ea      	ST   -Y,R30
0021e3 93ea      	ST   -Y,R30
0021e4 940e 194a 	CALL _glcd_putchar
                 ; 0000 0494          }
                 ; 0000 0495 
                 ; 0000 0496 
                 ; 0000 0497          // Muestra el reloj al conductor
                 ; 0000 0498          if(pt==0)
0021e6 91e0 053c 	LDS  R30,_pt
0021e8 30e0      	CPI  R30,0
0021e9 f011      	BREQ PC+3
0021ea 940c 225b 	JMP _0x1C6
                 ; 0000 0499          {
                 ; 0000 049A             sprintf(reloj,"%d%d:%d%d:%d%d",hora1, hora, min1, minu, seg1, seg);
0021ec e2e8      	LDI  R30,LOW(_reloj)
0021ed e0f5      	LDI  R31,HIGH(_reloj)
0021ee 93fa      	ST   -Y,R31
0021ef 93ea      	ST   -Y,R30
                +
0021f0 e4e8     +LDI R30 , LOW ( 2 * _0x0 + ( 224 ) )
0021f1 e2fe     +LDI R31 , HIGH ( 2 * _0x0 + ( 224 ) )
                 	__POINTW1FN _0x0,224
0021f2 93fa      	ST   -Y,R31
0021f3 93ea      	ST   -Y,R30
0021f4 940e 26db 	CALL SUBOPT_0x27
0021f6 940e 2720 	CALL SUBOPT_0x2A
0021f8 940e 26d0 	CALL SUBOPT_0x25
0021fa 940e 2720 	CALL SUBOPT_0x2A
0021fc 940e 26c5 	CALL SUBOPT_0x23
0021fe 940e 2720 	CALL SUBOPT_0x2A
002200 940e 26ba 	CALL SUBOPT_0x21
002202 940e 2720 	CALL SUBOPT_0x2A
002204 940e 2690 	CALL SUBOPT_0x1B
002206 940e 2720 	CALL SUBOPT_0x2A
002208 940e 2686 	CALL SUBOPT_0x19
00220a 940e 2720 	CALL SUBOPT_0x2A
00220c e188      	LDI  R24,24
00220d 940e 2581 	CALL _sprintf
00220f 966c      	ADIW R28,28
                 ; 0000 049B             //printf("%d%d:%d%d:%d%d\n\r",hora1, hora, min1, minu, seg1, seg);
                 ; 0000 049C 
                 ; 0000 049D             // pasa de la eeprom a la flash del micro
                 ; 0000 049E             _seg  = seg  ;
002210 940e 2686 	CALL SUBOPT_0x19
002212 93e0 054b 	STS  __seg,R30
                 ; 0000 049F             _seg1 = seg1 ;    // segundos en unidades y decenas
002214 940e 2690 	CALL SUBOPT_0x1B
002216 93e0 054c 	STS  __seg1,R30
                 ; 0000 04A0             _minu = minu ;
002218 940e 26ba 	CALL SUBOPT_0x21
00221a 93e0 054d 	STS  __minu,R30
                 ; 0000 04A1             _min1 = min1 ;    // minutos en unidades y decenas
00221c 940e 26c5 	CALL SUBOPT_0x23
00221e 93e0 054e 	STS  __min1,R30
                 ; 0000 04A2             _hora = hora ;
002220 940e 26d0 	CALL SUBOPT_0x25
002222 93e0 054f 	STS  __hora,R30
                 ; 0000 04A3             _hora1= hora1;    // hora en unidades y decenas
002224 940e 26db 	CALL SUBOPT_0x27
002226 93e0 0550 	STS  __hora1,R30
                 ; 0000 04A4             _dia  = dia  ;
002228 940e 281e 	CALL SUBOPT_0x4F
00222a 93e0 0551 	STS  __dia,R30
                 ; 0000 04A5             _dia1 = dia1 ;    // dias en unidades y decenas
00222c e8ae      	LDI  R26,LOW(_dia1)
00222d e0b0      	LDI  R27,HIGH(_dia1)
00222e 940e 2940 	CALL __EEPROMRDB
002230 93e0 0552 	STS  __dia1,R30
                 ; 0000 04A6             _mes  = mes  ;
002232 940e 2860 	CALL SUBOPT_0x5A
002234 93e0 0553 	STS  __mes,R30
                 ; 0000 04A7             _mes1 = mes1 ;    // mes en unidades y decenas
002236 e9a2      	LDI  R26,LOW(_mes1)
002237 e0b0      	LDI  R27,HIGH(_mes1)
002238 940e 2940 	CALL __EEPROMRDB
00223a 93e0 0554 	STS  __mes1,R30
                 ; 0000 04A8             _an   = an   ;
00223c 940e 2865 	CALL SUBOPT_0x5B
00223e 93e0 0555 	STS  __an,R30
                 ; 0000 04A9             _an1  = an1  ;     // anos en unidades y decenas
002240 e9a6      	LDI  R26,LOW(_an1)
002241 e0b0      	LDI  R27,HIGH(_an1)
002242 940e 2940 	CALL __EEPROMRDB
002244 93e0 0556 	STS  __an1,R30
                 ; 0000 04AA 
                 ; 0000 04AB             num_ruta  = _num_ruta;
002246 91e0 0557 	LDS  R30,__num_ruta
002248 e2a8      	LDI  R26,LOW(_num_ruta)
002249 e0b0      	LDI  R27,HIGH(_num_ruta)
00224a 940e 294c 	CALL __EEPROMWRB
                 ; 0000 04AC             laborando = _laborando;
00224c 91e0 0558 	LDS  R30,__laborando
00224e e2aa      	LDI  R26,LOW(_laborando)
00224f e0b0      	LDI  R27,HIGH(_laborando)
002250 940e 294c 	CALL __EEPROMWRB
                 ; 0000 04AD 
                 ; 0000 04AE             glcd_puts(reloj,7,2,0,2,-1);
002252 e2e8      	LDI  R30,LOW(_reloj)
002253 e0f5      	LDI  R31,HIGH(_reloj)
002254 93fa      	ST   -Y,R31
002255 93ea      	ST   -Y,R30
002256 e0e7      	LDI  R30,LOW(7)
002257 e0f0      	LDI  R31,HIGH(7)
002258 940e 2840 	CALL SUBOPT_0x56
                 ; 0000 04AF          }
                 ; 0000 04B0 
                 ; 0000 04B1          //Entra a esta funcion cuando llega un punto de control, verificando por el evento 18  pt=1
                 ; 0000 04B2          else if(pt==1)
00225a c139      	RJMP _0x1C7
                 _0x1C6:
00225b 91a0 053c 	LDS  R26,_pt
00225d 30a1      	CPI  R26,LOW(0x1)
00225e f4f9      	BRNE _0x1C8
                 ; 0000 04B3          {
                 ; 0000 04B4             glcd_clrln(2);
00225f 940e 27e5 	CALL SUBOPT_0x47
                 ; 0000 04B5             glcd_clrln(3);
                 ; 0000 04B6             glcd_clrln(4);
                 ; 0000 04B7             glcd_clrln(5);
                 ; 0000 04B8 
                 ; 0000 04B9             delay_ms(1);
002261 940e 2783 	CALL SUBOPT_0x36
002263 940e 28cb 	CALL _delay_ms
                 ; 0000 04BA 
                 ; 0000 04BB             glcd_puts(no_pt,48,3,0,2,1);
002265 e3ed      	LDI  R30,LOW(_no_pt)
002266 e0f5      	LDI  R31,HIGH(_no_pt)
002267 93fa      	ST   -Y,R31
002268 93ea      	ST   -Y,R30
002269 e3e0      	LDI  R30,LOW(48)
00226a e0f0      	LDI  R31,HIGH(48)
00226b 940e 286a 	CALL SUBOPT_0x5C
00226d e0e0      	LDI  R30,LOW(0)
00226e 93ea      	ST   -Y,R30
00226f e0e2      	LDI  R30,LOW(2)
002270 93ea      	ST   -Y,R30
002271 e0e1      	LDI  R30,LOW(1)
002272 93ea      	ST   -Y,R30
002273 940e 19d0 	CALL _glcd_puts
                 ; 0000 04BC             //glcd_puts(nombre_pt,10,2,0,1,-2);
                 ; 0000 04BD 
                 ; 0000 04BE             buzz();
002275 940e 282e 	CALL SUBOPT_0x52
                 ; 0000 04BF             buzz();
                 ; 0000 04C0 
                 ; 0000 04C1             delay_ms(MOSTRAR_NUM_RUTA_MS);
002277 ede0      	LDI  R30,LOW(2000)
002278 e0f7      	LDI  R31,HIGH(2000)
002279 940e 2871 	CALL SUBOPT_0x5D
                 ; 0000 04C2 
                 ; 0000 04C3             glcd_clrln(2);
00227b 940e 27e5 	CALL SUBOPT_0x47
                 ; 0000 04C4             glcd_clrln(3);
                 ; 0000 04C5             glcd_clrln(4);
                 ; 0000 04C6             glcd_clrln(5);
                 ; 0000 04C7 
                 ; 0000 04C8             //esta variable se pone en 0 para que se vuelva a mostrar el reloj
                 ; 0000 04C9             pt=0;
00227d c113      	RJMP _0x1F2
                 ; 0000 04CA          }
                 ; 0000 04CB 
                 ; 0000 04CC          // CHOFER HA INICIADO SESION
                 ; 0000 04CD          else if (pt==2){
                 _0x1C8:
00227e 91a0 053c 	LDS  R26,_pt
002280 30a2      	CPI  R26,LOW(0x2)
002281 f011      	BREQ PC+3
002282 940c 22c5 	JMP _0x1CA
                 ; 0000 04CE             glcd_clrln(2);
002284 940e 27e5 	CALL SUBOPT_0x47
                 ; 0000 04CF             glcd_clrln(3);
                 ; 0000 04D0             glcd_clrln(4);
                 ; 0000 04D1             glcd_clrln(5);
                 ; 0000 04D2 
                 ; 0000 04D3             delay_ms(1);
002286 940e 2783 	CALL SUBOPT_0x36
002288 940e 28cb 	CALL _delay_ms
                 ; 0000 04D4 
                 ; 0000 04D5             // Simulacion de un inicio de sesion
                 ; 0000 04D6             glcd_puts("INICIO DE SESION",5,2,0,1,-1);
                +
00228a e1eb     +LDI R30 , LOW ( _0x1B2 + ( 14 ) )
00228b e0f3     +LDI R31 , HIGH ( _0x1B2 + ( 14 ) )
                 	__POINTW1MN _0x1B2,14
00228c 940e 284e 	CALL SUBOPT_0x57
00228e 940e 2875 	CALL SUBOPT_0x5E
                 ; 0000 04D7             delay_ms( 500 );
002290 efe4      	LDI  R30,LOW(500)
002291 e0f1      	LDI  R31,HIGH(500)
002292 940e 2871 	CALL SUBOPT_0x5D
                 ; 0000 04D8             glcd_puts("*",45,4,0,1,-1);
                +
002294 e2ec     +LDI R30 , LOW ( _0x1B2 + ( 31 ) )
002295 e0f3     +LDI R31 , HIGH ( _0x1B2 + ( 31 ) )
                 	__POINTW1MN _0x1B2,31
002296 93fa      	ST   -Y,R31
002297 93ea      	ST   -Y,R30
002298 e2ed      	LDI  R30,LOW(45)
002299 e0f0      	LDI  R31,HIGH(45)
00229a 940e 287a 	CALL SUBOPT_0x5F
                 ; 0000 04D9             delay_ms( 300 );
00229c 940e 2881 	CALL SUBOPT_0x60
                 ; 0000 04DA             glcd_puts("*",53,4,0,1,-1);
                +
00229e e2ee     +LDI R30 , LOW ( _0x1B2 + ( 33 ) )
00229f e0f3     +LDI R31 , HIGH ( _0x1B2 + ( 33 ) )
                 	__POINTW1MN _0x1B2,33
0022a0 93fa      	ST   -Y,R31
0022a1 93ea      	ST   -Y,R30
0022a2 e3e5      	LDI  R30,LOW(53)
0022a3 e0f0      	LDI  R31,HIGH(53)
0022a4 940e 287a 	CALL SUBOPT_0x5F
                 ; 0000 04DB             delay_ms( 300 );
0022a6 940e 2881 	CALL SUBOPT_0x60
                 ; 0000 04DC             glcd_puts("*",61,4,0,1,-1);
                +
0022a8 e3e0     +LDI R30 , LOW ( _0x1B2 + ( 35 ) )
0022a9 e0f3     +LDI R31 , HIGH ( _0x1B2 + ( 35 ) )
                 	__POINTW1MN _0x1B2,35
0022aa 93fa      	ST   -Y,R31
0022ab 93ea      	ST   -Y,R30
0022ac e3ed      	LDI  R30,LOW(61)
0022ad e0f0      	LDI  R31,HIGH(61)
0022ae 940e 287a 	CALL SUBOPT_0x5F
                 ; 0000 04DD             delay_ms( 300 );
0022b0 940e 2881 	CALL SUBOPT_0x60
                 ; 0000 04DE             glcd_puts("*",69,4,0,1,-1);
                +
0022b2 e3e2     +LDI R30 , LOW ( _0x1B2 + ( 37 ) )
0022b3 e0f3     +LDI R31 , HIGH ( _0x1B2 + ( 37 ) )
                 	__POINTW1MN _0x1B2,37
0022b4 93fa      	ST   -Y,R31
0022b5 93ea      	ST   -Y,R30
0022b6 e4e5      	LDI  R30,LOW(69)
0022b7 e0f0      	LDI  R31,HIGH(69)
0022b8 940e 287a 	CALL SUBOPT_0x5F
                 ; 0000 04DF             delay_ms( 500 );
0022ba efe4      	LDI  R30,LOW(500)
0022bb e0f1      	LDI  R31,HIGH(500)
0022bc 940e 2871 	CALL SUBOPT_0x5D
                 ; 0000 04E0 
                 ; 0000 04E1             buzz();
0022be 940e 282e 	CALL SUBOPT_0x52
                 ; 0000 04E2             buzz();
                 ; 0000 04E3 
                 ; 0000 04E4             delay_ms(MOSTRAR_MSN_ENV_MS);
0022c0 940e 2884 	CALL SUBOPT_0x61
                 ; 0000 04E5 
                 ; 0000 04E6             glcd_clrln(2);
0022c2 940e 27e5 	CALL SUBOPT_0x47
                 ; 0000 04E7             glcd_clrln(3);
                 ; 0000 04E8             glcd_clrln(4);
                 ; 0000 04E9             glcd_clrln(5);
                 ; 0000 04EA 
                 ; 0000 04EB             pt=0;  //esta variable se pone en 0 para que se vuelva a mostrar el reloj
0022c4 c0cc      	RJMP _0x1F2
                 ; 0000 04EC          }
                 ; 0000 04ED 
                 ; 0000 04EE          // FINALIZO LA RUTA
                 ; 0000 04EF          else if (pt==3){
                 _0x1CA:
0022c5 91a0 053c 	LDS  R26,_pt
0022c7 30a3      	CPI  R26,LOW(0x3)
0022c8 f4b9      	BRNE _0x1CC
                 ; 0000 04F0 
                 ; 0000 04F1             glcd_clrln(2);
0022c9 940e 27e5 	CALL SUBOPT_0x47
                 ; 0000 04F2             glcd_clrln(3);
                 ; 0000 04F3             glcd_clrln(4);
                 ; 0000 04F4             glcd_clrln(5);
                 ; 0000 04F5             delay_ms(1);
0022cb 940e 2783 	CALL SUBOPT_0x36
0022cd 940e 28cb 	CALL _delay_ms
                 ; 0000 04F6 
                 ; 0000 04F7             glcd_puts("FIN RUTA",28,3,0,1,-1);
                +
0022cf e3e4     +LDI R30 , LOW ( _0x1B2 + ( 39 ) )
0022d0 e0f3     +LDI R31 , HIGH ( _0x1B2 + ( 39 ) )
                 	__POINTW1MN _0x1B2,39
0022d1 93fa      	ST   -Y,R31
0022d2 93ea      	ST   -Y,R30
0022d3 e1ec      	LDI  R30,LOW(28)
0022d4 e0f0      	LDI  R31,HIGH(28)
0022d5 940e 286a 	CALL SUBOPT_0x5C
0022d7 940e 2851 	CALL SUBOPT_0x58
                 ; 0000 04F8 
                 ; 0000 04F9             buzz();
0022d9 940e 282e 	CALL SUBOPT_0x52
                 ; 0000 04FA             buzz();
                 ; 0000 04FB 
                 ; 0000 04FC             delay_ms(1000);
0022db 940e 2884 	CALL SUBOPT_0x61
                 ; 0000 04FD 
                 ; 0000 04FE             glcd_clrln(2);
0022dd 940e 27e5 	CALL SUBOPT_0x47
                 ; 0000 04FF             glcd_clrln(3);
                 ; 0000 0500             glcd_clrln(4);
                 ; 0000 0501             glcd_clrln(5);
                 ; 0000 0502             pt=0;  //esta variable se pone en 0 para que se vuelva a mostrar el reloj
0022df c0b1      	RJMP _0x1F2
                 ; 0000 0503          }
                 ; 0000 0504 
                 ; 0000 0505          else if (pt==4){
                 _0x1CC:
0022e0 91a0 053c 	LDS  R26,_pt
0022e2 30a4      	CPI  R26,LOW(0x4)
0022e3 f4b9      	BRNE _0x1CE
                 ; 0000 0506 
                 ; 0000 0507             glcd_clrln(2);
0022e4 940e 27e5 	CALL SUBOPT_0x47
                 ; 0000 0508             glcd_clrln(3);
                 ; 0000 0509             glcd_clrln(4);
                 ; 0000 050A             glcd_clrln(5);
                 ; 0000 050B             delay_ms(1);
0022e6 940e 2783 	CALL SUBOPT_0x36
0022e8 940e 28cb 	CALL _delay_ms
                 ; 0000 050C 
                 ; 0000 050D             glcd_puts("INICIO RUTA",20,3,0,1,-1);
                +
0022ea e3ed     +LDI R30 , LOW ( _0x1B2 + ( 48 ) )
0022eb e0f3     +LDI R31 , HIGH ( _0x1B2 + ( 48 ) )
                 	__POINTW1MN _0x1B2,48
0022ec 940e 2887 	CALL SUBOPT_0x62
0022ee e0e3      	LDI  R30,LOW(3)
0022ef e0f0      	LDI  R31,HIGH(3)
0022f0 93fa      	ST   -Y,R31
0022f1 93ea      	ST   -Y,R30
0022f2 940e 2851 	CALL SUBOPT_0x58
                 ; 0000 050E             buzz();
0022f4 940e 282e 	CALL SUBOPT_0x52
                 ; 0000 050F             buzz();
                 ; 0000 0510             delay_ms(MOSTRAR_MSN_ENV_MS);
0022f6 940e 2884 	CALL SUBOPT_0x61
                 ; 0000 0511 
                 ; 0000 0512             glcd_clrln(2);
0022f8 940e 27e5 	CALL SUBOPT_0x47
                 ; 0000 0513             glcd_clrln(3);
                 ; 0000 0514             glcd_clrln(4);
                 ; 0000 0515             glcd_clrln(5);
                 ; 0000 0516             pt=0;  //esta variable se pone en 0 para que se vuelva a mostrar el reloj
0022fa c096      	RJMP _0x1F2
                 ; 0000 0517          }
                 ; 0000 0518          //  CIERRA SESION
                 ; 0000 0519          else if (pt==5){
                 _0x1CE:
0022fb 91a0 053c 	LDS  R26,_pt
0022fd 30a5      	CPI  R26,LOW(0x5)
0022fe f4e9      	BRNE _0x1D0
                 ; 0000 051A             glcd_clrln(2);
0022ff 940e 27e5 	CALL SUBOPT_0x47
                 ; 0000 051B             glcd_clrln(3);
                 ; 0000 051C             glcd_clrln(4);
                 ; 0000 051D             glcd_clrln(5);
                 ; 0000 051E 
                 ; 0000 051F             delay_ms(1);
002301 940e 2783 	CALL SUBOPT_0x36
002303 940e 28cb 	CALL _delay_ms
                 ; 0000 0520 
                 ; 0000 0521             glcd_puts(" HA SALIDO",20,2,0,1,-1);
                +
002305 e4e9     +LDI R30 , LOW ( _0x1B2 + ( 60 ) )
002306 e0f3     +LDI R31 , HIGH ( _0x1B2 + ( 60 ) )
                 	__POINTW1MN _0x1B2,60
002307 940e 2887 	CALL SUBOPT_0x62
002309 940e 2875 	CALL SUBOPT_0x5E
                 ; 0000 0522             glcd_puts("DEL SISTEMA",20,4,0,1,-1);
                +
00230b e5e4     +LDI R30 , LOW ( _0x1B2 + ( 71 ) )
00230c e0f3     +LDI R31 , HIGH ( _0x1B2 + ( 71 ) )
                 	__POINTW1MN _0x1B2,71
00230d 940e 2887 	CALL SUBOPT_0x62
00230f e0e4      	LDI  R30,LOW(4)
002310 e0f0      	LDI  R31,HIGH(4)
002311 93fa      	ST   -Y,R31
002312 93ea      	ST   -Y,R30
002313 940e 2851 	CALL SUBOPT_0x58
                 ; 0000 0523 
                 ; 0000 0524             buzz();
002315 940e 282e 	CALL SUBOPT_0x52
                 ; 0000 0525             buzz();
                 ; 0000 0526 
                 ; 0000 0527             delay_ms(MOSTRAR_MSN_ENV_MS);
002317 940e 2884 	CALL SUBOPT_0x61
                 ; 0000 0528 
                 ; 0000 0529             glcd_clrln(2);
002319 940e 27e5 	CALL SUBOPT_0x47
                 ; 0000 052A             glcd_clrln(3);
                 ; 0000 052B             glcd_clrln(4);
                 ; 0000 052C             glcd_clrln(5);
                 ; 0000 052D 
                 ; 0000 052E             pt=0;  //esta variable se pone en 0 para que se vuelva a mostrar el reloj
00231b c075      	RJMP _0x1F2
                 ; 0000 052F 
                 ; 0000 0530             // CONSIDERAR - Cuando cierre sesion que se pida iniciar o no muestra nada.
                 ; 0000 0531             //pt=0;  //esta variable se pone en 0 para que se vuelva a mostrar el reloj
                 ; 0000 0532          }
                 ; 0000 0533 
                 ; 0000 0534          // Debe iniciar sesion // Aun no implementada
                 ; 0000 0535          else if (pt==6){
                 _0x1D0:
00231c 91a0 053c 	LDS  R26,_pt
00231e 30a6      	CPI  R26,LOW(0x6)
00231f f499      	BRNE _0x1D2
                 ; 0000 0536             glcd_clrln(2);
002320 940e 27e5 	CALL SUBOPT_0x47
                 ; 0000 0537             glcd_clrln(3);
                 ; 0000 0538             glcd_clrln(4);
                 ; 0000 0539             glcd_clrln(5);
                 ; 0000 053A 
                 ; 0000 053B             delay_ms(1);
002322 940e 2783 	CALL SUBOPT_0x36
002324 940e 28cb 	CALL _delay_ms
                 ; 0000 053C 
                 ; 0000 053D             glcd_puts("NECESITA INICIAR JORNADA",20,2,0,1,-1);
                +
002326 e6e0     +LDI R30 , LOW ( _0x1B2 + ( 83 ) )
002327 e0f3     +LDI R31 , HIGH ( _0x1B2 + ( 83 ) )
                 	__POINTW1MN _0x1B2,83
002328 940e 2887 	CALL SUBOPT_0x62
00232a 940e 2875 	CALL SUBOPT_0x5E
                 ; 0000 053E 
                 ; 0000 053F             buzz();
00232c 940e 282e 	CALL SUBOPT_0x52
                 ; 0000 0540             buzz();
                 ; 0000 0541 
                 ; 0000 0542             delay_ms(MOSTRAR_MSN_ENV_MS);
00232e 940e 2884 	CALL SUBOPT_0x61
                 ; 0000 0543 
                 ; 0000 0544             glcd_clrln(2);
002330 940e 27e5 	CALL SUBOPT_0x47
                 ; 0000 0545             glcd_clrln(3);
                 ; 0000 0546             glcd_clrln(4);
                 ; 0000 0547             glcd_clrln(5);
                 ; 0000 0548 
                 ; 0000 0549             pt=0;  //esta variable se pone en 0 para que se vuelva a mostrar el reloj
002332 c05e      	RJMP _0x1F2
                 ; 0000 054A          }
                 ; 0000 054B 
                 ; 0000 054C          // Mostrar el texto que llego desde el servidor
                 ; 0000 054D          else if ( pt == 7)
                 _0x1D2:
002333 91a0 053c 	LDS  R26,_pt
002335 30a7      	CPI  R26,LOW(0x7)
002336 f011      	BREQ PC+3
002337 940c 2394 	JMP _0x1D4
                 ; 0000 054E          {
                 ; 0000 054F 
                 ; 0000 0550             glcd_clear();
002339 940e 185f 	CALL _glcd_clear
                 ; 0000 0551 
                 ; 0000 0552             glcd_puts( "MENSAJE:",30,0,0,1,-1 );  // Muestra el mensaje
                +
00233b e7e9     +LDI R30 , LOW ( _0x1B2 + ( 108 ) )
00233c e0f3     +LDI R31 , HIGH ( _0x1B2 + ( 108 ) )
                 	__POINTW1MN _0x1B2,108
00233d 93fa      	ST   -Y,R31
00233e 93ea      	ST   -Y,R30
00233f e1ee      	LDI  R30,LOW(30)
002340 e0f0      	LDI  R31,HIGH(30)
002341 940e 2832 	CALL SUBOPT_0x53
002343 940e 2851 	CALL SUBOPT_0x58
                 ; 0000 0553 
                 ; 0000 0554             // Falta para hacer mensajes grandes
                 ; 0000 0555             glcd_puts( txt_glcd_b0,0,1,0,1,-1 );  // Muestra el mensaje
002345 e7e3      	LDI  R30,LOW(_txt_glcd_b0)
002346 e0f4      	LDI  R31,HIGH(_txt_glcd_b0)
002347 940e 2832 	CALL SUBOPT_0x53
002349 940e 2783 	CALL SUBOPT_0x36
00234b 940e 2851 	CALL SUBOPT_0x58
                 ; 0000 0556 
                 ; 0000 0557             delay_ms( DELAY_TXT_SERVIDOR );
00234d ebe8      	LDI  R30,LOW(3000)
00234e e0fb      	LDI  R31,HIGH(3000)
00234f 940e 2871 	CALL SUBOPT_0x5D
                 ; 0000 0558 
                 ; 0000 0559             while( BT1 &&
                 _0x1D5:
                 ; 0000 055A                     BT2 &&
                 ; 0000 055B                      BT3 &&
                 ; 0000 055C                       BT4 &&
                 ; 0000 055D                        BT5 )
002351 9b04      	SBIS 0x0,4
002352 c008      	RJMP _0x1D8
002353 9b03      	SBIS 0x0,3
002354 c006      	RJMP _0x1D8
002355 9b02      	SBIS 0x0,2
002356 c004      	RJMP _0x1D8
002357 9b01      	SBIS 0x0,1
002358 c002      	RJMP _0x1D8
002359 9900      	SBIC 0x0,0
00235a c001      	RJMP _0x1D9
                 _0x1D8:
00235b c003      	RJMP _0x1D7
                 _0x1D9:
                 ; 0000 055E             {
                 ; 0000 055F                // Espera a que se presione un boton cualquiera
                 ; 0000 0560                delay_ms(DELAY_BOTONES_MS);
00235c 940e 2778 	CALL SUBOPT_0x34
                 ; 0000 0561             }
00235e cff2      	RJMP _0x1D5
                 _0x1D7:
                 ; 0000 0562 
                 ; 0000 0563             glcd_clear();
00235f 940e 185f 	CALL _glcd_clear
                 ; 0000 0564             delay_ms( DELAY_BOTONES_MS );
002361 940e 2778 	CALL SUBOPT_0x34
                 ; 0000 0565 
                 ; 0000 0566             if ( _laborando == 1)
002363 91a0 0558 	LDS  R26,__laborando
002365 30a1      	CPI  R26,LOW(0x1)
002366 f449      	BRNE _0x1DA
                 ; 0000 0567             {
                 ; 0000 0568                //Muestra el chofer y la ruta
                 ; 0000 0569                bmp_disp(chofer,0,5,35,7);
002367 940e 2733 	CALL SUBOPT_0x2D
002369 940e 2738 	CALL SUBOPT_0x2E
00236b 940e 273d 	CALL SUBOPT_0x2F
                 ; 0000 056A                glcd_puts("RUTA:",44,7,0,1,-1);
                +
00236d e8e2     +LDI R30 , LOW ( _0x1B2 + ( 117 ) )
00236e e0f3     +LDI R31 , HIGH ( _0x1B2 + ( 117 ) )
                 	__POINTW1MN _0x1B2,117
00236f c00a      	RJMP _0x1F3
                 ; 0000 056B             }else{
                 _0x1DA:
                 ; 0000 056C                //Muestra el bus sin chofer
                 ; 0000 056D                bmp_disp( vacio, 0, 5, 25, 7);   // Borra el chofer
002370 940e 2759 	CALL SUBOPT_0x31
002372 940e 2738 	CALL SUBOPT_0x2E
002374 940e 275e 	CALL SUBOPT_0x32
                 ; 0000 056E                // Borra el caracter de la carrera
                 ; 0000 056F                glcd_putchar(' ',79,7,0,1);
002376 940e 2768 	CALL SUBOPT_0x33
                 ; 0000 0570                // Borra una trama de caracteres RUTA:
                 ; 0000 0571                glcd_puts("      ",44,7,0,1,-1);
                +
002378 e8e8     +LDI R30 , LOW ( _0x1B2 + ( 123 ) )
002379 e0f3     +LDI R31 , HIGH ( _0x1B2 + ( 123 ) )
                 	__POINTW1MN _0x1B2,123
                 _0x1F3:
00237a 93fa      	ST   -Y,R31
00237b 93ea      	ST   -Y,R30
00237c e2ec      	LDI  R30,LOW(44)
00237d e0f0      	LDI  R31,HIGH(44)
00237e 940e 2859 	CALL SUBOPT_0x59
002380 940e 2851 	CALL SUBOPT_0x58
                 ; 0000 0572 
                 ; 0000 0573             }
                 ; 0000 0574 
                 ; 0000 0575 
                 ; 0000 0576             printf("AT+CSQ\n\r"); // Vuelve a dibujar la senal
002382 940e 269e 	CALL SUBOPT_0x1D
                 ; 0000 0577 
                 ; 0000 0578 
                 ; 0000 0579             // Vacia el buffer
                 ; 0000 057A            for( j = 0; j < TXT_BUF_SZ; j++ )
                +
002384 e000     +LDI R16 , LOW ( 0 )
002385 e010     +LDI R17 , HIGH ( 0 )
                 	__GETWRN 16,17,0
                 _0x1DD:
                +
002386 3a00     +CPI R16 , LOW ( 160 )
002387 e0e0     +LDI R30 , HIGH ( 160 )
002388 071e     +CPC R17 , R30
                 	__CPWRN 16,17,160
002389 f43c      	BRGE _0x1DE
                 ; 0000 057B               txt_glcd_b0[j] = 0x00;
00238a e7a3      	LDI  R26,LOW(_txt_glcd_b0)
00238b e0b4      	LDI  R27,HIGH(_txt_glcd_b0)
00238c 940e 2823 	CALL SUBOPT_0x50
                +
00238e 5f0f     +SUBI R16 , LOW ( - 1 )
00238f 4f1f     +SBCI R17 , HIGH ( - 1 )
                 	__ADDWRN 16,17,1
002390 cff5      	RJMP _0x1DD
                 _0x1DE:
                 ; 0000 057D pt = 0;
                 _0x1F2:
002391 e0e0      	LDI  R30,LOW(0)
002392 93e0 053c 	STS  _pt,R30
                 ; 0000 057E 
                 ; 0000 057F          }
                 ; 0000 0580 
                 ; 0000 0581          // Con senal GPS
                 ; 0000 0582          if( gps == 'A' )
                 _0x1D4:
                 _0x1C7:
002394 940e 288a 	CALL SUBOPT_0x63
002396 34a1      	CPI  R26,LOW(0x41)
002397 e0e0      	LDI  R30,HIGH(0x41)
002398 07be      	CPC  R27,R30
002399 f419      	BRNE _0x1DF
                 ; 0000 0583          {
                 ; 0000 0584             bmp_disp(GPS1,95,0,127,1);
00239a efe0      	LDI  R30,LOW(_GPS1*2)
00239b e1fd      	LDI  R31,HIGH(_GPS1*2)
00239c c00b      	RJMP _0x1F4
                 ; 0000 0585 
                 ; 0000 0586             sprintf(fecha,"20%d%d-%d%d-%d%d",an1, an, mes1, mes, dia1, dia);
                 ; 0000 0587             glcd_puts(fecha,34,5,0,1,-1);
                 ; 0000 0588 
                 ; 0000 0589          }
                 ; 0000 058A          // Sin senal GPS
                 ; 0000 058B          else if (gps == 'V' || gps == '9' )
                 _0x1DF:
00239d 940e 288a 	CALL SUBOPT_0x63
00239f 35a6      	CPI  R26,LOW(0x56)
0023a0 e0e0      	LDI  R30,HIGH(0x56)
0023a1 07be      	CPC  R27,R30
0023a2 f019      	BREQ _0x1E2
0023a3 940e 288a 	CALL SUBOPT_0x63
0023a5 97d9      	SBIW R26,57
                 _0x1E2:
                 ; 0000 058C          {
                 ; 0000 058D             bmp_disp(GPS2,95,0,127,1);
                 ; 0000 058E 
                 ; 0000 058F             sprintf(fecha,"20%d%d-%d%d-%d%d",an1, an, mes1, mes, dia1, dia);
                 ; 0000 0590             glcd_puts(fecha,34,5,0,1,-1);
                 ; 0000 0591 
                 ; 0000 0592          }
                 ; 0000 0593          else
                 ; 0000 0594          {
                 ; 0000 0595             bmp_disp(GPS2,95,0,127,1);
                 _0x1F5:
0023a6 efe0      	LDI  R30,LOW(_GPS2*2)
0023a7 e2f1      	LDI  R31,HIGH(_GPS2*2)
                 _0x1F4:
0023a8 93fa      	ST   -Y,R31
0023a9 93ea      	ST   -Y,R30
0023aa e5ef      	LDI  R30,LOW(95)
0023ab e0f0      	LDI  R31,HIGH(95)
0023ac 940e 2832 	CALL SUBOPT_0x53
0023ae 940e 2835 	CALL SUBOPT_0x54
0023b0 940e 2783 	CALL SUBOPT_0x36
0023b2 940e 1a8a 	CALL _bmp_disp
                 ; 0000 0596             sprintf(fecha,"20%d%d-%d%d-%d%d",an1, an, mes1, mes, dia1, dia);
0023b4 e3e0      	LDI  R30,LOW(_fecha)
0023b5 e0f5      	LDI  R31,HIGH(_fecha)
0023b6 93fa      	ST   -Y,R31
0023b7 93ea      	ST   -Y,R30
                +
0023b8 ebe8     +LDI R30 , LOW ( 2 * _0x0 + ( 336 ) )
0023b9 e2fe     +LDI R31 , HIGH ( 2 * _0x0 + ( 336 ) )
                 	__POINTW1FN _0x0,336
0023ba 93fa      	ST   -Y,R31
0023bb 93ea      	ST   -Y,R30
0023bc e9a6      	LDI  R26,LOW(_an1)
0023bd e0b0      	LDI  R27,HIGH(_an1)
0023be 940e 288f 	CALL SUBOPT_0x64
0023c0 940e 2865 	CALL SUBOPT_0x5B
0023c2 940e 2720 	CALL SUBOPT_0x2A
0023c4 e9a2      	LDI  R26,LOW(_mes1)
0023c5 e0b0      	LDI  R27,HIGH(_mes1)
0023c6 940e 288f 	CALL SUBOPT_0x64
0023c8 940e 2860 	CALL SUBOPT_0x5A
0023ca 940e 2720 	CALL SUBOPT_0x2A
0023cc e8ae      	LDI  R26,LOW(_dia1)
0023cd e0b0      	LDI  R27,HIGH(_dia1)
0023ce 940e 288f 	CALL SUBOPT_0x64
0023d0 940e 281e 	CALL SUBOPT_0x4F
0023d2 940e 2720 	CALL SUBOPT_0x2A
0023d4 e188      	LDI  R24,24
0023d5 d1ab      	RCALL _sprintf
0023d6 966c      	ADIW R28,28
                 ; 0000 0597             glcd_puts(fecha,34,5,0,1,-1);
0023d7 e3e0      	LDI  R30,LOW(_fecha)
0023d8 e0f5      	LDI  R31,HIGH(_fecha)
0023d9 93fa      	ST   -Y,R31
0023da 93ea      	ST   -Y,R30
0023db e2e2      	LDI  R30,LOW(34)
0023dc e0f0      	LDI  R31,HIGH(34)
0023dd 940e 284e 	CALL SUBOPT_0x57
0023df 940e 2851 	CALL SUBOPT_0x58
                 ; 0000 0598          }
                 ; 0000 0599       }
                 ; 0000 059A 
                 ; 0000 059B       else
0023e1 c012      	RJMP _0x1E5
                 _0x1C3:
                 ; 0000 059C       {
                 ; 0000 059D          glcd_puts("Pantalla",30,2,0,1,-1);
                +
0023e2 e8ef     +LDI R30 , LOW ( _0x1B2 + ( 130 ) )
0023e3 e0f3     +LDI R31 , HIGH ( _0x1B2 + ( 130 ) )
                 	__POINTW1MN _0x1B2,130
0023e4 93fa      	ST   -Y,R31
0023e5 93ea      	ST   -Y,R30
0023e6 e1ee      	LDI  R30,LOW(30)
0023e7 e0f0      	LDI  R31,HIGH(30)
0023e8 93fa      	ST   -Y,R31
0023e9 93ea      	ST   -Y,R30
0023ea 940e 2875 	CALL SUBOPT_0x5E
                 ; 0000 059E          glcd_puts("No Autorizada",15,4,0,1,-1);
                +
0023ec e9e8     +LDI R30 , LOW ( _0x1B2 + ( 139 ) )
0023ed e0f3     +LDI R31 , HIGH ( _0x1B2 + ( 139 ) )
                 	__POINTW1MN _0x1B2,139
0023ee 93fa      	ST   -Y,R31
0023ef 93ea      	ST   -Y,R30
0023f0 e0ef      	LDI  R30,LOW(15)
0023f1 e0f0      	LDI  R31,HIGH(15)
0023f2 940e 287a 	CALL SUBOPT_0x5F
                 ; 0000 059F       }
                 _0x1E5:
                 ; 0000 05A0 
                 ; 0000 05A1          bmp_disp(frente,105,5,127,7);
0023f4 efe0      	LDI  R30,LOW(_frente*2)
0023f5 e1f5      	LDI  R31,HIGH(_frente*2)
0023f6 93fa      	ST   -Y,R31
0023f7 93ea      	ST   -Y,R30
0023f8 e6e9      	LDI  R30,LOW(105)
0023f9 e0f0      	LDI  R31,HIGH(105)
0023fa 940e 284e 	CALL SUBOPT_0x57
0023fc 940e 2835 	CALL SUBOPT_0x54
0023fe 940e 283a 	CALL SUBOPT_0x55
                 ; 0000 05A2    } // Fin del While
002400 cdb6      	RJMP _0x1BD
                 ; 0000 05A3 }
                 _0x1E6:
002401 cfff      	RJMP _0x1E6
                 
                 	.DSEG
                 _0x1B2:
00030d           	.BYTE 0x99
                 ;//---------------------------------------- FIN DEL PROGRAMA PRINCIPAL ---------------------------------------------//
                 	#ifndef __SLEEP_DEFINED__
                 	#endif
                 
                 	.CSEG
                 _putchar:
                 _0x2000006:
002402 91e0 00c0 	LDS  R30,192
002404 72e0      	ANDI R30,LOW(0x20)
002405 f3e1      	BREQ _0x2000006
002406 81e8      	LD   R30,Y
002407 93e0 00c6 	STS  198,R30
002409 9621      	ADIW R28,1
00240a 9508      	RET
                 _put_usart_G100:
00240b 81ea      	LDD  R30,Y+2
00240c 93ea      	ST   -Y,R30
00240d dff4      	RCALL _putchar
00240e 81a8      	LD   R26,Y
00240f 81b9      	LDD  R27,Y+1
002410 940e 260b 	CALL SUBOPT_0x7
002412 9623      	ADIW R28,3
002413 9508      	RET
                 _put_buff_G100:
002414 931a      	ST   -Y,R17
002415 930a      	ST   -Y,R16
002416 81aa      	LDD  R26,Y+2
002417 81bb      	LDD  R27,Y+2+1
002418 9612      	ADIW R26,2
002419 940e 292c 	CALL __GETW1P
00241b 9730      	SBIW R30,0
00241c f129      	BREQ _0x2000016
00241d 81aa      	LDD  R26,Y+2
00241e 81bb      	LDD  R27,Y+2+1
00241f 9614      	ADIW R26,4
002420 940e 292c 	CALL __GETW1P
002422 018f      	MOVW R16,R30
002423 9730      	SBIW R30,0
002424 f061      	BREQ _0x2000018
                +
002425 3002     +CPI R16 , LOW ( 2 )
002426 e0e0     +LDI R30 , HIGH ( 2 )
002427 071e     +CPC R17 , R30
                 	__CPWRN 16,17,2
002428 f0c0      	BRLO _0x2000019
002429 01f8      	MOVW R30,R16
00242a 9731      	SBIW R30,1
00242b 018f      	MOVW R16,R30
                +
00242c 81aa     +LDD R26 , Y + 2
00242d 81bb     +LDD R27 , Y + 2 + 1
00242e 9614     +ADIW R26 , 4
00242f 93ed     +ST X + , R30
002430 93fc     +ST X , R31
                 	__PUTW1SNS 2,4
                 _0x2000018:
002431 81aa      	LDD  R26,Y+2
002432 81bb      	LDD  R27,Y+2+1
002433 9612      	ADIW R26,2
002434 940e 260b 	CALL SUBOPT_0x7
002436 9731      	SBIW R30,1
002437 81ac      	LDD  R26,Y+4
002438 83a0      	STD  Z+0,R26
002439 81aa      	LDD  R26,Y+2
00243a 81bb      	LDD  R27,Y+2+1
00243b 940e 292c 	CALL __GETW1P
00243d 23ff      	TST  R31
00243e f012      	BRMI _0x200001A
00243f 940e 260b 	CALL SUBOPT_0x7
                 _0x200001A:
                 _0x2000019:
002441 c006      	RJMP _0x200001B
                 _0x2000016:
002442 81aa      	LDD  R26,Y+2
002443 81bb      	LDD  R27,Y+2+1
002444 efef      	LDI  R30,LOW(65535)
002445 efff      	LDI  R31,HIGH(65535)
002446 93ed      	ST   X+,R30
002447 93fc      	ST   X,R31
                 _0x200001B:
002448 8119      	LDD  R17,Y+1
002449 8108      	LDD  R16,Y+0
00244a 9625      	ADIW R28,5
00244b 9508      	RET
                 __print_G100:
00244c 9726      	SBIW R28,6
00244d 940e 295d 	CALL __SAVELOCR6
00244f e010      	LDI  R17,0
002450 85ac      	LDD  R26,Y+12
002451 85bd      	LDD  R27,Y+12+1
002452 e0e0      	LDI  R30,LOW(0)
002453 e0f0      	LDI  R31,HIGH(0)
002454 93ed      	ST   X+,R30
002455 93fc      	ST   X,R31
                 _0x200001C:
002456 89ea      	LDD  R30,Y+18
002457 89fb      	LDD  R31,Y+18+1
002458 9631      	ADIW R30,1
002459 8bea      	STD  Y+18,R30
00245a 8bfb      	STD  Y+18+1,R31
00245b 9731      	SBIW R30,1
00245c 91e4      	LPM  R30,Z
00245d 2f2e      	MOV  R18,R30
00245e 30e0      	CPI  R30,0
00245f f411      	BRNE PC+3
002460 940c 2579 	JMP _0x200001E
002462 2fe1      	MOV  R30,R17
002463 30e0      	CPI  R30,0
002464 f439      	BRNE _0x2000022
002465 3225      	CPI  R18,37
002466 f411      	BRNE _0x2000023
002467 e011      	LDI  R17,LOW(1)
002468 c002      	RJMP _0x2000024
                 _0x2000023:
002469 940e 2892 	CALL SUBOPT_0x65
                 _0x2000024:
00246b c10c      	RJMP _0x2000021
                 _0x2000022:
00246c 30e1      	CPI  R30,LOW(0x1)
00246d f4a9      	BRNE _0x2000025
00246e 3225      	CPI  R18,37
00246f f419      	BRNE _0x2000026
002470 940e 2892 	CALL SUBOPT_0x65
002472 c104      	RJMP _0x20000CF
                 _0x2000026:
002473 e012      	LDI  R17,LOW(2)
002474 e040      	LDI  R20,LOW(0)
002475 e000      	LDI  R16,LOW(0)
002476 322d      	CPI  R18,45
002477 f411      	BRNE _0x2000027
002478 e001      	LDI  R16,LOW(1)
002479 c0fe      	RJMP _0x2000021
                 _0x2000027:
00247a 322b      	CPI  R18,43
00247b f411      	BRNE _0x2000028
00247c e24b      	LDI  R20,LOW(43)
00247d c0fa      	RJMP _0x2000021
                 _0x2000028:
00247e 3220      	CPI  R18,32
00247f f411      	BRNE _0x2000029
002480 e240      	LDI  R20,LOW(32)
002481 c0f6      	RJMP _0x2000021
                 _0x2000029:
002482 c002      	RJMP _0x200002A
                 _0x2000025:
002483 30e2      	CPI  R30,LOW(0x2)
002484 f439      	BRNE _0x200002B
                 _0x200002A:
002485 e050      	LDI  R21,LOW(0)
002486 e013      	LDI  R17,LOW(3)
002487 3320      	CPI  R18,48
002488 f411      	BRNE _0x200002C
002489 6800      	ORI  R16,LOW(128)
00248a c0ed      	RJMP _0x2000021
                 _0x200002C:
00248b c004      	RJMP _0x200002D
                 _0x200002B:
00248c 30e3      	CPI  R30,LOW(0x3)
00248d f011      	BREQ PC+3
00248e 940c 2578 	JMP _0x2000021
                 _0x200002D:
002490 3320      	CPI  R18,48
002491 f010      	BRLO _0x2000030
002492 332a      	CPI  R18,58
002493 f008      	BRLO _0x2000031
                 _0x2000030:
002494 c007      	RJMP _0x200002F
                 _0x2000031:
002495 e0aa      	LDI  R26,LOW(10)
002496 9f5a      	MUL  R21,R26
002497 2d50      	MOV  R21,R0
002498 2fe2      	MOV  R30,R18
002499 53e0      	SUBI R30,LOW(48)
00249a 0f5e      	ADD  R21,R30
00249b c0dc      	RJMP _0x2000021
                 _0x200002F:
00249c 2fe2      	MOV  R30,R18
00249d 36e3      	CPI  R30,LOW(0x63)
00249e f449      	BRNE _0x2000035
00249f 940e 289b 	CALL SUBOPT_0x66
0024a1 89e8      	LDD  R30,Y+16
0024a2 89f9      	LDD  R31,Y+16+1
0024a3 81a4      	LDD  R26,Z+4
0024a4 93aa      	ST   -Y,R26
0024a5 940e 28a1 	CALL SUBOPT_0x67
0024a7 c0cf      	RJMP _0x2000036
                 _0x2000035:
0024a8 37e3      	CPI  R30,LOW(0x73)
0024a9 f441      	BRNE _0x2000038
0024aa 940e 289b 	CALL SUBOPT_0x66
0024ac 940e 28a9 	CALL SUBOPT_0x68
0024ae 940e 25d2 	CALL _strlen
0024b0 2f1e      	MOV  R17,R30
0024b1 c00a      	RJMP _0x2000039
                 _0x2000038:
0024b2 37e0      	CPI  R30,LOW(0x70)
0024b3 f461      	BRNE _0x200003B
0024b4 940e 289b 	CALL SUBOPT_0x66
0024b6 940e 28a9 	CALL SUBOPT_0x68
0024b8 940e 25dc 	CALL _strlenf
0024ba 2f1e      	MOV  R17,R30
0024bb 6008      	ORI  R16,LOW(8)
                 _0x2000039:
0024bc 6002      	ORI  R16,LOW(2)
0024bd 770f      	ANDI R16,LOW(127)
0024be e030      	LDI  R19,LOW(0)
0024bf c035      	RJMP _0x200003C
                 _0x200003B:
0024c0 36e4      	CPI  R30,LOW(0x64)
0024c1 f011      	BREQ _0x200003F
0024c2 36e9      	CPI  R30,LOW(0x69)
0024c3 f411      	BRNE _0x2000040
                 _0x200003F:
0024c4 6004      	ORI  R16,LOW(4)
0024c5 c002      	RJMP _0x2000041
                 _0x2000040:
0024c6 37e5      	CPI  R30,LOW(0x75)
0024c7 f431      	BRNE _0x2000042
                 _0x2000041:
0024c8 e4e0      	LDI  R30,LOW(_tbl10_G100*2)
0024c9 e2fd      	LDI  R31,HIGH(_tbl10_G100*2)
0024ca 83ee      	STD  Y+6,R30
0024cb 83ff      	STD  Y+6+1,R31
0024cc e015      	LDI  R17,LOW(5)
0024cd c00d      	RJMP _0x2000043
                 _0x2000042:
0024ce 35e8      	CPI  R30,LOW(0x58)
0024cf f411      	BRNE _0x2000045
0024d0 6008      	ORI  R16,LOW(8)
0024d1 c004      	RJMP _0x2000046
                 _0x2000045:
0024d2 37e8      	CPI  R30,LOW(0x78)
0024d3 f011      	BREQ PC+3
0024d4 940c 2577 	JMP _0x2000077
                 _0x2000046:
0024d6 e4ea      	LDI  R30,LOW(_tbl16_G100*2)
0024d7 e2fd      	LDI  R31,HIGH(_tbl16_G100*2)
0024d8 83ee      	STD  Y+6,R30
0024d9 83ff      	STD  Y+6+1,R31
0024da e014      	LDI  R17,LOW(4)
                 _0x2000043:
0024db ff02      	SBRS R16,2
0024dc c014      	RJMP _0x2000048
0024dd 940e 289b 	CALL SUBOPT_0x66
0024df 940e 28b3 	CALL SUBOPT_0x69
0024e1 85ab      	LDD  R26,Y+11
0024e2 23aa      	TST  R26
0024e3 f43a      	BRPL _0x2000049
0024e4 85ea      	LDD  R30,Y+10
0024e5 85fb      	LDD  R31,Y+10+1
0024e6 940e 28db 	CALL __ANEGW1
0024e8 87ea      	STD  Y+10,R30
0024e9 87fb      	STD  Y+10+1,R31
0024ea e24d      	LDI  R20,LOW(45)
                 _0x2000049:
0024eb 3040      	CPI  R20,0
0024ec f011      	BREQ _0x200004A
0024ed 5f1f      	SUBI R17,-LOW(1)
0024ee c001      	RJMP _0x200004B
                 _0x200004A:
0024ef 7f0b      	ANDI R16,LOW(251)
                 _0x200004B:
0024f0 c004      	RJMP _0x200004C
                 _0x2000048:
0024f1 940e 289b 	CALL SUBOPT_0x66
0024f3 940e 28b3 	CALL SUBOPT_0x69
                 _0x200004C:
                 _0x200003C:
0024f5 fd00      	SBRC R16,0
0024f6 c011      	RJMP _0x200004D
                 _0x200004E:
0024f7 1715      	CP   R17,R21
0024f8 f478      	BRSH _0x2000050
0024f9 ff07      	SBRS R16,7
0024fa c008      	RJMP _0x2000051
0024fb ff02      	SBRS R16,2
0024fc c004      	RJMP _0x2000052
0024fd 7f0b      	ANDI R16,LOW(251)
0024fe 2f24      	MOV  R18,R20
0024ff 5011      	SUBI R17,LOW(1)
002500 c001      	RJMP _0x2000053
                 _0x2000052:
002501 e320      	LDI  R18,LOW(48)
                 _0x2000053:
002502 c001      	RJMP _0x2000054
                 _0x2000051:
002503 e220      	LDI  R18,LOW(32)
                 _0x2000054:
002504 940e 2892 	CALL SUBOPT_0x65
002506 5051      	SUBI R21,LOW(1)
002507 cfef      	RJMP _0x200004E
                 _0x2000050:
                 _0x200004D:
002508 2f31      	MOV  R19,R17
002509 ff01      	SBRS R16,1
00250a c017      	RJMP _0x2000055
                 _0x2000056:
00250b 3030      	CPI  R19,0
00250c f0a1      	BREQ _0x2000058
00250d ff03      	SBRS R16,3
00250e c006      	RJMP _0x2000059
00250f 81ee      	LDD  R30,Y+6
002510 81ff      	LDD  R31,Y+6+1
002511 9125      	LPM  R18,Z+
002512 83ee      	STD  Y+6,R30
002513 83ff      	STD  Y+6+1,R31
002514 c005      	RJMP _0x200005A
                 _0x2000059:
002515 81ae      	LDD  R26,Y+6
002516 81bf      	LDD  R27,Y+6+1
002517 912d      	LD   R18,X+
002518 83ae      	STD  Y+6,R26
002519 83bf      	STD  Y+6+1,R27
                 _0x200005A:
00251a 940e 2892 	CALL SUBOPT_0x65
00251c 3050      	CPI  R21,0
00251d f009      	BREQ _0x200005B
00251e 5051      	SUBI R21,LOW(1)
                 _0x200005B:
00251f 5031      	SUBI R19,LOW(1)
002520 cfea      	RJMP _0x2000056
                 _0x2000058:
002521 c04b      	RJMP _0x200005C
                 _0x2000055:
                 _0x200005E:
002522 e320      	LDI  R18,LOW(48)
002523 81ee      	LDD  R30,Y+6
002524 81ff      	LDD  R31,Y+6+1
002525 940e 2930 	CALL __GETW1PF
002527 87e8      	STD  Y+8,R30
002528 87f9      	STD  Y+8+1,R31
002529 81ee      	LDD  R30,Y+6
00252a 81ff      	LDD  R31,Y+6+1
00252b 9632      	ADIW R30,2
00252c 83ee      	STD  Y+6,R30
00252d 83ff      	STD  Y+6+1,R31
                 _0x2000060:
00252e 85e8      	LDD  R30,Y+8
00252f 85f9      	LDD  R31,Y+8+1
002530 85aa      	LDD  R26,Y+10
002531 85bb      	LDD  R27,Y+10+1
002532 17ae      	CP   R26,R30
002533 07bf      	CPC  R27,R31
002534 f050      	BRLO _0x2000062
002535 5f2f      	SUBI R18,-LOW(1)
002536 85a8      	LDD  R26,Y+8
002537 85b9      	LDD  R27,Y+8+1
002538 85ea      	LDD  R30,Y+10
002539 85fb      	LDD  R31,Y+10+1
00253a 1bea      	SUB  R30,R26
00253b 0bfb      	SBC  R31,R27
00253c 87ea      	STD  Y+10,R30
00253d 87fb      	STD  Y+10+1,R31
00253e cfef      	RJMP _0x2000060
                 _0x2000062:
00253f 332a      	CPI  R18,58
002540 f028      	BRLO _0x2000063
002541 ff03      	SBRS R16,3
002542 c002      	RJMP _0x2000064
002543 5f29      	SUBI R18,-LOW(7)
002544 c001      	RJMP _0x2000065
                 _0x2000064:
002545 5d29      	SUBI R18,-LOW(39)
                 _0x2000065:
                 _0x2000063:
002546 fd04      	SBRC R16,4
002547 c01a      	RJMP _0x2000067
002548 3321      	CPI  R18,49
002549 f420      	BRSH _0x2000069
00254a 85a8      	LDD  R26,Y+8
00254b 85b9      	LDD  R27,Y+8+1
00254c 9711      	SBIW R26,1
00254d f409      	BRNE _0x2000068
                 _0x2000069:
00254e c009      	RJMP _0x20000D0
                 _0x2000068:
00254f 1753      	CP   R21,R19
002550 f010      	BRLO _0x200006D
002551 ff00      	SBRS R16,0
002552 c001      	RJMP _0x200006E
                 _0x200006D:
002553 c013      	RJMP _0x200006C
                 _0x200006E:
002554 e220      	LDI  R18,LOW(32)
002555 ff07      	SBRS R16,7
002556 c00b      	RJMP _0x200006F
002557 e320      	LDI  R18,LOW(48)
                 _0x20000D0:
002558 6100      	ORI  R16,LOW(16)
002559 ff02      	SBRS R16,2
00255a c007      	RJMP _0x2000070
00255b 7f0b      	ANDI R16,LOW(251)
00255c 934a      	ST   -Y,R20
00255d 940e 28a1 	CALL SUBOPT_0x67
00255f 3050      	CPI  R21,0
002560 f009      	BREQ _0x2000071
002561 5051      	SUBI R21,LOW(1)
                 _0x2000071:
                 _0x2000070:
                 _0x200006F:
                 _0x2000067:
002562 940e 2892 	CALL SUBOPT_0x65
002564 3050      	CPI  R21,0
002565 f009      	BREQ _0x2000072
002566 5051      	SUBI R21,LOW(1)
                 _0x2000072:
                 _0x200006C:
002567 5031      	SUBI R19,LOW(1)
002568 85a8      	LDD  R26,Y+8
002569 85b9      	LDD  R27,Y+8+1
00256a 9712      	SBIW R26,2
00256b f008      	BRLO _0x200005F
00256c cfb5      	RJMP _0x200005E
                 _0x200005F:
                 _0x200005C:
00256d ff00      	SBRS R16,0
00256e c008      	RJMP _0x2000073
                 _0x2000074:
00256f 3050      	CPI  R21,0
002570 f031      	BREQ _0x2000076
002571 5051      	SUBI R21,LOW(1)
002572 e2e0      	LDI  R30,LOW(32)
002573 93ea      	ST   -Y,R30
002574 940e 28a1 	CALL SUBOPT_0x67
002576 cff8      	RJMP _0x2000074
                 _0x2000076:
                 _0x2000073:
                 _0x2000077:
                 _0x2000036:
                 _0x20000CF:
002577 e010      	LDI  R17,LOW(0)
                 _0x2000021:
002578 cedd      	RJMP _0x200001C
                 _0x200001E:
002579 85ac      	LDD  R26,Y+12
00257a 85bd      	LDD  R27,Y+12+1
00257b 940e 292c 	CALL __GETW1P
00257d 940e 2964 	CALL __LOADLOCR6
00257f 9664      	ADIW R28,20
002580 9508      	RET
                 _sprintf:
002581 92ff      	PUSH R15
002582 2ef8      	MOV  R15,R24
002583 9726      	SBIW R28,6
002584 940e 295f 	CALL __SAVELOCR4
002586 940e 28bb 	CALL SUBOPT_0x6A
002588 9730      	SBIW R30,0
002589 f419      	BRNE _0x2000078
00258a efef      	LDI  R30,LOW(65535)
00258b efff      	LDI  R31,HIGH(65535)
00258c c01f      	RJMP _0x20A0001
                 _0x2000078:
00258d 01de      	MOVW R26,R28
00258e 9616      	ADIW R26,6
00258f 940e 28d7 	CALL __ADDW2R15
002591 018d      	MOVW R16,R26
002592 940e 28bb 	CALL SUBOPT_0x6A
002594 83ee      	STD  Y+6,R30
002595 83ff      	STD  Y+6+1,R31
002596 e0e0      	LDI  R30,LOW(0)
002597 87e8      	STD  Y+8,R30
002598 87e9      	STD  Y+8+1,R30
002599 01de      	MOVW R26,R28
00259a 961a      	ADIW R26,10
00259b 940e 28c2 	CALL SUBOPT_0x6B
00259d e1e4      	LDI  R30,LOW(_put_buff_G100)
00259e e2f4      	LDI  R31,HIGH(_put_buff_G100)
00259f 93fa      	ST   -Y,R31
0025a0 93ea      	ST   -Y,R30
0025a1 01fe      	MOVW R30,R28
0025a2 963a      	ADIW R30,10
0025a3 93fa      	ST   -Y,R31
0025a4 93ea      	ST   -Y,R30
0025a5 dea6      	RCALL __print_G100
0025a6 019f      	MOVW R18,R30
0025a7 81ae      	LDD  R26,Y+6
0025a8 81bf      	LDD  R27,Y+6+1
0025a9 e0e0      	LDI  R30,LOW(0)
0025aa 93ec      	ST   X,R30
0025ab 01f9      	MOVW R30,R18
                 _0x20A0001:
0025ac 940e 2966 	CALL __LOADLOCR4
0025ae 962a      	ADIW R28,10
0025af 90ff      	POP  R15
0025b0 9508      	RET
                 _printf:
0025b1 92ff      	PUSH R15
0025b2 2ef8      	MOV  R15,R24
0025b3 9726      	SBIW R28,6
0025b4 931a      	ST   -Y,R17
0025b5 930a      	ST   -Y,R16
0025b6 01de      	MOVW R26,R28
0025b7 9614      	ADIW R26,4
0025b8 940e 28d7 	CALL __ADDW2R15
0025ba 018d      	MOVW R16,R26
0025bb e0e0      	LDI  R30,LOW(0)
0025bc 83ec      	STD  Y+4,R30
0025bd 83ed      	STD  Y+4+1,R30
0025be 83ee      	STD  Y+6,R30
0025bf 83ef      	STD  Y+6+1,R30
0025c0 01de      	MOVW R26,R28
0025c1 9618      	ADIW R26,8
0025c2 940e 28c2 	CALL SUBOPT_0x6B
0025c4 e0eb      	LDI  R30,LOW(_put_usart_G100)
0025c5 e2f4      	LDI  R31,HIGH(_put_usart_G100)
0025c6 93fa      	ST   -Y,R31
0025c7 93ea      	ST   -Y,R30
0025c8 01fe      	MOVW R30,R28
0025c9 9638      	ADIW R30,8
0025ca 93fa      	ST   -Y,R31
0025cb 93ea      	ST   -Y,R30
0025cc de7f      	RCALL __print_G100
0025cd 8119      	LDD  R17,Y+1
0025ce 8108      	LDD  R16,Y+0
0025cf 9628      	ADIW R28,8
0025d0 90ff      	POP  R15
0025d1 9508      	RET
                 
                 	.CSEG
                 
                 	.DSEG
                 
                 	.CSEG
                 
                 	.CSEG
                 
                 	.CSEG
                 _strlen:
0025d2 91a9          ld   r26,y+
0025d3 91b9          ld   r27,y+
0025d4 27ee          clr  r30
0025d5 27ff          clr  r31
                 strlen0:
0025d6 916d          ld   r22,x+
0025d7 2366          tst  r22
0025d8 f011          breq strlen1
0025d9 9631          adiw r30,1
0025da cffb          rjmp strlen0
                 strlen1:
0025db 9508          ret
                 _strlenf:
0025dc 27aa          clr  r26
0025dd 27bb          clr  r27
0025de 91e9          ld   r30,y+
0025df 91f9          ld   r31,y+
                 strlenf0:
0025e0 9005      	lpm  r0,z+
0025e1 2000          tst  r0
0025e2 f011          breq strlenf1
0025e3 9611          adiw r26,1
0025e4 cffb          rjmp strlenf0
                 strlenf1:
0025e5 01fd          movw r30,r26
0025e6 9508          ret
                 
                 	.CSEG
                 
                 	.DSEG
                 _prevLet_G000:
0003a6           	.BYTE 0x2
                 _stat_G000:
0003a8           	.BYTE 0x1
                 _prevX_G000:
0003a9           	.BYTE 0x1
                 _prevY_G000:
0003aa           	.BYTE 0x1
                 _rx_b0:
0003ab           	.BYTE 0xC8
                 _txt_glcd_b0:
000473           	.BYTE 0xA0
                 _NOMBRE_DISP:
000513           	.BYTE 0x5
                 _NUM_DISP:
000518           	.BYTE 0x5
                 _aceptar:
00051d           	.BYTE 0x1
                 _btn1:
00051e           	.BYTE 0x1
                 _btn2:
00051f           	.BYTE 0x1
                 _btn4:
000520           	.BYTE 0x1
                 _btn5:
000521           	.BYTE 0x1
                 _gsm:
000522           	.BYTE 0x2
                 _gps:
000524           	.BYTE 0x2
                 _ind_sen:
000526           	.BYTE 0x2
                 _reloj:
000528           	.BYTE 0x8
                 _fecha:
000530           	.BYTE 0x8
                 _punto:
000538           	.BYTE 0x4
                 _pt:
00053c           	.BYTE 0x1
                 _no_pt:
00053d           	.BYTE 0x4
                 _unidades_ruta:
000541           	.BYTE 0x2
                 _decenas_ruta:
000543           	.BYTE 0x2
                 _centenas_ruta:
000545           	.BYTE 0x2
                 _time_count_G000:
000547           	.BYTE 0x2
                 _act_G000:
000549           	.BYTE 0x2
                 
                 	.ESEG
                 
                 	.ORG 0x80
                 _seg:
000080           	.BYTE 0x1
                 
                 	.ORG 0x0
                 
                 	.ORG 0x82
                 _seg1:
000082           	.BYTE 0x1
                 
                 	.ORG 0x0
                 
                 	.ORG 0x84
                 _minu:
000084           	.BYTE 0x1
                 
                 	.ORG 0x0
                 
                 	.ORG 0x86
                 _min1:
000086           	.BYTE 0x1
                 
                 	.ORG 0x0
                 
                 	.ORG 0x88
                 _hora:
000088           	.BYTE 0x1
                 
                 	.ORG 0x0
                 
                 	.ORG 0x8A
                 _hora1:
00008a           	.BYTE 0x1
                 
                 	.ORG 0x0
                 
                 	.ORG 0x8C
                 _dia:
00008c           	.BYTE 0x1
                 
                 	.ORG 0x0
                 
                 	.ORG 0x8E
                 _dia1:
00008e           	.BYTE 0x1
                 
                 	.ORG 0x0
                 
                 	.ORG 0x90
                 _mes:
000090           	.BYTE 0x1
                 
                 	.ORG 0x0
                 
                 	.ORG 0x92
                 _mes1:
000092           	.BYTE 0x1
                 
                 	.ORG 0x0
                 
                 	.ORG 0x94
                 _an:
000094           	.BYTE 0x1
                 
                 	.ORG 0x0
                 
                 	.ORG 0x96
                 _an1:
000096           	.BYTE 0x1
                 
                 	.ORG 0x0
                 
                 	.ORG 0x28
                 _num_ruta:
000028           	.BYTE 0x1
                 
                 	.ORG 0x0
                 
                 	.ORG 0x2A
                 _laborando:
00002a           	.BYTE 0x1
                 
                 	.ORG 0x0
                 
                 	.DSEG
                 __seg:
00054b           	.BYTE 0x1
                 __seg1:
00054c           	.BYTE 0x1
                 __minu:
00054d           	.BYTE 0x1
                 __min1:
00054e           	.BYTE 0x1
                 __hora:
00054f           	.BYTE 0x1
                 __hora1:
000550           	.BYTE 0x1
                 __dia:
000551           	.BYTE 0x1
                 __dia1:
000552           	.BYTE 0x1
                 __mes:
000553           	.BYTE 0x1
                 __mes1:
000554           	.BYTE 0x1
                 __an:
000555           	.BYTE 0x1
                 __an1:
000556           	.BYTE 0x1
                 __num_ruta:
000557           	.BYTE 0x1
                 __laborando:
000558           	.BYTE 0x1
                 __seed_G101:
000559           	.BYTE 0x4
                 
                 	.CSEG
                 ;OPTIMIZER ADDED SUBROUTINE, CALLED 3 TIMES, CODE SIZE REDUCTION:1 WORDS
                 SUBOPT_0x0:
0025e7 93fa      	ST   -Y,R31
0025e8 93ea      	ST   -Y,R30
0025e9 940c 1806 	JMP  _goto_col
                 
                 ;OPTIMIZER ADDED SUBROUTINE, CALLED 3 TIMES, CODE SIZE REDUCTION:1 WORDS
                 SUBOPT_0x1:
0025eb 93fa      	ST   -Y,R31
0025ec 93ea      	ST   -Y,R30
0025ed 940c 1822 	JMP  _goto_row
                 
                 ;OPTIMIZER ADDED SUBROUTINE, CALLED 16 TIMES, CODE SIZE REDUCTION:27 WORDS
                 SUBOPT_0x2:
0025ef e0e0      	LDI  R30,LOW(0)
0025f0 e0f0      	LDI  R31,HIGH(0)
0025f1 93fa      	ST   -Y,R31
0025f2 93ea      	ST   -Y,R30
0025f3 9508      	RET
                 
                 ;OPTIMIZER ADDED SUBROUTINE, CALLED 2 TIMES, CODE SIZE REDUCTION:3 WORDS
                 SUBOPT_0x3:
0025f4 81ec      	LDD  R30,Y+4
0025f5 e0f0      	LDI  R31,0
0025f6 93fa      	ST   -Y,R31
0025f7 93ea      	ST   -Y,R30
0025f8 940c 182d 	JMP  _goto_xy
                 
                 ;OPTIMIZER ADDED SUBROUTINE, CALLED 11 TIMES, CODE SIZE REDUCTION:17 WORDS
                 SUBOPT_0x4:
0025fa 2fe1      	MOV  R30,R17
0025fb e0f0      	LDI  R31,0
0025fc 9508      	RET
                 
                 ;OPTIMIZER ADDED SUBROUTINE, CALLED 2 TIMES, CODE SIZE REDUCTION:1 WORDS
                 SUBOPT_0x5:
0025fd 81ae      	LDD  R26,Y+6
0025fe 81bf      	LDD  R27,Y+6+1
0025ff 27ee      	CLR  R30
002600 0fa1      	ADD  R26,R17
002601 1fbe      	ADC  R27,R30
002602 91ec      	LD   R30,X
002603 9508      	RET
                 
                 ;OPTIMIZER ADDED SUBROUTINE, CALLED 3 TIMES, CODE SIZE REDUCTION:5 WORDS
                 SUBOPT_0x6:
                +
002604 01fe     +MOVW R30 , R28
002605 5be9     +SUBI R30 , LOW ( - 71 )
002606 4fff     +SBCI R31 , HIGH ( - 71 )
002607 9001     +LD R0 , Z +
002608 81f0     +LD R31 , Z
002609 2de0     +MOV R30 , R0
                 	__GETW1SX 71
00260a 9508      	RET
                 
                 ;OPTIMIZER ADDED SUBROUTINE, CALLED 5 TIMES, CODE SIZE REDUCTION:9 WORDS
                 SUBOPT_0x7:
00260b 91ed      	LD   R30,X+
00260c 91fd      	LD   R31,X+
00260d 9631      	ADIW R30,1
00260e 93fe      	ST   -X,R31
00260f 93ee      	ST   -X,R30
002610 9508      	RET
                 
                 ;OPTIMIZER ADDED SUBROUTINE, CALLED 7 TIMES, CODE SIZE REDUCTION:9 WORDS
                 SUBOPT_0x8:
002611 81ee      	LDD  R30,Y+6
002612 e0f0      	LDI  R31,0
002613 9508      	RET
                 
                 ;OPTIMIZER ADDED SUBROUTINE, CALLED 2 TIMES, CODE SIZE REDUCTION:7 WORDS
                 SUBOPT_0x9:
002614 91e0 03a6 	LDS  R30,_prevLet_G000
002616 91f0 03a7 	LDS  R31,_prevLet_G000+1
002618 5ce1      	SUBI R30,LOW(193)
002619 40f0      	SBCI R31,HIGH(193)
00261a e0a6      	LDI  R26,LOW(6)
00261b e0b0      	LDI  R27,HIGH(6)
00261c 940e 28eb 	CALL __MULW12U
00261e 58e4      	SUBI R30,LOW(-_map*2)
00261f 4ff7      	SBCI R31,HIGH(-_map*2)
002620 9508      	RET
                 
                 ;OPTIMIZER ADDED SUBROUTINE, CALLED 2 TIMES, CODE SIZE REDUCTION:3 WORDS
                 SUBOPT_0xA:
002621 5ce1      	SUBI R30,LOW(193)
002622 40f0      	SBCI R31,HIGH(193)
002623 e0a6      	LDI  R26,LOW(6)
002624 e0b0      	LDI  R27,HIGH(6)
002625 940e 28eb 	CALL __MULW12U
002627 58e4      	SUBI R30,LOW(-_map*2)
002628 4ff7      	SBCI R31,HIGH(-_map*2)
002629 9508      	RET
                 
                 ;OPTIMIZER ADDED SUBROUTINE, CALLED 3 TIMES, CODE SIZE REDUCTION:3 WORDS
                 SUBOPT_0xB:
00262a e0f0      	LDI  R31,0
00262b 93fa      	ST   -Y,R31
00262c 93ea      	ST   -Y,R30
00262d 9508      	RET
                 
                 ;OPTIMIZER ADDED SUBROUTINE, CALLED 4 TIMES, CODE SIZE REDUCTION:6 WORDS
                 SUBOPT_0xC:
00262e e0f0      	LDI  R31,0
00262f 0fea      	ADD  R30,R26
002630 1ffb      	ADC  R31,R27
002631 9508      	RET
                 
                 ;OPTIMIZER ADDED SUBROUTINE, CALLED 4 TIMES, CODE SIZE REDUCTION:3 WORDS
                 SUBOPT_0xD:
002632 93fa      	ST   -Y,R31
002633 93ea      	ST   -Y,R30
002634 81ee      	LDD  R30,Y+6
002635 81ff      	LDD  R31,Y+6+1
002636 9508      	RET
                 
                 ;OPTIMIZER ADDED SUBROUTINE, CALLED 2 TIMES, CODE SIZE REDUCTION:1 WORDS
                 SUBOPT_0xE:
002637 93fa      	ST   -Y,R31
002638 93ea      	ST   -Y,R30
002639 81ee      	LDD  R30,Y+6
00263a 93ea      	ST   -Y,R30
00263b 940c 18b8 	JMP  _putItSz
                 
                 ;OPTIMIZER ADDED SUBROUTINE, CALLED 2 TIMES, CODE SIZE REDUCTION:7 WORDS
                 SUBOPT_0xF:
00263d 85e9      	LDD  R30,Y+9
00263e 85fa      	LDD  R31,Y+9+1
00263f 93fa      	ST   -Y,R31
002640 93ea      	ST   -Y,R30
002641 940e 25d2 	CALL _strlen
002643 2fa1      	MOV  R26,R17
002644 e0b0      	LDI  R27,0
002645 17ae      	CP   R26,R30
002646 07bf      	CPC  R27,R31
002647 9508      	RET
                 
                 ;OPTIMIZER ADDED SUBROUTINE, CALLED 7 TIMES, CODE SIZE REDUCTION:9 WORDS
                 SUBOPT_0x10:
002648 85a9      	LDD  R26,Y+9
002649 85ba      	LDD  R27,Y+9+1
00264a 0fae      	ADD  R26,R30
00264b 1fbf      	ADC  R27,R31
00264c 9508      	RET
                 
                 ;OPTIMIZER ADDED SUBROUTINE, CALLED 4 TIMES, CODE SIZE REDUCTION:3 WORDS
                 SUBOPT_0x11:
00264d 85e8      	LDD  R30,Y+8
00264e 85f9      	LDD  R31,Y+8+1
00264f 93fa      	ST   -Y,R31
002650 93ea      	ST   -Y,R30
002651 9508      	RET
                 
                 ;OPTIMIZER ADDED SUBROUTINE, CALLED 3 TIMES, CODE SIZE REDUCTION:3 WORDS
                 SUBOPT_0x12:
002652 93ea      	ST   -Y,R30
002653 85e9      	LDD  R30,Y+9
002654 93ea      	ST   -Y,R30
002655 940c 194a 	JMP  _glcd_putchar
                 
                 ;OPTIMIZER ADDED SUBROUTINE, CALLED 2 TIMES, CODE SIZE REDUCTION:7 WORDS
                 SUBOPT_0x13:
002657 81ea      	LDD  R30,Y+2
002658 e0f0      	LDI  R31,0
002659 fde7      	SBRC R30,7
00265a efff      	SER  R31
00265b 9638      	ADIW R30,8
00265c 01df      	MOVW R26,R30
00265d 81eb      	LDD  R30,Y+3
00265e e0f0      	LDI  R31,0
00265f 940e 28f3 	CALL __MULW12
002661 9508      	RET
                 
                 ;OPTIMIZER ADDED SUBROUTINE, CALLED 5 TIMES, CODE SIZE REDUCTION:5 WORDS
                 SUBOPT_0x14:
002662 81eb      	LDD  R30,Y+3
002663 e0a8      	LDI  R26,LOW(8)
002664 02ea      	MULS R30,R26
002665 01f0      	MOVW R30,R0
002666 9508      	RET
                 
                 ;OPTIMIZER ADDED SUBROUTINE, CALLED 2 TIMES, CODE SIZE REDUCTION:5 WORDS
                 SUBOPT_0x15:
002667 81eb      	LDD  R30,Y+3
002668 e0f0      	LDI  R31,0
002669 81ad      	LDD  R26,Y+5
00266a 81be      	LDD  R27,Y+5+1
00266b 0fea      	ADD  R30,R26
00266c 1ffb      	ADC  R31,R27
00266d 83ed      	STD  Y+5,R30
00266e 83fe      	STD  Y+5+1,R31
00266f 9508      	RET
                 
                 ;OPTIMIZER ADDED SUBROUTINE, CALLED 4 TIMES, CODE SIZE REDUCTION:6 WORDS
                 SUBOPT_0x16:
002670 85a9      	LDD  R26,Y+9
002671 85ba      	LDD  R27,Y+9+1
002672 0fea      	ADD  R30,R26
002673 1ffb      	ADC  R31,R27
002674 81a1      	LDD  R26,Z+1
002675 9508      	RET
                 
                 ;OPTIMIZER ADDED SUBROUTINE, CALLED 2 TIMES, CODE SIZE REDUCTION:7 WORDS
                 SUBOPT_0x17:
002676 81ec      	LDD  R30,Y+4
002677 e0a8      	LDI  R26,LOW(8)
002678 02ea      	MULS R30,R26
002679 01f0      	MOVW R30,R0
00267a 85a8      	LDD  R26,Y+8
00267b 85b9      	LDD  R27,Y+8+1
00267c 1bae      	SUB  R26,R30
00267d 0bbf      	SBC  R27,R31
00267e 93ba      	ST   -Y,R27
00267f 93aa      	ST   -Y,R26
002680 cfcc      	RJMP SUBOPT_0x11
                 
                 ;OPTIMIZER ADDED SUBROUTINE, CALLED 3 TIMES, CODE SIZE REDUCTION:1 WORDS
                 SUBOPT_0x18:
002681 1bae      	SUB  R26,R30
002682 0bbf      	SBC  R27,R31
002683 83af      	STD  Y+7,R26
002684 87b8      	STD  Y+7+1,R27
002685 9508      	RET
                 
                 ;OPTIMIZER ADDED SUBROUTINE, CALLED 11 TIMES, CODE SIZE REDUCTION:17 WORDS
                 SUBOPT_0x19:
002686 e8a0      	LDI  R26,LOW(_seg)
002687 e0b0      	LDI  R27,HIGH(_seg)
002688 940e 2940 	CALL __EEPROMRDB
00268a 9508      	RET
                 
                 ;OPTIMIZER ADDED SUBROUTINE, CALLED 6 TIMES, CODE SIZE REDUCTION:7 WORDS
                 SUBOPT_0x1A:
00268b 5fef      	SUBI R30,-LOW(1)
00268c 940e 294c 	CALL __EEPROMWRB
00268e 50e1      	SUBI R30,LOW(1)
00268f 9508      	RET
                 
                 ;OPTIMIZER ADDED SUBROUTINE, CALLED 9 TIMES, CODE SIZE REDUCTION:13 WORDS
                 SUBOPT_0x1B:
002690 e8a2      	LDI  R26,LOW(_seg1)
002691 e0b0      	LDI  R27,HIGH(_seg1)
002692 940e 2940 	CALL __EEPROMRDB
002694 9508      	RET
                 
                 ;OPTIMIZER ADDED SUBROUTINE, CALLED 2 TIMES, CODE SIZE REDUCTION:3 WORDS
                 SUBOPT_0x1C:
                +
002695 e6e8     +LDI R30 , LOW ( 2 * _0x0 + ( 0 ) )
002696 e2fd     +LDI R31 , HIGH ( 2 * _0x0 + ( 0 ) )
                 	__POINTW1FN _0x0,0
002697 93fa      	ST   -Y,R31
002698 93ea      	ST   -Y,R30
002699 e080      	LDI  R24,0
00269a 940e 25b1 	CALL _printf
00269c 9622      	ADIW R28,2
00269d 9508      	RET
                 
                 ;OPTIMIZER ADDED SUBROUTINE, CALLED 2 TIMES, CODE SIZE REDUCTION:3 WORDS
                 SUBOPT_0x1D:
                +
00269e e7e6     +LDI R30 , LOW ( 2 * _0x0 + ( 14 ) )
00269f e2fd     +LDI R31 , HIGH ( 2 * _0x0 + ( 14 ) )
                 	__POINTW1FN _0x0,14
0026a0 93fa      	ST   -Y,R31
0026a1 93ea      	ST   -Y,R30
0026a2 e080      	LDI  R24,0
0026a3 940e 25b1 	CALL _printf
0026a5 9622      	ADIW R28,2
0026a6 9508      	RET
                 
                 ;OPTIMIZER ADDED SUBROUTINE, CALLED 2 TIMES, CODE SIZE REDUCTION:1 WORDS
                 SUBOPT_0x1E:
0026a7 93fa      	ST   -Y,R31
0026a8 93ea      	ST   -Y,R30
0026a9 e080      	LDI  R24,0
0026aa 940e 25b1 	CALL _printf
0026ac 9622      	ADIW R28,2
0026ad 9508      	RET
                 
                 ;OPTIMIZER ADDED SUBROUTINE, CALLED 3 TIMES, CODE SIZE REDUCTION:3 WORDS
                 SUBOPT_0x1F:
0026ae e8a0      	LDI  R26,LOW(_seg)
0026af e0b0      	LDI  R27,HIGH(_seg)
0026b0 e0e0      	LDI  R30,LOW(0)
0026b1 940e 294c 	CALL __EEPROMWRB
0026b3 9508      	RET
                 
                 ;OPTIMIZER ADDED SUBROUTINE, CALLED 3 TIMES, CODE SIZE REDUCTION:3 WORDS
                 SUBOPT_0x20:
0026b4 e8a2      	LDI  R26,LOW(_seg1)
0026b5 e0b0      	LDI  R27,HIGH(_seg1)
0026b6 e0e0      	LDI  R30,LOW(0)
0026b7 940e 294c 	CALL __EEPROMWRB
0026b9 9508      	RET
                 
                 ;OPTIMIZER ADDED SUBROUTINE, CALLED 7 TIMES, CODE SIZE REDUCTION:9 WORDS
                 SUBOPT_0x21:
0026ba e8a4      	LDI  R26,LOW(_minu)
0026bb e0b0      	LDI  R27,HIGH(_minu)
0026bc 940e 2940 	CALL __EEPROMRDB
0026be 9508      	RET
                 
                 ;OPTIMIZER ADDED SUBROUTINE, CALLED 3 TIMES, CODE SIZE REDUCTION:3 WORDS
                 SUBOPT_0x22:
0026bf e8a4      	LDI  R26,LOW(_minu)
0026c0 e0b0      	LDI  R27,HIGH(_minu)
0026c1 e0e0      	LDI  R30,LOW(0)
0026c2 940e 294c 	CALL __EEPROMWRB
0026c4 9508      	RET
                 
                 ;OPTIMIZER ADDED SUBROUTINE, CALLED 5 TIMES, CODE SIZE REDUCTION:5 WORDS
                 SUBOPT_0x23:
0026c5 e8a6      	LDI  R26,LOW(_min1)
0026c6 e0b0      	LDI  R27,HIGH(_min1)
0026c7 940e 2940 	CALL __EEPROMRDB
0026c9 9508      	RET
                 
                 ;OPTIMIZER ADDED SUBROUTINE, CALLED 3 TIMES, CODE SIZE REDUCTION:3 WORDS
                 SUBOPT_0x24:
0026ca e8a6      	LDI  R26,LOW(_min1)
0026cb e0b0      	LDI  R27,HIGH(_min1)
0026cc e0e0      	LDI  R30,LOW(0)
0026cd 940e 294c 	CALL __EEPROMWRB
0026cf 9508      	RET
                 
                 ;OPTIMIZER ADDED SUBROUTINE, CALLED 7 TIMES, CODE SIZE REDUCTION:9 WORDS
                 SUBOPT_0x25:
0026d0 e8a8      	LDI  R26,LOW(_hora)
0026d1 e0b0      	LDI  R27,HIGH(_hora)
0026d2 940e 2940 	CALL __EEPROMRDB
0026d4 9508      	RET
                 
                 ;OPTIMIZER ADDED SUBROUTINE, CALLED 3 TIMES, CODE SIZE REDUCTION:3 WORDS
                 SUBOPT_0x26:
0026d5 e8a8      	LDI  R26,LOW(_hora)
0026d6 e0b0      	LDI  R27,HIGH(_hora)
0026d7 e0e0      	LDI  R30,LOW(0)
0026d8 940e 294c 	CALL __EEPROMWRB
0026da 9508      	RET
                 
                 ;OPTIMIZER ADDED SUBROUTINE, CALLED 5 TIMES, CODE SIZE REDUCTION:5 WORDS
                 SUBOPT_0x27:
0026db e8aa      	LDI  R26,LOW(_hora1)
0026dc e0b0      	LDI  R27,HIGH(_hora1)
0026dd 940e 2940 	CALL __EEPROMRDB
0026df 9508      	RET
                 
                 ;OPTIMIZER ADDED SUBROUTINE, CALLED 2 TIMES, CODE SIZE REDUCTION:1 WORDS
                 SUBOPT_0x28:
0026e0 e6e4      	LDI  R30,LOW(100)
0026e1 e0f0      	LDI  R31,HIGH(100)
0026e2 93fa      	ST   -Y,R31
0026e3 93ea      	ST   -Y,R30
0026e4 940c 28cb 	JMP  _delay_ms
                 
                 ;OPTIMIZER ADDED SUBROUTINE, CALLED 2 TIMES, CODE SIZE REDUCTION:54 WORDS
                 SUBOPT_0x29:
0026e6 93fa      	ST   -Y,R31
0026e7 93ea      	ST   -Y,R30
0026e8 e1e8      	LDI  R30,LOW(_NUM_DISP)
0026e9 e0f5      	LDI  R31,HIGH(_NUM_DISP)
0026ea 2766      	CLR  R22
0026eb 2777      	CLR  R23
0026ec 940e 2934 	CALL __PUTPARD1
0026ee 91e0 0552 	LDS  R30,__dia1
0026f0 27ff      	CLR  R31
0026f1 2766      	CLR  R22
0026f2 2777      	CLR  R23
0026f3 940e 2934 	CALL __PUTPARD1
0026f5 91e0 0551 	LDS  R30,__dia
0026f7 27ff      	CLR  R31
0026f8 2766      	CLR  R22
0026f9 2777      	CLR  R23
0026fa 940e 2934 	CALL __PUTPARD1
0026fc 91e0 0554 	LDS  R30,__mes1
0026fe 27ff      	CLR  R31
0026ff 2766      	CLR  R22
002700 2777      	CLR  R23
002701 940e 2934 	CALL __PUTPARD1
002703 91e0 0553 	LDS  R30,__mes
002705 27ff      	CLR  R31
002706 2766      	CLR  R22
002707 2777      	CLR  R23
002708 940e 2934 	CALL __PUTPARD1
00270a 91e0 0556 	LDS  R30,__an1
00270c 27ff      	CLR  R31
00270d 2766      	CLR  R22
00270e 2777      	CLR  R23
00270f 940e 2934 	CALL __PUTPARD1
002711 91e0 0555 	LDS  R30,__an
002713 27ff      	CLR  R31
002714 2766      	CLR  R22
002715 2777      	CLR  R23
002716 940e 2934 	CALL __PUTPARD1
002718 91e0 0550 	LDS  R30,__hora1
00271a 27ff      	CLR  R31
00271b 2766      	CLR  R22
00271c 2777      	CLR  R23
00271d 940e 2934 	CALL __PUTPARD1
00271f cfb0      	RJMP SUBOPT_0x25
                 
                 ;OPTIMIZER ADDED SUBROUTINE, CALLED 25 TIMES, CODE SIZE REDUCTION:69 WORDS
                 SUBOPT_0x2A:
002720 27ff      	CLR  R31
002721 2766      	CLR  R22
002722 2777      	CLR  R23
002723 940e 2934 	CALL __PUTPARD1
002725 9508      	RET
                 
                 ;OPTIMIZER ADDED SUBROUTINE, CALLED 2 TIMES, CODE SIZE REDUCTION:3 WORDS
                 SUBOPT_0x2B:
002726 940e 1ba8 	CALL _buzz
002728 ece8      	LDI  R30,LOW(200)
002729 e0f0      	LDI  R31,HIGH(200)
00272a 93fa      	ST   -Y,R31
00272b 93ea      	ST   -Y,R30
00272c 940c 28cb 	JMP  _delay_ms
                 
                 ;OPTIMIZER ADDED SUBROUTINE, CALLED 3 TIMES, CODE SIZE REDUCTION:5 WORDS
                 SUBOPT_0x2C:
00272e e0f0      	LDI  R31,0
00272f 30e1      	CPI  R30,LOW(0x1)
002730 e0a0      	LDI  R26,HIGH(0x1)
002731 07fa      	CPC  R31,R26
002732 9508      	RET
                 
                 ;OPTIMIZER ADDED SUBROUTINE, CALLED 2 TIMES, CODE SIZE REDUCTION:1 WORDS
                 SUBOPT_0x2D:
002733 efe0      	LDI  R30,LOW(_chofer*2)
002734 e1f9      	LDI  R31,HIGH(_chofer*2)
002735 93fa      	ST   -Y,R31
002736 93ea      	ST   -Y,R30
002737 ceb7      	RJMP SUBOPT_0x2
                 
                 ;OPTIMIZER ADDED SUBROUTINE, CALLED 10 TIMES, CODE SIZE REDUCTION:15 WORDS
                 SUBOPT_0x2E:
002738 e0e5      	LDI  R30,LOW(5)
002739 e0f0      	LDI  R31,HIGH(5)
00273a 93fa      	ST   -Y,R31
00273b 93ea      	ST   -Y,R30
00273c 9508      	RET
                 
                 ;OPTIMIZER ADDED SUBROUTINE, CALLED 2 TIMES, CODE SIZE REDUCTION:5 WORDS
                 SUBOPT_0x2F:
00273d e2e3      	LDI  R30,LOW(35)
00273e e0f0      	LDI  R31,HIGH(35)
00273f 93fa      	ST   -Y,R31
002740 93ea      	ST   -Y,R30
002741 e0e7      	LDI  R30,LOW(7)
002742 e0f0      	LDI  R31,HIGH(7)
002743 93fa      	ST   -Y,R31
002744 93ea      	ST   -Y,R30
002745 940c 1a8a 	JMP  _bmp_disp
                 
                 ;OPTIMIZER ADDED SUBROUTINE, CALLED 2 TIMES, CODE SIZE REDUCTION:13 WORDS
                 SUBOPT_0x30:
002747 93fa      	ST   -Y,R31
002748 93ea      	ST   -Y,R30
002749 e2ec      	LDI  R30,LOW(44)
00274a e0f0      	LDI  R31,HIGH(44)
00274b 93fa      	ST   -Y,R31
00274c 93ea      	ST   -Y,R30
00274d e0e7      	LDI  R30,LOW(7)
00274e e0f0      	LDI  R31,HIGH(7)
00274f 93fa      	ST   -Y,R31
002750 93ea      	ST   -Y,R30
002751 e0e0      	LDI  R30,LOW(0)
002752 93ea      	ST   -Y,R30
002753 e0e1      	LDI  R30,LOW(1)
002754 93ea      	ST   -Y,R30
002755 efef      	LDI  R30,LOW(255)
002756 93ea      	ST   -Y,R30
002757 940c 19d0 	JMP  _glcd_puts
                 
                 ;OPTIMIZER ADDED SUBROUTINE, CALLED 3 TIMES, CODE SIZE REDUCTION:5 WORDS
                 SUBOPT_0x31:
002759 efe0      	LDI  R30,LOW(_vacio*2)
00275a e1f1      	LDI  R31,HIGH(_vacio*2)
00275b 93fa      	ST   -Y,R31
00275c 93ea      	ST   -Y,R30
00275d ce91      	RJMP SUBOPT_0x2
                 
                 ;OPTIMIZER ADDED SUBROUTINE, CALLED 3 TIMES, CODE SIZE REDUCTION:13 WORDS
                 SUBOPT_0x32:
00275e e1e9      	LDI  R30,LOW(25)
00275f e0f0      	LDI  R31,HIGH(25)
002760 93fa      	ST   -Y,R31
002761 93ea      	ST   -Y,R30
002762 e0e7      	LDI  R30,LOW(7)
002763 e0f0      	LDI  R31,HIGH(7)
002764 93fa      	ST   -Y,R31
002765 93ea      	ST   -Y,R30
002766 940c 1a8a 	JMP  _bmp_disp
                 
                 ;OPTIMIZER ADDED SUBROUTINE, CALLED 2 TIMES, CODE SIZE REDUCTION:11 WORDS
                 SUBOPT_0x33:
002768 e2e0      	LDI  R30,LOW(32)
002769 93ea      	ST   -Y,R30
00276a e4ef      	LDI  R30,LOW(79)
00276b e0f0      	LDI  R31,HIGH(79)
00276c 93fa      	ST   -Y,R31
00276d 93ea      	ST   -Y,R30
00276e e0e7      	LDI  R30,LOW(7)
00276f e0f0      	LDI  R31,HIGH(7)
002770 93fa      	ST   -Y,R31
002771 93ea      	ST   -Y,R30
002772 e0e0      	LDI  R30,LOW(0)
002773 93ea      	ST   -Y,R30
002774 e0e1      	LDI  R30,LOW(1)
002775 93ea      	ST   -Y,R30
002776 940c 194a 	JMP  _glcd_putchar
                 
                 ;OPTIMIZER ADDED SUBROUTINE, CALLED 4 TIMES, CODE SIZE REDUCTION:9 WORDS
                 SUBOPT_0x34:
002778 ece8      	LDI  R30,LOW(200)
002779 e0f0      	LDI  R31,HIGH(200)
00277a 93fa      	ST   -Y,R31
00277b 93ea      	ST   -Y,R30
00277c 940c 28cb 	JMP  _delay_ms
                 
                 ;OPTIMIZER ADDED SUBROUTINE, CALLED 5 TIMES, CODE SIZE REDUCTION:5 WORDS
                 SUBOPT_0x35:
00277e e1e4      	LDI  R30,LOW(20)
00277f e0f0      	LDI  R31,HIGH(20)
002780 93fa      	ST   -Y,R31
002781 93ea      	ST   -Y,R30
002782 9508      	RET
                 
                 ;OPTIMIZER ADDED SUBROUTINE, CALLED 9 TIMES, CODE SIZE REDUCTION:13 WORDS
                 SUBOPT_0x36:
002783 e0e1      	LDI  R30,LOW(1)
002784 e0f0      	LDI  R31,HIGH(1)
002785 93fa      	ST   -Y,R31
002786 93ea      	ST   -Y,R30
002787 9508      	RET
                 
                 ;OPTIMIZER ADDED SUBROUTINE, CALLED 6 TIMES, CODE SIZE REDUCTION:7 WORDS
                 SUBOPT_0x37:
002788 01f8      	MOVW R30,R16
                +
002789 55e5     +SUBI R30 , LOW ( - _rx_b0 - ( 0 ) )
00278a 4ffc     +SBCI R31 , HIGH ( - _rx_b0 - ( 0 ) )
                 	__ADDW1MN _rx_b0,0
00278b 81a0      	LD   R26,Z
00278c 9508      	RET
                 
                 ;OPTIMIZER ADDED SUBROUTINE, CALLED 6 TIMES, CODE SIZE REDUCTION:7 WORDS
                 SUBOPT_0x38:
00278d 01f8      	MOVW R30,R16
                +
00278e 55e4     +SUBI R30 , LOW ( - _rx_b0 - ( 1 ) )
00278f 4ffc     +SBCI R31 , HIGH ( - _rx_b0 - ( 1 ) )
                 	__ADDW1MN _rx_b0,1
002790 81a0      	LD   R26,Z
002791 9508      	RET
                 
                 ;OPTIMIZER ADDED SUBROUTINE, CALLED 6 TIMES, CODE SIZE REDUCTION:7 WORDS
                 SUBOPT_0x39:
002792 01f8      	MOVW R30,R16
                +
002793 55e3     +SUBI R30 , LOW ( - _rx_b0 - ( 2 ) )
002794 4ffc     +SBCI R31 , HIGH ( - _rx_b0 - ( 2 ) )
                 	__ADDW1MN _rx_b0,2
002795 81a0      	LD   R26,Z
002796 9508      	RET
                 
                 ;OPTIMIZER ADDED SUBROUTINE, CALLED 5 TIMES, CODE SIZE REDUCTION:5 WORDS
                 SUBOPT_0x3A:
002797 01f8      	MOVW R30,R16
                +
002798 55e2     +SUBI R30 , LOW ( - _rx_b0 - ( 3 ) )
002799 4ffc     +SBCI R31 , HIGH ( - _rx_b0 - ( 3 ) )
                 	__ADDW1MN _rx_b0,3
00279a 81a0      	LD   R26,Z
00279b 9508      	RET
                 
                 ;OPTIMIZER ADDED SUBROUTINE, CALLED 5 TIMES, CODE SIZE REDUCTION:5 WORDS
                 SUBOPT_0x3B:
00279c 01f8      	MOVW R30,R16
                +
00279d 55e1     +SUBI R30 , LOW ( - _rx_b0 - ( 4 ) )
00279e 4ffc     +SBCI R31 , HIGH ( - _rx_b0 - ( 4 ) )
                 	__ADDW1MN _rx_b0,4
00279f 81a0      	LD   R26,Z
0027a0 9508      	RET
                 
                 ;OPTIMIZER ADDED SUBROUTINE, CALLED 3 TIMES, CODE SIZE REDUCTION:7 WORDS
                 SUBOPT_0x3C:
                +
0027a1 54ef     +SUBI R30 , LOW ( - _rx_b0 - ( 6 ) )
0027a2 4ffc     +SBCI R31 , HIGH ( - _rx_b0 - ( 6 ) )
                 	__ADDW1MN _rx_b0,6
0027a3 81e0      	LD   R30,Z
0027a4 e0f0      	LDI  R31,0
0027a5 97f0      	SBIW R30,48
0027a6 9508      	RET
                 
                 ;OPTIMIZER ADDED SUBROUTINE, CALLED 2 TIMES, CODE SIZE REDUCTION:2 WORDS
                 SUBOPT_0x3D:
                +
0027a7 54ee     +SUBI R30 , LOW ( - _rx_b0 - ( 7 ) )
0027a8 4ffc     +SBCI R31 , HIGH ( - _rx_b0 - ( 7 ) )
                 	__ADDW1MN _rx_b0,7
0027a9 81e0      	LD   R30,Z
0027aa e0f0      	LDI  R31,0
0027ab 97f0      	SBIW R30,48
0027ac 9508      	RET
                 
                 ;OPTIMIZER ADDED SUBROUTINE, CALLED 4 TIMES, CODE SIZE REDUCTION:3 WORDS
                 SUBOPT_0x3E:
0027ad 93e0 0526 	STS  _ind_sen,R30
0027af 93f0 0527 	STS  _ind_sen+1,R31
0027b1 9508      	RET
                 
                 ;OPTIMIZER ADDED SUBROUTINE, CALLED 21 TIMES, CODE SIZE REDUCTION:57 WORDS
                 SUBOPT_0x3F:
0027b2 81e0      	LD   R30,Z
0027b3 e0f0      	LDI  R31,0
0027b4 97f0      	SBIW R30,48
0027b5 9508      	RET
                 
                 ;OPTIMIZER ADDED SUBROUTINE, CALLED 3 TIMES, CODE SIZE REDUCTION:1 WORDS
                 SUBOPT_0x40:
0027b6 01f8      	MOVW R30,R16
0027b7 9634      	ADIW R30,4
0027b8 8fe9      	STD  Y+25,R30
0027b9 8ffa      	STD  Y+25+1,R31
0027ba 9508      	RET
                 
                 ;OPTIMIZER ADDED SUBROUTINE, CALLED 2 TIMES, CODE SIZE REDUCTION:4 WORDS
                 SUBOPT_0x41:
0027bb 01fa      	MOVW R30,R20
0027bc 8da9      	LDD  R26,Y+25
0027bd 8dba      	LDD  R27,Y+25+1
0027be 0fea      	ADD  R30,R26
0027bf 1ffb      	ADC  R31,R27
                +
0027c0 55e4     +SUBI R30 , LOW ( - _rx_b0 - ( 1 ) )
0027c1 4ffc     +SBCI R31 , HIGH ( - _rx_b0 - ( 1 ) )
                 	__ADDW1MN _rx_b0,1
0027c2 81a0      	LD   R26,Z
0027c3 33aa      	CPI  R26,LOW(0x3A)
0027c4 9508      	RET
                 
                 ;OPTIMIZER ADDED SUBROUTINE, CALLED 3 TIMES, CODE SIZE REDUCTION:9 WORDS
                 SUBOPT_0x42:
0027c5 89ef      	LDD  R30,Y+23
0027c6 8df8      	LDD  R31,Y+23+1
0027c7 9631      	ADIW R30,1
0027c8 8bef      	STD  Y+23,R30
0027c9 8ff8      	STD  Y+23+1,R31
0027ca 89af      	LDD  R26,Y+23
0027cb 8db8      	LDD  R27,Y+23+1
0027cc 9711      	SBIW R26,1
0027cd 9508      	RET
                 
                 ;OPTIMIZER ADDED SUBROUTINE, CALLED 3 TIMES, CODE SIZE REDUCTION:7 WORDS
                 SUBOPT_0x43:
0027ce 8de9      	LDD  R30,Y+25
0027cf 8dfa      	LDD  R31,Y+25+1
0027d0 0fe4      	ADD  R30,R20
0027d1 1ff5      	ADC  R31,R21
0027d2 9631      	ADIW R30,1
0027d3 8bed      	STD  Y+21,R30
0027d4 8bfe      	STD  Y+21+1,R31
0027d5 9508      	RET
                 
                 ;OPTIMIZER ADDED SUBROUTINE, CALLED 3 TIMES, CODE SIZE REDUCTION:1 WORDS
                 SUBOPT_0x44:
0027d6 89ed      	LDD  R30,Y+21
0027d7 89fe      	LDD  R31,Y+21+1
                +
0027d8 55e2     +SUBI R30 , LOW ( - _rx_b0 - ( 3 ) )
0027d9 4ffc     +SBCI R31 , HIGH ( - _rx_b0 - ( 3 ) )
                 	__ADDW1MN _rx_b0,3
0027da 9508      	RET
                 
                 ;OPTIMIZER ADDED SUBROUTINE, CALLED 3 TIMES, CODE SIZE REDUCTION:1 WORDS
                 SUBOPT_0x45:
0027db 89ed      	LDD  R30,Y+21
0027dc 89fe      	LDD  R31,Y+21+1
                +
0027dd 55e1     +SUBI R30 , LOW ( - _rx_b0 - ( 4 ) )
0027de 4ffc     +SBCI R31 , HIGH ( - _rx_b0 - ( 4 ) )
                 	__ADDW1MN _rx_b0,4
0027df 9508      	RET
                 
                 ;OPTIMIZER ADDED SUBROUTINE, CALLED 3 TIMES, CODE SIZE REDUCTION:1 WORDS
                 SUBOPT_0x46:
0027e0 89ed      	LDD  R30,Y+21
0027e1 89fe      	LDD  R31,Y+21+1
                +
0027e2 55e0     +SUBI R30 , LOW ( - _rx_b0 - ( 5 ) )
0027e3 4ffc     +SBCI R31 , HIGH ( - _rx_b0 - ( 5 ) )
                 	__ADDW1MN _rx_b0,5
0027e4 9508      	RET
                 
                 ;OPTIMIZER ADDED SUBROUTINE, CALLED 13 TIMES, CODE SIZE REDUCTION:165 WORDS
                 SUBOPT_0x47:
0027e5 e0e2      	LDI  R30,LOW(2)
0027e6 93ea      	ST   -Y,R30
0027e7 940e 1842 	CALL _glcd_clrln
0027e9 e0e3      	LDI  R30,LOW(3)
0027ea 93ea      	ST   -Y,R30
0027eb 940e 1842 	CALL _glcd_clrln
0027ed e0e4      	LDI  R30,LOW(4)
0027ee 93ea      	ST   -Y,R30
0027ef 940e 1842 	CALL _glcd_clrln
0027f1 e0e5      	LDI  R30,LOW(5)
0027f2 93ea      	ST   -Y,R30
0027f3 940c 1842 	JMP  _glcd_clrln
                 
                 ;OPTIMIZER ADDED SUBROUTINE, CALLED 3 TIMES, CODE SIZE REDUCTION:1 WORDS
                 SUBOPT_0x48:
0027f5 89ed      	LDD  R30,Y+21
0027f6 89fe      	LDD  R31,Y+21+1
                +
0027f7 55e4     +SUBI R30 , LOW ( - _rx_b0 - ( 1 ) )
0027f8 4ffc     +SBCI R31 , HIGH ( - _rx_b0 - ( 1 ) )
                 	__ADDW1MN _rx_b0,1
0027f9 9508      	RET
                 
                 ;OPTIMIZER ADDED SUBROUTINE, CALLED 2 TIMES, CODE SIZE REDUCTION:1 WORDS
                 SUBOPT_0x49:
0027fa e0e1      	LDI  R30,LOW(1)
0027fb e0f0      	LDI  R31,HIGH(1)
0027fc 93e0 0549 	STS  _act_G000,R30
0027fe 93f0 054a 	STS  _act_G000+1,R31
002800 9508      	RET
                 
                 ;OPTIMIZER ADDED SUBROUTINE, CALLED 4 TIMES, CODE SIZE REDUCTION:3 WORDS
                 SUBOPT_0x4A:
002801 81af      	LDD  R26,Y+7
002802 85b8      	LDD  R27,Y+7+1
002803 e0ea      	LDI  R30,LOW(10)
002804 e0f0      	LDI  R31,HIGH(10)
002805 9508      	RET
                 
                 ;OPTIMIZER ADDED SUBROUTINE, CALLED 2 TIMES, CODE SIZE REDUCTION:3 WORDS
                 SUBOPT_0x4B:
002806 940e 2910 	CALL __MODW21
002808 e8a8      	LDI  R26,LOW(_hora)
002809 e0b0      	LDI  R27,HIGH(_hora)
00280a 940e 294c 	CALL __EEPROMWRB
00280c cff4      	RJMP SUBOPT_0x4A
                 
                 ;OPTIMIZER ADDED SUBROUTINE, CALLED 2 TIMES, CODE SIZE REDUCTION:1 WORDS
                 SUBOPT_0x4C:
00280d 940e 290b 	CALL __DIVW21
00280f e8aa      	LDI  R26,LOW(_hora1)
002810 e0b0      	LDI  R27,HIGH(_hora1)
002811 940e 294c 	CALL __EEPROMWRB
002813 9508      	RET
                 
                 ;OPTIMIZER ADDED SUBROUTINE, CALLED 2 TIMES, CODE SIZE REDUCTION:1 WORDS
                 SUBOPT_0x4D:
002814 89e9      	LDD  R30,Y+17
002815 89fa      	LDD  R31,Y+17+1
                +
002816 55e4     +SUBI R30 , LOW ( - _rx_b0 - ( 1 ) )
002817 4ffc     +SBCI R31 , HIGH ( - _rx_b0 - ( 1 ) )
                 	__ADDW1MN _rx_b0,1
002818 cf99      	RJMP SUBOPT_0x3F
                 
                 ;OPTIMIZER ADDED SUBROUTINE, CALLED 5 TIMES, CODE SIZE REDUCTION:5 WORDS
                 SUBOPT_0x4E:
002819 940e 294c 	CALL __EEPROMWRB
00281b 89e9      	LDD  R30,Y+17
00281c 89fa      	LDD  R31,Y+17+1
00281d 9508      	RET
                 
                 ;OPTIMIZER ADDED SUBROUTINE, CALLED 4 TIMES, CODE SIZE REDUCTION:3 WORDS
                 SUBOPT_0x4F:
00281e e8ac      	LDI  R26,LOW(_dia)
00281f e0b0      	LDI  R27,HIGH(_dia)
002820 940e 2940 	CALL __EEPROMRDB
002822 9508      	RET
                 
                 ;OPTIMIZER ADDED SUBROUTINE, CALLED 3 TIMES, CODE SIZE REDUCTION:1 WORDS
                 SUBOPT_0x50:
002823 0fa0      	ADD  R26,R16
002824 1fb1      	ADC  R27,R17
002825 e0e0      	LDI  R30,LOW(0)
002826 93ec      	ST   X,R30
002827 9508      	RET
                 
                 ;OPTIMIZER ADDED SUBROUTINE, CALLED 3 TIMES, CODE SIZE REDUCTION:5 WORDS
                 SUBOPT_0x51:
002828 93fa      	ST   -Y,R31
002829 93ea      	ST   -Y,R30
00282a 940e 28cb 	CALL _delay_ms
00282c 940c 185f 	JMP  _glcd_clear
                 
                 ;OPTIMIZER ADDED SUBROUTINE, CALLED 7 TIMES, CODE SIZE REDUCTION:9 WORDS
                 SUBOPT_0x52:
00282e 940e 1ba8 	CALL _buzz
002830 940c 1ba8 	JMP  _buzz
                 
                 ;OPTIMIZER ADDED SUBROUTINE, CALLED 6 TIMES, CODE SIZE REDUCTION:7 WORDS
                 SUBOPT_0x53:
002832 93fa      	ST   -Y,R31
002833 93ea      	ST   -Y,R30
002834 cdba      	RJMP SUBOPT_0x2
                 
                 ;OPTIMIZER ADDED SUBROUTINE, CALLED 3 TIMES, CODE SIZE REDUCTION:1 WORDS
                 SUBOPT_0x54:
002835 e7ef      	LDI  R30,LOW(127)
002836 e0f0      	LDI  R31,HIGH(127)
002837 93fa      	ST   -Y,R31
002838 93ea      	ST   -Y,R30
002839 9508      	RET
                 
                 ;OPTIMIZER ADDED SUBROUTINE, CALLED 3 TIMES, CODE SIZE REDUCTION:5 WORDS
                 SUBOPT_0x55:
00283a e0e7      	LDI  R30,LOW(7)
00283b e0f0      	LDI  R31,HIGH(7)
00283c 93fa      	ST   -Y,R31
00283d 93ea      	ST   -Y,R30
00283e 940c 1a8a 	JMP  _bmp_disp
                 
                 ;OPTIMIZER ADDED SUBROUTINE, CALLED 2 TIMES, CODE SIZE REDUCTION:9 WORDS
                 SUBOPT_0x56:
002840 93fa      	ST   -Y,R31
002841 93ea      	ST   -Y,R30
002842 e0e2      	LDI  R30,LOW(2)
002843 e0f0      	LDI  R31,HIGH(2)
002844 93fa      	ST   -Y,R31
002845 93ea      	ST   -Y,R30
002846 e0e0      	LDI  R30,LOW(0)
002847 93ea      	ST   -Y,R30
002848 e0e2      	LDI  R30,LOW(2)
002849 93ea      	ST   -Y,R30
00284a efef      	LDI  R30,LOW(255)
00284b 93ea      	ST   -Y,R30
00284c 940c 19d0 	JMP  _glcd_puts
                 
                 ;OPTIMIZER ADDED SUBROUTINE, CALLED 5 TIMES, CODE SIZE REDUCTION:5 WORDS
                 SUBOPT_0x57:
00284e 93fa      	ST   -Y,R31
00284f 93ea      	ST   -Y,R30
002850 cee7      	RJMP SUBOPT_0x2E
                 
                 ;OPTIMIZER ADDED SUBROUTINE, CALLED 19 TIMES, CODE SIZE REDUCTION:105 WORDS
                 SUBOPT_0x58:
002851 e0e0      	LDI  R30,LOW(0)
002852 93ea      	ST   -Y,R30
002853 e0e1      	LDI  R30,LOW(1)
002854 93ea      	ST   -Y,R30
002855 efef      	LDI  R30,LOW(255)
002856 93ea      	ST   -Y,R30
002857 940c 19d0 	JMP  _glcd_puts
                 
                 ;OPTIMIZER ADDED SUBROUTINE, CALLED 3 TIMES, CODE SIZE REDUCTION:5 WORDS
                 SUBOPT_0x59:
002859 93fa      	ST   -Y,R31
00285a 93ea      	ST   -Y,R30
00285b e0e7      	LDI  R30,LOW(7)
00285c e0f0      	LDI  R31,HIGH(7)
00285d 93fa      	ST   -Y,R31
00285e 93ea      	ST   -Y,R30
00285f 9508      	RET
                 
                 ;OPTIMIZER ADDED SUBROUTINE, CALLED 3 TIMES, CODE SIZE REDUCTION:1 WORDS
                 SUBOPT_0x5A:
002860 e9a0      	LDI  R26,LOW(_mes)
002861 e0b0      	LDI  R27,HIGH(_mes)
002862 940e 2940 	CALL __EEPROMRDB
002864 9508      	RET
                 
                 ;OPTIMIZER ADDED SUBROUTINE, CALLED 3 TIMES, CODE SIZE REDUCTION:1 WORDS
                 SUBOPT_0x5B:
002865 e9a4      	LDI  R26,LOW(_an)
002866 e0b0      	LDI  R27,HIGH(_an)
002867 940e 2940 	CALL __EEPROMRDB
002869 9508      	RET
                 
                 ;OPTIMIZER ADDED SUBROUTINE, CALLED 2 TIMES, CODE SIZE REDUCTION:1 WORDS
                 SUBOPT_0x5C:
00286a 93fa      	ST   -Y,R31
00286b 93ea      	ST   -Y,R30
00286c e0e3      	LDI  R30,LOW(3)
00286d e0f0      	LDI  R31,HIGH(3)
00286e 93fa      	ST   -Y,R31
00286f 93ea      	ST   -Y,R30
002870 9508      	RET
                 
                 ;OPTIMIZER ADDED SUBROUTINE, CALLED 12 TIMES, CODE SIZE REDUCTION:19 WORDS
                 SUBOPT_0x5D:
002871 93fa      	ST   -Y,R31
002872 93ea      	ST   -Y,R30
002873 940c 28cb 	JMP  _delay_ms
                 
                 ;OPTIMIZER ADDED SUBROUTINE, CALLED 4 TIMES, CODE SIZE REDUCTION:9 WORDS
                 SUBOPT_0x5E:
002875 e0e2      	LDI  R30,LOW(2)
002876 e0f0      	LDI  R31,HIGH(2)
002877 93fa      	ST   -Y,R31
002878 93ea      	ST   -Y,R30
002879 cfd7      	RJMP SUBOPT_0x58
                 
                 ;OPTIMIZER ADDED SUBROUTINE, CALLED 5 TIMES, CODE SIZE REDUCTION:21 WORDS
                 SUBOPT_0x5F:
00287a 93fa      	ST   -Y,R31
00287b 93ea      	ST   -Y,R30
00287c e0e4      	LDI  R30,LOW(4)
00287d e0f0      	LDI  R31,HIGH(4)
00287e 93fa      	ST   -Y,R31
00287f 93ea      	ST   -Y,R30
002880 cfd0      	RJMP SUBOPT_0x58
                 
                 ;OPTIMIZER ADDED SUBROUTINE, CALLED 3 TIMES, CODE SIZE REDUCTION:1 WORDS
                 SUBOPT_0x60:
002881 e2ec      	LDI  R30,LOW(300)
002882 e0f1      	LDI  R31,HIGH(300)
002883 cfed      	RJMP SUBOPT_0x5D
                 
                 ;OPTIMIZER ADDED SUBROUTINE, CALLED 5 TIMES, CODE SIZE REDUCTION:5 WORDS
                 SUBOPT_0x61:
002884 eee8      	LDI  R30,LOW(1000)
002885 e0f3      	LDI  R31,HIGH(1000)
002886 cfea      	RJMP SUBOPT_0x5D
                 
                 ;OPTIMIZER ADDED SUBROUTINE, CALLED 4 TIMES, CODE SIZE REDUCTION:3 WORDS
                 SUBOPT_0x62:
002887 93fa      	ST   -Y,R31
002888 93ea      	ST   -Y,R30
002889 cef4      	RJMP SUBOPT_0x35
                 
                 ;OPTIMIZER ADDED SUBROUTINE, CALLED 3 TIMES, CODE SIZE REDUCTION:1 WORDS
                 SUBOPT_0x63:
00288a 91a0 0524 	LDS  R26,_gps
00288c 91b0 0525 	LDS  R27,_gps+1
00288e 9508      	RET
                 
                 ;OPTIMIZER ADDED SUBROUTINE, CALLED 3 TIMES, CODE SIZE REDUCTION:1 WORDS
                 SUBOPT_0x64:
00288f 940e 2940 	CALL __EEPROMRDB
002891 ce8e      	RJMP SUBOPT_0x2A
                 
                 ;OPTIMIZER ADDED SUBROUTINE, CALLED 5 TIMES, CODE SIZE REDUCTION:21 WORDS
                 SUBOPT_0x65:
002892 932a      	ST   -Y,R18
002893 85ed      	LDD  R30,Y+13
002894 85fe      	LDD  R31,Y+13+1
002895 93fa      	ST   -Y,R31
002896 93ea      	ST   -Y,R30
002897 89e9      	LDD  R30,Y+17
002898 89fa      	LDD  R31,Y+17+1
002899 9509      	ICALL
00289a 9508      	RET
                 
                 ;OPTIMIZER ADDED SUBROUTINE, CALLED 5 TIMES, CODE SIZE REDUCTION:9 WORDS
                 SUBOPT_0x66:
00289b 89e8      	LDD  R30,Y+16
00289c 89f9      	LDD  R31,Y+16+1
00289d 9734      	SBIW R30,4
00289e 8be8      	STD  Y+16,R30
00289f 8bf9      	STD  Y+16+1,R31
0028a0 9508      	RET
                 
                 ;OPTIMIZER ADDED SUBROUTINE, CALLED 3 TIMES, CODE SIZE REDUCTION:7 WORDS
                 SUBOPT_0x67:
0028a1 85ed      	LDD  R30,Y+13
0028a2 85fe      	LDD  R31,Y+13+1
0028a3 93fa      	ST   -Y,R31
0028a4 93ea      	ST   -Y,R30
0028a5 89e9      	LDD  R30,Y+17
0028a6 89fa      	LDD  R31,Y+17+1
0028a7 9509      	ICALL
0028a8 9508      	RET
                 
                 ;OPTIMIZER ADDED SUBROUTINE, CALLED 2 TIMES, CODE SIZE REDUCTION:6 WORDS
                 SUBOPT_0x68:
0028a9 89a8      	LDD  R26,Y+16
0028aa 89b9      	LDD  R27,Y+16+1
0028ab 9614      	ADIW R26,4
0028ac 940e 292c 	CALL __GETW1P
0028ae 83ee      	STD  Y+6,R30
0028af 83ff      	STD  Y+6+1,R31
0028b0 93fa      	ST   -Y,R31
0028b1 93ea      	ST   -Y,R30
0028b2 9508      	RET
                 
                 ;OPTIMIZER ADDED SUBROUTINE, CALLED 2 TIMES, CODE SIZE REDUCTION:2 WORDS
                 SUBOPT_0x69:
0028b3 89a8      	LDD  R26,Y+16
0028b4 89b9      	LDD  R27,Y+16+1
0028b5 9614      	ADIW R26,4
0028b6 940e 292c 	CALL __GETW1P
0028b8 87ea      	STD  Y+10,R30
0028b9 87fb      	STD  Y+10+1,R31
0028ba 9508      	RET
                 
                 ;OPTIMIZER ADDED SUBROUTINE, CALLED 2 TIMES, CODE SIZE REDUCTION:1 WORDS
                 SUBOPT_0x6A:
0028bb 01de      	MOVW R26,R28
0028bc 961c      	ADIW R26,12
0028bd 940e 28d7 	CALL __ADDW2R15
0028bf 940e 292c 	CALL __GETW1P
0028c1 9508      	RET
                 
                 ;OPTIMIZER ADDED SUBROUTINE, CALLED 2 TIMES, CODE SIZE REDUCTION:3 WORDS
                 SUBOPT_0x6B:
0028c2 940e 28d7 	CALL __ADDW2R15
0028c4 940e 292c 	CALL __GETW1P
0028c6 93fa      	ST   -Y,R31
0028c7 93ea      	ST   -Y,R30
0028c8 931a      	ST   -Y,R17
0028c9 930a      	ST   -Y,R16
0028ca 9508      	RET
                 
                 
                 	.CSEG
                 _delay_ms:
0028cb 91e9      	ld   r30,y+
0028cc 91f9      	ld   r31,y+
0028cd 9630      	adiw r30,0
0028ce f039      	breq __delay_ms1
                 __delay_ms0:
                +
0028cf ec8d     +LDI R24 , LOW ( 0xACD )
0028d0 e09a     +LDI R25 , HIGH ( 0xACD )
                +__DELAY_USW_LOOP :
0028d1 9701     +SBIW R24 , 1
0028d2 f7f1     +BRNE __DELAY_USW_LOOP
                 	__DELAY_USW 0xACD
0028d3 95a8      	wdr
0028d4 9731      	sbiw r30,1
0028d5 f7c9      	brne __delay_ms0
                 __delay_ms1:
0028d6 9508      	ret
                 
                 __ADDW2R15:
0028d7 2400      	CLR  R0
0028d8 0daf      	ADD  R26,R15
0028d9 1db0      	ADC  R27,R0
0028da 9508      	RET
                 
                 __ANEGW1:
0028db 95f1      	NEG  R31
0028dc 95e1      	NEG  R30
0028dd 40f0      	SBCI R31,0
0028de 9508      	RET
                 
                 __LSLW3:
0028df 0fee      	LSL  R30
0028e0 1fff      	ROL  R31
                 __LSLW2:
0028e1 0fee      	LSL  R30
0028e2 1fff      	ROL  R31
0028e3 0fee      	LSL  R30
0028e4 1fff      	ROL  R31
0028e5 9508      	RET
                 
                 __CWD1:
0028e6 2f6f      	MOV  R22,R31
0028e7 0f66      	ADD  R22,R22
0028e8 0b66      	SBC  R22,R22
0028e9 2f76      	MOV  R23,R22
0028ea 9508      	RET
                 
                 __MULW12U:
0028eb 9ffa      	MUL  R31,R26
0028ec 2df0      	MOV  R31,R0
0028ed 9feb      	MUL  R30,R27
0028ee 0df0      	ADD  R31,R0
0028ef 9fea      	MUL  R30,R26
0028f0 2de0      	MOV  R30,R0
0028f1 0df1      	ADD  R31,R1
0028f2 9508      	RET
                 
                 __MULW12:
0028f3 d02a      	RCALL __CHKSIGNW
0028f4 dff6      	RCALL __MULW12U
0028f5 f40e      	BRTC __MULW121
0028f6 dfe4      	RCALL __ANEGW1
                 __MULW121:
0028f7 9508      	RET
                 
                 __DIVW21U:
0028f8 2400      	CLR  R0
0028f9 2411      	CLR  R1
0028fa e190      	LDI  R25,16
                 __DIVW21U1:
0028fb 0faa      	LSL  R26
0028fc 1fbb      	ROL  R27
0028fd 1c00      	ROL  R0
0028fe 1c11      	ROL  R1
0028ff 1a0e      	SUB  R0,R30
002900 0a1f      	SBC  R1,R31
002901 f418      	BRCC __DIVW21U2
002902 0e0e      	ADD  R0,R30
002903 1e1f      	ADC  R1,R31
002904 c001      	RJMP __DIVW21U3
                 __DIVW21U2:
002905 60a1      	SBR  R26,1
                 __DIVW21U3:
002906 959a      	DEC  R25
002907 f799      	BRNE __DIVW21U1
002908 01fd      	MOVW R30,R26
002909 01d0      	MOVW R26,R0
00290a 9508      	RET
                 
                 __DIVW21:
00290b d012      	RCALL __CHKSIGNW
00290c dfeb      	RCALL __DIVW21U
00290d f40e      	BRTC __DIVW211
00290e dfcc      	RCALL __ANEGW1
                 __DIVW211:
00290f 9508      	RET
                 
                 __MODW21:
002910 94e8      	CLT
002911 ffb7      	SBRS R27,7
002912 c004      	RJMP __MODW211
002913 95a0      	COM  R26
002914 95b0      	COM  R27
002915 9611      	ADIW R26,1
002916 9468      	SET
                 __MODW211:
002917 fdf7      	SBRC R31,7
002918 dfc2      	RCALL __ANEGW1
002919 dfde      	RCALL __DIVW21U
00291a 01fd      	MOVW R30,R26
00291b f40e      	BRTC __MODW212
00291c dfbe      	RCALL __ANEGW1
                 __MODW212:
00291d 9508      	RET
                 
                 __CHKSIGNW:
00291e 94e8      	CLT
00291f fff7      	SBRS R31,7
002920 c002      	RJMP __CHKSW1
002921 dfb9      	RCALL __ANEGW1
002922 9468      	SET
                 __CHKSW1:
002923 ffb7      	SBRS R27,7
002924 c006      	RJMP __CHKSW2
002925 95a0      	COM  R26
002926 95b0      	COM  R27
002927 9611      	ADIW R26,1
002928 f800      	BLD  R0,0
002929 9403      	INC  R0
00292a fa00      	BST  R0,0
                 __CHKSW2:
00292b 9508      	RET
                 
                 __GETW1P:
00292c 91ed      	LD   R30,X+
00292d 91fc      	LD   R31,X
00292e 9711      	SBIW R26,1
00292f 9508      	RET
                 
                 __GETW1PF:
002930 9005      	LPM  R0,Z+
002931 91f4      	LPM  R31,Z
002932 2de0      	MOV  R30,R0
002933 9508      	RET
                 
                 __PUTPARD1:
002934 937a      	ST   -Y,R23
002935 936a      	ST   -Y,R22
002936 93fa      	ST   -Y,R31
002937 93ea      	ST   -Y,R30
002938 9508      	RET
                 
                 __SWAPW12:
002939 2e1b      	MOV  R1,R27
00293a 2fbf      	MOV  R27,R31
00293b 2df1      	MOV  R31,R1
                 
                 __SWAPB12:
00293c 2e1a      	MOV  R1,R26
00293d 2fae      	MOV  R26,R30
00293e 2de1      	MOV  R30,R1
00293f 9508      	RET
                 
                 __EEPROMRDB:
002940 99f9      	SBIC EECR,EEWE
002941 cffe      	RJMP __EEPROMRDB
002942 93ff      	PUSH R31
002943 b7ff      	IN   R31,SREG
002944 94f8      	CLI
002945 bda1      	OUT  EEARL,R26
002946 bdb2      	OUT  EEARH,R27
002947 9af8      	SBI  EECR,EERE
002948 b5e0      	IN   R30,EEDR
002949 bfff      	OUT  SREG,R31
00294a 91ff      	POP  R31
00294b 9508      	RET
                 
                 __EEPROMWRB:
00294c 9bf9      	SBIS EECR,EEWE
00294d c002      	RJMP __EEPROMWRB1
00294e 95a8      	WDR
00294f cffc      	RJMP __EEPROMWRB
                 __EEPROMWRB1:
002950 b79f      	IN   R25,SREG
002951 94f8      	CLI
002952 bda1      	OUT  EEARL,R26
002953 bdb2      	OUT  EEARH,R27
002954 9af8      	SBI  EECR,EERE
002955 b580      	IN   R24,EEDR
002956 17e8      	CP   R30,R24
002957 f019      	BREQ __EEPROMWRB0
002958 bde0      	OUT  EEDR,R30
002959 9afa      	SBI  EECR,EEMWE
00295a 9af9      	SBI  EECR,EEWE
                 __EEPROMWRB0:
00295b bf9f      	OUT  SREG,R25
00295c 9508      	RET
                 
                 __SAVELOCR6:
00295d 935a      	ST   -Y,R21
                 __SAVELOCR5:
00295e 934a      	ST   -Y,R20
                 __SAVELOCR4:
00295f 933a      	ST   -Y,R19
                 __SAVELOCR3:
002960 932a      	ST   -Y,R18
                 __SAVELOCR2:
002961 931a      	ST   -Y,R17
002962 930a      	ST   -Y,R16
002963 9508      	RET
                 
                 __LOADLOCR6:
002964 815d      	LDD  R21,Y+5
                 __LOADLOCR5:
002965 814c      	LDD  R20,Y+4
                 __LOADLOCR4:
002966 813b      	LDD  R19,Y+3
                 __LOADLOCR3:
002967 812a      	LDD  R18,Y+2
                 __LOADLOCR2:
002968 8119      	LDD  R17,Y+1
002969 8108      	LD   R16,Y
00296a 9508      	RET
                 
                 ;END OF CODE MARKER
                 __END_OF_CODE:


RESOURCE USE INFORMATION
------------------------

Notice:
The register and instruction counts are symbol table hit counts,
and hence implicitly used resources are not counted, eg, the
'lpm' instruction without operands implicitly uses r0 and z,
none of which are counted.

x,y,z are separate entities in the symbol table and are
counted separately from r26..r31 here.

.dseg memory usage only counts static data declared with .byte

ATmega324P register use summary:
r0 :  40 r1 :  12 r2 :   0 r3 :   1 r4 :   6 r5 :   0 r6 :   5 r7 :   3 
r8 :   4 r9 :   5 r10:   3 r11:   5 r12:   5 r13:   0 r14:   4 r15:   9 
r16: 106 r17:  95 r18:  38 r19:  19 r20:  24 r21:  30 r22:  28 r23:  14 
r24:  32 r25:  11 r26: 465 r27: 173 r28:  51 r29:   1 r30:1047 r31: 486 
x  :  34 y  : 622 z  :  55 
Registers used: 32 out of 35 (91.4%)

ATmega324P instruction use summary:
.lds  :   0 .lds.l:   0 .sts  :   0 .sts.l:   0 adc   :  29 add   :  34 
adiw  :  64 and   :   0 andi  :  10 asr   :   2 bclr  :   0 bld   :   1 
brbc  :   0 brbs  :   0 brcc  :   1 brcs  :   0 break :   0 breq  :  58 
brge  :  11 brhc  :   0 brhs  :   0 brid  :   0 brie  :   0 brlo  :  34 
brlt  :  12 brmi  :   3 brne  : 143 brpl  :   2 brsh  :  13 brtc  :   3 
brts  :   0 brvc  :   0 brvs  :   0 bset  :   0 bst   :   1 call  : 565 
cbi   :  12 cbr   :   1 clc   :   0 clh   :   0 cli   :   3 cln   :   0 
clr   :  50 cls   :   0 clt   :   2 clv   :   0 clz   :   0 com   :   4 
cp    :  29 cpc   :  46 cpi   : 191 cpse  :   0 dec   :   4 des   :   0 
eor   :   0 fmul  :   0 fmuls :   0 fmulsu:   0 icall :   2 ijmp  :   0 
in    :   7 inc   :   5 jmp   :  66 ld    :  79 ldd   : 240 ldi   : 655 
lds   :  82 lpm   :  28 lsl   :   4 lsr   :   0 mov   :  48 movw  :  71 
mul   :   6 muls  :   4 mulsu :   0 neg   :   2 nop   :   0 or    :   0 
ori   :   9 out   :  33 pop   :   3 push  :   3 rcall :  46 ret   : 123 
reti  :   2 rjmp  : 211 rol   :   6 ror   :   2 sbc   :   6 sbci  :  65 
sbi   :  16 sbic  :   7 sbis  :   9 sbiw  :  49 sbr   :   1 sbrc  :   4 
sbrs  :  13 sec   :   0 seh   :   0 sei   :   1 sen   :   0 ser   :   1 
ses   :   0 set   :   2 sev   :   0 sez   :   0 sleep :   0 spm   :   0 
st    : 293 std   :  80 sts   :  81 sub   :   5 subi  :  95 swap  :   0 
tst   :   7 wdr   :   3 
Instructions used: 72 out of 116 (62.1%)

ATmega324P memory use summary [bytes]:
Segment   Begin    End      Code   Data   Used    Size   Use%
---------------------------------------------------------------
[.cseg] 0x000000 0x0052d6   9176  12030  21206   32768  64.7%
[.dseg] 0x000100 0x00055d      0    605    605    2048  29.5%
[.eseg] 0x000000 0x000097      0     14     14    1024   1.4%

Assembly complete, 0 errors, 15 warnings
